ARM GAS  C:\Users\tomra\AppData\Local\Temp\ccfHtaWb.s 			page 1


   1              		.cpu cortex-m4
   2              		.eabi_attribute 27, 1
   3              		.eabi_attribute 28, 1
   4              		.eabi_attribute 20, 1
   5              		.eabi_attribute 21, 1
   6              		.eabi_attribute 23, 3
   7              		.eabi_attribute 24, 1
   8              		.eabi_attribute 25, 1
   9              		.eabi_attribute 26, 1
  10              		.eabi_attribute 30, 1
  11              		.eabi_attribute 34, 1
  12              		.eabi_attribute 18, 4
  13              		.file	"uart.c"
  14              		.text
  15              	.Ltext0:
  16              		.cfi_sections	.debug_frame
  17              		.section	.text.USB_UART_Init,"ax",%progbits
  18              		.align	1
  19              		.global	USB_UART_Init
  20              		.arch armv7e-m
  21              		.syntax unified
  22              		.thumb
  23              		.thumb_func
  24              		.fpu fpv4-sp-d16
  26              	USB_UART_Init:
  27              	.LVL0:
  28              	.LFB131:
  29              		.file 1 "../../../core/platform/octa/src/uart.c"
   1:../../../core/platform/octa/src/uart.c **** #include "platform.h"
   2:../../../core/platform/octa/src/uart.c **** 
   3:../../../core/platform/octa/src/uart.c **** static void (*P1_Shield_UART_RX_Callback)(void) = 0;
   4:../../../core/platform/octa/src/uart.c **** static void (*P1_Application_UART_RX_Callback)(void) = 0;
   5:../../../core/platform/octa/src/uart.c **** static void (*P2_Shield_UART_RX_Callback)(void) = 0;
   6:../../../core/platform/octa/src/uart.c **** static void (*P2_Application_UART_RX_Callback)(void) = 0;
   7:../../../core/platform/octa/src/uart.c **** static void (*P3_Shield_UART_RX_Callback)(void) = 0;
   8:../../../core/platform/octa/src/uart.c **** static void (*P3_Application_UART_RX_Callback)(void) = 0;
   9:../../../core/platform/octa/src/uart.c **** static void (*BLE_UART_RX_Callback)(void) = 0;
  10:../../../core/platform/octa/src/uart.c **** static void (*USB_UART_RX_Callback)(void) = 0;
  11:../../../core/platform/octa/src/uart.c **** static void (*FTDI_UART_RX_Callback)(void) = 0;
  12:../../../core/platform/octa/src/uart.c **** 
  13:../../../core/platform/octa/src/uart.c **** void USB_UART_Init(uint32_t aBaudRate)
  14:../../../core/platform/octa/src/uart.c **** {
  30              		.loc 1 14 1 view -0
  31              		.cfi_startproc
  32              		@ args = 0, pretend = 0, frame = 0
  33              		@ frame_needed = 0, uses_anonymous_args = 0
  34              		.loc 1 14 1 is_stmt 0 view .LVU1
  35 0000 08B5     		push	{r3, lr}
  36              	.LCFI0:
  37              		.cfi_def_cfa_offset 8
  38              		.cfi_offset 3, -8
  39              		.cfi_offset 14, -4
  15:../../../core/platform/octa/src/uart.c ****   USB_UART.Instance = LPUART1;
  40              		.loc 1 15 3 is_stmt 1 view .LVU2
  41              		.loc 1 15 21 is_stmt 0 view .LVU3
  42 0002 0A4B     		ldr	r3, .L5
  43 0004 0A4A     		ldr	r2, .L5+4
ARM GAS  C:\Users\tomra\AppData\Local\Temp\ccfHtaWb.s 			page 2


  44 0006 1A60     		str	r2, [r3]
  16:../../../core/platform/octa/src/uart.c ****   USB_UART.Init.BaudRate = aBaudRate;
  45              		.loc 1 16 3 is_stmt 1 view .LVU4
  46              		.loc 1 16 26 is_stmt 0 view .LVU5
  47 0008 5860     		str	r0, [r3, #4]
  17:../../../core/platform/octa/src/uart.c ****   USB_UART.Init.WordLength = UART_WORDLENGTH_8B;
  48              		.loc 1 17 3 is_stmt 1 view .LVU6
  49              		.loc 1 17 28 is_stmt 0 view .LVU7
  50 000a 0022     		movs	r2, #0
  51 000c 9A60     		str	r2, [r3, #8]
  18:../../../core/platform/octa/src/uart.c ****   USB_UART.Init.StopBits = UART_STOPBITS_1;
  52              		.loc 1 18 3 is_stmt 1 view .LVU8
  53              		.loc 1 18 26 is_stmt 0 view .LVU9
  54 000e DA60     		str	r2, [r3, #12]
  19:../../../core/platform/octa/src/uart.c ****   USB_UART.Init.Parity = UART_PARITY_NONE;
  55              		.loc 1 19 3 is_stmt 1 view .LVU10
  56              		.loc 1 19 24 is_stmt 0 view .LVU11
  57 0010 1A61     		str	r2, [r3, #16]
  20:../../../core/platform/octa/src/uart.c ****   USB_UART.Init.Mode = UART_MODE_TX_RX;
  58              		.loc 1 20 3 is_stmt 1 view .LVU12
  59              		.loc 1 20 22 is_stmt 0 view .LVU13
  60 0012 0C21     		movs	r1, #12
  61 0014 5961     		str	r1, [r3, #20]
  21:../../../core/platform/octa/src/uart.c ****   USB_UART.Init.HwFlowCtl = UART_HWCONTROL_NONE;
  62              		.loc 1 21 3 is_stmt 1 view .LVU14
  63              		.loc 1 21 27 is_stmt 0 view .LVU15
  64 0016 9A61     		str	r2, [r3, #24]
  22:../../../core/platform/octa/src/uart.c ****   USB_UART.Init.OneBitSampling = UART_ONE_BIT_SAMPLE_DISABLE;
  65              		.loc 1 22 3 is_stmt 1 view .LVU16
  66              		.loc 1 22 32 is_stmt 0 view .LVU17
  67 0018 1A62     		str	r2, [r3, #32]
  23:../../../core/platform/octa/src/uart.c ****   USB_UART.AdvancedInit.AdvFeatureInit = UART_ADVFEATURE_NO_INIT;
  68              		.loc 1 23 3 is_stmt 1 view .LVU18
  69              		.loc 1 23 40 is_stmt 0 view .LVU19
  70 001a 5A62     		str	r2, [r3, #36]
  24:../../../core/platform/octa/src/uart.c ****   if (HAL_UART_Init(&USB_UART) != HAL_OK)
  71              		.loc 1 24 3 is_stmt 1 view .LVU20
  72              		.loc 1 24 7 is_stmt 0 view .LVU21
  73 001c 1846     		mov	r0, r3
  74              	.LVL1:
  75              		.loc 1 24 7 view .LVU22
  76 001e FFF7FEFF 		bl	HAL_UART_Init
  77              	.LVL2:
  78              		.loc 1 24 6 view .LVU23
  79 0022 00B9     		cbnz	r0, .L4
  80              	.L1:
  25:../../../core/platform/octa/src/uart.c ****   {
  26:../../../core/platform/octa/src/uart.c ****     Error_Handler();
  27:../../../core/platform/octa/src/uart.c ****   }
  28:../../../core/platform/octa/src/uart.c **** }
  81              		.loc 1 28 1 view .LVU24
  82 0024 08BD     		pop	{r3, pc}
  83              	.L4:
  26:../../../core/platform/octa/src/uart.c ****   }
  84              		.loc 1 26 5 is_stmt 1 view .LVU25
  85 0026 FFF7FEFF 		bl	Error_Handler
  86              	.LVL3:
ARM GAS  C:\Users\tomra\AppData\Local\Temp\ccfHtaWb.s 			page 3


  87              		.loc 1 28 1 is_stmt 0 view .LVU26
  88 002a FBE7     		b	.L1
  89              	.L6:
  90              		.align	2
  91              	.L5:
  92 002c 00000000 		.word	USB_UART
  93 0030 00800040 		.word	1073774592
  94              		.cfi_endproc
  95              	.LFE131:
  97              		.section	.text.P1_UART_Init,"ax",%progbits
  98              		.align	1
  99              		.global	P1_UART_Init
 100              		.syntax unified
 101              		.thumb
 102              		.thumb_func
 103              		.fpu fpv4-sp-d16
 105              	P1_UART_Init:
 106              	.LVL4:
 107              	.LFB132:
  29:../../../core/platform/octa/src/uart.c **** 
  30:../../../core/platform/octa/src/uart.c **** void P1_UART_Init(uint32_t aBaudRate)
  31:../../../core/platform/octa/src/uart.c **** {
 108              		.loc 1 31 1 is_stmt 1 view -0
 109              		.cfi_startproc
 110              		@ args = 0, pretend = 0, frame = 0
 111              		@ frame_needed = 0, uses_anonymous_args = 0
 112              		.loc 1 31 1 is_stmt 0 view .LVU28
 113 0000 08B5     		push	{r3, lr}
 114              	.LCFI1:
 115              		.cfi_def_cfa_offset 8
 116              		.cfi_offset 3, -8
 117              		.cfi_offset 14, -4
  32:../../../core/platform/octa/src/uart.c ****   P1_UART.Instance = UART5;
 118              		.loc 1 32 3 is_stmt 1 view .LVU29
 119              		.loc 1 32 20 is_stmt 0 view .LVU30
 120 0002 0F4B     		ldr	r3, .L11
 121 0004 0F4A     		ldr	r2, .L11+4
 122 0006 1A60     		str	r2, [r3]
  33:../../../core/platform/octa/src/uart.c ****   P1_UART.Init.BaudRate = aBaudRate;
 123              		.loc 1 33 3 is_stmt 1 view .LVU31
 124              		.loc 1 33 25 is_stmt 0 view .LVU32
 125 0008 5860     		str	r0, [r3, #4]
  34:../../../core/platform/octa/src/uart.c ****   P1_UART.Init.WordLength = UART_WORDLENGTH_8B;
 126              		.loc 1 34 3 is_stmt 1 view .LVU33
 127              		.loc 1 34 27 is_stmt 0 view .LVU34
 128 000a 0022     		movs	r2, #0
 129 000c 9A60     		str	r2, [r3, #8]
  35:../../../core/platform/octa/src/uart.c ****   P1_UART.Init.StopBits = UART_STOPBITS_1;
 130              		.loc 1 35 3 is_stmt 1 view .LVU35
 131              		.loc 1 35 25 is_stmt 0 view .LVU36
 132 000e DA60     		str	r2, [r3, #12]
  36:../../../core/platform/octa/src/uart.c ****   P1_UART.Init.Parity = UART_PARITY_NONE;
 133              		.loc 1 36 3 is_stmt 1 view .LVU37
 134              		.loc 1 36 23 is_stmt 0 view .LVU38
 135 0010 1A61     		str	r2, [r3, #16]
  37:../../../core/platform/octa/src/uart.c ****   P1_UART.Init.Mode = UART_MODE_TX_RX;
 136              		.loc 1 37 3 is_stmt 1 view .LVU39
ARM GAS  C:\Users\tomra\AppData\Local\Temp\ccfHtaWb.s 			page 4


 137              		.loc 1 37 21 is_stmt 0 view .LVU40
 138 0012 0C21     		movs	r1, #12
 139 0014 5961     		str	r1, [r3, #20]
  38:../../../core/platform/octa/src/uart.c ****   P1_UART.Init.HwFlowCtl = UART_HWCONTROL_NONE;
 140              		.loc 1 38 3 is_stmt 1 view .LVU41
 141              		.loc 1 38 26 is_stmt 0 view .LVU42
 142 0016 9A61     		str	r2, [r3, #24]
  39:../../../core/platform/octa/src/uart.c ****   P1_UART.Init.OverSampling = UART_OVERSAMPLING_16;
 143              		.loc 1 39 3 is_stmt 1 view .LVU43
 144              		.loc 1 39 29 is_stmt 0 view .LVU44
 145 0018 DA61     		str	r2, [r3, #28]
  40:../../../core/platform/octa/src/uart.c ****   P1_UART.Init.OneBitSampling = UART_ONE_BIT_SAMPLE_DISABLE;
 146              		.loc 1 40 3 is_stmt 1 view .LVU45
 147              		.loc 1 40 31 is_stmt 0 view .LVU46
 148 001a 1A62     		str	r2, [r3, #32]
  41:../../../core/platform/octa/src/uart.c ****   P1_UART.AdvancedInit.AdvFeatureInit = UART_ADVFEATURE_NO_INIT;
 149              		.loc 1 41 3 is_stmt 1 view .LVU47
 150              		.loc 1 41 39 is_stmt 0 view .LVU48
 151 001c 5A62     		str	r2, [r3, #36]
  42:../../../core/platform/octa/src/uart.c ****   if (HAL_UART_Init(&P1_UART) != HAL_OK)
 152              		.loc 1 42 3 is_stmt 1 view .LVU49
 153              		.loc 1 42 7 is_stmt 0 view .LVU50
 154 001e 1846     		mov	r0, r3
 155              	.LVL5:
 156              		.loc 1 42 7 view .LVU51
 157 0020 FFF7FEFF 		bl	HAL_UART_Init
 158              	.LVL6:
 159              		.loc 1 42 6 view .LVU52
 160 0024 40B9     		cbnz	r0, .L10
 161              	.L8:
  43:../../../core/platform/octa/src/uart.c ****   {
  44:../../../core/platform/octa/src/uart.c ****     Error_Handler();
  45:../../../core/platform/octa/src/uart.c ****   }
  46:../../../core/platform/octa/src/uart.c ****   HAL_NVIC_SetPriority(UART5_IRQn, 7, 0);
 162              		.loc 1 46 3 is_stmt 1 view .LVU53
 163 0026 0022     		movs	r2, #0
 164 0028 0721     		movs	r1, #7
 165 002a 3520     		movs	r0, #53
 166 002c FFF7FEFF 		bl	HAL_NVIC_SetPriority
 167              	.LVL7:
  47:../../../core/platform/octa/src/uart.c ****   HAL_NVIC_EnableIRQ(UART5_IRQn);
 168              		.loc 1 47 3 view .LVU54
 169 0030 3520     		movs	r0, #53
 170 0032 FFF7FEFF 		bl	HAL_NVIC_EnableIRQ
 171              	.LVL8:
  48:../../../core/platform/octa/src/uart.c **** }
 172              		.loc 1 48 1 is_stmt 0 view .LVU55
 173 0036 08BD     		pop	{r3, pc}
 174              	.L10:
  44:../../../core/platform/octa/src/uart.c ****   }
 175              		.loc 1 44 5 is_stmt 1 view .LVU56
 176 0038 FFF7FEFF 		bl	Error_Handler
 177              	.LVL9:
 178 003c F3E7     		b	.L8
 179              	.L12:
 180 003e 00BF     		.align	2
 181              	.L11:
ARM GAS  C:\Users\tomra\AppData\Local\Temp\ccfHtaWb.s 			page 5


 182 0040 00000000 		.word	P1_UART
 183 0044 00500040 		.word	1073762304
 184              		.cfi_endproc
 185              	.LFE132:
 187              		.section	.text.P2_UART_Init,"ax",%progbits
 188              		.align	1
 189              		.global	P2_UART_Init
 190              		.syntax unified
 191              		.thumb
 192              		.thumb_func
 193              		.fpu fpv4-sp-d16
 195              	P2_UART_Init:
 196              	.LVL10:
 197              	.LFB133:
  49:../../../core/platform/octa/src/uart.c **** 
  50:../../../core/platform/octa/src/uart.c **** void P2_UART_Init(uint32_t aBaudRate)
  51:../../../core/platform/octa/src/uart.c **** {
 198              		.loc 1 51 1 view -0
 199              		.cfi_startproc
 200              		@ args = 0, pretend = 0, frame = 0
 201              		@ frame_needed = 0, uses_anonymous_args = 0
 202              		.loc 1 51 1 is_stmt 0 view .LVU58
 203 0000 08B5     		push	{r3, lr}
 204              	.LCFI2:
 205              		.cfi_def_cfa_offset 8
 206              		.cfi_offset 3, -8
 207              		.cfi_offset 14, -4
  52:../../../core/platform/octa/src/uart.c ****   P2_UART.Instance = USART2;
 208              		.loc 1 52 3 is_stmt 1 view .LVU59
 209              		.loc 1 52 20 is_stmt 0 view .LVU60
 210 0002 0F4B     		ldr	r3, .L17
 211 0004 0F4A     		ldr	r2, .L17+4
 212 0006 1A60     		str	r2, [r3]
  53:../../../core/platform/octa/src/uart.c ****   P2_UART.Init.BaudRate = aBaudRate;
 213              		.loc 1 53 3 is_stmt 1 view .LVU61
 214              		.loc 1 53 25 is_stmt 0 view .LVU62
 215 0008 5860     		str	r0, [r3, #4]
  54:../../../core/platform/octa/src/uart.c ****   P2_UART.Init.WordLength = UART_WORDLENGTH_8B;
 216              		.loc 1 54 3 is_stmt 1 view .LVU63
 217              		.loc 1 54 27 is_stmt 0 view .LVU64
 218 000a 0022     		movs	r2, #0
 219 000c 9A60     		str	r2, [r3, #8]
  55:../../../core/platform/octa/src/uart.c ****   P2_UART.Init.StopBits = UART_STOPBITS_1;
 220              		.loc 1 55 3 is_stmt 1 view .LVU65
 221              		.loc 1 55 25 is_stmt 0 view .LVU66
 222 000e DA60     		str	r2, [r3, #12]
  56:../../../core/platform/octa/src/uart.c ****   P2_UART.Init.Parity = UART_PARITY_NONE;
 223              		.loc 1 56 3 is_stmt 1 view .LVU67
 224              		.loc 1 56 23 is_stmt 0 view .LVU68
 225 0010 1A61     		str	r2, [r3, #16]
  57:../../../core/platform/octa/src/uart.c ****   P2_UART.Init.Mode = UART_MODE_TX_RX;
 226              		.loc 1 57 3 is_stmt 1 view .LVU69
 227              		.loc 1 57 21 is_stmt 0 view .LVU70
 228 0012 0C21     		movs	r1, #12
 229 0014 5961     		str	r1, [r3, #20]
  58:../../../core/platform/octa/src/uart.c ****   P2_UART.Init.HwFlowCtl = UART_HWCONTROL_NONE;
 230              		.loc 1 58 3 is_stmt 1 view .LVU71
ARM GAS  C:\Users\tomra\AppData\Local\Temp\ccfHtaWb.s 			page 6


 231              		.loc 1 58 26 is_stmt 0 view .LVU72
 232 0016 9A61     		str	r2, [r3, #24]
  59:../../../core/platform/octa/src/uart.c ****   P2_UART.Init.OverSampling = UART_OVERSAMPLING_16;
 233              		.loc 1 59 3 is_stmt 1 view .LVU73
 234              		.loc 1 59 29 is_stmt 0 view .LVU74
 235 0018 DA61     		str	r2, [r3, #28]
  60:../../../core/platform/octa/src/uart.c ****   P2_UART.Init.OneBitSampling = UART_ONE_BIT_SAMPLE_DISABLE;
 236              		.loc 1 60 3 is_stmt 1 view .LVU75
 237              		.loc 1 60 31 is_stmt 0 view .LVU76
 238 001a 1A62     		str	r2, [r3, #32]
  61:../../../core/platform/octa/src/uart.c ****   P2_UART.AdvancedInit.AdvFeatureInit = UART_ADVFEATURE_NO_INIT;
 239              		.loc 1 61 3 is_stmt 1 view .LVU77
 240              		.loc 1 61 39 is_stmt 0 view .LVU78
 241 001c 5A62     		str	r2, [r3, #36]
  62:../../../core/platform/octa/src/uart.c ****   if (HAL_UART_Init(&P2_UART) != HAL_OK)
 242              		.loc 1 62 3 is_stmt 1 view .LVU79
 243              		.loc 1 62 7 is_stmt 0 view .LVU80
 244 001e 1846     		mov	r0, r3
 245              	.LVL11:
 246              		.loc 1 62 7 view .LVU81
 247 0020 FFF7FEFF 		bl	HAL_UART_Init
 248              	.LVL12:
 249              		.loc 1 62 6 view .LVU82
 250 0024 40B9     		cbnz	r0, .L16
 251              	.L14:
  63:../../../core/platform/octa/src/uart.c ****   {
  64:../../../core/platform/octa/src/uart.c ****     Error_Handler();
  65:../../../core/platform/octa/src/uart.c ****   }
  66:../../../core/platform/octa/src/uart.c ****   HAL_NVIC_SetPriority(USART2_IRQn, 7, 0);
 252              		.loc 1 66 3 is_stmt 1 view .LVU83
 253 0026 0022     		movs	r2, #0
 254 0028 0721     		movs	r1, #7
 255 002a 2620     		movs	r0, #38
 256 002c FFF7FEFF 		bl	HAL_NVIC_SetPriority
 257              	.LVL13:
  67:../../../core/platform/octa/src/uart.c ****   HAL_NVIC_EnableIRQ(USART2_IRQn);
 258              		.loc 1 67 3 view .LVU84
 259 0030 2620     		movs	r0, #38
 260 0032 FFF7FEFF 		bl	HAL_NVIC_EnableIRQ
 261              	.LVL14:
  68:../../../core/platform/octa/src/uart.c **** }
 262              		.loc 1 68 1 is_stmt 0 view .LVU85
 263 0036 08BD     		pop	{r3, pc}
 264              	.L16:
  64:../../../core/platform/octa/src/uart.c ****   }
 265              		.loc 1 64 5 is_stmt 1 view .LVU86
 266 0038 FFF7FEFF 		bl	Error_Handler
 267              	.LVL15:
 268 003c F3E7     		b	.L14
 269              	.L18:
 270 003e 00BF     		.align	2
 271              	.L17:
 272 0040 00000000 		.word	P2_UART
 273 0044 00440040 		.word	1073759232
 274              		.cfi_endproc
 275              	.LFE133:
 277              		.section	.text.P3_UART_Init,"ax",%progbits
ARM GAS  C:\Users\tomra\AppData\Local\Temp\ccfHtaWb.s 			page 7


 278              		.align	1
 279              		.global	P3_UART_Init
 280              		.syntax unified
 281              		.thumb
 282              		.thumb_func
 283              		.fpu fpv4-sp-d16
 285              	P3_UART_Init:
 286              	.LVL16:
 287              	.LFB134:
  69:../../../core/platform/octa/src/uart.c **** 
  70:../../../core/platform/octa/src/uart.c **** void P3_UART_Init(uint32_t aBaudRate)
  71:../../../core/platform/octa/src/uart.c **** {
 288              		.loc 1 71 1 view -0
 289              		.cfi_startproc
 290              		@ args = 0, pretend = 0, frame = 0
 291              		@ frame_needed = 0, uses_anonymous_args = 0
 292              		.loc 1 71 1 is_stmt 0 view .LVU88
 293 0000 08B5     		push	{r3, lr}
 294              	.LCFI3:
 295              		.cfi_def_cfa_offset 8
 296              		.cfi_offset 3, -8
 297              		.cfi_offset 14, -4
  72:../../../core/platform/octa/src/uart.c ****   P3_UART.Instance = USART3;
 298              		.loc 1 72 3 is_stmt 1 view .LVU89
 299              		.loc 1 72 20 is_stmt 0 view .LVU90
 300 0002 0F4B     		ldr	r3, .L23
 301 0004 0F4A     		ldr	r2, .L23+4
 302 0006 1A60     		str	r2, [r3]
  73:../../../core/platform/octa/src/uart.c ****   P3_UART.Init.BaudRate = aBaudRate;
 303              		.loc 1 73 3 is_stmt 1 view .LVU91
 304              		.loc 1 73 25 is_stmt 0 view .LVU92
 305 0008 5860     		str	r0, [r3, #4]
  74:../../../core/platform/octa/src/uart.c ****   P3_UART.Init.WordLength = UART_WORDLENGTH_8B;
 306              		.loc 1 74 3 is_stmt 1 view .LVU93
 307              		.loc 1 74 27 is_stmt 0 view .LVU94
 308 000a 0022     		movs	r2, #0
 309 000c 9A60     		str	r2, [r3, #8]
  75:../../../core/platform/octa/src/uart.c ****   P3_UART.Init.StopBits = UART_STOPBITS_1;
 310              		.loc 1 75 3 is_stmt 1 view .LVU95
 311              		.loc 1 75 25 is_stmt 0 view .LVU96
 312 000e DA60     		str	r2, [r3, #12]
  76:../../../core/platform/octa/src/uart.c ****   P3_UART.Init.Parity = UART_PARITY_NONE;
 313              		.loc 1 76 3 is_stmt 1 view .LVU97
 314              		.loc 1 76 23 is_stmt 0 view .LVU98
 315 0010 1A61     		str	r2, [r3, #16]
  77:../../../core/platform/octa/src/uart.c ****   P3_UART.Init.Mode = UART_MODE_TX_RX;
 316              		.loc 1 77 3 is_stmt 1 view .LVU99
 317              		.loc 1 77 21 is_stmt 0 view .LVU100
 318 0012 0C21     		movs	r1, #12
 319 0014 5961     		str	r1, [r3, #20]
  78:../../../core/platform/octa/src/uart.c ****   P3_UART.Init.HwFlowCtl = UART_HWCONTROL_NONE;
 320              		.loc 1 78 3 is_stmt 1 view .LVU101
 321              		.loc 1 78 26 is_stmt 0 view .LVU102
 322 0016 9A61     		str	r2, [r3, #24]
  79:../../../core/platform/octa/src/uart.c ****   P3_UART.Init.OverSampling = UART_OVERSAMPLING_16;
 323              		.loc 1 79 3 is_stmt 1 view .LVU103
 324              		.loc 1 79 29 is_stmt 0 view .LVU104
ARM GAS  C:\Users\tomra\AppData\Local\Temp\ccfHtaWb.s 			page 8


 325 0018 DA61     		str	r2, [r3, #28]
  80:../../../core/platform/octa/src/uart.c ****   P3_UART.Init.OneBitSampling = UART_ONE_BIT_SAMPLE_DISABLE;
 326              		.loc 1 80 3 is_stmt 1 view .LVU105
 327              		.loc 1 80 31 is_stmt 0 view .LVU106
 328 001a 1A62     		str	r2, [r3, #32]
  81:../../../core/platform/octa/src/uart.c ****   P3_UART.AdvancedInit.AdvFeatureInit = UART_ADVFEATURE_NO_INIT;
 329              		.loc 1 81 3 is_stmt 1 view .LVU107
 330              		.loc 1 81 39 is_stmt 0 view .LVU108
 331 001c 5A62     		str	r2, [r3, #36]
  82:../../../core/platform/octa/src/uart.c ****   if (HAL_UART_Init(&P3_UART) != HAL_OK)
 332              		.loc 1 82 3 is_stmt 1 view .LVU109
 333              		.loc 1 82 7 is_stmt 0 view .LVU110
 334 001e 1846     		mov	r0, r3
 335              	.LVL17:
 336              		.loc 1 82 7 view .LVU111
 337 0020 FFF7FEFF 		bl	HAL_UART_Init
 338              	.LVL18:
 339              		.loc 1 82 6 view .LVU112
 340 0024 40B9     		cbnz	r0, .L22
 341              	.L20:
  83:../../../core/platform/octa/src/uart.c ****   {
  84:../../../core/platform/octa/src/uart.c ****     Error_Handler();
  85:../../../core/platform/octa/src/uart.c ****   }
  86:../../../core/platform/octa/src/uart.c ****   HAL_NVIC_SetPriority(USART3_IRQn, 7, 0);
 342              		.loc 1 86 3 is_stmt 1 view .LVU113
 343 0026 0022     		movs	r2, #0
 344 0028 0721     		movs	r1, #7
 345 002a 2720     		movs	r0, #39
 346 002c FFF7FEFF 		bl	HAL_NVIC_SetPriority
 347              	.LVL19:
  87:../../../core/platform/octa/src/uart.c ****   HAL_NVIC_EnableIRQ(USART3_IRQn);
 348              		.loc 1 87 3 view .LVU114
 349 0030 2720     		movs	r0, #39
 350 0032 FFF7FEFF 		bl	HAL_NVIC_EnableIRQ
 351              	.LVL20:
  88:../../../core/platform/octa/src/uart.c **** }
 352              		.loc 1 88 1 is_stmt 0 view .LVU115
 353 0036 08BD     		pop	{r3, pc}
 354              	.L22:
  84:../../../core/platform/octa/src/uart.c ****   }
 355              		.loc 1 84 5 is_stmt 1 view .LVU116
 356 0038 FFF7FEFF 		bl	Error_Handler
 357              	.LVL21:
 358 003c F3E7     		b	.L20
 359              	.L24:
 360 003e 00BF     		.align	2
 361              	.L23:
 362 0040 00000000 		.word	P3_UART
 363 0044 00480040 		.word	1073760256
 364              		.cfi_endproc
 365              	.LFE134:
 367              		.section	.text.FTDI_UART_Init,"ax",%progbits
 368              		.align	1
 369              		.global	FTDI_UART_Init
 370              		.syntax unified
 371              		.thumb
 372              		.thumb_func
ARM GAS  C:\Users\tomra\AppData\Local\Temp\ccfHtaWb.s 			page 9


 373              		.fpu fpv4-sp-d16
 375              	FTDI_UART_Init:
 376              	.LVL22:
 377              	.LFB135:
  89:../../../core/platform/octa/src/uart.c **** 
  90:../../../core/platform/octa/src/uart.c **** void FTDI_UART_Init(uint32_t aBaudRate)
  91:../../../core/platform/octa/src/uart.c **** {
 378              		.loc 1 91 1 view -0
 379              		.cfi_startproc
 380              		@ args = 0, pretend = 0, frame = 0
 381              		@ frame_needed = 0, uses_anonymous_args = 0
 382              		.loc 1 91 1 is_stmt 0 view .LVU118
 383 0000 08B5     		push	{r3, lr}
 384              	.LCFI4:
 385              		.cfi_def_cfa_offset 8
 386              		.cfi_offset 3, -8
 387              		.cfi_offset 14, -4
  92:../../../core/platform/octa/src/uart.c ****   FTDI_UART.Instance = USART3;
 388              		.loc 1 92 3 is_stmt 1 view .LVU119
 389              		.loc 1 92 22 is_stmt 0 view .LVU120
 390 0002 0F4B     		ldr	r3, .L29
 391 0004 0F4A     		ldr	r2, .L29+4
 392 0006 1A60     		str	r2, [r3]
  93:../../../core/platform/octa/src/uart.c ****   FTDI_UART.Init.BaudRate = aBaudRate;
 393              		.loc 1 93 3 is_stmt 1 view .LVU121
 394              		.loc 1 93 27 is_stmt 0 view .LVU122
 395 0008 5860     		str	r0, [r3, #4]
  94:../../../core/platform/octa/src/uart.c ****   FTDI_UART.Init.WordLength = UART_WORDLENGTH_8B;
 396              		.loc 1 94 3 is_stmt 1 view .LVU123
 397              		.loc 1 94 29 is_stmt 0 view .LVU124
 398 000a 0022     		movs	r2, #0
 399 000c 9A60     		str	r2, [r3, #8]
  95:../../../core/platform/octa/src/uart.c ****   FTDI_UART.Init.StopBits = UART_STOPBITS_1;
 400              		.loc 1 95 3 is_stmt 1 view .LVU125
 401              		.loc 1 95 27 is_stmt 0 view .LVU126
 402 000e DA60     		str	r2, [r3, #12]
  96:../../../core/platform/octa/src/uart.c ****   FTDI_UART.Init.Parity = UART_PARITY_NONE;
 403              		.loc 1 96 3 is_stmt 1 view .LVU127
 404              		.loc 1 96 25 is_stmt 0 view .LVU128
 405 0010 1A61     		str	r2, [r3, #16]
  97:../../../core/platform/octa/src/uart.c ****   FTDI_UART.Init.Mode = UART_MODE_TX_RX;
 406              		.loc 1 97 3 is_stmt 1 view .LVU129
 407              		.loc 1 97 23 is_stmt 0 view .LVU130
 408 0012 0C21     		movs	r1, #12
 409 0014 5961     		str	r1, [r3, #20]
  98:../../../core/platform/octa/src/uart.c ****   FTDI_UART.Init.HwFlowCtl = UART_HWCONTROL_NONE;
 410              		.loc 1 98 3 is_stmt 1 view .LVU131
 411              		.loc 1 98 28 is_stmt 0 view .LVU132
 412 0016 9A61     		str	r2, [r3, #24]
  99:../../../core/platform/octa/src/uart.c ****   FTDI_UART.Init.OverSampling = UART_OVERSAMPLING_16;
 413              		.loc 1 99 3 is_stmt 1 view .LVU133
 414              		.loc 1 99 31 is_stmt 0 view .LVU134
 415 0018 DA61     		str	r2, [r3, #28]
 100:../../../core/platform/octa/src/uart.c ****   FTDI_UART.Init.OneBitSampling = UART_ONE_BIT_SAMPLE_DISABLE;
 416              		.loc 1 100 3 is_stmt 1 view .LVU135
 417              		.loc 1 100 33 is_stmt 0 view .LVU136
 418 001a 1A62     		str	r2, [r3, #32]
ARM GAS  C:\Users\tomra\AppData\Local\Temp\ccfHtaWb.s 			page 10


 101:../../../core/platform/octa/src/uart.c ****   FTDI_UART.AdvancedInit.AdvFeatureInit = UART_ADVFEATURE_NO_INIT;
 419              		.loc 1 101 3 is_stmt 1 view .LVU137
 420              		.loc 1 101 41 is_stmt 0 view .LVU138
 421 001c 5A62     		str	r2, [r3, #36]
 102:../../../core/platform/octa/src/uart.c ****   if (HAL_UART_Init(&FTDI_UART) != HAL_OK)
 422              		.loc 1 102 3 is_stmt 1 view .LVU139
 423              		.loc 1 102 7 is_stmt 0 view .LVU140
 424 001e 1846     		mov	r0, r3
 425              	.LVL23:
 426              		.loc 1 102 7 view .LVU141
 427 0020 FFF7FEFF 		bl	HAL_UART_Init
 428              	.LVL24:
 429              		.loc 1 102 6 view .LVU142
 430 0024 40B9     		cbnz	r0, .L28
 431              	.L26:
 103:../../../core/platform/octa/src/uart.c ****   {
 104:../../../core/platform/octa/src/uart.c ****     Error_Handler();
 105:../../../core/platform/octa/src/uart.c ****   }
 106:../../../core/platform/octa/src/uart.c ****   HAL_NVIC_SetPriority(USART3_IRQn, 7, 0);
 432              		.loc 1 106 3 is_stmt 1 view .LVU143
 433 0026 0022     		movs	r2, #0
 434 0028 0721     		movs	r1, #7
 435 002a 2720     		movs	r0, #39
 436 002c FFF7FEFF 		bl	HAL_NVIC_SetPriority
 437              	.LVL25:
 107:../../../core/platform/octa/src/uart.c ****   HAL_NVIC_EnableIRQ(USART3_IRQn);
 438              		.loc 1 107 3 view .LVU144
 439 0030 2720     		movs	r0, #39
 440 0032 FFF7FEFF 		bl	HAL_NVIC_EnableIRQ
 441              	.LVL26:
 108:../../../core/platform/octa/src/uart.c **** }
 442              		.loc 1 108 1 is_stmt 0 view .LVU145
 443 0036 08BD     		pop	{r3, pc}
 444              	.L28:
 104:../../../core/platform/octa/src/uart.c ****   }
 445              		.loc 1 104 5 is_stmt 1 view .LVU146
 446 0038 FFF7FEFF 		bl	Error_Handler
 447              	.LVL27:
 448 003c F3E7     		b	.L26
 449              	.L30:
 450 003e 00BF     		.align	2
 451              	.L29:
 452 0040 00000000 		.word	FTDI_UART
 453 0044 00480040 		.word	1073760256
 454              		.cfi_endproc
 455              	.LFE135:
 457              		.section	.text.BLE_UART_Init,"ax",%progbits
 458              		.align	1
 459              		.global	BLE_UART_Init
 460              		.syntax unified
 461              		.thumb
 462              		.thumb_func
 463              		.fpu fpv4-sp-d16
 465              	BLE_UART_Init:
 466              	.LVL28:
 467              	.LFB136:
 109:../../../core/platform/octa/src/uart.c **** 
ARM GAS  C:\Users\tomra\AppData\Local\Temp\ccfHtaWb.s 			page 11


 110:../../../core/platform/octa/src/uart.c **** void BLE_UART_Init(uint32_t aBaudRate)
 111:../../../core/platform/octa/src/uart.c **** {
 468              		.loc 1 111 1 view -0
 469              		.cfi_startproc
 470              		@ args = 0, pretend = 0, frame = 0
 471              		@ frame_needed = 0, uses_anonymous_args = 0
 472              		.loc 1 111 1 is_stmt 0 view .LVU148
 473 0000 08B5     		push	{r3, lr}
 474              	.LCFI5:
 475              		.cfi_def_cfa_offset 8
 476              		.cfi_offset 3, -8
 477              		.cfi_offset 14, -4
 112:../../../core/platform/octa/src/uart.c ****   BLE_UART.Instance = USART2;
 478              		.loc 1 112 3 is_stmt 1 view .LVU149
 479              		.loc 1 112 21 is_stmt 0 view .LVU150
 480 0002 0F4B     		ldr	r3, .L35
 481 0004 0F4A     		ldr	r2, .L35+4
 482 0006 1A60     		str	r2, [r3]
 113:../../../core/platform/octa/src/uart.c ****   BLE_UART.Init.BaudRate = aBaudRate;
 483              		.loc 1 113 3 is_stmt 1 view .LVU151
 484              		.loc 1 113 26 is_stmt 0 view .LVU152
 485 0008 5860     		str	r0, [r3, #4]
 114:../../../core/platform/octa/src/uart.c ****   BLE_UART.Init.WordLength = UART_WORDLENGTH_8B;
 486              		.loc 1 114 3 is_stmt 1 view .LVU153
 487              		.loc 1 114 28 is_stmt 0 view .LVU154
 488 000a 0022     		movs	r2, #0
 489 000c 9A60     		str	r2, [r3, #8]
 115:../../../core/platform/octa/src/uart.c ****   BLE_UART.Init.StopBits = UART_STOPBITS_1;
 490              		.loc 1 115 3 is_stmt 1 view .LVU155
 491              		.loc 1 115 26 is_stmt 0 view .LVU156
 492 000e DA60     		str	r2, [r3, #12]
 116:../../../core/platform/octa/src/uart.c ****   BLE_UART.Init.Parity = UART_PARITY_NONE;
 493              		.loc 1 116 3 is_stmt 1 view .LVU157
 494              		.loc 1 116 24 is_stmt 0 view .LVU158
 495 0010 1A61     		str	r2, [r3, #16]
 117:../../../core/platform/octa/src/uart.c ****   BLE_UART.Init.Mode = UART_MODE_TX_RX;
 496              		.loc 1 117 3 is_stmt 1 view .LVU159
 497              		.loc 1 117 22 is_stmt 0 view .LVU160
 498 0012 0C21     		movs	r1, #12
 499 0014 5961     		str	r1, [r3, #20]
 118:../../../core/platform/octa/src/uart.c ****   BLE_UART.Init.HwFlowCtl = UART_HWCONTROL_NONE;
 500              		.loc 1 118 3 is_stmt 1 view .LVU161
 501              		.loc 1 118 27 is_stmt 0 view .LVU162
 502 0016 9A61     		str	r2, [r3, #24]
 119:../../../core/platform/octa/src/uart.c ****   BLE_UART.Init.OverSampling = UART_OVERSAMPLING_16;
 503              		.loc 1 119 3 is_stmt 1 view .LVU163
 504              		.loc 1 119 30 is_stmt 0 view .LVU164
 505 0018 DA61     		str	r2, [r3, #28]
 120:../../../core/platform/octa/src/uart.c ****   BLE_UART.Init.OneBitSampling = UART_ONE_BIT_SAMPLE_DISABLE;
 506              		.loc 1 120 3 is_stmt 1 view .LVU165
 507              		.loc 1 120 32 is_stmt 0 view .LVU166
 508 001a 1A62     		str	r2, [r3, #32]
 121:../../../core/platform/octa/src/uart.c ****   BLE_UART.AdvancedInit.AdvFeatureInit = UART_ADVFEATURE_NO_INIT;
 509              		.loc 1 121 3 is_stmt 1 view .LVU167
 510              		.loc 1 121 40 is_stmt 0 view .LVU168
 511 001c 5A62     		str	r2, [r3, #36]
 122:../../../core/platform/octa/src/uart.c ****   if (HAL_UART_Init(&BLE_UART) != HAL_OK)
ARM GAS  C:\Users\tomra\AppData\Local\Temp\ccfHtaWb.s 			page 12


 512              		.loc 1 122 3 is_stmt 1 view .LVU169
 513              		.loc 1 122 7 is_stmt 0 view .LVU170
 514 001e 1846     		mov	r0, r3
 515              	.LVL29:
 516              		.loc 1 122 7 view .LVU171
 517 0020 FFF7FEFF 		bl	HAL_UART_Init
 518              	.LVL30:
 519              		.loc 1 122 6 view .LVU172
 520 0024 40B9     		cbnz	r0, .L34
 521              	.L32:
 123:../../../core/platform/octa/src/uart.c ****   {
 124:../../../core/platform/octa/src/uart.c ****     Error_Handler();
 125:../../../core/platform/octa/src/uart.c ****   }
 126:../../../core/platform/octa/src/uart.c ****   HAL_NVIC_SetPriority(USART2_IRQn, 7, 0);
 522              		.loc 1 126 3 is_stmt 1 view .LVU173
 523 0026 0022     		movs	r2, #0
 524 0028 0721     		movs	r1, #7
 525 002a 2620     		movs	r0, #38
 526 002c FFF7FEFF 		bl	HAL_NVIC_SetPriority
 527              	.LVL31:
 127:../../../core/platform/octa/src/uart.c ****   HAL_NVIC_EnableIRQ(USART2_IRQn);
 528              		.loc 1 127 3 view .LVU174
 529 0030 2620     		movs	r0, #38
 530 0032 FFF7FEFF 		bl	HAL_NVIC_EnableIRQ
 531              	.LVL32:
 128:../../../core/platform/octa/src/uart.c **** }
 532              		.loc 1 128 1 is_stmt 0 view .LVU175
 533 0036 08BD     		pop	{r3, pc}
 534              	.L34:
 124:../../../core/platform/octa/src/uart.c ****   }
 535              		.loc 1 124 5 is_stmt 1 view .LVU176
 536 0038 FFF7FEFF 		bl	Error_Handler
 537              	.LVL33:
 538 003c F3E7     		b	.L32
 539              	.L36:
 540 003e 00BF     		.align	2
 541              	.L35:
 542 0040 00000000 		.word	BLE_UART
 543 0044 00440040 		.word	1073759232
 544              		.cfi_endproc
 545              	.LFE136:
 547              		.section	.rodata.HAL_UART_RxCpltCallback.str1.4,"aMS",%progbits,1
 548              		.align	2
 549              	.LC0:
 550 0000 55415254 		.ascii	"UART Handle unknown\015\012\000"
 550      2048616E 
 550      646C6520 
 550      756E6B6E 
 550      6F776E0D 
 551              		.section	.text.HAL_UART_RxCpltCallback,"ax",%progbits
 552              		.align	1
 553              		.global	HAL_UART_RxCpltCallback
 554              		.syntax unified
 555              		.thumb
 556              		.thumb_func
 557              		.fpu fpv4-sp-d16
 559              	HAL_UART_RxCpltCallback:
ARM GAS  C:\Users\tomra\AppData\Local\Temp\ccfHtaWb.s 			page 13


 560              	.LVL34:
 561              	.LFB137:
 129:../../../core/platform/octa/src/uart.c **** 
 130:../../../core/platform/octa/src/uart.c **** // UART RX CALLBACK
 131:../../../core/platform/octa/src/uart.c **** void HAL_UART_RxCpltCallback(UART_HandleTypeDef *huart)
 132:../../../core/platform/octa/src/uart.c **** {
 562              		.loc 1 132 1 view -0
 563              		.cfi_startproc
 564              		@ args = 0, pretend = 0, frame = 0
 565              		@ frame_needed = 0, uses_anonymous_args = 0
 566              		.loc 1 132 1 is_stmt 0 view .LVU178
 567 0000 08B5     		push	{r3, lr}
 568              	.LCFI6:
 569              		.cfi_def_cfa_offset 8
 570              		.cfi_offset 3, -8
 571              		.cfi_offset 14, -4
 133:../../../core/platform/octa/src/uart.c ****   if (huart == &P1_UART)
 572              		.loc 1 133 3 is_stmt 1 view .LVU179
 573              		.loc 1 133 6 is_stmt 0 view .LVU180
 574 0002 234B     		ldr	r3, .L55
 575 0004 9842     		cmp	r0, r3
 576 0006 14D0     		beq	.L49
 134:../../../core/platform/octa/src/uart.c ****   {
 135:../../../core/platform/octa/src/uart.c ****     if(P1_Shield_UART_RX_Callback)
 136:../../../core/platform/octa/src/uart.c ****       P1_Shield_UART_RX_Callback();
 137:../../../core/platform/octa/src/uart.c ****     if(P1_Application_UART_RX_Callback)
 138:../../../core/platform/octa/src/uart.c ****       P1_Application_UART_RX_Callback();
 139:../../../core/platform/octa/src/uart.c ****   }
 140:../../../core/platform/octa/src/uart.c ****   else if (huart == &P2_UART)
 577              		.loc 1 140 8 is_stmt 1 view .LVU181
 578              		.loc 1 140 11 is_stmt 0 view .LVU182
 579 0008 224B     		ldr	r3, .L55+4
 580 000a 9842     		cmp	r0, r3
 581 000c 1AD0     		beq	.L50
 141:../../../core/platform/octa/src/uart.c ****   {
 142:../../../core/platform/octa/src/uart.c ****     if(P2_Shield_UART_RX_Callback)
 143:../../../core/platform/octa/src/uart.c ****       P2_Shield_UART_RX_Callback();
 144:../../../core/platform/octa/src/uart.c ****     if(P2_Application_UART_RX_Callback)
 145:../../../core/platform/octa/src/uart.c ****       P2_Application_UART_RX_Callback();
 146:../../../core/platform/octa/src/uart.c ****   }
 147:../../../core/platform/octa/src/uart.c ****   else if (huart == &P3_UART)
 582              		.loc 1 147 8 is_stmt 1 view .LVU183
 583              		.loc 1 147 11 is_stmt 0 view .LVU184
 584 000e 224B     		ldr	r3, .L55+8
 585 0010 9842     		cmp	r0, r3
 586 0012 21D0     		beq	.L51
 148:../../../core/platform/octa/src/uart.c ****   {
 149:../../../core/platform/octa/src/uart.c ****     if(P3_Shield_UART_RX_Callback)
 150:../../../core/platform/octa/src/uart.c ****       P3_Shield_UART_RX_Callback();
 151:../../../core/platform/octa/src/uart.c ****     if(P3_Application_UART_RX_Callback)
 152:../../../core/platform/octa/src/uart.c ****       P3_Application_UART_RX_Callback();
 153:../../../core/platform/octa/src/uart.c ****   }
 154:../../../core/platform/octa/src/uart.c ****   else if (huart == &BLE_UART)
 587              		.loc 1 154 8 is_stmt 1 view .LVU185
 588              		.loc 1 154 11 is_stmt 0 view .LVU186
 589 0014 214B     		ldr	r3, .L55+12
 590 0016 9842     		cmp	r0, r3
ARM GAS  C:\Users\tomra\AppData\Local\Temp\ccfHtaWb.s 			page 14


 591 0018 28D0     		beq	.L52
 155:../../../core/platform/octa/src/uart.c ****   {
 156:../../../core/platform/octa/src/uart.c ****     if(BLE_UART_RX_Callback)
 157:../../../core/platform/octa/src/uart.c ****       BLE_UART_RX_Callback();
 158:../../../core/platform/octa/src/uart.c ****   }
 159:../../../core/platform/octa/src/uart.c ****   else if (huart == &USB_UART)
 592              		.loc 1 159 8 is_stmt 1 view .LVU187
 593              		.loc 1 159 11 is_stmt 0 view .LVU188
 594 001a 214B     		ldr	r3, .L55+16
 595 001c 9842     		cmp	r0, r3
 596 001e 2BD0     		beq	.L53
 160:../../../core/platform/octa/src/uart.c ****   {
 161:../../../core/platform/octa/src/uart.c ****     if(USB_UART_RX_Callback)
 162:../../../core/platform/octa/src/uart.c ****       USB_UART_RX_Callback();
 163:../../../core/platform/octa/src/uart.c ****   }
 164:../../../core/platform/octa/src/uart.c ****   else if (huart == &FTDI_UART)
 597              		.loc 1 164 8 is_stmt 1 view .LVU189
 598              		.loc 1 164 11 is_stmt 0 view .LVU190
 599 0020 204B     		ldr	r3, .L55+20
 600 0022 9842     		cmp	r0, r3
 601 0024 2ED0     		beq	.L54
 165:../../../core/platform/octa/src/uart.c ****   {
 166:../../../core/platform/octa/src/uart.c ****     if(FTDI_UART_RX_Callback)
 167:../../../core/platform/octa/src/uart.c ****       FTDI_UART_RX_Callback();
 168:../../../core/platform/octa/src/uart.c ****   }
 169:../../../core/platform/octa/src/uart.c ****   else 
 170:../../../core/platform/octa/src/uart.c ****   {
 171:../../../core/platform/octa/src/uart.c ****     printERR("UART Handle unknown\r\n");
 602              		.loc 1 171 5 is_stmt 1 view .LVU191
 603 0026 2048     		ldr	r0, .L55+24
 604              	.LVL35:
 605              		.loc 1 171 5 is_stmt 0 view .LVU192
 606 0028 FFF7FEFF 		bl	printERR
 607              	.LVL36:
 172:../../../core/platform/octa/src/uart.c ****     Error_Handler();
 608              		.loc 1 172 5 is_stmt 1 view .LVU193
 609 002c FFF7FEFF 		bl	Error_Handler
 610              	.LVL37:
 173:../../../core/platform/octa/src/uart.c ****   }
 174:../../../core/platform/octa/src/uart.c **** }
 611              		.loc 1 174 1 is_stmt 0 view .LVU194
 612 0030 07E0     		b	.L37
 613              	.LVL38:
 614              	.L49:
 135:../../../core/platform/octa/src/uart.c ****       P1_Shield_UART_RX_Callback();
 615              		.loc 1 135 5 is_stmt 1 view .LVU195
 135:../../../core/platform/octa/src/uart.c ****       P1_Shield_UART_RX_Callback();
 616              		.loc 1 135 8 is_stmt 0 view .LVU196
 617 0032 1E4B     		ldr	r3, .L55+28
 618 0034 1B68     		ldr	r3, [r3]
 135:../../../core/platform/octa/src/uart.c ****       P1_Shield_UART_RX_Callback();
 619              		.loc 1 135 7 view .LVU197
 620 0036 03B1     		cbz	r3, .L39
 136:../../../core/platform/octa/src/uart.c ****     if(P1_Application_UART_RX_Callback)
 621              		.loc 1 136 7 is_stmt 1 view .LVU198
 622 0038 9847     		blx	r3
 623              	.LVL39:
ARM GAS  C:\Users\tomra\AppData\Local\Temp\ccfHtaWb.s 			page 15


 624              	.L39:
 137:../../../core/platform/octa/src/uart.c ****       P1_Application_UART_RX_Callback();
 625              		.loc 1 137 5 view .LVU199
 137:../../../core/platform/octa/src/uart.c ****       P1_Application_UART_RX_Callback();
 626              		.loc 1 137 8 is_stmt 0 view .LVU200
 627 003a 1D4B     		ldr	r3, .L55+32
 628 003c 1B68     		ldr	r3, [r3]
 137:../../../core/platform/octa/src/uart.c ****       P1_Application_UART_RX_Callback();
 629              		.loc 1 137 7 view .LVU201
 630 003e 03B1     		cbz	r3, .L37
 138:../../../core/platform/octa/src/uart.c ****   }
 631              		.loc 1 138 7 is_stmt 1 view .LVU202
 632 0040 9847     		blx	r3
 633              	.LVL40:
 634              	.L37:
 635              		.loc 1 174 1 is_stmt 0 view .LVU203
 636 0042 08BD     		pop	{r3, pc}
 637              	.LVL41:
 638              	.L50:
 142:../../../core/platform/octa/src/uart.c ****       P2_Shield_UART_RX_Callback();
 639              		.loc 1 142 5 is_stmt 1 view .LVU204
 142:../../../core/platform/octa/src/uart.c ****       P2_Shield_UART_RX_Callback();
 640              		.loc 1 142 8 is_stmt 0 view .LVU205
 641 0044 1B4B     		ldr	r3, .L55+36
 642 0046 1B68     		ldr	r3, [r3]
 142:../../../core/platform/octa/src/uart.c ****       P2_Shield_UART_RX_Callback();
 643              		.loc 1 142 7 view .LVU206
 644 0048 03B1     		cbz	r3, .L42
 143:../../../core/platform/octa/src/uart.c ****     if(P2_Application_UART_RX_Callback)
 645              		.loc 1 143 7 is_stmt 1 view .LVU207
 646 004a 9847     		blx	r3
 647              	.LVL42:
 648              	.L42:
 144:../../../core/platform/octa/src/uart.c ****       P2_Application_UART_RX_Callback();
 649              		.loc 1 144 5 view .LVU208
 144:../../../core/platform/octa/src/uart.c ****       P2_Application_UART_RX_Callback();
 650              		.loc 1 144 8 is_stmt 0 view .LVU209
 651 004c 1A4B     		ldr	r3, .L55+40
 652 004e 1B68     		ldr	r3, [r3]
 144:../../../core/platform/octa/src/uart.c ****       P2_Application_UART_RX_Callback();
 653              		.loc 1 144 7 view .LVU210
 654 0050 002B     		cmp	r3, #0
 655 0052 F6D0     		beq	.L37
 145:../../../core/platform/octa/src/uart.c ****   }
 656              		.loc 1 145 7 is_stmt 1 view .LVU211
 657 0054 9847     		blx	r3
 658              	.LVL43:
 659 0056 F4E7     		b	.L37
 660              	.LVL44:
 661              	.L51:
 149:../../../core/platform/octa/src/uart.c ****       P3_Shield_UART_RX_Callback();
 662              		.loc 1 149 5 view .LVU212
 149:../../../core/platform/octa/src/uart.c ****       P3_Shield_UART_RX_Callback();
 663              		.loc 1 149 8 is_stmt 0 view .LVU213
 664 0058 184B     		ldr	r3, .L55+44
 665 005a 1B68     		ldr	r3, [r3]
 149:../../../core/platform/octa/src/uart.c ****       P3_Shield_UART_RX_Callback();
ARM GAS  C:\Users\tomra\AppData\Local\Temp\ccfHtaWb.s 			page 16


 666              		.loc 1 149 7 view .LVU214
 667 005c 03B1     		cbz	r3, .L44
 150:../../../core/platform/octa/src/uart.c ****     if(P3_Application_UART_RX_Callback)
 668              		.loc 1 150 7 is_stmt 1 view .LVU215
 669 005e 9847     		blx	r3
 670              	.LVL45:
 671              	.L44:
 151:../../../core/platform/octa/src/uart.c ****       P3_Application_UART_RX_Callback();
 672              		.loc 1 151 5 view .LVU216
 151:../../../core/platform/octa/src/uart.c ****       P3_Application_UART_RX_Callback();
 673              		.loc 1 151 8 is_stmt 0 view .LVU217
 674 0060 174B     		ldr	r3, .L55+48
 675 0062 1B68     		ldr	r3, [r3]
 151:../../../core/platform/octa/src/uart.c ****       P3_Application_UART_RX_Callback();
 676              		.loc 1 151 7 view .LVU218
 677 0064 002B     		cmp	r3, #0
 678 0066 ECD0     		beq	.L37
 152:../../../core/platform/octa/src/uart.c ****   }
 679              		.loc 1 152 7 is_stmt 1 view .LVU219
 680 0068 9847     		blx	r3
 681              	.LVL46:
 682 006a EAE7     		b	.L37
 683              	.LVL47:
 684              	.L52:
 156:../../../core/platform/octa/src/uart.c ****       BLE_UART_RX_Callback();
 685              		.loc 1 156 5 view .LVU220
 156:../../../core/platform/octa/src/uart.c ****       BLE_UART_RX_Callback();
 686              		.loc 1 156 8 is_stmt 0 view .LVU221
 687 006c 154B     		ldr	r3, .L55+52
 688 006e 1B68     		ldr	r3, [r3]
 156:../../../core/platform/octa/src/uart.c ****       BLE_UART_RX_Callback();
 689              		.loc 1 156 7 view .LVU222
 690 0070 002B     		cmp	r3, #0
 691 0072 E6D0     		beq	.L37
 157:../../../core/platform/octa/src/uart.c ****   }
 692              		.loc 1 157 7 is_stmt 1 view .LVU223
 693 0074 9847     		blx	r3
 694              	.LVL48:
 157:../../../core/platform/octa/src/uart.c ****   }
 695              		.loc 1 157 7 is_stmt 0 view .LVU224
 696 0076 E4E7     		b	.L37
 697              	.LVL49:
 698              	.L53:
 161:../../../core/platform/octa/src/uart.c ****       USB_UART_RX_Callback();
 699              		.loc 1 161 5 is_stmt 1 view .LVU225
 161:../../../core/platform/octa/src/uart.c ****       USB_UART_RX_Callback();
 700              		.loc 1 161 8 is_stmt 0 view .LVU226
 701 0078 134B     		ldr	r3, .L55+56
 702 007a 1B68     		ldr	r3, [r3]
 161:../../../core/platform/octa/src/uart.c ****       USB_UART_RX_Callback();
 703              		.loc 1 161 7 view .LVU227
 704 007c 002B     		cmp	r3, #0
 705 007e E0D0     		beq	.L37
 162:../../../core/platform/octa/src/uart.c ****   }
 706              		.loc 1 162 7 is_stmt 1 view .LVU228
 707 0080 9847     		blx	r3
 708              	.LVL50:
ARM GAS  C:\Users\tomra\AppData\Local\Temp\ccfHtaWb.s 			page 17


 162:../../../core/platform/octa/src/uart.c ****   }
 709              		.loc 1 162 7 is_stmt 0 view .LVU229
 710 0082 DEE7     		b	.L37
 711              	.LVL51:
 712              	.L54:
 166:../../../core/platform/octa/src/uart.c ****       FTDI_UART_RX_Callback();
 713              		.loc 1 166 5 is_stmt 1 view .LVU230
 166:../../../core/platform/octa/src/uart.c ****       FTDI_UART_RX_Callback();
 714              		.loc 1 166 8 is_stmt 0 view .LVU231
 715 0084 114B     		ldr	r3, .L55+60
 716 0086 1B68     		ldr	r3, [r3]
 166:../../../core/platform/octa/src/uart.c ****       FTDI_UART_RX_Callback();
 717              		.loc 1 166 7 view .LVU232
 718 0088 002B     		cmp	r3, #0
 719 008a DAD0     		beq	.L37
 167:../../../core/platform/octa/src/uart.c ****   }
 720              		.loc 1 167 7 is_stmt 1 view .LVU233
 721 008c 9847     		blx	r3
 722              	.LVL52:
 167:../../../core/platform/octa/src/uart.c ****   }
 723              		.loc 1 167 7 is_stmt 0 view .LVU234
 724 008e D8E7     		b	.L37
 725              	.L56:
 726              		.align	2
 727              	.L55:
 728 0090 00000000 		.word	P1_UART
 729 0094 00000000 		.word	P2_UART
 730 0098 00000000 		.word	P3_UART
 731 009c 00000000 		.word	BLE_UART
 732 00a0 00000000 		.word	USB_UART
 733 00a4 00000000 		.word	FTDI_UART
 734 00a8 00000000 		.word	.LC0
 735 00ac 00000000 		.word	.LANCHOR0
 736 00b0 00000000 		.word	.LANCHOR1
 737 00b4 00000000 		.word	.LANCHOR2
 738 00b8 00000000 		.word	.LANCHOR3
 739 00bc 00000000 		.word	.LANCHOR4
 740 00c0 00000000 		.word	.LANCHOR5
 741 00c4 00000000 		.word	.LANCHOR6
 742 00c8 00000000 		.word	.LANCHOR7
 743 00cc 00000000 		.word	.LANCHOR8
 744              		.cfi_endproc
 745              	.LFE137:
 747              		.section	.text.UART_SetApplicationCallback,"ax",%progbits
 748              		.align	1
 749              		.global	UART_SetApplicationCallback
 750              		.syntax unified
 751              		.thumb
 752              		.thumb_func
 753              		.fpu fpv4-sp-d16
 755              	UART_SetApplicationCallback:
 756              	.LVL53:
 757              	.LFB138:
 175:../../../core/platform/octa/src/uart.c **** 
 176:../../../core/platform/octa/src/uart.c **** void UART_SetApplicationCallback(void (*appcallback), uint8_t connector)
 177:../../../core/platform/octa/src/uart.c **** {
 758              		.loc 1 177 1 is_stmt 1 view -0
ARM GAS  C:\Users\tomra\AppData\Local\Temp\ccfHtaWb.s 			page 18


 759              		.cfi_startproc
 760              		@ args = 0, pretend = 0, frame = 0
 761              		@ frame_needed = 0, uses_anonymous_args = 0
 762              		@ link register save eliminated.
 178:../../../core/platform/octa/src/uart.c ****   switch(connector)
 763              		.loc 1 178 3 view .LVU236
 764 0000 0229     		cmp	r1, #2
 765 0002 07D0     		beq	.L58
 766 0004 0329     		cmp	r1, #3
 767 0006 08D0     		beq	.L59
 768 0008 0129     		cmp	r1, #1
 769 000a 00D0     		beq	.L61
 770              	.L57:
 179:../../../core/platform/octa/src/uart.c ****   {
 180:../../../core/platform/octa/src/uart.c ****     case 1:
 181:../../../core/platform/octa/src/uart.c ****       P1_Application_UART_RX_Callback = appcallback;
 182:../../../core/platform/octa/src/uart.c ****       break;
 183:../../../core/platform/octa/src/uart.c ****     case 2:
 184:../../../core/platform/octa/src/uart.c ****       P2_Application_UART_RX_Callback = appcallback;
 185:../../../core/platform/octa/src/uart.c ****       break;
 186:../../../core/platform/octa/src/uart.c ****     case 3:
 187:../../../core/platform/octa/src/uart.c ****       P3_Application_UART_RX_Callback = appcallback;
 188:../../../core/platform/octa/src/uart.c ****       break;
 189:../../../core/platform/octa/src/uart.c ****     default:
 190:../../../core/platform/octa/src/uart.c ****       break;
 191:../../../core/platform/octa/src/uart.c ****   }
 192:../../../core/platform/octa/src/uart.c **** }
 771              		.loc 1 192 1 is_stmt 0 view .LVU237
 772 000c 7047     		bx	lr
 773              	.L61:
 181:../../../core/platform/octa/src/uart.c ****       break;
 774              		.loc 1 181 7 is_stmt 1 view .LVU238
 181:../../../core/platform/octa/src/uart.c ****       break;
 775              		.loc 1 181 39 is_stmt 0 view .LVU239
 776 000e 044B     		ldr	r3, .L62
 777 0010 1860     		str	r0, [r3]
 182:../../../core/platform/octa/src/uart.c ****     case 2:
 778              		.loc 1 182 7 is_stmt 1 view .LVU240
 779 0012 7047     		bx	lr
 780              	.L58:
 184:../../../core/platform/octa/src/uart.c ****       break;
 781              		.loc 1 184 7 view .LVU241
 184:../../../core/platform/octa/src/uart.c ****       break;
 782              		.loc 1 184 39 is_stmt 0 view .LVU242
 783 0014 034B     		ldr	r3, .L62+4
 784 0016 1860     		str	r0, [r3]
 185:../../../core/platform/octa/src/uart.c ****     case 3:
 785              		.loc 1 185 7 is_stmt 1 view .LVU243
 786 0018 7047     		bx	lr
 787              	.L59:
 187:../../../core/platform/octa/src/uart.c ****       break;
 788              		.loc 1 187 7 view .LVU244
 187:../../../core/platform/octa/src/uart.c ****       break;
 789              		.loc 1 187 39 is_stmt 0 view .LVU245
 790 001a 034B     		ldr	r3, .L62+8
 791 001c 1860     		str	r0, [r3]
 188:../../../core/platform/octa/src/uart.c ****     default:
ARM GAS  C:\Users\tomra\AppData\Local\Temp\ccfHtaWb.s 			page 19


 792              		.loc 1 188 7 is_stmt 1 view .LVU246
 793              		.loc 1 192 1 is_stmt 0 view .LVU247
 794 001e F5E7     		b	.L57
 795              	.L63:
 796              		.align	2
 797              	.L62:
 798 0020 00000000 		.word	.LANCHOR1
 799 0024 00000000 		.word	.LANCHOR3
 800 0028 00000000 		.word	.LANCHOR5
 801              		.cfi_endproc
 802              	.LFE138:
 804              		.section	.text.UART_SetShieldCallback,"ax",%progbits
 805              		.align	1
 806              		.global	UART_SetShieldCallback
 807              		.syntax unified
 808              		.thumb
 809              		.thumb_func
 810              		.fpu fpv4-sp-d16
 812              	UART_SetShieldCallback:
 813              	.LVL54:
 814              	.LFB139:
 193:../../../core/platform/octa/src/uart.c **** 
 194:../../../core/platform/octa/src/uart.c **** void UART_SetShieldCallback(void (*shieldcallback), uint8_t connector)
 195:../../../core/platform/octa/src/uart.c **** {
 815              		.loc 1 195 1 is_stmt 1 view -0
 816              		.cfi_startproc
 817              		@ args = 0, pretend = 0, frame = 0
 818              		@ frame_needed = 0, uses_anonymous_args = 0
 819              		@ link register save eliminated.
 196:../../../core/platform/octa/src/uart.c ****   switch(connector)
 820              		.loc 1 196 3 view .LVU249
 821 0000 0229     		cmp	r1, #2
 822 0002 07D0     		beq	.L65
 823 0004 0329     		cmp	r1, #3
 824 0006 08D0     		beq	.L66
 825 0008 0129     		cmp	r1, #1
 826 000a 00D0     		beq	.L68
 827              	.L64:
 197:../../../core/platform/octa/src/uart.c ****   {
 198:../../../core/platform/octa/src/uart.c ****     case 1:
 199:../../../core/platform/octa/src/uart.c ****       P1_Shield_UART_RX_Callback = shieldcallback;
 200:../../../core/platform/octa/src/uart.c ****       break;
 201:../../../core/platform/octa/src/uart.c ****     case 2:
 202:../../../core/platform/octa/src/uart.c ****       P2_Shield_UART_RX_Callback = shieldcallback;
 203:../../../core/platform/octa/src/uart.c ****       break;
 204:../../../core/platform/octa/src/uart.c ****     case 3:
 205:../../../core/platform/octa/src/uart.c ****       P3_Shield_UART_RX_Callback = shieldcallback;
 206:../../../core/platform/octa/src/uart.c ****       break;
 207:../../../core/platform/octa/src/uart.c ****     default:
 208:../../../core/platform/octa/src/uart.c ****       break;
 209:../../../core/platform/octa/src/uart.c ****   }
 210:../../../core/platform/octa/src/uart.c **** }
 828              		.loc 1 210 1 is_stmt 0 view .LVU250
 829 000c 7047     		bx	lr
 830              	.L68:
 199:../../../core/platform/octa/src/uart.c ****       break;
 831              		.loc 1 199 7 is_stmt 1 view .LVU251
ARM GAS  C:\Users\tomra\AppData\Local\Temp\ccfHtaWb.s 			page 20


 199:../../../core/platform/octa/src/uart.c ****       break;
 832              		.loc 1 199 34 is_stmt 0 view .LVU252
 833 000e 044B     		ldr	r3, .L69
 834 0010 1860     		str	r0, [r3]
 200:../../../core/platform/octa/src/uart.c ****     case 2:
 835              		.loc 1 200 7 is_stmt 1 view .LVU253
 836 0012 7047     		bx	lr
 837              	.L65:
 202:../../../core/platform/octa/src/uart.c ****       break;
 838              		.loc 1 202 7 view .LVU254
 202:../../../core/platform/octa/src/uart.c ****       break;
 839              		.loc 1 202 34 is_stmt 0 view .LVU255
 840 0014 034B     		ldr	r3, .L69+4
 841 0016 1860     		str	r0, [r3]
 203:../../../core/platform/octa/src/uart.c ****     case 3:
 842              		.loc 1 203 7 is_stmt 1 view .LVU256
 843 0018 7047     		bx	lr
 844              	.L66:
 205:../../../core/platform/octa/src/uart.c ****       break;
 845              		.loc 1 205 7 view .LVU257
 205:../../../core/platform/octa/src/uart.c ****       break;
 846              		.loc 1 205 34 is_stmt 0 view .LVU258
 847 001a 034B     		ldr	r3, .L69+8
 848 001c 1860     		str	r0, [r3]
 206:../../../core/platform/octa/src/uart.c ****     default:
 849              		.loc 1 206 7 is_stmt 1 view .LVU259
 850              		.loc 1 210 1 is_stmt 0 view .LVU260
 851 001e F5E7     		b	.L64
 852              	.L70:
 853              		.align	2
 854              	.L69:
 855 0020 00000000 		.word	.LANCHOR0
 856 0024 00000000 		.word	.LANCHOR2
 857 0028 00000000 		.word	.LANCHOR4
 858              		.cfi_endproc
 859              	.LFE139:
 861              		.section	.text.UART_BLE_SetRxCallback,"ax",%progbits
 862              		.align	1
 863              		.global	UART_BLE_SetRxCallback
 864              		.syntax unified
 865              		.thumb
 866              		.thumb_func
 867              		.fpu fpv4-sp-d16
 869              	UART_BLE_SetRxCallback:
 870              	.LVL55:
 871              	.LFB140:
 211:../../../core/platform/octa/src/uart.c **** 
 212:../../../core/platform/octa/src/uart.c **** void UART_BLE_SetRxCallback(void (*rxcallback))
 213:../../../core/platform/octa/src/uart.c **** {
 872              		.loc 1 213 1 is_stmt 1 view -0
 873              		.cfi_startproc
 874              		@ args = 0, pretend = 0, frame = 0
 875              		@ frame_needed = 0, uses_anonymous_args = 0
 876              		@ link register save eliminated.
 214:../../../core/platform/octa/src/uart.c ****   BLE_UART_RX_Callback = rxcallback;
 877              		.loc 1 214 3 view .LVU262
 878              		.loc 1 214 24 is_stmt 0 view .LVU263
ARM GAS  C:\Users\tomra\AppData\Local\Temp\ccfHtaWb.s 			page 21


 879 0000 014B     		ldr	r3, .L72
 880 0002 1860     		str	r0, [r3]
 215:../../../core/platform/octa/src/uart.c **** }
 881              		.loc 1 215 1 view .LVU264
 882 0004 7047     		bx	lr
 883              	.L73:
 884 0006 00BF     		.align	2
 885              	.L72:
 886 0008 00000000 		.word	.LANCHOR6
 887              		.cfi_endproc
 888              	.LFE140:
 890              		.section	.text.UART_USB_SetRxCallback,"ax",%progbits
 891              		.align	1
 892              		.global	UART_USB_SetRxCallback
 893              		.syntax unified
 894              		.thumb
 895              		.thumb_func
 896              		.fpu fpv4-sp-d16
 898              	UART_USB_SetRxCallback:
 899              	.LVL56:
 900              	.LFB141:
 216:../../../core/platform/octa/src/uart.c **** 
 217:../../../core/platform/octa/src/uart.c **** void UART_USB_SetRxCallback(void (*rxcallback))
 218:../../../core/platform/octa/src/uart.c **** {
 901              		.loc 1 218 1 is_stmt 1 view -0
 902              		.cfi_startproc
 903              		@ args = 0, pretend = 0, frame = 0
 904              		@ frame_needed = 0, uses_anonymous_args = 0
 905              		@ link register save eliminated.
 219:../../../core/platform/octa/src/uart.c ****   USB_UART_RX_Callback = rxcallback;
 906              		.loc 1 219 3 view .LVU266
 907              		.loc 1 219 24 is_stmt 0 view .LVU267
 908 0000 014B     		ldr	r3, .L75
 909 0002 1860     		str	r0, [r3]
 220:../../../core/platform/octa/src/uart.c **** }
 910              		.loc 1 220 1 view .LVU268
 911 0004 7047     		bx	lr
 912              	.L76:
 913 0006 00BF     		.align	2
 914              	.L75:
 915 0008 00000000 		.word	.LANCHOR7
 916              		.cfi_endproc
 917              	.LFE141:
 919              		.section	.text.UART_FTDI_SetRxCallback,"ax",%progbits
 920              		.align	1
 921              		.global	UART_FTDI_SetRxCallback
 922              		.syntax unified
 923              		.thumb
 924              		.thumb_func
 925              		.fpu fpv4-sp-d16
 927              	UART_FTDI_SetRxCallback:
 928              	.LVL57:
 929              	.LFB142:
 221:../../../core/platform/octa/src/uart.c **** 
 222:../../../core/platform/octa/src/uart.c **** void UART_FTDI_SetRxCallback(void (*rxcallback))
 223:../../../core/platform/octa/src/uart.c **** {
 930              		.loc 1 223 1 is_stmt 1 view -0
ARM GAS  C:\Users\tomra\AppData\Local\Temp\ccfHtaWb.s 			page 22


 931              		.cfi_startproc
 932              		@ args = 0, pretend = 0, frame = 0
 933              		@ frame_needed = 0, uses_anonymous_args = 0
 934              		@ link register save eliminated.
 224:../../../core/platform/octa/src/uart.c ****   FTDI_UART_RX_Callback = rxcallback;
 935              		.loc 1 224 3 view .LVU270
 936              		.loc 1 224 25 is_stmt 0 view .LVU271
 937 0000 014B     		ldr	r3, .L78
 938 0002 1860     		str	r0, [r3]
 225:../../../core/platform/octa/src/uart.c **** }
 939              		.loc 1 225 1 view .LVU272
 940 0004 7047     		bx	lr
 941              	.L79:
 942 0006 00BF     		.align	2
 943              	.L78:
 944 0008 00000000 		.word	.LANCHOR8
 945              		.cfi_endproc
 946              	.LFE142:
 948              		.section	.text.__io_putchar,"ax",%progbits
 949              		.align	1
 950              		.global	__io_putchar
 951              		.syntax unified
 952              		.thumb
 953              		.thumb_func
 954              		.fpu fpv4-sp-d16
 956              	__io_putchar:
 957              	.LVL58:
 958              	.LFB144:
 226:../../../core/platform/octa/src/uart.c **** 
 227:../../../core/platform/octa/src/uart.c **** /*******************************************
 228:../../../core/platform/octa/src/uart.c **** PRINTF TO SERIAL REDIRECT FUNCTION PROTOTYPE 
 229:../../../core/platform/octa/src/uart.c **** ********************************************/
 230:../../../core/platform/octa/src/uart.c **** #ifdef __GNUC__
 231:../../../core/platform/octa/src/uart.c **** #define PUTCHAR_PROTOTYPE int __io_putchar(int ch)
 232:../../../core/platform/octa/src/uart.c **** #else
 233:../../../core/platform/octa/src/uart.c **** #define PUTCHAR_PROTOTYPE int fputc(int ch, FILE *f)
 234:../../../core/platform/octa/src/uart.c **** #endif
 235:../../../core/platform/octa/src/uart.c **** 
 236:../../../core/platform/octa/src/uart.c **** /* required for printf to work */
 237:../../../core/platform/octa/src/uart.c **** int _write(int file, char *ptr, int len)
 238:../../../core/platform/octa/src/uart.c **** {
 239:../../../core/platform/octa/src/uart.c ****   int DataIdx;
 240:../../../core/platform/octa/src/uart.c **** 
 241:../../../core/platform/octa/src/uart.c ****   for (DataIdx = 0; DataIdx < len; DataIdx++)
 242:../../../core/platform/octa/src/uart.c ****   {
 243:../../../core/platform/octa/src/uart.c ****     __io_putchar(*ptr++);
 244:../../../core/platform/octa/src/uart.c ****   }
 245:../../../core/platform/octa/src/uart.c ****   return len;
 246:../../../core/platform/octa/src/uart.c **** }
 247:../../../core/platform/octa/src/uart.c **** 
 248:../../../core/platform/octa/src/uart.c **** /**
 249:../../../core/platform/octa/src/uart.c ****   * @brief  Retargets the C library printf function to the USART.
 250:../../../core/platform/octa/src/uart.c ****   * @param  None
 251:../../../core/platform/octa/src/uart.c ****   * @retval None
 252:../../../core/platform/octa/src/uart.c ****   */
 253:../../../core/platform/octa/src/uart.c **** PUTCHAR_PROTOTYPE
 254:../../../core/platform/octa/src/uart.c **** {
ARM GAS  C:\Users\tomra\AppData\Local\Temp\ccfHtaWb.s 			page 23


 959              		.loc 1 254 1 is_stmt 1 view -0
 960              		.cfi_startproc
 961              		@ args = 0, pretend = 0, frame = 8
 962              		@ frame_needed = 0, uses_anonymous_args = 0
 963              		.loc 1 254 1 is_stmt 0 view .LVU274
 964 0000 00B5     		push	{lr}
 965              	.LCFI7:
 966              		.cfi_def_cfa_offset 4
 967              		.cfi_offset 14, -4
 968 0002 83B0     		sub	sp, sp, #12
 969              	.LCFI8:
 970              		.cfi_def_cfa_offset 16
 971 0004 0190     		str	r0, [sp, #4]
 255:../../../core/platform/octa/src/uart.c ****   #if USE_FTDI_LOGGING
 256:../../../core/platform/octa/src/uart.c ****     HAL_UART_Transmit(&FTDI_UART, (uint8_t *)&ch, 1, 0xFFFF);
 257:../../../core/platform/octa/src/uart.c ****   #else
 258:../../../core/platform/octa/src/uart.c ****     HAL_UART_Transmit(&USB_UART, (uint8_t *)&ch, 1, 0xFFFF);
 972              		.loc 1 258 5 is_stmt 1 view .LVU275
 973 0006 4FF6FF73 		movw	r3, #65535
 974 000a 0122     		movs	r2, #1
 975 000c 01A9     		add	r1, sp, #4
 976 000e 0348     		ldr	r0, .L82
 977              	.LVL59:
 978              		.loc 1 258 5 is_stmt 0 view .LVU276
 979 0010 FFF7FEFF 		bl	HAL_UART_Transmit
 980              	.LVL60:
 259:../../../core/platform/octa/src/uart.c ****   #endif
 260:../../../core/platform/octa/src/uart.c ****   return ch;
 981              		.loc 1 260 3 is_stmt 1 view .LVU277
 261:../../../core/platform/octa/src/uart.c **** }...
 982              		.loc 1 261 1 is_stmt 0 view .LVU278
 983 0014 0198     		ldr	r0, [sp, #4]
 984 0016 03B0     		add	sp, sp, #12
 985              	.LCFI9:
 986              		.cfi_def_cfa_offset 4
 987              		@ sp needed
 988 0018 5DF804FB 		ldr	pc, [sp], #4
 989              	.L83:
 990              		.align	2
 991              	.L82:
 992 001c 00000000 		.word	USB_UART
 993              		.cfi_endproc
 994              	.LFE144:
 996              		.section	.text._write,"ax",%progbits
 997              		.align	1
 998              		.global	_write
 999              		.syntax unified
 1000              		.thumb
 1001              		.thumb_func
 1002              		.fpu fpv4-sp-d16
 1004              	_write:
 1005              	.LVL61:
 1006              	.LFB143:
 238:../../../core/platform/octa/src/uart.c **** {
 1007              		.loc 1 238 1 is_stmt 1 view -0
 1008              		.cfi_startproc
 1009              		@ args = 0, pretend = 0, frame = 0
ARM GAS  C:\Users\tomra\AppData\Local\Temp\ccfHtaWb.s 			page 24


 1010              		@ frame_needed = 0, uses_anonymous_args = 0
 238:../../../core/platform/octa/src/uart.c **** {
 1011              		.loc 1 238 1 is_stmt 0 view .LVU280
 1012 0000 70B5     		push	{r4, r5, r6, lr}
 1013              	.LCFI10:
 1014              		.cfi_def_cfa_offset 16
 1015              		.cfi_offset 4, -16
 1016              		.cfi_offset 5, -12
 1017              		.cfi_offset 6, -8
 1018              		.cfi_offset 14, -4
 1019 0002 0C46     		mov	r4, r1
 1020 0004 1646     		mov	r6, r2
 239:../../../core/platform/octa/src/uart.c ****   int DataIdx;
 1021              		.loc 1 239 3 is_stmt 1 view .LVU281
 241:../../../core/platform/octa/src/uart.c ****   for (DataIdx = 0; DataIdx < len; DataIdx++)
 1022              		.loc 1 241 3 view .LVU282
 1023              	.LVL62:
 241:../../../core/platform/octa/src/uart.c ****   for (DataIdx = 0; DataIdx < len; DataIdx++)
 1024              		.loc 1 241 16 is_stmt 0 view .LVU283
 1025 0006 0025     		movs	r5, #0
 1026              	.LVL63:
 1027              	.L85:
 241:../../../core/platform/octa/src/uart.c ****   for (DataIdx = 0; DataIdx < len; DataIdx++)
 1028              		.loc 1 241 21 is_stmt 1 discriminator 1 view .LVU284
 241:../../../core/platform/octa/src/uart.c ****   for (DataIdx = 0; DataIdx < len; DataIdx++)
 1029              		.loc 1 241 3 is_stmt 0 discriminator 1 view .LVU285
 1030 0008 B542     		cmp	r5, r6
 1031 000a 05DA     		bge	.L88
 243:../../../core/platform/octa/src/uart.c ****     __io_putchar(*ptr++);
 1032              		.loc 1 243 5 is_stmt 1 discriminator 3 view .LVU286
 1033              	.LVL64:
 243:../../../core/platform/octa/src/uart.c ****     __io_putchar(*ptr++);
 1034              		.loc 1 243 5 is_stmt 0 discriminator 3 view .LVU287
 1035 000c 14F8010B 		ldrb	r0, [r4], #1	@ zero_extendqisi2
 1036              	.LVL65:
 243:../../../core/platform/octa/src/uart.c ****     __io_putchar(*ptr++);
 1037              		.loc 1 243 5 discriminator 3 view .LVU288
 1038 0010 FFF7FEFF 		bl	__io_putchar
 1039              	.LVL66:
 241:../../../core/platform/octa/src/uart.c ****   for (DataIdx = 0; DataIdx < len; DataIdx++)
 1040              		.loc 1 241 36 is_stmt 1 discriminator 3 view .LVU289
 241:../../../core/platform/octa/src/uart.c ****   for (DataIdx = 0; DataIdx < len; DataIdx++)
 1041              		.loc 1 241 43 is_stmt 0 discriminator 3 view .LVU290
 1042 0014 0135     		adds	r5, r5, #1
 1043              	.LVL67:
 241:../../../core/platform/octa/src/uart.c ****   for (DataIdx = 0; DataIdx < len; DataIdx++)
 1044              		.loc 1 241 43 discriminator 3 view .LVU291
 1045 0016 F7E7     		b	.L85
 1046              	.L88:
 245:../../../core/platform/octa/src/uart.c ****   return len;
 1047              		.loc 1 245 3 is_stmt 1 view .LVU292
 246:../../../core/platform/octa/src/uart.c **** }
 1048              		.loc 1 246 1 is_stmt 0 view .LVU293
 1049 0018 3046     		mov	r0, r6
 1050 001a 70BD     		pop	{r4, r5, r6, pc}
 246:../../../core/platform/octa/src/uart.c **** }
 1051              		.loc 1 246 1 view .LVU294
ARM GAS  C:\Users\tomra\AppData\Local\Temp\ccfHtaWb.s 			page 25


 1052              		.cfi_endproc
 1053              	.LFE143:
 1055              		.comm	P3_header,44,4
 1056              		.comm	P2_header,44,4
 1057              		.comm	P1_header,44,4
 1058              		.comm	stackversion_patch,1,1
 1059              		.comm	stackversion_minor,1,1
 1060              		.comm	stackversion_major,1,1
 1061              		.comm	appversion_patch,1,1
 1062              		.comm	appversion_minor,1,1
 1063              		.comm	appversion_major,1,1
 1064              		.comm	short_UID,8,8
 1065              		.comm	hard_reset,1,1
 1066              		.comm	wd_reset,1,1
 1067              		.comm	octa_uid,8,8
 1068              		.comm	float_union,4,4
 1069              		.comm	uint16LittleEndian,2,4
 1070              		.comm	int16LittleEndian,2,4
 1071              		.comm	uint32LittleEndian,4,4
 1072              		.comm	int32LittleEndian,4,4
 1073              		.comm	rtosprintHandle,4,4
 1074              		.comm	hrtc,36,4
 1075              		.comm	FLASH_SPI,100,4
 1076              		.comm	P3_SPI,100,4
 1077              		.comm	P2_SPI,100,4
 1078              		.comm	P1_SPI,100,4
 1079              		.comm	P3_I2C,76,4
 1080              		.comm	P2_I2C,76,4
 1081              		.comm	P1_I2C,76,4
 1082              		.comm	common_I2C,76,4
 1083              		.comm	P3_UART,120,4
 1084              		.comm	P2_UART,120,4
 1085              		.comm	P1_UART,120,4
 1086              		.comm	FTDI_UART,120,4
 1087              		.comm	BLE_UART,120,4
 1088              		.comm	USB_UART,120,4
 1089              		.comm	hiwdg,16,4
 1090              		.comm	P3_DIO6,8,4
 1091              		.comm	P3_DIO5,8,4
 1092              		.comm	P3_DIO4,8,4
 1093              		.comm	P3_DIO3,8,4
 1094              		.comm	P3_DIO2,8,4
 1095              		.comm	P3_DIO1,8,4
 1096              		.comm	P2_DIO6,8,4
 1097              		.comm	P2_DIO5,8,4
 1098              		.comm	P2_DIO4,8,4
 1099              		.comm	P2_DIO3,8,4
 1100              		.comm	P2_DIO2,8,4
 1101              		.comm	P2_DIO1,8,4
 1102              		.comm	P1_DIO6,8,4
 1103              		.comm	P1_DIO5,8,4
 1104              		.comm	P1_DIO4,8,4
 1105              		.comm	P1_DIO3,8,4
 1106              		.comm	P1_DIO2,8,4
 1107              		.comm	P1_DIO1,8,4
 1108              		.comm	htim6,64,4
 1109              		.comm	htim1,64,4
ARM GAS  C:\Users\tomra\AppData\Local\Temp\ccfHtaWb.s 			page 26


 1110              		.section	.bss.BLE_UART_RX_Callback,"aw",%nobits
 1111              		.align	2
 1112              		.set	.LANCHOR6,. + 0
 1115              	BLE_UART_RX_Callback:
 1116 0000 00000000 		.space	4
 1117              		.section	.bss.FTDI_UART_RX_Callback,"aw",%nobits
 1118              		.align	2
 1119              		.set	.LANCHOR8,. + 0
 1122              	FTDI_UART_RX_Callback:
 1123 0000 00000000 		.space	4
 1124              		.section	.bss.P1_Application_UART_RX_Callback,"aw",%nobits
 1125              		.align	2
 1126              		.set	.LANCHOR1,. + 0
 1129              	P1_Application_UART_RX_Callback:
 1130 0000 00000000 		.space	4
 1131              		.section	.bss.P1_Shield_UART_RX_Callback,"aw",%nobits
 1132              		.align	2
 1133              		.set	.LANCHOR0,. + 0
 1136              	P1_Shield_UART_RX_Callback:
 1137 0000 00000000 		.space	4
 1138              		.section	.bss.P2_Application_UART_RX_Callback,"aw",%nobits
 1139              		.align	2
 1140              		.set	.LANCHOR3,. + 0
 1143              	P2_Application_UART_RX_Callback:
 1144 0000 00000000 		.space	4
 1145              		.section	.bss.P2_Shield_UART_RX_Callback,"aw",%nobits
 1146              		.align	2
 1147              		.set	.LANCHOR2,. + 0
 1150              	P2_Shield_UART_RX_Callback:
 1151 0000 00000000 		.space	4
 1152              		.section	.bss.P3_Application_UART_RX_Callback,"aw",%nobits
 1153              		.align	2
 1154              		.set	.LANCHOR5,. + 0
 1157              	P3_Application_UART_RX_Callback:
 1158 0000 00000000 		.space	4
 1159              		.section	.bss.P3_Shield_UART_RX_Callback,"aw",%nobits
 1160              		.align	2
 1161              		.set	.LANCHOR4,. + 0
 1164              	P3_Shield_UART_RX_Callback:
 1165 0000 00000000 		.space	4
 1166              		.section	.bss.USB_UART_RX_Callback,"aw",%nobits
 1167              		.align	2
 1168              		.set	.LANCHOR7,. + 0
 1171              	USB_UART_RX_Callback:
 1172 0000 00000000 		.space	4
 1173              		.text
 1174              	.Letext0:
 1175              		.file 2 "c:\\program files (x86)\\gnu tools arm embedded\\9 2019-q4-major\\arm-none-eabi\\include\
 1176              		.file 3 "c:\\program files (x86)\\gnu tools arm embedded\\9 2019-q4-major\\arm-none-eabi\\include\
 1177              		.file 4 "../../../core/ST/CMSIS/Include/core_cm4.h"
 1178              		.file 5 "../../../core/ST/CMSIS/Device/ST/STM32L4xx/Include/system_stm32l4xx.h"
 1179              		.file 6 "../../../core/ST/CMSIS/Device/ST/STM32L4xx/Include/stm32l496xx.h"
 1180              		.file 7 "../../../core/ST/STM32L4xx_HAL_Driver/Inc/stm32l4xx_hal_def.h"
 1181              		.file 8 "../../../core/ST/STM32L4xx_HAL_Driver/Inc/stm32l4xx_hal_dma.h"
 1182              		.file 9 "../../../core/ST/STM32L4xx_HAL_Driver/Inc/stm32l4xx_hal_i2c.h"
 1183              		.file 10 "../../../core/ST/STM32L4xx_HAL_Driver/Inc/stm32l4xx_hal_iwdg.h"
 1184              		.file 11 "../../../core/ST/STM32L4xx_HAL_Driver/Inc/stm32l4xx_hal_rtc.h"
ARM GAS  C:\Users\tomra\AppData\Local\Temp\ccfHtaWb.s 			page 27


 1185              		.file 12 "../../../core/ST/STM32L4xx_HAL_Driver/Inc/stm32l4xx_hal_spi.h"
 1186              		.file 13 "../../../core/ST/STM32L4xx_HAL_Driver/Inc/stm32l4xx_hal_tim.h"
 1187              		.file 14 "../../../core/ST/STM32L4xx_HAL_Driver/Inc/stm32l4xx_hal_uart.h"
 1188              		.file 15 "../../../core/ST/STM32L4xx_HAL_Driver/Inc/stm32l4xx_hal.h"
 1189              		.file 16 "../../../core/ST/Middlewares/Third_Party/FreeRTOS/Source/include/task.h"
 1190              		.file 17 "../../../core/ST/Middlewares/Third_Party/FreeRTOS/Source/CMSIS_RTOS/cmsis_os.h"
 1191              		.file 18 "../../../core/platform/octa/inc/sysclock.h"
 1192              		.file 19 "../../../core/platform/octa/inc/gpio.h"
 1193              		.file 20 "../../../core/platform/octa/inc/iwdg.h"
 1194              		.file 21 "../../../core/platform/octa/inc/uart.h"
 1195              		.file 22 "../../../core/platform/octa/inc/i2c.h"
 1196              		.file 23 "../../../core/platform/octa/inc/spi.h"
 1197              		.file 24 "../../../core/platform/octa/inc/rtc.h"
 1198              		.file 25 "../../../core/platform/octa/inc/rtosincludes.h"
 1199              		.file 26 "c:\\program files (x86)\\gnu tools arm embedded\\9 2019-q4-major\\arm-none-eabi\\include
 1200              		.file 27 "c:\\program files (x86)\\gnu tools arm embedded\\9 2019-q4-major\\arm-none-eabi\\include
 1201              		.file 28 "c:\\program files (x86)\\gnu tools arm embedded\\9 2019-q4-major\\lib\\gcc\\arm-none-eab
 1202              		.file 29 "c:\\program files (x86)\\gnu tools arm embedded\\9 2019-q4-major\\arm-none-eabi\\include
 1203              		.file 30 "../../../core/platform/common/inc/datatypes.h"
 1204              		.file 31 "../../../core/platform/octa/inc/platform.h"
 1205              		.file 32 "../../../core/platform/common/inc/print.h"
 1206              		.file 33 "../../../core/platform/common/inc/error.h"
 1207              		.file 34 "../../../core/ST/STM32L4xx_HAL_Driver/Inc/stm32l4xx_hal_cortex.h"
ARM GAS  C:\Users\tomra\AppData\Local\Temp\ccfHtaWb.s 			page 28

