ARM GAS  C:\Users\tijsv\AppData\Local\Temp\cc6LJGIv.s 			page 1


   1              		.cpu cortex-m4
   2              		.eabi_attribute 27, 1
   3              		.eabi_attribute 28, 1
   4              		.eabi_attribute 20, 1
   5              		.eabi_attribute 21, 1
   6              		.eabi_attribute 23, 3
   7              		.eabi_attribute 24, 1
   8              		.eabi_attribute 25, 1
   9              		.eabi_attribute 26, 1
  10              		.eabi_attribute 30, 1
  11              		.eabi_attribute 34, 1
  12              		.eabi_attribute 18, 4
  13              		.file	"cmsis_os.c"
  14              		.text
  15              	.Ltext0:
  16              		.cfi_sections	.debug_frame
  17              		.section	.text.makeFreeRtosPriority,"ax",%progbits
  18              		.align	1
  19              		.arch armv7e-m
  20              		.syntax unified
  21              		.thumb
  22              		.thumb_func
  23              		.fpu fpv4-sp-d16
  25              	makeFreeRtosPriority:
  26              	.LVL0:
  27              	.LFB30:
  28              		.file 1 "../../../core/ST/Middlewares/Third_Party/FreeRTOS/Source/CMSIS_RTOS/cmsis_os.c"
   1:../../../core/ST/Middlewares/Third_Party/FreeRTOS/Source/CMSIS_RTOS/cmsis_os.c **** /* ----------------------------------------------------------------------
   2:../../../core/ST/Middlewares/Third_Party/FreeRTOS/Source/CMSIS_RTOS/cmsis_os.c ****  * $Date:        5. February 2013
   3:../../../core/ST/Middlewares/Third_Party/FreeRTOS/Source/CMSIS_RTOS/cmsis_os.c ****  * $Revision:    V1.02
   4:../../../core/ST/Middlewares/Third_Party/FreeRTOS/Source/CMSIS_RTOS/cmsis_os.c ****  *
   5:../../../core/ST/Middlewares/Third_Party/FreeRTOS/Source/CMSIS_RTOS/cmsis_os.c ****  * Project:      CMSIS-RTOS API
   6:../../../core/ST/Middlewares/Third_Party/FreeRTOS/Source/CMSIS_RTOS/cmsis_os.c ****  * Title:        cmsis_os.c
   7:../../../core/ST/Middlewares/Third_Party/FreeRTOS/Source/CMSIS_RTOS/cmsis_os.c ****  *
   8:../../../core/ST/Middlewares/Third_Party/FreeRTOS/Source/CMSIS_RTOS/cmsis_os.c ****  * Version 0.02
   9:../../../core/ST/Middlewares/Third_Party/FreeRTOS/Source/CMSIS_RTOS/cmsis_os.c ****  *    Initial Proposal Phase
  10:../../../core/ST/Middlewares/Third_Party/FreeRTOS/Source/CMSIS_RTOS/cmsis_os.c ****  * Version 0.03
  11:../../../core/ST/Middlewares/Third_Party/FreeRTOS/Source/CMSIS_RTOS/cmsis_os.c ****  *    osKernelStart added, optional feature: main started as thread
  12:../../../core/ST/Middlewares/Third_Party/FreeRTOS/Source/CMSIS_RTOS/cmsis_os.c ****  *    osSemaphores have standard behavior
  13:../../../core/ST/Middlewares/Third_Party/FreeRTOS/Source/CMSIS_RTOS/cmsis_os.c ****  *    osTimerCreate does not start the timer, added osTimerStart
  14:../../../core/ST/Middlewares/Third_Party/FreeRTOS/Source/CMSIS_RTOS/cmsis_os.c ****  *    osThreadPass is renamed to osThreadYield
  15:../../../core/ST/Middlewares/Third_Party/FreeRTOS/Source/CMSIS_RTOS/cmsis_os.c ****  * Version 1.01
  16:../../../core/ST/Middlewares/Third_Party/FreeRTOS/Source/CMSIS_RTOS/cmsis_os.c ****  *    Support for C++ interface
  17:../../../core/ST/Middlewares/Third_Party/FreeRTOS/Source/CMSIS_RTOS/cmsis_os.c ****  *     - const attribute removed from the osXxxxDef_t typedef's
  18:../../../core/ST/Middlewares/Third_Party/FreeRTOS/Source/CMSIS_RTOS/cmsis_os.c ****  *     - const attribute added to the osXxxxDef macros
  19:../../../core/ST/Middlewares/Third_Party/FreeRTOS/Source/CMSIS_RTOS/cmsis_os.c ****  *    Added: osTimerDelete, osMutexDelete, osSemaphoreDelete
  20:../../../core/ST/Middlewares/Third_Party/FreeRTOS/Source/CMSIS_RTOS/cmsis_os.c ****  *    Added: osKernelInitialize
  21:../../../core/ST/Middlewares/Third_Party/FreeRTOS/Source/CMSIS_RTOS/cmsis_os.c ****  * Version 1.02
  22:../../../core/ST/Middlewares/Third_Party/FreeRTOS/Source/CMSIS_RTOS/cmsis_os.c ****  *    Control functions for short timeouts in microsecond resolution:
  23:../../../core/ST/Middlewares/Third_Party/FreeRTOS/Source/CMSIS_RTOS/cmsis_os.c ****  *    Added: osKernelSysTick, osKernelSysTickFrequency, osKernelSysTickMicroSec
  24:../../../core/ST/Middlewares/Third_Party/FreeRTOS/Source/CMSIS_RTOS/cmsis_os.c ****  *    Removed: osSignalGet 
  25:../../../core/ST/Middlewares/Third_Party/FreeRTOS/Source/CMSIS_RTOS/cmsis_os.c ****  *    
  26:../../../core/ST/Middlewares/Third_Party/FreeRTOS/Source/CMSIS_RTOS/cmsis_os.c ****  *  
  27:../../../core/ST/Middlewares/Third_Party/FreeRTOS/Source/CMSIS_RTOS/cmsis_os.c ****  *----------------------------------------------------------------------------
  28:../../../core/ST/Middlewares/Third_Party/FreeRTOS/Source/CMSIS_RTOS/cmsis_os.c ****  *
  29:../../../core/ST/Middlewares/Third_Party/FreeRTOS/Source/CMSIS_RTOS/cmsis_os.c ****  * Portions Copyright © 2016 STMicroelectronics International N.V. All rights reserved.
  30:../../../core/ST/Middlewares/Third_Party/FreeRTOS/Source/CMSIS_RTOS/cmsis_os.c ****  * Portions Copyright (c) 2013 ARM LIMITED
ARM GAS  C:\Users\tijsv\AppData\Local\Temp\cc6LJGIv.s 			page 2


  31:../../../core/ST/Middlewares/Third_Party/FreeRTOS/Source/CMSIS_RTOS/cmsis_os.c ****  * All rights reserved.
  32:../../../core/ST/Middlewares/Third_Party/FreeRTOS/Source/CMSIS_RTOS/cmsis_os.c ****  * Redistribution and use in source and binary forms, with or without
  33:../../../core/ST/Middlewares/Third_Party/FreeRTOS/Source/CMSIS_RTOS/cmsis_os.c ****  * modification, are permitted provided that the following conditions are met:
  34:../../../core/ST/Middlewares/Third_Party/FreeRTOS/Source/CMSIS_RTOS/cmsis_os.c ****  *  - Redistributions of source code must retain the above copyright
  35:../../../core/ST/Middlewares/Third_Party/FreeRTOS/Source/CMSIS_RTOS/cmsis_os.c ****  *    notice, this list of conditions and the following disclaimer.
  36:../../../core/ST/Middlewares/Third_Party/FreeRTOS/Source/CMSIS_RTOS/cmsis_os.c ****  *  - Redistributions in binary form must reproduce the above copyright
  37:../../../core/ST/Middlewares/Third_Party/FreeRTOS/Source/CMSIS_RTOS/cmsis_os.c ****  *    notice, this list of conditions and the following disclaimer in the
  38:../../../core/ST/Middlewares/Third_Party/FreeRTOS/Source/CMSIS_RTOS/cmsis_os.c ****  *    documentation and/or other materials provided with the distribution.
  39:../../../core/ST/Middlewares/Third_Party/FreeRTOS/Source/CMSIS_RTOS/cmsis_os.c ****  *  - Neither the name of ARM  nor the names of its contributors may be used
  40:../../../core/ST/Middlewares/Third_Party/FreeRTOS/Source/CMSIS_RTOS/cmsis_os.c ****  *    to endorse or promote products derived from this software without
  41:../../../core/ST/Middlewares/Third_Party/FreeRTOS/Source/CMSIS_RTOS/cmsis_os.c ****  *    specific prior written permission.
  42:../../../core/ST/Middlewares/Third_Party/FreeRTOS/Source/CMSIS_RTOS/cmsis_os.c ****  *
  43:../../../core/ST/Middlewares/Third_Party/FreeRTOS/Source/CMSIS_RTOS/cmsis_os.c ****  * THIS SOFTWARE IS PROVIDED BY THE COPYRIGHT HOLDERS AND CONTRIBUTORS "AS IS"
  44:../../../core/ST/Middlewares/Third_Party/FreeRTOS/Source/CMSIS_RTOS/cmsis_os.c ****  * AND ANY EXPRESS OR IMPLIED WARRANTIES, INCLUDING, BUT NOT LIMITED TO, THE
  45:../../../core/ST/Middlewares/Third_Party/FreeRTOS/Source/CMSIS_RTOS/cmsis_os.c ****  * IMPLIED WARRANTIES OF MERCHANTABILITY AND FITNESS FOR A PARTICULAR PURPOSE
  46:../../../core/ST/Middlewares/Third_Party/FreeRTOS/Source/CMSIS_RTOS/cmsis_os.c ****  * ARE DISCLAIMED. IN NO EVENT SHALL COPYRIGHT HOLDERS AND CONTRIBUTORS BE
  47:../../../core/ST/Middlewares/Third_Party/FreeRTOS/Source/CMSIS_RTOS/cmsis_os.c ****  * LIABLE FOR ANY DIRECT, INDIRECT, INCIDENTAL, SPECIAL, EXEMPLARY, OR
  48:../../../core/ST/Middlewares/Third_Party/FreeRTOS/Source/CMSIS_RTOS/cmsis_os.c ****  * CONSEQUENTIAL DAMAGES (INCLUDING, BUT NOT LIMITED TO, PROCUREMENT OF
  49:../../../core/ST/Middlewares/Third_Party/FreeRTOS/Source/CMSIS_RTOS/cmsis_os.c ****  * SUBSTITUTE GOODS OR SERVICES; LOSS OF USE, DATA, OR PROFITS; OR BUSINESS
  50:../../../core/ST/Middlewares/Third_Party/FreeRTOS/Source/CMSIS_RTOS/cmsis_os.c ****  * INTERRUPTION) HOWEVER CAUSED AND ON ANY THEORY OF LIABILITY, WHETHER IN
  51:../../../core/ST/Middlewares/Third_Party/FreeRTOS/Source/CMSIS_RTOS/cmsis_os.c ****  * CONTRACT, STRICT LIABILITY, OR TORT (INCLUDING NEGLIGENCE OR OTHERWISE)
  52:../../../core/ST/Middlewares/Third_Party/FreeRTOS/Source/CMSIS_RTOS/cmsis_os.c ****  * ARISING IN ANY WAY OUT OF THE USE OF THIS SOFTWARE, EVEN IF ADVISED OF THE
  53:../../../core/ST/Middlewares/Third_Party/FreeRTOS/Source/CMSIS_RTOS/cmsis_os.c ****  * POSSIBILITY OF SUCH DAMAGE.
  54:../../../core/ST/Middlewares/Third_Party/FreeRTOS/Source/CMSIS_RTOS/cmsis_os.c ****  *---------------------------------------------------------------------------*/
  55:../../../core/ST/Middlewares/Third_Party/FreeRTOS/Source/CMSIS_RTOS/cmsis_os.c **** 
  56:../../../core/ST/Middlewares/Third_Party/FreeRTOS/Source/CMSIS_RTOS/cmsis_os.c ****  /**
  57:../../../core/ST/Middlewares/Third_Party/FreeRTOS/Source/CMSIS_RTOS/cmsis_os.c ****   ******************************************************************************
  58:../../../core/ST/Middlewares/Third_Party/FreeRTOS/Source/CMSIS_RTOS/cmsis_os.c ****   * @file    cmsis_os.c
  59:../../../core/ST/Middlewares/Third_Party/FreeRTOS/Source/CMSIS_RTOS/cmsis_os.c ****   * @author  MCD Application Team
  60:../../../core/ST/Middlewares/Third_Party/FreeRTOS/Source/CMSIS_RTOS/cmsis_os.c ****   * @date    13-July-2017
  61:../../../core/ST/Middlewares/Third_Party/FreeRTOS/Source/CMSIS_RTOS/cmsis_os.c ****   * @brief   CMSIS-RTOS API implementation for FreeRTOS V9.0.0
  62:../../../core/ST/Middlewares/Third_Party/FreeRTOS/Source/CMSIS_RTOS/cmsis_os.c ****   ******************************************************************************
  63:../../../core/ST/Middlewares/Third_Party/FreeRTOS/Source/CMSIS_RTOS/cmsis_os.c ****   * @attention
  64:../../../core/ST/Middlewares/Third_Party/FreeRTOS/Source/CMSIS_RTOS/cmsis_os.c ****   *
  65:../../../core/ST/Middlewares/Third_Party/FreeRTOS/Source/CMSIS_RTOS/cmsis_os.c ****   * Redistribution and use in source and binary forms, with or without 
  66:../../../core/ST/Middlewares/Third_Party/FreeRTOS/Source/CMSIS_RTOS/cmsis_os.c ****   * modification, are permitted, provided that the following conditions are met:
  67:../../../core/ST/Middlewares/Third_Party/FreeRTOS/Source/CMSIS_RTOS/cmsis_os.c ****   *
  68:../../../core/ST/Middlewares/Third_Party/FreeRTOS/Source/CMSIS_RTOS/cmsis_os.c ****   * 1. Redistribution of source code must retain the above copyright notice, 
  69:../../../core/ST/Middlewares/Third_Party/FreeRTOS/Source/CMSIS_RTOS/cmsis_os.c ****   *    this list of conditions and the following disclaimer.
  70:../../../core/ST/Middlewares/Third_Party/FreeRTOS/Source/CMSIS_RTOS/cmsis_os.c ****   * 2. Redistributions in binary form must reproduce the above copyright notice,
  71:../../../core/ST/Middlewares/Third_Party/FreeRTOS/Source/CMSIS_RTOS/cmsis_os.c ****   *    this list of conditions and the following disclaimer in the documentation
  72:../../../core/ST/Middlewares/Third_Party/FreeRTOS/Source/CMSIS_RTOS/cmsis_os.c ****   *    and/or other materials provided with the distribution.
  73:../../../core/ST/Middlewares/Third_Party/FreeRTOS/Source/CMSIS_RTOS/cmsis_os.c ****   * 3. Neither the name of STMicroelectronics nor the names of other 
  74:../../../core/ST/Middlewares/Third_Party/FreeRTOS/Source/CMSIS_RTOS/cmsis_os.c ****   *    contributors to this software may be used to endorse or promote products 
  75:../../../core/ST/Middlewares/Third_Party/FreeRTOS/Source/CMSIS_RTOS/cmsis_os.c ****   *    derived from this software without specific written permission.
  76:../../../core/ST/Middlewares/Third_Party/FreeRTOS/Source/CMSIS_RTOS/cmsis_os.c ****   * 4. This software, including modifications and/or derivative works of this 
  77:../../../core/ST/Middlewares/Third_Party/FreeRTOS/Source/CMSIS_RTOS/cmsis_os.c ****   *    software, must execute solely and exclusively on microcontroller or
  78:../../../core/ST/Middlewares/Third_Party/FreeRTOS/Source/CMSIS_RTOS/cmsis_os.c ****   *    microprocessor devices manufactured by or for STMicroelectronics.
  79:../../../core/ST/Middlewares/Third_Party/FreeRTOS/Source/CMSIS_RTOS/cmsis_os.c ****   * 5. Redistribution and use of this software other than as permitted under 
  80:../../../core/ST/Middlewares/Third_Party/FreeRTOS/Source/CMSIS_RTOS/cmsis_os.c ****   *    this license is void and will automatically terminate your rights under 
  81:../../../core/ST/Middlewares/Third_Party/FreeRTOS/Source/CMSIS_RTOS/cmsis_os.c ****   *    this license. 
  82:../../../core/ST/Middlewares/Third_Party/FreeRTOS/Source/CMSIS_RTOS/cmsis_os.c ****   *
  83:../../../core/ST/Middlewares/Third_Party/FreeRTOS/Source/CMSIS_RTOS/cmsis_os.c ****   * THIS SOFTWARE IS PROVIDED BY STMICROELECTRONICS AND CONTRIBUTORS "AS IS" 
  84:../../../core/ST/Middlewares/Third_Party/FreeRTOS/Source/CMSIS_RTOS/cmsis_os.c ****   * AND ANY EXPRESS, IMPLIED OR STATUTORY WARRANTIES, INCLUDING, BUT NOT 
  85:../../../core/ST/Middlewares/Third_Party/FreeRTOS/Source/CMSIS_RTOS/cmsis_os.c ****   * LIMITED TO, THE IMPLIED WARRANTIES OF MERCHANTABILITY, FITNESS FOR A 
  86:../../../core/ST/Middlewares/Third_Party/FreeRTOS/Source/CMSIS_RTOS/cmsis_os.c ****   * PARTICULAR PURPOSE AND NON-INFRINGEMENT OF THIRD PARTY INTELLECTUAL PROPERTY
  87:../../../core/ST/Middlewares/Third_Party/FreeRTOS/Source/CMSIS_RTOS/cmsis_os.c ****   * RIGHTS ARE DISCLAIMED TO THE FULLEST EXTENT PERMITTED BY LAW. IN NO EVENT 
ARM GAS  C:\Users\tijsv\AppData\Local\Temp\cc6LJGIv.s 			page 3


  88:../../../core/ST/Middlewares/Third_Party/FreeRTOS/Source/CMSIS_RTOS/cmsis_os.c ****   * SHALL STMICROELECTRONICS OR CONTRIBUTORS BE LIABLE FOR ANY DIRECT, INDIRECT,
  89:../../../core/ST/Middlewares/Third_Party/FreeRTOS/Source/CMSIS_RTOS/cmsis_os.c ****   * INCIDENTAL, SPECIAL, EXEMPLARY, OR CONSEQUENTIAL DAMAGES (INCLUDING, BUT NOT
  90:../../../core/ST/Middlewares/Third_Party/FreeRTOS/Source/CMSIS_RTOS/cmsis_os.c ****   * LIMITED TO, PROCUREMENT OF SUBSTITUTE GOODS OR SERVICES; LOSS OF USE, DATA, 
  91:../../../core/ST/Middlewares/Third_Party/FreeRTOS/Source/CMSIS_RTOS/cmsis_os.c ****   * OR PROFITS; OR BUSINESS INTERRUPTION) HOWEVER CAUSED AND ON ANY THEORY OF 
  92:../../../core/ST/Middlewares/Third_Party/FreeRTOS/Source/CMSIS_RTOS/cmsis_os.c ****   * LIABILITY, WHETHER IN CONTRACT, STRICT LIABILITY, OR TORT (INCLUDING 
  93:../../../core/ST/Middlewares/Third_Party/FreeRTOS/Source/CMSIS_RTOS/cmsis_os.c ****   * NEGLIGENCE OR OTHERWISE) ARISING IN ANY WAY OUT OF THE USE OF THIS SOFTWARE,
  94:../../../core/ST/Middlewares/Third_Party/FreeRTOS/Source/CMSIS_RTOS/cmsis_os.c ****   * EVEN IF ADVISED OF THE POSSIBILITY OF SUCH DAMAGE.
  95:../../../core/ST/Middlewares/Third_Party/FreeRTOS/Source/CMSIS_RTOS/cmsis_os.c ****   *
  96:../../../core/ST/Middlewares/Third_Party/FreeRTOS/Source/CMSIS_RTOS/cmsis_os.c ****   ******************************************************************************
  97:../../../core/ST/Middlewares/Third_Party/FreeRTOS/Source/CMSIS_RTOS/cmsis_os.c ****   */ 
  98:../../../core/ST/Middlewares/Third_Party/FreeRTOS/Source/CMSIS_RTOS/cmsis_os.c **** 
  99:../../../core/ST/Middlewares/Third_Party/FreeRTOS/Source/CMSIS_RTOS/cmsis_os.c **** #include <string.h>
 100:../../../core/ST/Middlewares/Third_Party/FreeRTOS/Source/CMSIS_RTOS/cmsis_os.c **** #include "cmsis_os.h"
 101:../../../core/ST/Middlewares/Third_Party/FreeRTOS/Source/CMSIS_RTOS/cmsis_os.c **** 
 102:../../../core/ST/Middlewares/Third_Party/FreeRTOS/Source/CMSIS_RTOS/cmsis_os.c **** /*
 103:../../../core/ST/Middlewares/Third_Party/FreeRTOS/Source/CMSIS_RTOS/cmsis_os.c ****  * ARM Compiler 4/5
 104:../../../core/ST/Middlewares/Third_Party/FreeRTOS/Source/CMSIS_RTOS/cmsis_os.c ****  */
 105:../../../core/ST/Middlewares/Third_Party/FreeRTOS/Source/CMSIS_RTOS/cmsis_os.c **** #if   defined ( __CC_ARM )
 106:../../../core/ST/Middlewares/Third_Party/FreeRTOS/Source/CMSIS_RTOS/cmsis_os.c **** 
 107:../../../core/ST/Middlewares/Third_Party/FreeRTOS/Source/CMSIS_RTOS/cmsis_os.c ****   #define __ASM            __asm                                      
 108:../../../core/ST/Middlewares/Third_Party/FreeRTOS/Source/CMSIS_RTOS/cmsis_os.c ****   #define __INLINE         __inline                                     
 109:../../../core/ST/Middlewares/Third_Party/FreeRTOS/Source/CMSIS_RTOS/cmsis_os.c ****   #define __STATIC_INLINE  static __inline
 110:../../../core/ST/Middlewares/Third_Party/FreeRTOS/Source/CMSIS_RTOS/cmsis_os.c **** 
 111:../../../core/ST/Middlewares/Third_Party/FreeRTOS/Source/CMSIS_RTOS/cmsis_os.c ****   #include "cmsis_armcc.h"
 112:../../../core/ST/Middlewares/Third_Party/FreeRTOS/Source/CMSIS_RTOS/cmsis_os.c **** 
 113:../../../core/ST/Middlewares/Third_Party/FreeRTOS/Source/CMSIS_RTOS/cmsis_os.c **** /*
 114:../../../core/ST/Middlewares/Third_Party/FreeRTOS/Source/CMSIS_RTOS/cmsis_os.c ****  * GNU Compiler
 115:../../../core/ST/Middlewares/Third_Party/FreeRTOS/Source/CMSIS_RTOS/cmsis_os.c ****  */
 116:../../../core/ST/Middlewares/Third_Party/FreeRTOS/Source/CMSIS_RTOS/cmsis_os.c **** #elif defined ( __GNUC__ )
 117:../../../core/ST/Middlewares/Third_Party/FreeRTOS/Source/CMSIS_RTOS/cmsis_os.c **** 
 118:../../../core/ST/Middlewares/Third_Party/FreeRTOS/Source/CMSIS_RTOS/cmsis_os.c ****   #define __ASM            __asm                                      /*!< asm keyword for GNU Comp
 119:../../../core/ST/Middlewares/Third_Party/FreeRTOS/Source/CMSIS_RTOS/cmsis_os.c ****   #define __INLINE         inline                                     /*!< inline keyword for GNU C
 120:../../../core/ST/Middlewares/Third_Party/FreeRTOS/Source/CMSIS_RTOS/cmsis_os.c ****   #define __STATIC_INLINE  static inline
 121:../../../core/ST/Middlewares/Third_Party/FreeRTOS/Source/CMSIS_RTOS/cmsis_os.c **** 
 122:../../../core/ST/Middlewares/Third_Party/FreeRTOS/Source/CMSIS_RTOS/cmsis_os.c ****   #include "cmsis_gcc.h"
 123:../../../core/ST/Middlewares/Third_Party/FreeRTOS/Source/CMSIS_RTOS/cmsis_os.c **** 
 124:../../../core/ST/Middlewares/Third_Party/FreeRTOS/Source/CMSIS_RTOS/cmsis_os.c **** 
 125:../../../core/ST/Middlewares/Third_Party/FreeRTOS/Source/CMSIS_RTOS/cmsis_os.c **** /*
 126:../../../core/ST/Middlewares/Third_Party/FreeRTOS/Source/CMSIS_RTOS/cmsis_os.c ****  * IAR Compiler
 127:../../../core/ST/Middlewares/Third_Party/FreeRTOS/Source/CMSIS_RTOS/cmsis_os.c ****  */
 128:../../../core/ST/Middlewares/Third_Party/FreeRTOS/Source/CMSIS_RTOS/cmsis_os.c **** #elif defined ( __ICCARM__ )
 129:../../../core/ST/Middlewares/Third_Party/FreeRTOS/Source/CMSIS_RTOS/cmsis_os.c **** 
 130:../../../core/ST/Middlewares/Third_Party/FreeRTOS/Source/CMSIS_RTOS/cmsis_os.c ****   #ifndef   __ASM
 131:../../../core/ST/Middlewares/Third_Party/FreeRTOS/Source/CMSIS_RTOS/cmsis_os.c ****     #define __ASM                     __asm
 132:../../../core/ST/Middlewares/Third_Party/FreeRTOS/Source/CMSIS_RTOS/cmsis_os.c ****   #endif
 133:../../../core/ST/Middlewares/Third_Party/FreeRTOS/Source/CMSIS_RTOS/cmsis_os.c ****   #ifndef   __INLINE
 134:../../../core/ST/Middlewares/Third_Party/FreeRTOS/Source/CMSIS_RTOS/cmsis_os.c ****     #define __INLINE                  inline
 135:../../../core/ST/Middlewares/Third_Party/FreeRTOS/Source/CMSIS_RTOS/cmsis_os.c ****   #endif
 136:../../../core/ST/Middlewares/Third_Party/FreeRTOS/Source/CMSIS_RTOS/cmsis_os.c ****   #ifndef   __STATIC_INLINE
 137:../../../core/ST/Middlewares/Third_Party/FreeRTOS/Source/CMSIS_RTOS/cmsis_os.c ****     #define __STATIC_INLINE           static inline
 138:../../../core/ST/Middlewares/Third_Party/FreeRTOS/Source/CMSIS_RTOS/cmsis_os.c ****   #endif
 139:../../../core/ST/Middlewares/Third_Party/FreeRTOS/Source/CMSIS_RTOS/cmsis_os.c **** 
 140:../../../core/ST/Middlewares/Third_Party/FreeRTOS/Source/CMSIS_RTOS/cmsis_os.c ****   #include <cmsis_iar.h>
 141:../../../core/ST/Middlewares/Third_Party/FreeRTOS/Source/CMSIS_RTOS/cmsis_os.c **** #endif
 142:../../../core/ST/Middlewares/Third_Party/FreeRTOS/Source/CMSIS_RTOS/cmsis_os.c **** 
 143:../../../core/ST/Middlewares/Third_Party/FreeRTOS/Source/CMSIS_RTOS/cmsis_os.c **** extern void xPortSysTickHandler(void);
 144:../../../core/ST/Middlewares/Third_Party/FreeRTOS/Source/CMSIS_RTOS/cmsis_os.c **** 
ARM GAS  C:\Users\tijsv\AppData\Local\Temp\cc6LJGIv.s 			page 4


 145:../../../core/ST/Middlewares/Third_Party/FreeRTOS/Source/CMSIS_RTOS/cmsis_os.c **** /* Convert from CMSIS type osPriority to FreeRTOS priority number */
 146:../../../core/ST/Middlewares/Third_Party/FreeRTOS/Source/CMSIS_RTOS/cmsis_os.c **** static unsigned portBASE_TYPE makeFreeRtosPriority (osPriority priority)
 147:../../../core/ST/Middlewares/Third_Party/FreeRTOS/Source/CMSIS_RTOS/cmsis_os.c **** {
  29              		.loc 1 147 1 view -0
  30              		.cfi_startproc
  31              		@ args = 0, pretend = 0, frame = 0
  32              		@ frame_needed = 0, uses_anonymous_args = 0
  33              		@ link register save eliminated.
 148:../../../core/ST/Middlewares/Third_Party/FreeRTOS/Source/CMSIS_RTOS/cmsis_os.c ****   unsigned portBASE_TYPE fpriority = tskIDLE_PRIORITY;
  34              		.loc 1 148 3 view .LVU1
 149:../../../core/ST/Middlewares/Third_Party/FreeRTOS/Source/CMSIS_RTOS/cmsis_os.c ****   
 150:../../../core/ST/Middlewares/Third_Party/FreeRTOS/Source/CMSIS_RTOS/cmsis_os.c ****   if (priority != osPriorityError) {
  35              		.loc 1 150 3 view .LVU2
  36              		.loc 1 150 6 is_stmt 0 view .LVU3
  37 0000 8428     		cmp	r0, #132
  38 0002 01D0     		beq	.L3
 151:../../../core/ST/Middlewares/Third_Party/FreeRTOS/Source/CMSIS_RTOS/cmsis_os.c ****     fpriority += (priority - osPriorityIdle);
  39              		.loc 1 151 5 is_stmt 1 view .LVU4
  40              		.loc 1 151 15 is_stmt 0 view .LVU5
  41 0004 0330     		adds	r0, r0, #3
  42              	.LVL1:
  43              		.loc 1 151 15 view .LVU6
  44 0006 7047     		bx	lr
  45              	.LVL2:
  46              	.L3:
 148:../../../core/ST/Middlewares/Third_Party/FreeRTOS/Source/CMSIS_RTOS/cmsis_os.c ****   unsigned portBASE_TYPE fpriority = tskIDLE_PRIORITY;
  47              		.loc 1 148 26 view .LVU7
  48 0008 0020     		movs	r0, #0
  49              	.LVL3:
 152:../../../core/ST/Middlewares/Third_Party/FreeRTOS/Source/CMSIS_RTOS/cmsis_os.c ****   }
 153:../../../core/ST/Middlewares/Third_Party/FreeRTOS/Source/CMSIS_RTOS/cmsis_os.c ****   
 154:../../../core/ST/Middlewares/Third_Party/FreeRTOS/Source/CMSIS_RTOS/cmsis_os.c ****   return fpriority;
  50              		.loc 1 154 3 is_stmt 1 view .LVU8
 155:../../../core/ST/Middlewares/Third_Party/FreeRTOS/Source/CMSIS_RTOS/cmsis_os.c **** }
  51              		.loc 1 155 1 is_stmt 0 view .LVU9
  52 000a 7047     		bx	lr
  53              		.cfi_endproc
  54              	.LFE30:
  56              		.section	.text.makeCmsisPriority,"ax",%progbits
  57              		.align	1
  58              		.syntax unified
  59              		.thumb
  60              		.thumb_func
  61              		.fpu fpv4-sp-d16
  63              	makeCmsisPriority:
  64              	.LVL4:
  65              	.LFB31:
 156:../../../core/ST/Middlewares/Third_Party/FreeRTOS/Source/CMSIS_RTOS/cmsis_os.c **** 
 157:../../../core/ST/Middlewares/Third_Party/FreeRTOS/Source/CMSIS_RTOS/cmsis_os.c **** #if (INCLUDE_uxTaskPriorityGet == 1)
 158:../../../core/ST/Middlewares/Third_Party/FreeRTOS/Source/CMSIS_RTOS/cmsis_os.c **** /* Convert from FreeRTOS priority number to CMSIS type osPriority */
 159:../../../core/ST/Middlewares/Third_Party/FreeRTOS/Source/CMSIS_RTOS/cmsis_os.c **** static osPriority makeCmsisPriority (unsigned portBASE_TYPE fpriority)
 160:../../../core/ST/Middlewares/Third_Party/FreeRTOS/Source/CMSIS_RTOS/cmsis_os.c **** {
  66              		.loc 1 160 1 is_stmt 1 view -0
  67              		.cfi_startproc
  68              		@ args = 0, pretend = 0, frame = 0
  69              		@ frame_needed = 0, uses_anonymous_args = 0
  70              		@ link register save eliminated.
ARM GAS  C:\Users\tijsv\AppData\Local\Temp\cc6LJGIv.s 			page 5


 161:../../../core/ST/Middlewares/Third_Party/FreeRTOS/Source/CMSIS_RTOS/cmsis_os.c ****   osPriority priority = osPriorityError;
  71              		.loc 1 161 3 view .LVU11
 162:../../../core/ST/Middlewares/Third_Party/FreeRTOS/Source/CMSIS_RTOS/cmsis_os.c ****   
 163:../../../core/ST/Middlewares/Third_Party/FreeRTOS/Source/CMSIS_RTOS/cmsis_os.c ****   if ((fpriority - tskIDLE_PRIORITY) <= (osPriorityRealtime - osPriorityIdle)) {
  72              		.loc 1 163 3 view .LVU12
  73              		.loc 1 163 6 is_stmt 0 view .LVU13
  74 0000 0628     		cmp	r0, #6
  75 0002 02D8     		bhi	.L6
 164:../../../core/ST/Middlewares/Third_Party/FreeRTOS/Source/CMSIS_RTOS/cmsis_os.c ****     priority = (osPriority)((int)osPriorityIdle + (int)(fpriority - tskIDLE_PRIORITY));
  76              		.loc 1 164 5 is_stmt 1 view .LVU14
  77              		.loc 1 164 49 is_stmt 0 view .LVU15
  78 0004 0338     		subs	r0, r0, #3
  79              	.LVL5:
  80              		.loc 1 164 14 view .LVU16
  81 0006 00B2     		sxth	r0, r0
  82              	.LVL6:
  83              		.loc 1 164 14 view .LVU17
  84 0008 7047     		bx	lr
  85              	.LVL7:
  86              	.L6:
 161:../../../core/ST/Middlewares/Third_Party/FreeRTOS/Source/CMSIS_RTOS/cmsis_os.c ****   osPriority priority = osPriorityError;
  87              		.loc 1 161 14 view .LVU18
  88 000a 8420     		movs	r0, #132
  89              	.LVL8:
 165:../../../core/ST/Middlewares/Third_Party/FreeRTOS/Source/CMSIS_RTOS/cmsis_os.c ****   }
 166:../../../core/ST/Middlewares/Third_Party/FreeRTOS/Source/CMSIS_RTOS/cmsis_os.c ****   
 167:../../../core/ST/Middlewares/Third_Party/FreeRTOS/Source/CMSIS_RTOS/cmsis_os.c ****   return priority;
  90              		.loc 1 167 3 is_stmt 1 view .LVU19
 168:../../../core/ST/Middlewares/Third_Party/FreeRTOS/Source/CMSIS_RTOS/cmsis_os.c **** }
  91              		.loc 1 168 1 is_stmt 0 view .LVU20
  92 000c 7047     		bx	lr
  93              		.cfi_endproc
  94              	.LFE31:
  96              		.section	.text.inHandlerMode,"ax",%progbits
  97              		.align	1
  98              		.syntax unified
  99              		.thumb
 100              		.thumb_func
 101              		.fpu fpv4-sp-d16
 103              	inHandlerMode:
 104              	.LFB32:
 169:../../../core/ST/Middlewares/Third_Party/FreeRTOS/Source/CMSIS_RTOS/cmsis_os.c **** #endif
 170:../../../core/ST/Middlewares/Third_Party/FreeRTOS/Source/CMSIS_RTOS/cmsis_os.c **** 
 171:../../../core/ST/Middlewares/Third_Party/FreeRTOS/Source/CMSIS_RTOS/cmsis_os.c **** 
 172:../../../core/ST/Middlewares/Third_Party/FreeRTOS/Source/CMSIS_RTOS/cmsis_os.c **** /* Determine whether we are in thread mode or handler mode. */
 173:../../../core/ST/Middlewares/Third_Party/FreeRTOS/Source/CMSIS_RTOS/cmsis_os.c **** static int inHandlerMode (void)
 174:../../../core/ST/Middlewares/Third_Party/FreeRTOS/Source/CMSIS_RTOS/cmsis_os.c **** {
 105              		.loc 1 174 1 is_stmt 1 view -0
 106              		.cfi_startproc
 107              		@ args = 0, pretend = 0, frame = 0
 108              		@ frame_needed = 0, uses_anonymous_args = 0
 109              		@ link register save eliminated.
 175:../../../core/ST/Middlewares/Third_Party/FreeRTOS/Source/CMSIS_RTOS/cmsis_os.c ****   return __get_IPSR() != 0;
 110              		.loc 1 175 3 view .LVU22
 111              	.LBB8:
 112              	.LBI8:
 113              		.file 2 "../../../core/ST/CMSIS/Include/cmsis_gcc.h"
ARM GAS  C:\Users\tijsv\AppData\Local\Temp\cc6LJGIv.s 			page 6


   1:../../../core/ST/CMSIS/Include/cmsis_gcc.h **** /**************************************************************************//**
   2:../../../core/ST/CMSIS/Include/cmsis_gcc.h ****  * @file     cmsis_gcc.h
   3:../../../core/ST/CMSIS/Include/cmsis_gcc.h ****  * @brief    CMSIS Cortex-M Core Function/Instruction Header File
   4:../../../core/ST/CMSIS/Include/cmsis_gcc.h ****  * @version  V4.30
   5:../../../core/ST/CMSIS/Include/cmsis_gcc.h ****  * @date     20. October 2015
   6:../../../core/ST/CMSIS/Include/cmsis_gcc.h ****  ******************************************************************************/
   7:../../../core/ST/CMSIS/Include/cmsis_gcc.h **** /* Copyright (c) 2009 - 2015 ARM LIMITED
   8:../../../core/ST/CMSIS/Include/cmsis_gcc.h **** 
   9:../../../core/ST/CMSIS/Include/cmsis_gcc.h ****    All rights reserved.
  10:../../../core/ST/CMSIS/Include/cmsis_gcc.h ****    Redistribution and use in source and binary forms, with or without
  11:../../../core/ST/CMSIS/Include/cmsis_gcc.h ****    modification, are permitted provided that the following conditions are met:
  12:../../../core/ST/CMSIS/Include/cmsis_gcc.h ****    - Redistributions of source code must retain the above copyright
  13:../../../core/ST/CMSIS/Include/cmsis_gcc.h ****      notice, this list of conditions and the following disclaimer.
  14:../../../core/ST/CMSIS/Include/cmsis_gcc.h ****    - Redistributions in binary form must reproduce the above copyright
  15:../../../core/ST/CMSIS/Include/cmsis_gcc.h ****      notice, this list of conditions and the following disclaimer in the
  16:../../../core/ST/CMSIS/Include/cmsis_gcc.h ****      documentation and/or other materials provided with the distribution.
  17:../../../core/ST/CMSIS/Include/cmsis_gcc.h ****    - Neither the name of ARM nor the names of its contributors may be used
  18:../../../core/ST/CMSIS/Include/cmsis_gcc.h ****      to endorse or promote products derived from this software without
  19:../../../core/ST/CMSIS/Include/cmsis_gcc.h ****      specific prior written permission.
  20:../../../core/ST/CMSIS/Include/cmsis_gcc.h ****    *
  21:../../../core/ST/CMSIS/Include/cmsis_gcc.h ****    THIS SOFTWARE IS PROVIDED BY THE COPYRIGHT HOLDERS AND CONTRIBUTORS "AS IS"
  22:../../../core/ST/CMSIS/Include/cmsis_gcc.h ****    AND ANY EXPRESS OR IMPLIED WARRANTIES, INCLUDING, BUT NOT LIMITED TO, THE
  23:../../../core/ST/CMSIS/Include/cmsis_gcc.h ****    IMPLIED WARRANTIES OF MERCHANTABILITY AND FITNESS FOR A PARTICULAR PURPOSE
  24:../../../core/ST/CMSIS/Include/cmsis_gcc.h ****    ARE DISCLAIMED. IN NO EVENT SHALL COPYRIGHT HOLDERS AND CONTRIBUTORS BE
  25:../../../core/ST/CMSIS/Include/cmsis_gcc.h ****    LIABLE FOR ANY DIRECT, INDIRECT, INCIDENTAL, SPECIAL, EXEMPLARY, OR
  26:../../../core/ST/CMSIS/Include/cmsis_gcc.h ****    CONSEQUENTIAL DAMAGES (INCLUDING, BUT NOT LIMITED TO, PROCUREMENT OF
  27:../../../core/ST/CMSIS/Include/cmsis_gcc.h ****    SUBSTITUTE GOODS OR SERVICES; LOSS OF USE, DATA, OR PROFITS; OR BUSINESS
  28:../../../core/ST/CMSIS/Include/cmsis_gcc.h ****    INTERRUPTION) HOWEVER CAUSED AND ON ANY THEORY OF LIABILITY, WHETHER IN
  29:../../../core/ST/CMSIS/Include/cmsis_gcc.h ****    CONTRACT, STRICT LIABILITY, OR TORT (INCLUDING NEGLIGENCE OR OTHERWISE)
  30:../../../core/ST/CMSIS/Include/cmsis_gcc.h ****    ARISING IN ANY WAY OUT OF THE USE OF THIS SOFTWARE, EVEN IF ADVISED OF THE
  31:../../../core/ST/CMSIS/Include/cmsis_gcc.h ****    POSSIBILITY OF SUCH DAMAGE.
  32:../../../core/ST/CMSIS/Include/cmsis_gcc.h ****    ---------------------------------------------------------------------------*/
  33:../../../core/ST/CMSIS/Include/cmsis_gcc.h **** 
  34:../../../core/ST/CMSIS/Include/cmsis_gcc.h **** 
  35:../../../core/ST/CMSIS/Include/cmsis_gcc.h **** #ifndef __CMSIS_GCC_H
  36:../../../core/ST/CMSIS/Include/cmsis_gcc.h **** #define __CMSIS_GCC_H
  37:../../../core/ST/CMSIS/Include/cmsis_gcc.h **** 
  38:../../../core/ST/CMSIS/Include/cmsis_gcc.h **** /* ignore some GCC warnings */
  39:../../../core/ST/CMSIS/Include/cmsis_gcc.h **** #if defined ( __GNUC__ )
  40:../../../core/ST/CMSIS/Include/cmsis_gcc.h **** #pragma GCC diagnostic push
  41:../../../core/ST/CMSIS/Include/cmsis_gcc.h **** #pragma GCC diagnostic ignored "-Wsign-conversion"
  42:../../../core/ST/CMSIS/Include/cmsis_gcc.h **** #pragma GCC diagnostic ignored "-Wconversion"
  43:../../../core/ST/CMSIS/Include/cmsis_gcc.h **** #pragma GCC diagnostic ignored "-Wunused-parameter"
  44:../../../core/ST/CMSIS/Include/cmsis_gcc.h **** #endif
  45:../../../core/ST/CMSIS/Include/cmsis_gcc.h **** 
  46:../../../core/ST/CMSIS/Include/cmsis_gcc.h **** 
  47:../../../core/ST/CMSIS/Include/cmsis_gcc.h **** /* ###########################  Core Function Access  ########################### */
  48:../../../core/ST/CMSIS/Include/cmsis_gcc.h **** /** \ingroup  CMSIS_Core_FunctionInterface
  49:../../../core/ST/CMSIS/Include/cmsis_gcc.h ****     \defgroup CMSIS_Core_RegAccFunctions CMSIS Core Register Access Functions
  50:../../../core/ST/CMSIS/Include/cmsis_gcc.h ****   @{
  51:../../../core/ST/CMSIS/Include/cmsis_gcc.h ****  */
  52:../../../core/ST/CMSIS/Include/cmsis_gcc.h **** 
  53:../../../core/ST/CMSIS/Include/cmsis_gcc.h **** /**
  54:../../../core/ST/CMSIS/Include/cmsis_gcc.h ****   \brief   Enable IRQ Interrupts
  55:../../../core/ST/CMSIS/Include/cmsis_gcc.h ****   \details Enables IRQ interrupts by clearing the I-bit in the CPSR.
  56:../../../core/ST/CMSIS/Include/cmsis_gcc.h ****            Can only be executed in Privileged modes.
  57:../../../core/ST/CMSIS/Include/cmsis_gcc.h ****  */
ARM GAS  C:\Users\tijsv\AppData\Local\Temp\cc6LJGIv.s 			page 7


  58:../../../core/ST/CMSIS/Include/cmsis_gcc.h **** __attribute__( ( always_inline ) ) __STATIC_INLINE void __enable_irq(void)
  59:../../../core/ST/CMSIS/Include/cmsis_gcc.h **** {
  60:../../../core/ST/CMSIS/Include/cmsis_gcc.h ****   __ASM volatile ("cpsie i" : : : "memory");
  61:../../../core/ST/CMSIS/Include/cmsis_gcc.h **** }
  62:../../../core/ST/CMSIS/Include/cmsis_gcc.h **** 
  63:../../../core/ST/CMSIS/Include/cmsis_gcc.h **** 
  64:../../../core/ST/CMSIS/Include/cmsis_gcc.h **** /**
  65:../../../core/ST/CMSIS/Include/cmsis_gcc.h ****   \brief   Disable IRQ Interrupts
  66:../../../core/ST/CMSIS/Include/cmsis_gcc.h ****   \details Disables IRQ interrupts by setting the I-bit in the CPSR.
  67:../../../core/ST/CMSIS/Include/cmsis_gcc.h ****   Can only be executed in Privileged modes.
  68:../../../core/ST/CMSIS/Include/cmsis_gcc.h ****  */
  69:../../../core/ST/CMSIS/Include/cmsis_gcc.h **** __attribute__( ( always_inline ) ) __STATIC_INLINE void __disable_irq(void)
  70:../../../core/ST/CMSIS/Include/cmsis_gcc.h **** {
  71:../../../core/ST/CMSIS/Include/cmsis_gcc.h ****   __ASM volatile ("cpsid i" : : : "memory");
  72:../../../core/ST/CMSIS/Include/cmsis_gcc.h **** }
  73:../../../core/ST/CMSIS/Include/cmsis_gcc.h **** 
  74:../../../core/ST/CMSIS/Include/cmsis_gcc.h **** 
  75:../../../core/ST/CMSIS/Include/cmsis_gcc.h **** /**
  76:../../../core/ST/CMSIS/Include/cmsis_gcc.h ****   \brief   Get Control Register
  77:../../../core/ST/CMSIS/Include/cmsis_gcc.h ****   \details Returns the content of the Control Register.
  78:../../../core/ST/CMSIS/Include/cmsis_gcc.h ****   \return               Control Register value
  79:../../../core/ST/CMSIS/Include/cmsis_gcc.h ****  */
  80:../../../core/ST/CMSIS/Include/cmsis_gcc.h **** __attribute__( ( always_inline ) ) __STATIC_INLINE uint32_t __get_CONTROL(void)
  81:../../../core/ST/CMSIS/Include/cmsis_gcc.h **** {
  82:../../../core/ST/CMSIS/Include/cmsis_gcc.h ****   uint32_t result;
  83:../../../core/ST/CMSIS/Include/cmsis_gcc.h **** 
  84:../../../core/ST/CMSIS/Include/cmsis_gcc.h ****   __ASM volatile ("MRS %0, control" : "=r" (result) );
  85:../../../core/ST/CMSIS/Include/cmsis_gcc.h ****   return(result);
  86:../../../core/ST/CMSIS/Include/cmsis_gcc.h **** }
  87:../../../core/ST/CMSIS/Include/cmsis_gcc.h **** 
  88:../../../core/ST/CMSIS/Include/cmsis_gcc.h **** 
  89:../../../core/ST/CMSIS/Include/cmsis_gcc.h **** /**
  90:../../../core/ST/CMSIS/Include/cmsis_gcc.h ****   \brief   Set Control Register
  91:../../../core/ST/CMSIS/Include/cmsis_gcc.h ****   \details Writes the given value to the Control Register.
  92:../../../core/ST/CMSIS/Include/cmsis_gcc.h ****   \param [in]    control  Control Register value to set
  93:../../../core/ST/CMSIS/Include/cmsis_gcc.h ****  */
  94:../../../core/ST/CMSIS/Include/cmsis_gcc.h **** __attribute__( ( always_inline ) ) __STATIC_INLINE void __set_CONTROL(uint32_t control)
  95:../../../core/ST/CMSIS/Include/cmsis_gcc.h **** {
  96:../../../core/ST/CMSIS/Include/cmsis_gcc.h ****   __ASM volatile ("MSR control, %0" : : "r" (control) : "memory");
  97:../../../core/ST/CMSIS/Include/cmsis_gcc.h **** }
  98:../../../core/ST/CMSIS/Include/cmsis_gcc.h **** 
  99:../../../core/ST/CMSIS/Include/cmsis_gcc.h **** 
 100:../../../core/ST/CMSIS/Include/cmsis_gcc.h **** /**
 101:../../../core/ST/CMSIS/Include/cmsis_gcc.h ****   \brief   Get IPSR Register
 102:../../../core/ST/CMSIS/Include/cmsis_gcc.h ****   \details Returns the content of the IPSR Register.
 103:../../../core/ST/CMSIS/Include/cmsis_gcc.h ****   \return               IPSR Register value
 104:../../../core/ST/CMSIS/Include/cmsis_gcc.h ****  */
 105:../../../core/ST/CMSIS/Include/cmsis_gcc.h **** __attribute__( ( always_inline ) ) __STATIC_INLINE uint32_t __get_IPSR(void)
 114              		.loc 2 105 61 view .LVU23
 115              	.LBB9:
 106:../../../core/ST/CMSIS/Include/cmsis_gcc.h **** {
 107:../../../core/ST/CMSIS/Include/cmsis_gcc.h ****   uint32_t result;
 116              		.loc 2 107 3 view .LVU24
 108:../../../core/ST/CMSIS/Include/cmsis_gcc.h **** 
 109:../../../core/ST/CMSIS/Include/cmsis_gcc.h ****   __ASM volatile ("MRS %0, ipsr" : "=r" (result) );
 117              		.loc 2 109 3 view .LVU25
 118              		.syntax unified
ARM GAS  C:\Users\tijsv\AppData\Local\Temp\cc6LJGIv.s 			page 8


 119              	@ 109 "../../../core/ST/CMSIS/Include/cmsis_gcc.h" 1
 120 0000 EFF30580 		MRS r0, ipsr
 121              	@ 0 "" 2
 122              	.LVL9:
 110:../../../core/ST/CMSIS/Include/cmsis_gcc.h ****   return(result);
 123              		.loc 2 110 3 view .LVU26
 124              		.loc 2 110 3 is_stmt 0 view .LVU27
 125              		.thumb
 126              		.syntax unified
 127              	.LBE9:
 128              	.LBE8:
 176:../../../core/ST/Middlewares/Third_Party/FreeRTOS/Source/CMSIS_RTOS/cmsis_os.c **** }
 129              		.loc 1 176 1 view .LVU28
 130 0004 0038     		subs	r0, r0, #0
 131 0006 18BF     		it	ne
 132 0008 0120     		movne	r0, #1
 133 000a 7047     		bx	lr
 134              		.cfi_endproc
 135              	.LFE32:
 137              		.section	.text.osKernelStart,"ax",%progbits
 138              		.align	1
 139              		.global	osKernelStart
 140              		.syntax unified
 141              		.thumb
 142              		.thumb_func
 143              		.fpu fpv4-sp-d16
 145              	osKernelStart:
 146              	.LFB33:
 177:../../../core/ST/Middlewares/Third_Party/FreeRTOS/Source/CMSIS_RTOS/cmsis_os.c **** 
 178:../../../core/ST/Middlewares/Third_Party/FreeRTOS/Source/CMSIS_RTOS/cmsis_os.c **** /*********************** Kernel Control Functions *****************************/
 179:../../../core/ST/Middlewares/Third_Party/FreeRTOS/Source/CMSIS_RTOS/cmsis_os.c **** /**
 180:../../../core/ST/Middlewares/Third_Party/FreeRTOS/Source/CMSIS_RTOS/cmsis_os.c **** * @brief  Initialize the RTOS Kernel for creating objects.
 181:../../../core/ST/Middlewares/Third_Party/FreeRTOS/Source/CMSIS_RTOS/cmsis_os.c **** * @retval status code that indicates the execution status of the function.
 182:../../../core/ST/Middlewares/Third_Party/FreeRTOS/Source/CMSIS_RTOS/cmsis_os.c **** * @note   MUST REMAIN UNCHANGED: \b osKernelInitialize shall be consistent in every CMSIS-RTOS.
 183:../../../core/ST/Middlewares/Third_Party/FreeRTOS/Source/CMSIS_RTOS/cmsis_os.c **** */
 184:../../../core/ST/Middlewares/Third_Party/FreeRTOS/Source/CMSIS_RTOS/cmsis_os.c **** osStatus osKernelInitialize (void);
 185:../../../core/ST/Middlewares/Third_Party/FreeRTOS/Source/CMSIS_RTOS/cmsis_os.c **** 
 186:../../../core/ST/Middlewares/Third_Party/FreeRTOS/Source/CMSIS_RTOS/cmsis_os.c **** /**
 187:../../../core/ST/Middlewares/Third_Party/FreeRTOS/Source/CMSIS_RTOS/cmsis_os.c **** * @brief  Start the RTOS Kernel with executing the specified thread.
 188:../../../core/ST/Middlewares/Third_Party/FreeRTOS/Source/CMSIS_RTOS/cmsis_os.c **** * @param  thread_def    thread definition referenced with \ref osThread.
 189:../../../core/ST/Middlewares/Third_Party/FreeRTOS/Source/CMSIS_RTOS/cmsis_os.c **** * @param  argument      pointer that is passed to the thread function as start argument.
 190:../../../core/ST/Middlewares/Third_Party/FreeRTOS/Source/CMSIS_RTOS/cmsis_os.c **** * @retval status code that indicates the execution status of the function
 191:../../../core/ST/Middlewares/Third_Party/FreeRTOS/Source/CMSIS_RTOS/cmsis_os.c **** * @note   MUST REMAIN UNCHANGED: \b osKernelStart shall be consistent in every CMSIS-RTOS.
 192:../../../core/ST/Middlewares/Third_Party/FreeRTOS/Source/CMSIS_RTOS/cmsis_os.c **** */
 193:../../../core/ST/Middlewares/Third_Party/FreeRTOS/Source/CMSIS_RTOS/cmsis_os.c **** osStatus osKernelStart (void)
 194:../../../core/ST/Middlewares/Third_Party/FreeRTOS/Source/CMSIS_RTOS/cmsis_os.c **** {
 147              		.loc 1 194 1 is_stmt 1 view -0
 148              		.cfi_startproc
 149              		@ args = 0, pretend = 0, frame = 0
 150              		@ frame_needed = 0, uses_anonymous_args = 0
 151 0000 08B5     		push	{r3, lr}
 152              	.LCFI0:
 153              		.cfi_def_cfa_offset 8
 154              		.cfi_offset 3, -8
 155              		.cfi_offset 14, -4
 195:../../../core/ST/Middlewares/Third_Party/FreeRTOS/Source/CMSIS_RTOS/cmsis_os.c ****   vTaskStartScheduler();
 156              		.loc 1 195 3 view .LVU30
ARM GAS  C:\Users\tijsv\AppData\Local\Temp\cc6LJGIv.s 			page 9


 157 0002 FFF7FEFF 		bl	vTaskStartScheduler
 158              	.LVL10:
 196:../../../core/ST/Middlewares/Third_Party/FreeRTOS/Source/CMSIS_RTOS/cmsis_os.c ****   
 197:../../../core/ST/Middlewares/Third_Party/FreeRTOS/Source/CMSIS_RTOS/cmsis_os.c ****   return osOK;
 159              		.loc 1 197 3 view .LVU31
 198:../../../core/ST/Middlewares/Third_Party/FreeRTOS/Source/CMSIS_RTOS/cmsis_os.c **** }
 160              		.loc 1 198 1 is_stmt 0 view .LVU32
 161 0006 0020     		movs	r0, #0
 162 0008 08BD     		pop	{r3, pc}
 163              		.cfi_endproc
 164              	.LFE33:
 166              		.section	.text.osKernelRunning,"ax",%progbits
 167              		.align	1
 168              		.global	osKernelRunning
 169              		.syntax unified
 170              		.thumb
 171              		.thumb_func
 172              		.fpu fpv4-sp-d16
 174              	osKernelRunning:
 175              	.LFB34:
 199:../../../core/ST/Middlewares/Third_Party/FreeRTOS/Source/CMSIS_RTOS/cmsis_os.c **** 
 200:../../../core/ST/Middlewares/Third_Party/FreeRTOS/Source/CMSIS_RTOS/cmsis_os.c **** /**
 201:../../../core/ST/Middlewares/Third_Party/FreeRTOS/Source/CMSIS_RTOS/cmsis_os.c **** * @brief  Check if the RTOS kernel is already started
 202:../../../core/ST/Middlewares/Third_Party/FreeRTOS/Source/CMSIS_RTOS/cmsis_os.c **** * @param  None
 203:../../../core/ST/Middlewares/Third_Party/FreeRTOS/Source/CMSIS_RTOS/cmsis_os.c **** * @retval (0) RTOS is not started
 204:../../../core/ST/Middlewares/Third_Party/FreeRTOS/Source/CMSIS_RTOS/cmsis_os.c **** *         (1) RTOS is started
 205:../../../core/ST/Middlewares/Third_Party/FreeRTOS/Source/CMSIS_RTOS/cmsis_os.c **** *         (-1) if this feature is disabled in FreeRTOSConfig.h 
 206:../../../core/ST/Middlewares/Third_Party/FreeRTOS/Source/CMSIS_RTOS/cmsis_os.c **** * @note  MUST REMAIN UNCHANGED: \b osKernelRunning shall be consistent in every CMSIS-RTOS.
 207:../../../core/ST/Middlewares/Third_Party/FreeRTOS/Source/CMSIS_RTOS/cmsis_os.c **** */
 208:../../../core/ST/Middlewares/Third_Party/FreeRTOS/Source/CMSIS_RTOS/cmsis_os.c **** int32_t osKernelRunning(void)
 209:../../../core/ST/Middlewares/Third_Party/FreeRTOS/Source/CMSIS_RTOS/cmsis_os.c **** {
 176              		.loc 1 209 1 is_stmt 1 view -0
 177              		.cfi_startproc
 178              		@ args = 0, pretend = 0, frame = 0
 179              		@ frame_needed = 0, uses_anonymous_args = 0
 180 0000 08B5     		push	{r3, lr}
 181              	.LCFI1:
 182              		.cfi_def_cfa_offset 8
 183              		.cfi_offset 3, -8
 184              		.cfi_offset 14, -4
 210:../../../core/ST/Middlewares/Third_Party/FreeRTOS/Source/CMSIS_RTOS/cmsis_os.c **** #if ( ( INCLUDE_xTaskGetSchedulerState == 1 ) || ( configUSE_TIMERS == 1 ) )
 211:../../../core/ST/Middlewares/Third_Party/FreeRTOS/Source/CMSIS_RTOS/cmsis_os.c ****   if (xTaskGetSchedulerState() == taskSCHEDULER_NOT_STARTED)
 185              		.loc 1 211 3 view .LVU34
 186              		.loc 1 211 7 is_stmt 0 view .LVU35
 187 0002 FFF7FEFF 		bl	xTaskGetSchedulerState
 188              	.LVL11:
 189              		.loc 1 211 6 view .LVU36
 190 0006 0128     		cmp	r0, #1
 191 0008 01D0     		beq	.L14
 212:../../../core/ST/Middlewares/Third_Party/FreeRTOS/Source/CMSIS_RTOS/cmsis_os.c ****     return 0;
 213:../../../core/ST/Middlewares/Third_Party/FreeRTOS/Source/CMSIS_RTOS/cmsis_os.c ****   else
 214:../../../core/ST/Middlewares/Third_Party/FreeRTOS/Source/CMSIS_RTOS/cmsis_os.c ****     return 1;
 192              		.loc 1 214 12 view .LVU37
 193 000a 0120     		movs	r0, #1
 194              	.L10:
 215:../../../core/ST/Middlewares/Third_Party/FreeRTOS/Source/CMSIS_RTOS/cmsis_os.c **** #else
 216:../../../core/ST/Middlewares/Third_Party/FreeRTOS/Source/CMSIS_RTOS/cmsis_os.c **** 	return (-1);
ARM GAS  C:\Users\tijsv\AppData\Local\Temp\cc6LJGIv.s 			page 10


 217:../../../core/ST/Middlewares/Third_Party/FreeRTOS/Source/CMSIS_RTOS/cmsis_os.c **** #endif	
 218:../../../core/ST/Middlewares/Third_Party/FreeRTOS/Source/CMSIS_RTOS/cmsis_os.c **** }
 195              		.loc 1 218 1 view .LVU38
 196 000c 08BD     		pop	{r3, pc}
 197              	.L14:
 212:../../../core/ST/Middlewares/Third_Party/FreeRTOS/Source/CMSIS_RTOS/cmsis_os.c ****     return 0;
 198              		.loc 1 212 12 view .LVU39
 199 000e 0020     		movs	r0, #0
 200 0010 FCE7     		b	.L10
 201              		.cfi_endproc
 202              	.LFE34:
 204              		.section	.text.osKernelSysTick,"ax",%progbits
 205              		.align	1
 206              		.global	osKernelSysTick
 207              		.syntax unified
 208              		.thumb
 209              		.thumb_func
 210              		.fpu fpv4-sp-d16
 212              	osKernelSysTick:
 213              	.LFB35:
 219:../../../core/ST/Middlewares/Third_Party/FreeRTOS/Source/CMSIS_RTOS/cmsis_os.c **** 
 220:../../../core/ST/Middlewares/Third_Party/FreeRTOS/Source/CMSIS_RTOS/cmsis_os.c **** #if (defined (osFeature_SysTick)  &&  (osFeature_SysTick != 0))     // System Timer available
 221:../../../core/ST/Middlewares/Third_Party/FreeRTOS/Source/CMSIS_RTOS/cmsis_os.c **** /**
 222:../../../core/ST/Middlewares/Third_Party/FreeRTOS/Source/CMSIS_RTOS/cmsis_os.c **** * @brief  Get the value of the Kernel SysTick timer
 223:../../../core/ST/Middlewares/Third_Party/FreeRTOS/Source/CMSIS_RTOS/cmsis_os.c **** * @param  None
 224:../../../core/ST/Middlewares/Third_Party/FreeRTOS/Source/CMSIS_RTOS/cmsis_os.c **** * @retval None
 225:../../../core/ST/Middlewares/Third_Party/FreeRTOS/Source/CMSIS_RTOS/cmsis_os.c **** * @note   MUST REMAIN UNCHANGED: \b osKernelSysTick shall be consistent in every CMSIS-RTOS.
 226:../../../core/ST/Middlewares/Third_Party/FreeRTOS/Source/CMSIS_RTOS/cmsis_os.c **** */
 227:../../../core/ST/Middlewares/Third_Party/FreeRTOS/Source/CMSIS_RTOS/cmsis_os.c **** uint32_t osKernelSysTick(void)
 228:../../../core/ST/Middlewares/Third_Party/FreeRTOS/Source/CMSIS_RTOS/cmsis_os.c **** {
 214              		.loc 1 228 1 is_stmt 1 view -0
 215              		.cfi_startproc
 216              		@ args = 0, pretend = 0, frame = 0
 217              		@ frame_needed = 0, uses_anonymous_args = 0
 218 0000 08B5     		push	{r3, lr}
 219              	.LCFI2:
 220              		.cfi_def_cfa_offset 8
 221              		.cfi_offset 3, -8
 222              		.cfi_offset 14, -4
 229:../../../core/ST/Middlewares/Third_Party/FreeRTOS/Source/CMSIS_RTOS/cmsis_os.c ****   if (inHandlerMode()) {
 223              		.loc 1 229 3 view .LVU41
 224              		.loc 1 229 7 is_stmt 0 view .LVU42
 225 0002 FFF7FEFF 		bl	inHandlerMode
 226              	.LVL12:
 227              		.loc 1 229 6 view .LVU43
 228 0006 10B1     		cbz	r0, .L16
 230:../../../core/ST/Middlewares/Third_Party/FreeRTOS/Source/CMSIS_RTOS/cmsis_os.c ****     return xTaskGetTickCountFromISR();
 229              		.loc 1 230 5 is_stmt 1 view .LVU44
 230              		.loc 1 230 12 is_stmt 0 view .LVU45
 231 0008 FFF7FEFF 		bl	xTaskGetTickCountFromISR
 232              	.LVL13:
 233              	.L15:
 231:../../../core/ST/Middlewares/Third_Party/FreeRTOS/Source/CMSIS_RTOS/cmsis_os.c ****   }
 232:../../../core/ST/Middlewares/Third_Party/FreeRTOS/Source/CMSIS_RTOS/cmsis_os.c ****   else {
 233:../../../core/ST/Middlewares/Third_Party/FreeRTOS/Source/CMSIS_RTOS/cmsis_os.c ****     return xTaskGetTickCount();
 234:../../../core/ST/Middlewares/Third_Party/FreeRTOS/Source/CMSIS_RTOS/cmsis_os.c ****   }
 235:../../../core/ST/Middlewares/Third_Party/FreeRTOS/Source/CMSIS_RTOS/cmsis_os.c **** }
ARM GAS  C:\Users\tijsv\AppData\Local\Temp\cc6LJGIv.s 			page 11


 234              		.loc 1 235 1 view .LVU46
 235 000c 08BD     		pop	{r3, pc}
 236              	.L16:
 233:../../../core/ST/Middlewares/Third_Party/FreeRTOS/Source/CMSIS_RTOS/cmsis_os.c ****   }
 237              		.loc 1 233 5 is_stmt 1 view .LVU47
 233:../../../core/ST/Middlewares/Third_Party/FreeRTOS/Source/CMSIS_RTOS/cmsis_os.c ****   }
 238              		.loc 1 233 12 is_stmt 0 view .LVU48
 239 000e FFF7FEFF 		bl	xTaskGetTickCount
 240              	.LVL14:
 241 0012 FBE7     		b	.L15
 242              		.cfi_endproc
 243              	.LFE35:
 245              		.section	.text.osThreadCreate,"ax",%progbits
 246              		.align	1
 247              		.global	osThreadCreate
 248              		.syntax unified
 249              		.thumb
 250              		.thumb_func
 251              		.fpu fpv4-sp-d16
 253              	osThreadCreate:
 254              	.LVL15:
 255              	.LFB36:
 236:../../../core/ST/Middlewares/Third_Party/FreeRTOS/Source/CMSIS_RTOS/cmsis_os.c **** #endif    // System Timer available
 237:../../../core/ST/Middlewares/Third_Party/FreeRTOS/Source/CMSIS_RTOS/cmsis_os.c **** /*********************** Thread Management *****************************/
 238:../../../core/ST/Middlewares/Third_Party/FreeRTOS/Source/CMSIS_RTOS/cmsis_os.c **** /**
 239:../../../core/ST/Middlewares/Third_Party/FreeRTOS/Source/CMSIS_RTOS/cmsis_os.c **** * @brief  Create a thread and add it to Active Threads and set it to state READY.
 240:../../../core/ST/Middlewares/Third_Party/FreeRTOS/Source/CMSIS_RTOS/cmsis_os.c **** * @param  thread_def    thread definition referenced with \ref osThread.
 241:../../../core/ST/Middlewares/Third_Party/FreeRTOS/Source/CMSIS_RTOS/cmsis_os.c **** * @param  argument      pointer that is passed to the thread function as start argument.
 242:../../../core/ST/Middlewares/Third_Party/FreeRTOS/Source/CMSIS_RTOS/cmsis_os.c **** * @retval thread ID for reference by other functions or NULL in case of error.
 243:../../../core/ST/Middlewares/Third_Party/FreeRTOS/Source/CMSIS_RTOS/cmsis_os.c **** * @note   MUST REMAIN UNCHANGED: \b osThreadCreate shall be consistent in every CMSIS-RTOS.
 244:../../../core/ST/Middlewares/Third_Party/FreeRTOS/Source/CMSIS_RTOS/cmsis_os.c **** */
 245:../../../core/ST/Middlewares/Third_Party/FreeRTOS/Source/CMSIS_RTOS/cmsis_os.c **** osThreadId osThreadCreate (const osThreadDef_t *thread_def, void *argument)
 246:../../../core/ST/Middlewares/Third_Party/FreeRTOS/Source/CMSIS_RTOS/cmsis_os.c **** {
 256              		.loc 1 246 1 is_stmt 1 view -0
 257              		.cfi_startproc
 258              		@ args = 0, pretend = 0, frame = 8
 259              		@ frame_needed = 0, uses_anonymous_args = 0
 260              		.loc 1 246 1 is_stmt 0 view .LVU50
 261 0000 F0B5     		push	{r4, r5, r6, r7, lr}
 262              	.LCFI3:
 263              		.cfi_def_cfa_offset 20
 264              		.cfi_offset 4, -20
 265              		.cfi_offset 5, -16
 266              		.cfi_offset 6, -12
 267              		.cfi_offset 7, -8
 268              		.cfi_offset 14, -4
 269 0002 85B0     		sub	sp, sp, #20
 270              	.LCFI4:
 271              		.cfi_def_cfa_offset 40
 272 0004 0C46     		mov	r4, r1
 247:../../../core/ST/Middlewares/Third_Party/FreeRTOS/Source/CMSIS_RTOS/cmsis_os.c ****   TaskHandle_t handle;
 273              		.loc 1 247 3 is_stmt 1 view .LVU51
 248:../../../core/ST/Middlewares/Third_Party/FreeRTOS/Source/CMSIS_RTOS/cmsis_os.c ****   
 249:../../../core/ST/Middlewares/Third_Party/FreeRTOS/Source/CMSIS_RTOS/cmsis_os.c **** #if( configSUPPORT_STATIC_ALLOCATION == 1 ) &&  ( configSUPPORT_DYNAMIC_ALLOCATION == 1 )
 250:../../../core/ST/Middlewares/Third_Party/FreeRTOS/Source/CMSIS_RTOS/cmsis_os.c ****   if((thread_def->buffer != NULL) && (thread_def->controlblock != NULL)) {
 251:../../../core/ST/Middlewares/Third_Party/FreeRTOS/Source/CMSIS_RTOS/cmsis_os.c ****     handle = xTaskCreateStatic((TaskFunction_t)thread_def->pthread,(const portCHAR *)thread_def->na
 252:../../../core/ST/Middlewares/Third_Party/FreeRTOS/Source/CMSIS_RTOS/cmsis_os.c ****               thread_def->stacksize, argument, makeFreeRtosPriority(thread_def->tpriority),
ARM GAS  C:\Users\tijsv\AppData\Local\Temp\cc6LJGIv.s 			page 12


 253:../../../core/ST/Middlewares/Third_Party/FreeRTOS/Source/CMSIS_RTOS/cmsis_os.c ****               thread_def->buffer, thread_def->controlblock);
 254:../../../core/ST/Middlewares/Third_Party/FreeRTOS/Source/CMSIS_RTOS/cmsis_os.c ****   }
 255:../../../core/ST/Middlewares/Third_Party/FreeRTOS/Source/CMSIS_RTOS/cmsis_os.c ****   else {
 256:../../../core/ST/Middlewares/Third_Party/FreeRTOS/Source/CMSIS_RTOS/cmsis_os.c ****     if (xTaskCreate((TaskFunction_t)thread_def->pthread,(const portCHAR *)thread_def->name,
 257:../../../core/ST/Middlewares/Third_Party/FreeRTOS/Source/CMSIS_RTOS/cmsis_os.c ****               thread_def->stacksize, argument, makeFreeRtosPriority(thread_def->tpriority),
 258:../../../core/ST/Middlewares/Third_Party/FreeRTOS/Source/CMSIS_RTOS/cmsis_os.c ****               &handle) != pdPASS)  {
 259:../../../core/ST/Middlewares/Third_Party/FreeRTOS/Source/CMSIS_RTOS/cmsis_os.c ****       return NULL;
 260:../../../core/ST/Middlewares/Third_Party/FreeRTOS/Source/CMSIS_RTOS/cmsis_os.c ****     } 
 261:../../../core/ST/Middlewares/Third_Party/FreeRTOS/Source/CMSIS_RTOS/cmsis_os.c ****   }
 262:../../../core/ST/Middlewares/Third_Party/FreeRTOS/Source/CMSIS_RTOS/cmsis_os.c **** #elif( configSUPPORT_STATIC_ALLOCATION == 1 )
 263:../../../core/ST/Middlewares/Third_Party/FreeRTOS/Source/CMSIS_RTOS/cmsis_os.c **** 
 264:../../../core/ST/Middlewares/Third_Party/FreeRTOS/Source/CMSIS_RTOS/cmsis_os.c ****     handle = xTaskCreateStatic((TaskFunction_t)thread_def->pthread,(const portCHAR *)thread_def->na
 265:../../../core/ST/Middlewares/Third_Party/FreeRTOS/Source/CMSIS_RTOS/cmsis_os.c ****               thread_def->stacksize, argument, makeFreeRtosPriority(thread_def->tpriority),
 266:../../../core/ST/Middlewares/Third_Party/FreeRTOS/Source/CMSIS_RTOS/cmsis_os.c ****               thread_def->buffer, thread_def->controlblock);
 267:../../../core/ST/Middlewares/Third_Party/FreeRTOS/Source/CMSIS_RTOS/cmsis_os.c **** #else
 268:../../../core/ST/Middlewares/Third_Party/FreeRTOS/Source/CMSIS_RTOS/cmsis_os.c ****   if (xTaskCreate((TaskFunction_t)thread_def->pthread,(const portCHAR *)thread_def->name,
 274              		.loc 1 268 3 view .LVU52
 275              		.loc 1 268 45 is_stmt 0 view .LVU53
 276 0006 4568     		ldr	r5, [r0, #4]
 277              		.loc 1 268 83 view .LVU54
 278 0008 0668     		ldr	r6, [r0]
 269:../../../core/ST/Middlewares/Third_Party/FreeRTOS/Source/CMSIS_RTOS/cmsis_os.c ****                    thread_def->stacksize, argument, makeFreeRtosPriority(thread_def->tpriority),
 279              		.loc 1 269 30 view .LVU55
 280 000a 0769     		ldr	r7, [r0, #16]
 268:../../../core/ST/Middlewares/Third_Party/FreeRTOS/Source/CMSIS_RTOS/cmsis_os.c ****                    thread_def->stacksize, argument, makeFreeRtosPriority(thread_def->tpriority),
 281              		.loc 1 268 7 view .LVU56
 282 000c B0F90800 		ldrsh	r0, [r0, #8]
 283              	.LVL16:
 268:../../../core/ST/Middlewares/Third_Party/FreeRTOS/Source/CMSIS_RTOS/cmsis_os.c ****                    thread_def->stacksize, argument, makeFreeRtosPriority(thread_def->tpriority),
 284              		.loc 1 268 7 view .LVU57
 285 0010 FFF7FEFF 		bl	makeFreeRtosPriority
 286              	.LVL17:
 268:../../../core/ST/Middlewares/Third_Party/FreeRTOS/Source/CMSIS_RTOS/cmsis_os.c ****                    thread_def->stacksize, argument, makeFreeRtosPriority(thread_def->tpriority),
 287              		.loc 1 268 7 view .LVU58
 288 0014 03AB     		add	r3, sp, #12
 289 0016 0193     		str	r3, [sp, #4]
 290 0018 0090     		str	r0, [sp]
 291 001a 2346     		mov	r3, r4
 292 001c BAB2     		uxth	r2, r7
 293 001e 3146     		mov	r1, r6
 294 0020 2846     		mov	r0, r5
 295 0022 FFF7FEFF 		bl	xTaskCreate
 296              	.LVL18:
 268:../../../core/ST/Middlewares/Third_Party/FreeRTOS/Source/CMSIS_RTOS/cmsis_os.c ****                    thread_def->stacksize, argument, makeFreeRtosPriority(thread_def->tpriority),
 297              		.loc 1 268 6 view .LVU59
 298 0026 0128     		cmp	r0, #1
 299 0028 02D1     		bne	.L21
 270:../../../core/ST/Middlewares/Third_Party/FreeRTOS/Source/CMSIS_RTOS/cmsis_os.c ****                    &handle) != pdPASS)  {
 271:../../../core/ST/Middlewares/Third_Party/FreeRTOS/Source/CMSIS_RTOS/cmsis_os.c ****     return NULL;
 272:../../../core/ST/Middlewares/Third_Party/FreeRTOS/Source/CMSIS_RTOS/cmsis_os.c ****   }     
 273:../../../core/ST/Middlewares/Third_Party/FreeRTOS/Source/CMSIS_RTOS/cmsis_os.c **** #endif
 274:../../../core/ST/Middlewares/Third_Party/FreeRTOS/Source/CMSIS_RTOS/cmsis_os.c ****   
 275:../../../core/ST/Middlewares/Third_Party/FreeRTOS/Source/CMSIS_RTOS/cmsis_os.c ****   return handle;
 300              		.loc 1 275 3 is_stmt 1 view .LVU60
 301              		.loc 1 275 10 is_stmt 0 view .LVU61
 302 002a 0398     		ldr	r0, [sp, #12]
 303              	.L19:
ARM GAS  C:\Users\tijsv\AppData\Local\Temp\cc6LJGIv.s 			page 13


 276:../../../core/ST/Middlewares/Third_Party/FreeRTOS/Source/CMSIS_RTOS/cmsis_os.c **** }
 304              		.loc 1 276 1 view .LVU62
 305 002c 05B0     		add	sp, sp, #20
 306              	.LCFI5:
 307              		.cfi_remember_state
 308              		.cfi_def_cfa_offset 20
 309              		@ sp needed
 310 002e F0BD     		pop	{r4, r5, r6, r7, pc}
 311              	.LVL19:
 312              	.L21:
 313              	.LCFI6:
 314              		.cfi_restore_state
 271:../../../core/ST/Middlewares/Third_Party/FreeRTOS/Source/CMSIS_RTOS/cmsis_os.c ****   }     
 315              		.loc 1 271 12 view .LVU63
 316 0030 0020     		movs	r0, #0
 317 0032 FBE7     		b	.L19
 318              		.cfi_endproc
 319              	.LFE36:
 321              		.section	.text.osThreadGetId,"ax",%progbits
 322              		.align	1
 323              		.global	osThreadGetId
 324              		.syntax unified
 325              		.thumb
 326              		.thumb_func
 327              		.fpu fpv4-sp-d16
 329              	osThreadGetId:
 330              	.LFB37:
 277:../../../core/ST/Middlewares/Third_Party/FreeRTOS/Source/CMSIS_RTOS/cmsis_os.c **** 
 278:../../../core/ST/Middlewares/Third_Party/FreeRTOS/Source/CMSIS_RTOS/cmsis_os.c **** /**
 279:../../../core/ST/Middlewares/Third_Party/FreeRTOS/Source/CMSIS_RTOS/cmsis_os.c **** * @brief  Return the thread ID of the current running thread.
 280:../../../core/ST/Middlewares/Third_Party/FreeRTOS/Source/CMSIS_RTOS/cmsis_os.c **** * @retval thread ID for reference by other functions or NULL in case of error.
 281:../../../core/ST/Middlewares/Third_Party/FreeRTOS/Source/CMSIS_RTOS/cmsis_os.c **** * @note   MUST REMAIN UNCHANGED: \b osThreadGetId shall be consistent in every CMSIS-RTOS.
 282:../../../core/ST/Middlewares/Third_Party/FreeRTOS/Source/CMSIS_RTOS/cmsis_os.c **** */
 283:../../../core/ST/Middlewares/Third_Party/FreeRTOS/Source/CMSIS_RTOS/cmsis_os.c **** osThreadId osThreadGetId (void)
 284:../../../core/ST/Middlewares/Third_Party/FreeRTOS/Source/CMSIS_RTOS/cmsis_os.c **** {
 331              		.loc 1 284 1 is_stmt 1 view -0
 332              		.cfi_startproc
 333              		@ args = 0, pretend = 0, frame = 0
 334              		@ frame_needed = 0, uses_anonymous_args = 0
 335 0000 08B5     		push	{r3, lr}
 336              	.LCFI7:
 337              		.cfi_def_cfa_offset 8
 338              		.cfi_offset 3, -8
 339              		.cfi_offset 14, -4
 285:../../../core/ST/Middlewares/Third_Party/FreeRTOS/Source/CMSIS_RTOS/cmsis_os.c **** #if ( ( INCLUDE_xTaskGetCurrentTaskHandle == 1 ) || ( configUSE_MUTEXES == 1 ) )
 286:../../../core/ST/Middlewares/Third_Party/FreeRTOS/Source/CMSIS_RTOS/cmsis_os.c ****   return xTaskGetCurrentTaskHandle();
 340              		.loc 1 286 3 view .LVU65
 341              		.loc 1 286 10 is_stmt 0 view .LVU66
 342 0002 FFF7FEFF 		bl	xTaskGetCurrentTaskHandle
 343              	.LVL20:
 287:../../../core/ST/Middlewares/Third_Party/FreeRTOS/Source/CMSIS_RTOS/cmsis_os.c **** #else
 288:../../../core/ST/Middlewares/Third_Party/FreeRTOS/Source/CMSIS_RTOS/cmsis_os.c **** 	return NULL;
 289:../../../core/ST/Middlewares/Third_Party/FreeRTOS/Source/CMSIS_RTOS/cmsis_os.c **** #endif
 290:../../../core/ST/Middlewares/Third_Party/FreeRTOS/Source/CMSIS_RTOS/cmsis_os.c **** }
 344              		.loc 1 290 1 view .LVU67
 345 0006 08BD     		pop	{r3, pc}
 346              		.cfi_endproc
ARM GAS  C:\Users\tijsv\AppData\Local\Temp\cc6LJGIv.s 			page 14


 347              	.LFE37:
 349              		.section	.text.osThreadTerminate,"ax",%progbits
 350              		.align	1
 351              		.global	osThreadTerminate
 352              		.syntax unified
 353              		.thumb
 354              		.thumb_func
 355              		.fpu fpv4-sp-d16
 357              	osThreadTerminate:
 358              	.LVL21:
 359              	.LFB38:
 291:../../../core/ST/Middlewares/Third_Party/FreeRTOS/Source/CMSIS_RTOS/cmsis_os.c **** 
 292:../../../core/ST/Middlewares/Third_Party/FreeRTOS/Source/CMSIS_RTOS/cmsis_os.c **** /**
 293:../../../core/ST/Middlewares/Third_Party/FreeRTOS/Source/CMSIS_RTOS/cmsis_os.c **** * @brief  Terminate execution of a thread and remove it from Active Threads.
 294:../../../core/ST/Middlewares/Third_Party/FreeRTOS/Source/CMSIS_RTOS/cmsis_os.c **** * @param   thread_id   thread ID obtained by \ref osThreadCreate or \ref osThreadGetId.
 295:../../../core/ST/Middlewares/Third_Party/FreeRTOS/Source/CMSIS_RTOS/cmsis_os.c **** * @retval  status code that indicates the execution status of the function.
 296:../../../core/ST/Middlewares/Third_Party/FreeRTOS/Source/CMSIS_RTOS/cmsis_os.c **** * @note   MUST REMAIN UNCHANGED: \b osThreadTerminate shall be consistent in every CMSIS-RTOS.
 297:../../../core/ST/Middlewares/Third_Party/FreeRTOS/Source/CMSIS_RTOS/cmsis_os.c **** */
 298:../../../core/ST/Middlewares/Third_Party/FreeRTOS/Source/CMSIS_RTOS/cmsis_os.c **** osStatus osThreadTerminate (osThreadId thread_id)
 299:../../../core/ST/Middlewares/Third_Party/FreeRTOS/Source/CMSIS_RTOS/cmsis_os.c **** {
 360              		.loc 1 299 1 is_stmt 1 view -0
 361              		.cfi_startproc
 362              		@ args = 0, pretend = 0, frame = 0
 363              		@ frame_needed = 0, uses_anonymous_args = 0
 364              		.loc 1 299 1 is_stmt 0 view .LVU69
 365 0000 08B5     		push	{r3, lr}
 366              	.LCFI8:
 367              		.cfi_def_cfa_offset 8
 368              		.cfi_offset 3, -8
 369              		.cfi_offset 14, -4
 300:../../../core/ST/Middlewares/Third_Party/FreeRTOS/Source/CMSIS_RTOS/cmsis_os.c **** #if (INCLUDE_vTaskDelete == 1)
 301:../../../core/ST/Middlewares/Third_Party/FreeRTOS/Source/CMSIS_RTOS/cmsis_os.c ****   vTaskDelete(thread_id);
 370              		.loc 1 301 3 is_stmt 1 view .LVU70
 371 0002 FFF7FEFF 		bl	vTaskDelete
 372              	.LVL22:
 302:../../../core/ST/Middlewares/Third_Party/FreeRTOS/Source/CMSIS_RTOS/cmsis_os.c ****   return osOK;
 373              		.loc 1 302 3 view .LVU71
 303:../../../core/ST/Middlewares/Third_Party/FreeRTOS/Source/CMSIS_RTOS/cmsis_os.c **** #else
 304:../../../core/ST/Middlewares/Third_Party/FreeRTOS/Source/CMSIS_RTOS/cmsis_os.c ****   return osErrorOS;
 305:../../../core/ST/Middlewares/Third_Party/FreeRTOS/Source/CMSIS_RTOS/cmsis_os.c **** #endif
 306:../../../core/ST/Middlewares/Third_Party/FreeRTOS/Source/CMSIS_RTOS/cmsis_os.c **** }
 374              		.loc 1 306 1 is_stmt 0 view .LVU72
 375 0006 0020     		movs	r0, #0
 376 0008 08BD     		pop	{r3, pc}
 377              		.cfi_endproc
 378              	.LFE38:
 380              		.section	.text.osThreadYield,"ax",%progbits
 381              		.align	1
 382              		.global	osThreadYield
 383              		.syntax unified
 384              		.thumb
 385              		.thumb_func
 386              		.fpu fpv4-sp-d16
 388              	osThreadYield:
 389              	.LFB39:
 307:../../../core/ST/Middlewares/Third_Party/FreeRTOS/Source/CMSIS_RTOS/cmsis_os.c **** 
 308:../../../core/ST/Middlewares/Third_Party/FreeRTOS/Source/CMSIS_RTOS/cmsis_os.c **** /**
ARM GAS  C:\Users\tijsv\AppData\Local\Temp\cc6LJGIv.s 			page 15


 309:../../../core/ST/Middlewares/Third_Party/FreeRTOS/Source/CMSIS_RTOS/cmsis_os.c **** * @brief  Pass control to next thread that is in state \b READY.
 310:../../../core/ST/Middlewares/Third_Party/FreeRTOS/Source/CMSIS_RTOS/cmsis_os.c **** * @retval status code that indicates the execution status of the function.
 311:../../../core/ST/Middlewares/Third_Party/FreeRTOS/Source/CMSIS_RTOS/cmsis_os.c **** * @note   MUST REMAIN UNCHANGED: \b osThreadYield shall be consistent in every CMSIS-RTOS.
 312:../../../core/ST/Middlewares/Third_Party/FreeRTOS/Source/CMSIS_RTOS/cmsis_os.c **** */
 313:../../../core/ST/Middlewares/Third_Party/FreeRTOS/Source/CMSIS_RTOS/cmsis_os.c **** osStatus osThreadYield (void)
 314:../../../core/ST/Middlewares/Third_Party/FreeRTOS/Source/CMSIS_RTOS/cmsis_os.c **** {
 390              		.loc 1 314 1 is_stmt 1 view -0
 391              		.cfi_startproc
 392              		@ args = 0, pretend = 0, frame = 0
 393              		@ frame_needed = 0, uses_anonymous_args = 0
 394              		@ link register save eliminated.
 315:../../../core/ST/Middlewares/Third_Party/FreeRTOS/Source/CMSIS_RTOS/cmsis_os.c ****   taskYIELD();
 395              		.loc 1 315 3 view .LVU74
 396 0000 044B     		ldr	r3, .L28
 397 0002 4FF08052 		mov	r2, #268435456
 398 0006 1A60     		str	r2, [r3]
 399              		.loc 1 315 3 view .LVU75
 400              		.syntax unified
 401              	@ 315 "../../../core/ST/Middlewares/Third_Party/FreeRTOS/Source/CMSIS_RTOS/cmsis_os.c" 1
 402 0008 BFF34F8F 		dsb
 403              	@ 0 "" 2
 404              		.loc 1 315 3 view .LVU76
 405              	@ 315 "../../../core/ST/Middlewares/Third_Party/FreeRTOS/Source/CMSIS_RTOS/cmsis_os.c" 1
 406 000c BFF36F8F 		isb
 407              	@ 0 "" 2
 408              		.loc 1 315 14 view .LVU77
 316:../../../core/ST/Middlewares/Third_Party/FreeRTOS/Source/CMSIS_RTOS/cmsis_os.c ****   
 317:../../../core/ST/Middlewares/Third_Party/FreeRTOS/Source/CMSIS_RTOS/cmsis_os.c ****   return osOK;
 409              		.loc 1 317 3 view .LVU78
 318:../../../core/ST/Middlewares/Third_Party/FreeRTOS/Source/CMSIS_RTOS/cmsis_os.c **** }
 410              		.loc 1 318 1 is_stmt 0 view .LVU79
 411              		.thumb
 412              		.syntax unified
 413 0010 0020     		movs	r0, #0
 414 0012 7047     		bx	lr
 415              	.L29:
 416              		.align	2
 417              	.L28:
 418 0014 04ED00E0 		.word	-536810236
 419              		.cfi_endproc
 420              	.LFE39:
 422              		.section	.text.osThreadSetPriority,"ax",%progbits
 423              		.align	1
 424              		.global	osThreadSetPriority
 425              		.syntax unified
 426              		.thumb
 427              		.thumb_func
 428              		.fpu fpv4-sp-d16
 430              	osThreadSetPriority:
 431              	.LVL23:
 432              	.LFB40:
 319:../../../core/ST/Middlewares/Third_Party/FreeRTOS/Source/CMSIS_RTOS/cmsis_os.c **** 
 320:../../../core/ST/Middlewares/Third_Party/FreeRTOS/Source/CMSIS_RTOS/cmsis_os.c **** /**
 321:../../../core/ST/Middlewares/Third_Party/FreeRTOS/Source/CMSIS_RTOS/cmsis_os.c **** * @brief   Change priority of an active thread.
 322:../../../core/ST/Middlewares/Third_Party/FreeRTOS/Source/CMSIS_RTOS/cmsis_os.c **** * @param   thread_id     thread ID obtained by \ref osThreadCreate or \ref osThreadGetId.
 323:../../../core/ST/Middlewares/Third_Party/FreeRTOS/Source/CMSIS_RTOS/cmsis_os.c **** * @param   priority      new priority value for the thread function.
 324:../../../core/ST/Middlewares/Third_Party/FreeRTOS/Source/CMSIS_RTOS/cmsis_os.c **** * @retval  status code that indicates the execution status of the function.
ARM GAS  C:\Users\tijsv\AppData\Local\Temp\cc6LJGIv.s 			page 16


 325:../../../core/ST/Middlewares/Third_Party/FreeRTOS/Source/CMSIS_RTOS/cmsis_os.c **** * @note   MUST REMAIN UNCHANGED: \b osThreadSetPriority shall be consistent in every CMSIS-RTOS.
 326:../../../core/ST/Middlewares/Third_Party/FreeRTOS/Source/CMSIS_RTOS/cmsis_os.c **** */
 327:../../../core/ST/Middlewares/Third_Party/FreeRTOS/Source/CMSIS_RTOS/cmsis_os.c **** osStatus osThreadSetPriority (osThreadId thread_id, osPriority priority)
 328:../../../core/ST/Middlewares/Third_Party/FreeRTOS/Source/CMSIS_RTOS/cmsis_os.c **** {
 433              		.loc 1 328 1 is_stmt 1 view -0
 434              		.cfi_startproc
 435              		@ args = 0, pretend = 0, frame = 0
 436              		@ frame_needed = 0, uses_anonymous_args = 0
 437              		.loc 1 328 1 is_stmt 0 view .LVU81
 438 0000 10B5     		push	{r4, lr}
 439              	.LCFI9:
 440              		.cfi_def_cfa_offset 8
 441              		.cfi_offset 4, -8
 442              		.cfi_offset 14, -4
 443 0002 0446     		mov	r4, r0
 329:../../../core/ST/Middlewares/Third_Party/FreeRTOS/Source/CMSIS_RTOS/cmsis_os.c **** #if (INCLUDE_vTaskPrioritySet == 1)
 330:../../../core/ST/Middlewares/Third_Party/FreeRTOS/Source/CMSIS_RTOS/cmsis_os.c ****   vTaskPrioritySet(thread_id, makeFreeRtosPriority(priority));
 444              		.loc 1 330 3 is_stmt 1 view .LVU82
 445 0004 0846     		mov	r0, r1
 446              	.LVL24:
 447              		.loc 1 330 3 is_stmt 0 view .LVU83
 448 0006 FFF7FEFF 		bl	makeFreeRtosPriority
 449              	.LVL25:
 450              		.loc 1 330 3 view .LVU84
 451 000a 0146     		mov	r1, r0
 452 000c 2046     		mov	r0, r4
 453 000e FFF7FEFF 		bl	vTaskPrioritySet
 454              	.LVL26:
 331:../../../core/ST/Middlewares/Third_Party/FreeRTOS/Source/CMSIS_RTOS/cmsis_os.c ****   return osOK;
 455              		.loc 1 331 3 is_stmt 1 view .LVU85
 332:../../../core/ST/Middlewares/Third_Party/FreeRTOS/Source/CMSIS_RTOS/cmsis_os.c **** #else
 333:../../../core/ST/Middlewares/Third_Party/FreeRTOS/Source/CMSIS_RTOS/cmsis_os.c ****   return osErrorOS;
 334:../../../core/ST/Middlewares/Third_Party/FreeRTOS/Source/CMSIS_RTOS/cmsis_os.c **** #endif
 335:../../../core/ST/Middlewares/Third_Party/FreeRTOS/Source/CMSIS_RTOS/cmsis_os.c **** }
 456              		.loc 1 335 1 is_stmt 0 view .LVU86
 457 0012 0020     		movs	r0, #0
 458 0014 10BD     		pop	{r4, pc}
 459              		.loc 1 335 1 view .LVU87
 460              		.cfi_endproc
 461              	.LFE40:
 463              		.section	.text.osThreadGetPriority,"ax",%progbits
 464              		.align	1
 465              		.global	osThreadGetPriority
 466              		.syntax unified
 467              		.thumb
 468              		.thumb_func
 469              		.fpu fpv4-sp-d16
 471              	osThreadGetPriority:
 472              	.LVL27:
 473              	.LFB41:
 336:../../../core/ST/Middlewares/Third_Party/FreeRTOS/Source/CMSIS_RTOS/cmsis_os.c **** 
 337:../../../core/ST/Middlewares/Third_Party/FreeRTOS/Source/CMSIS_RTOS/cmsis_os.c **** /**
 338:../../../core/ST/Middlewares/Third_Party/FreeRTOS/Source/CMSIS_RTOS/cmsis_os.c **** * @brief   Get current priority of an active thread.
 339:../../../core/ST/Middlewares/Third_Party/FreeRTOS/Source/CMSIS_RTOS/cmsis_os.c **** * @param   thread_id     thread ID obtained by \ref osThreadCreate or \ref osThreadGetId.
 340:../../../core/ST/Middlewares/Third_Party/FreeRTOS/Source/CMSIS_RTOS/cmsis_os.c **** * @retval  current priority value of the thread function.
 341:../../../core/ST/Middlewares/Third_Party/FreeRTOS/Source/CMSIS_RTOS/cmsis_os.c **** * @note   MUST REMAIN UNCHANGED: \b osThreadGetPriority shall be consistent in every CMSIS-RTOS.
 342:../../../core/ST/Middlewares/Third_Party/FreeRTOS/Source/CMSIS_RTOS/cmsis_os.c **** */
ARM GAS  C:\Users\tijsv\AppData\Local\Temp\cc6LJGIv.s 			page 17


 343:../../../core/ST/Middlewares/Third_Party/FreeRTOS/Source/CMSIS_RTOS/cmsis_os.c **** osPriority osThreadGetPriority (osThreadId thread_id)
 344:../../../core/ST/Middlewares/Third_Party/FreeRTOS/Source/CMSIS_RTOS/cmsis_os.c **** {
 474              		.loc 1 344 1 is_stmt 1 view -0
 475              		.cfi_startproc
 476              		@ args = 0, pretend = 0, frame = 0
 477              		@ frame_needed = 0, uses_anonymous_args = 0
 478              		.loc 1 344 1 is_stmt 0 view .LVU89
 479 0000 10B5     		push	{r4, lr}
 480              	.LCFI10:
 481              		.cfi_def_cfa_offset 8
 482              		.cfi_offset 4, -8
 483              		.cfi_offset 14, -4
 484 0002 0446     		mov	r4, r0
 345:../../../core/ST/Middlewares/Third_Party/FreeRTOS/Source/CMSIS_RTOS/cmsis_os.c **** #if (INCLUDE_uxTaskPriorityGet == 1)
 346:../../../core/ST/Middlewares/Third_Party/FreeRTOS/Source/CMSIS_RTOS/cmsis_os.c ****   if (inHandlerMode())
 485              		.loc 1 346 3 is_stmt 1 view .LVU90
 486              		.loc 1 346 7 is_stmt 0 view .LVU91
 487 0004 FFF7FEFF 		bl	inHandlerMode
 488              	.LVL28:
 489              		.loc 1 346 6 view .LVU92
 490 0008 28B1     		cbz	r0, .L33
 347:../../../core/ST/Middlewares/Third_Party/FreeRTOS/Source/CMSIS_RTOS/cmsis_os.c ****   {
 348:../../../core/ST/Middlewares/Third_Party/FreeRTOS/Source/CMSIS_RTOS/cmsis_os.c ****     return makeCmsisPriority(uxTaskPriorityGetFromISR(thread_id));  
 491              		.loc 1 348 5 is_stmt 1 view .LVU93
 492              		.loc 1 348 12 is_stmt 0 view .LVU94
 493 000a 2046     		mov	r0, r4
 494 000c FFF7FEFF 		bl	uxTaskPriorityGetFromISR
 495              	.LVL29:
 496 0010 FFF7FEFF 		bl	makeCmsisPriority
 497              	.LVL30:
 498              	.L34:
 349:../../../core/ST/Middlewares/Third_Party/FreeRTOS/Source/CMSIS_RTOS/cmsis_os.c ****   }
 350:../../../core/ST/Middlewares/Third_Party/FreeRTOS/Source/CMSIS_RTOS/cmsis_os.c ****   else
 351:../../../core/ST/Middlewares/Third_Party/FreeRTOS/Source/CMSIS_RTOS/cmsis_os.c ****   {  
 352:../../../core/ST/Middlewares/Third_Party/FreeRTOS/Source/CMSIS_RTOS/cmsis_os.c ****     return makeCmsisPriority(uxTaskPriorityGet(thread_id));
 353:../../../core/ST/Middlewares/Third_Party/FreeRTOS/Source/CMSIS_RTOS/cmsis_os.c ****   }
 354:../../../core/ST/Middlewares/Third_Party/FreeRTOS/Source/CMSIS_RTOS/cmsis_os.c **** #else
 355:../../../core/ST/Middlewares/Third_Party/FreeRTOS/Source/CMSIS_RTOS/cmsis_os.c ****   return osPriorityError;
 356:../../../core/ST/Middlewares/Third_Party/FreeRTOS/Source/CMSIS_RTOS/cmsis_os.c **** #endif
 357:../../../core/ST/Middlewares/Third_Party/FreeRTOS/Source/CMSIS_RTOS/cmsis_os.c **** }
 499              		.loc 1 357 1 view .LVU95
 500 0014 10BD     		pop	{r4, pc}
 501              	.LVL31:
 502              	.L33:
 352:../../../core/ST/Middlewares/Third_Party/FreeRTOS/Source/CMSIS_RTOS/cmsis_os.c ****   }
 503              		.loc 1 352 5 is_stmt 1 view .LVU96
 352:../../../core/ST/Middlewares/Third_Party/FreeRTOS/Source/CMSIS_RTOS/cmsis_os.c ****   }
 504              		.loc 1 352 12 is_stmt 0 view .LVU97
 505 0016 2046     		mov	r0, r4
 506 0018 FFF7FEFF 		bl	uxTaskPriorityGet
 507              	.LVL32:
 508 001c FFF7FEFF 		bl	makeCmsisPriority
 509              	.LVL33:
 510 0020 F8E7     		b	.L34
 511              		.cfi_endproc
 512              	.LFE41:
 514              		.section	.text.osDelay,"ax",%progbits
ARM GAS  C:\Users\tijsv\AppData\Local\Temp\cc6LJGIv.s 			page 18


 515              		.align	1
 516              		.global	osDelay
 517              		.syntax unified
 518              		.thumb
 519              		.thumb_func
 520              		.fpu fpv4-sp-d16
 522              	osDelay:
 523              	.LVL34:
 524              	.LFB42:
 358:../../../core/ST/Middlewares/Third_Party/FreeRTOS/Source/CMSIS_RTOS/cmsis_os.c **** 
 359:../../../core/ST/Middlewares/Third_Party/FreeRTOS/Source/CMSIS_RTOS/cmsis_os.c **** /*********************** Generic Wait Functions *******************************/
 360:../../../core/ST/Middlewares/Third_Party/FreeRTOS/Source/CMSIS_RTOS/cmsis_os.c **** /**
 361:../../../core/ST/Middlewares/Third_Party/FreeRTOS/Source/CMSIS_RTOS/cmsis_os.c **** * @brief   Wait for Timeout (Time Delay)
 362:../../../core/ST/Middlewares/Third_Party/FreeRTOS/Source/CMSIS_RTOS/cmsis_os.c **** * @param   millisec      time delay value
 363:../../../core/ST/Middlewares/Third_Party/FreeRTOS/Source/CMSIS_RTOS/cmsis_os.c **** * @retval  status code that indicates the execution status of the function.
 364:../../../core/ST/Middlewares/Third_Party/FreeRTOS/Source/CMSIS_RTOS/cmsis_os.c **** */
 365:../../../core/ST/Middlewares/Third_Party/FreeRTOS/Source/CMSIS_RTOS/cmsis_os.c **** osStatus osDelay (uint32_t millisec)
 366:../../../core/ST/Middlewares/Third_Party/FreeRTOS/Source/CMSIS_RTOS/cmsis_os.c **** {
 525              		.loc 1 366 1 is_stmt 1 view -0
 526              		.cfi_startproc
 527              		@ args = 0, pretend = 0, frame = 0
 528              		@ frame_needed = 0, uses_anonymous_args = 0
 529              		.loc 1 366 1 is_stmt 0 view .LVU99
 530 0000 08B5     		push	{r3, lr}
 531              	.LCFI11:
 532              		.cfi_def_cfa_offset 8
 533              		.cfi_offset 3, -8
 534              		.cfi_offset 14, -4
 367:../../../core/ST/Middlewares/Third_Party/FreeRTOS/Source/CMSIS_RTOS/cmsis_os.c **** #if INCLUDE_vTaskDelay
 368:../../../core/ST/Middlewares/Third_Party/FreeRTOS/Source/CMSIS_RTOS/cmsis_os.c ****   TickType_t ticks = millisec / portTICK_PERIOD_MS;
 535              		.loc 1 368 3 is_stmt 1 view .LVU100
 536              	.LVL35:
 369:../../../core/ST/Middlewares/Third_Party/FreeRTOS/Source/CMSIS_RTOS/cmsis_os.c ****   
 370:../../../core/ST/Middlewares/Third_Party/FreeRTOS/Source/CMSIS_RTOS/cmsis_os.c ****   vTaskDelay(ticks ? ticks : 1);          /* Minimum delay = 1 tick */
 537              		.loc 1 370 3 view .LVU101
 538 0002 00B9     		cbnz	r0, .L37
 539 0004 0120     		movs	r0, #1
 540              	.LVL36:
 541              	.L37:
 542              		.loc 1 370 3 is_stmt 0 discriminator 4 view .LVU102
 543 0006 FFF7FEFF 		bl	vTaskDelay
 544              	.LVL37:
 371:../../../core/ST/Middlewares/Third_Party/FreeRTOS/Source/CMSIS_RTOS/cmsis_os.c ****   
 372:../../../core/ST/Middlewares/Third_Party/FreeRTOS/Source/CMSIS_RTOS/cmsis_os.c ****   return osOK;
 545              		.loc 1 372 3 is_stmt 1 discriminator 4 view .LVU103
 373:../../../core/ST/Middlewares/Third_Party/FreeRTOS/Source/CMSIS_RTOS/cmsis_os.c **** #else
 374:../../../core/ST/Middlewares/Third_Party/FreeRTOS/Source/CMSIS_RTOS/cmsis_os.c ****   (void) millisec;
 375:../../../core/ST/Middlewares/Third_Party/FreeRTOS/Source/CMSIS_RTOS/cmsis_os.c ****   
 376:../../../core/ST/Middlewares/Third_Party/FreeRTOS/Source/CMSIS_RTOS/cmsis_os.c ****   return osErrorResource;
 377:../../../core/ST/Middlewares/Third_Party/FreeRTOS/Source/CMSIS_RTOS/cmsis_os.c **** #endif
 378:../../../core/ST/Middlewares/Third_Party/FreeRTOS/Source/CMSIS_RTOS/cmsis_os.c **** }
 546              		.loc 1 378 1 is_stmt 0 discriminator 4 view .LVU104
 547 000a 0020     		movs	r0, #0
 548 000c 08BD     		pop	{r3, pc}
 549              		.cfi_endproc
 550              	.LFE42:
 552              		.section	.rodata.osTimerCreate.str1.4,"aMS",%progbits,1
ARM GAS  C:\Users\tijsv\AppData\Local\Temp\cc6LJGIv.s 			page 19


 553              		.align	2
 554              	.LC0:
 555 0000 00       		.ascii	"\000"
 556              		.section	.text.osTimerCreate,"ax",%progbits
 557              		.align	1
 558              		.global	osTimerCreate
 559              		.syntax unified
 560              		.thumb
 561              		.thumb_func
 562              		.fpu fpv4-sp-d16
 564              	osTimerCreate:
 565              	.LVL38:
 566              	.LFB43:
 379:../../../core/ST/Middlewares/Third_Party/FreeRTOS/Source/CMSIS_RTOS/cmsis_os.c **** 
 380:../../../core/ST/Middlewares/Third_Party/FreeRTOS/Source/CMSIS_RTOS/cmsis_os.c **** #if (defined (osFeature_Wait)  &&  (osFeature_Wait != 0)) /* Generic Wait available */
 381:../../../core/ST/Middlewares/Third_Party/FreeRTOS/Source/CMSIS_RTOS/cmsis_os.c **** /**
 382:../../../core/ST/Middlewares/Third_Party/FreeRTOS/Source/CMSIS_RTOS/cmsis_os.c **** * @brief  Wait for Signal, Message, Mail, or Timeout
 383:../../../core/ST/Middlewares/Third_Party/FreeRTOS/Source/CMSIS_RTOS/cmsis_os.c **** * @param   millisec  timeout value or 0 in case of no time-out
 384:../../../core/ST/Middlewares/Third_Party/FreeRTOS/Source/CMSIS_RTOS/cmsis_os.c **** * @retval  event that contains signal, message, or mail information or error code.
 385:../../../core/ST/Middlewares/Third_Party/FreeRTOS/Source/CMSIS_RTOS/cmsis_os.c **** * @note   MUST REMAIN UNCHANGED: \b osWait shall be consistent in every CMSIS-RTOS.
 386:../../../core/ST/Middlewares/Third_Party/FreeRTOS/Source/CMSIS_RTOS/cmsis_os.c **** */
 387:../../../core/ST/Middlewares/Third_Party/FreeRTOS/Source/CMSIS_RTOS/cmsis_os.c **** osEvent osWait (uint32_t millisec);
 388:../../../core/ST/Middlewares/Third_Party/FreeRTOS/Source/CMSIS_RTOS/cmsis_os.c **** 
 389:../../../core/ST/Middlewares/Third_Party/FreeRTOS/Source/CMSIS_RTOS/cmsis_os.c **** #endif  /* Generic Wait available */
 390:../../../core/ST/Middlewares/Third_Party/FreeRTOS/Source/CMSIS_RTOS/cmsis_os.c **** 
 391:../../../core/ST/Middlewares/Third_Party/FreeRTOS/Source/CMSIS_RTOS/cmsis_os.c **** /***********************  Timer Management Functions ***************************/
 392:../../../core/ST/Middlewares/Third_Party/FreeRTOS/Source/CMSIS_RTOS/cmsis_os.c **** /**
 393:../../../core/ST/Middlewares/Third_Party/FreeRTOS/Source/CMSIS_RTOS/cmsis_os.c **** * @brief  Create a timer.
 394:../../../core/ST/Middlewares/Third_Party/FreeRTOS/Source/CMSIS_RTOS/cmsis_os.c **** * @param  timer_def     timer object referenced with \ref osTimer.
 395:../../../core/ST/Middlewares/Third_Party/FreeRTOS/Source/CMSIS_RTOS/cmsis_os.c **** * @param  type          osTimerOnce for one-shot or osTimerPeriodic for periodic behavior.
 396:../../../core/ST/Middlewares/Third_Party/FreeRTOS/Source/CMSIS_RTOS/cmsis_os.c **** * @param  argument      argument to the timer call back function.
 397:../../../core/ST/Middlewares/Third_Party/FreeRTOS/Source/CMSIS_RTOS/cmsis_os.c **** * @retval  timer ID for reference by other functions or NULL in case of error.
 398:../../../core/ST/Middlewares/Third_Party/FreeRTOS/Source/CMSIS_RTOS/cmsis_os.c **** * @note   MUST REMAIN UNCHANGED: \b osTimerCreate shall be consistent in every CMSIS-RTOS.
 399:../../../core/ST/Middlewares/Third_Party/FreeRTOS/Source/CMSIS_RTOS/cmsis_os.c **** */
 400:../../../core/ST/Middlewares/Third_Party/FreeRTOS/Source/CMSIS_RTOS/cmsis_os.c **** osTimerId osTimerCreate (const osTimerDef_t *timer_def, os_timer_type type, void *argument)
 401:../../../core/ST/Middlewares/Third_Party/FreeRTOS/Source/CMSIS_RTOS/cmsis_os.c **** {
 567              		.loc 1 401 1 is_stmt 1 view -0
 568              		.cfi_startproc
 569              		@ args = 0, pretend = 0, frame = 0
 570              		@ frame_needed = 0, uses_anonymous_args = 0
 571              		.loc 1 401 1 is_stmt 0 view .LVU106
 572 0000 00B5     		push	{lr}
 573              	.LCFI12:
 574              		.cfi_def_cfa_offset 4
 575              		.cfi_offset 14, -4
 576 0002 83B0     		sub	sp, sp, #12
 577              	.LCFI13:
 578              		.cfi_def_cfa_offset 16
 579 0004 1346     		mov	r3, r2
 402:../../../core/ST/Middlewares/Third_Party/FreeRTOS/Source/CMSIS_RTOS/cmsis_os.c **** #if (configUSE_TIMERS == 1)
 403:../../../core/ST/Middlewares/Third_Party/FreeRTOS/Source/CMSIS_RTOS/cmsis_os.c **** 
 404:../../../core/ST/Middlewares/Third_Party/FreeRTOS/Source/CMSIS_RTOS/cmsis_os.c **** #if( ( configSUPPORT_STATIC_ALLOCATION == 1 ) && ( configSUPPORT_DYNAMIC_ALLOCATION == 1 ) ) 
 405:../../../core/ST/Middlewares/Third_Party/FreeRTOS/Source/CMSIS_RTOS/cmsis_os.c ****   if(timer_def->controlblock != NULL) {
 406:../../../core/ST/Middlewares/Third_Party/FreeRTOS/Source/CMSIS_RTOS/cmsis_os.c ****     return xTimerCreateStatic((const char *)"",
 407:../../../core/ST/Middlewares/Third_Party/FreeRTOS/Source/CMSIS_RTOS/cmsis_os.c ****                       1, // period should be filled when starting the Timer using osTimerStart
 408:../../../core/ST/Middlewares/Third_Party/FreeRTOS/Source/CMSIS_RTOS/cmsis_os.c ****                       (type == osTimerPeriodic) ? pdTRUE : pdFALSE,
 409:../../../core/ST/Middlewares/Third_Party/FreeRTOS/Source/CMSIS_RTOS/cmsis_os.c ****                       (void *) argument,
ARM GAS  C:\Users\tijsv\AppData\Local\Temp\cc6LJGIv.s 			page 20


 410:../../../core/ST/Middlewares/Third_Party/FreeRTOS/Source/CMSIS_RTOS/cmsis_os.c ****                       (TaskFunction_t)timer_def->ptimer,
 411:../../../core/ST/Middlewares/Third_Party/FreeRTOS/Source/CMSIS_RTOS/cmsis_os.c ****                       (StaticTimer_t *)timer_def->controlblock);
 412:../../../core/ST/Middlewares/Third_Party/FreeRTOS/Source/CMSIS_RTOS/cmsis_os.c ****   }
 413:../../../core/ST/Middlewares/Third_Party/FreeRTOS/Source/CMSIS_RTOS/cmsis_os.c ****   else {
 414:../../../core/ST/Middlewares/Third_Party/FreeRTOS/Source/CMSIS_RTOS/cmsis_os.c ****     return xTimerCreate((const char *)"",
 415:../../../core/ST/Middlewares/Third_Party/FreeRTOS/Source/CMSIS_RTOS/cmsis_os.c ****                       1, // period should be filled when starting the Timer using osTimerStart
 416:../../../core/ST/Middlewares/Third_Party/FreeRTOS/Source/CMSIS_RTOS/cmsis_os.c ****                       (type == osTimerPeriodic) ? pdTRUE : pdFALSE,
 417:../../../core/ST/Middlewares/Third_Party/FreeRTOS/Source/CMSIS_RTOS/cmsis_os.c ****                       (void *) argument,
 418:../../../core/ST/Middlewares/Third_Party/FreeRTOS/Source/CMSIS_RTOS/cmsis_os.c ****                       (TaskFunction_t)timer_def->ptimer);
 419:../../../core/ST/Middlewares/Third_Party/FreeRTOS/Source/CMSIS_RTOS/cmsis_os.c ****  }
 420:../../../core/ST/Middlewares/Third_Party/FreeRTOS/Source/CMSIS_RTOS/cmsis_os.c **** #elif( configSUPPORT_STATIC_ALLOCATION == 1 )
 421:../../../core/ST/Middlewares/Third_Party/FreeRTOS/Source/CMSIS_RTOS/cmsis_os.c ****   return xTimerCreateStatic((const char *)"",
 422:../../../core/ST/Middlewares/Third_Party/FreeRTOS/Source/CMSIS_RTOS/cmsis_os.c ****                       1, // period should be filled when starting the Timer using osTimerStart
 423:../../../core/ST/Middlewares/Third_Party/FreeRTOS/Source/CMSIS_RTOS/cmsis_os.c ****                       (type == osTimerPeriodic) ? pdTRUE : pdFALSE,
 424:../../../core/ST/Middlewares/Third_Party/FreeRTOS/Source/CMSIS_RTOS/cmsis_os.c ****                       (void *) argument,
 425:../../../core/ST/Middlewares/Third_Party/FreeRTOS/Source/CMSIS_RTOS/cmsis_os.c ****                       (TaskFunction_t)timer_def->ptimer,
 426:../../../core/ST/Middlewares/Third_Party/FreeRTOS/Source/CMSIS_RTOS/cmsis_os.c ****                       (StaticTimer_t *)timer_def->controlblock);  
 427:../../../core/ST/Middlewares/Third_Party/FreeRTOS/Source/CMSIS_RTOS/cmsis_os.c **** #else
 428:../../../core/ST/Middlewares/Third_Party/FreeRTOS/Source/CMSIS_RTOS/cmsis_os.c ****   return xTimerCreate((const char *)"",
 580              		.loc 1 428 3 is_stmt 1 view .LVU107
 581              		.loc 1 428 10 is_stmt 0 view .LVU108
 582 0006 0129     		cmp	r1, #1
 583 0008 09D0     		beq	.L44
 584 000a 0022     		movs	r2, #0
 585              	.LVL39:
 586              	.L41:
 429:../../../core/ST/Middlewares/Third_Party/FreeRTOS/Source/CMSIS_RTOS/cmsis_os.c ****                       1, // period should be filled when starting the Timer using osTimerStart
 430:../../../core/ST/Middlewares/Third_Party/FreeRTOS/Source/CMSIS_RTOS/cmsis_os.c ****                       (type == osTimerPeriodic) ? pdTRUE : pdFALSE,
 431:../../../core/ST/Middlewares/Third_Party/FreeRTOS/Source/CMSIS_RTOS/cmsis_os.c ****                       (void *) argument,
 432:../../../core/ST/Middlewares/Third_Party/FreeRTOS/Source/CMSIS_RTOS/cmsis_os.c ****                       (TaskFunction_t)timer_def->ptimer);
 587              		.loc 1 432 48 discriminator 4 view .LVU109
 588 000c 0168     		ldr	r1, [r0]
 589              	.LVL40:
 428:../../../core/ST/Middlewares/Third_Party/FreeRTOS/Source/CMSIS_RTOS/cmsis_os.c ****                       1, // period should be filled when starting the Timer using osTimerStart
 590              		.loc 1 428 10 discriminator 4 view .LVU110
 591 000e 0091     		str	r1, [sp]
 592 0010 0121     		movs	r1, #1
 593 0012 0448     		ldr	r0, .L45
 594              	.LVL41:
 428:../../../core/ST/Middlewares/Third_Party/FreeRTOS/Source/CMSIS_RTOS/cmsis_os.c ****                       1, // period should be filled when starting the Timer using osTimerStart
 595              		.loc 1 428 10 discriminator 4 view .LVU111
 596 0014 FFF7FEFF 		bl	xTimerCreate
 597              	.LVL42:
 433:../../../core/ST/Middlewares/Third_Party/FreeRTOS/Source/CMSIS_RTOS/cmsis_os.c **** #endif
 434:../../../core/ST/Middlewares/Third_Party/FreeRTOS/Source/CMSIS_RTOS/cmsis_os.c **** 
 435:../../../core/ST/Middlewares/Third_Party/FreeRTOS/Source/CMSIS_RTOS/cmsis_os.c **** #else 
 436:../../../core/ST/Middlewares/Third_Party/FreeRTOS/Source/CMSIS_RTOS/cmsis_os.c **** 	return NULL;
 437:../../../core/ST/Middlewares/Third_Party/FreeRTOS/Source/CMSIS_RTOS/cmsis_os.c **** #endif
 438:../../../core/ST/Middlewares/Third_Party/FreeRTOS/Source/CMSIS_RTOS/cmsis_os.c **** }
 598              		.loc 1 438 1 discriminator 4 view .LVU112
 599 0018 03B0     		add	sp, sp, #12
 600              	.LCFI14:
 601              		.cfi_remember_state
 602              		.cfi_def_cfa_offset 4
 603              		@ sp needed
 604 001a 5DF804FB 		ldr	pc, [sp], #4
 605              	.LVL43:
ARM GAS  C:\Users\tijsv\AppData\Local\Temp\cc6LJGIv.s 			page 21


 606              	.L44:
 607              	.LCFI15:
 608              		.cfi_restore_state
 428:../../../core/ST/Middlewares/Third_Party/FreeRTOS/Source/CMSIS_RTOS/cmsis_os.c ****                       1, // period should be filled when starting the Timer using osTimerStart
 609              		.loc 1 428 10 view .LVU113
 610 001e 0122     		movs	r2, #1
 611              	.LVL44:
 428:../../../core/ST/Middlewares/Third_Party/FreeRTOS/Source/CMSIS_RTOS/cmsis_os.c ****                       1, // period should be filled when starting the Timer using osTimerStart
 612              		.loc 1 428 10 view .LVU114
 613 0020 F4E7     		b	.L41
 614              	.L46:
 615 0022 00BF     		.align	2
 616              	.L45:
 617 0024 00000000 		.word	.LC0
 618              		.cfi_endproc
 619              	.LFE43:
 621              		.section	.text.osTimerStart,"ax",%progbits
 622              		.align	1
 623              		.global	osTimerStart
 624              		.syntax unified
 625              		.thumb
 626              		.thumb_func
 627              		.fpu fpv4-sp-d16
 629              	osTimerStart:
 630              	.LVL45:
 631              	.LFB44:
 439:../../../core/ST/Middlewares/Third_Party/FreeRTOS/Source/CMSIS_RTOS/cmsis_os.c **** 
 440:../../../core/ST/Middlewares/Third_Party/FreeRTOS/Source/CMSIS_RTOS/cmsis_os.c **** /**
 441:../../../core/ST/Middlewares/Third_Party/FreeRTOS/Source/CMSIS_RTOS/cmsis_os.c **** * @brief  Start or restart a timer.
 442:../../../core/ST/Middlewares/Third_Party/FreeRTOS/Source/CMSIS_RTOS/cmsis_os.c **** * @param  timer_id      timer ID obtained by \ref osTimerCreate.
 443:../../../core/ST/Middlewares/Third_Party/FreeRTOS/Source/CMSIS_RTOS/cmsis_os.c **** * @param  millisec      time delay value of the timer.
 444:../../../core/ST/Middlewares/Third_Party/FreeRTOS/Source/CMSIS_RTOS/cmsis_os.c **** * @retval  status code that indicates the execution status of the function
 445:../../../core/ST/Middlewares/Third_Party/FreeRTOS/Source/CMSIS_RTOS/cmsis_os.c **** * @note   MUST REMAIN UNCHANGED: \b osTimerStart shall be consistent in every CMSIS-RTOS.
 446:../../../core/ST/Middlewares/Third_Party/FreeRTOS/Source/CMSIS_RTOS/cmsis_os.c **** */
 447:../../../core/ST/Middlewares/Third_Party/FreeRTOS/Source/CMSIS_RTOS/cmsis_os.c **** osStatus osTimerStart (osTimerId timer_id, uint32_t millisec)
 448:../../../core/ST/Middlewares/Third_Party/FreeRTOS/Source/CMSIS_RTOS/cmsis_os.c **** {
 632              		.loc 1 448 1 is_stmt 1 view -0
 633              		.cfi_startproc
 634              		@ args = 0, pretend = 0, frame = 8
 635              		@ frame_needed = 0, uses_anonymous_args = 0
 636              		.loc 1 448 1 is_stmt 0 view .LVU116
 637 0000 30B5     		push	{r4, r5, lr}
 638              	.LCFI16:
 639              		.cfi_def_cfa_offset 12
 640              		.cfi_offset 4, -12
 641              		.cfi_offset 5, -8
 642              		.cfi_offset 14, -4
 643 0002 85B0     		sub	sp, sp, #20
 644              	.LCFI17:
 645              		.cfi_def_cfa_offset 32
 646 0004 0446     		mov	r4, r0
 449:../../../core/ST/Middlewares/Third_Party/FreeRTOS/Source/CMSIS_RTOS/cmsis_os.c ****   osStatus result = osOK;
 647              		.loc 1 449 3 is_stmt 1 view .LVU117
 648              	.LVL46:
 450:../../../core/ST/Middlewares/Third_Party/FreeRTOS/Source/CMSIS_RTOS/cmsis_os.c **** #if (configUSE_TIMERS == 1)  
 451:../../../core/ST/Middlewares/Third_Party/FreeRTOS/Source/CMSIS_RTOS/cmsis_os.c ****   portBASE_TYPE taskWoken = pdFALSE;
 649              		.loc 1 451 3 view .LVU118
ARM GAS  C:\Users\tijsv\AppData\Local\Temp\cc6LJGIv.s 			page 22


 650              		.loc 1 451 17 is_stmt 0 view .LVU119
 651 0006 0023     		movs	r3, #0
 652 0008 0393     		str	r3, [sp, #12]
 452:../../../core/ST/Middlewares/Third_Party/FreeRTOS/Source/CMSIS_RTOS/cmsis_os.c ****   TickType_t ticks = millisec / portTICK_PERIOD_MS;
 653              		.loc 1 452 3 is_stmt 1 view .LVU120
 654              	.LVL47:
 453:../../../core/ST/Middlewares/Third_Party/FreeRTOS/Source/CMSIS_RTOS/cmsis_os.c **** 
 454:../../../core/ST/Middlewares/Third_Party/FreeRTOS/Source/CMSIS_RTOS/cmsis_os.c ****   if (ticks == 0)
 655              		.loc 1 454 3 view .LVU121
 656              		.loc 1 454 6 is_stmt 0 view .LVU122
 657 000a 0D46     		mov	r5, r1
 658 000c 01B9     		cbnz	r1, .L48
 455:../../../core/ST/Middlewares/Third_Party/FreeRTOS/Source/CMSIS_RTOS/cmsis_os.c ****     ticks = 1;
 659              		.loc 1 455 11 view .LVU123
 660 000e 0125     		movs	r5, #1
 661              	.L48:
 662              	.LVL48:
 456:../../../core/ST/Middlewares/Third_Party/FreeRTOS/Source/CMSIS_RTOS/cmsis_os.c ****     
 457:../../../core/ST/Middlewares/Third_Party/FreeRTOS/Source/CMSIS_RTOS/cmsis_os.c ****   if (inHandlerMode()) 
 663              		.loc 1 457 3 is_stmt 1 view .LVU124
 664              		.loc 1 457 7 is_stmt 0 view .LVU125
 665 0010 FFF7FEFF 		bl	inHandlerMode
 666              	.LVL49:
 667              		.loc 1 457 6 view .LVU126
 668 0014 C0B1     		cbz	r0, .L49
 458:../../../core/ST/Middlewares/Third_Party/FreeRTOS/Source/CMSIS_RTOS/cmsis_os.c ****   {
 459:../../../core/ST/Middlewares/Third_Party/FreeRTOS/Source/CMSIS_RTOS/cmsis_os.c ****     if (xTimerChangePeriodFromISR(timer_id, ticks, &taskWoken) != pdPASS)
 669              		.loc 1 459 5 is_stmt 1 view .LVU127
 670              		.loc 1 459 9 is_stmt 0 view .LVU128
 671 0016 0023     		movs	r3, #0
 672 0018 0093     		str	r3, [sp]
 673 001a 03AB     		add	r3, sp, #12
 674 001c 2A46     		mov	r2, r5
 675 001e 0921     		movs	r1, #9
 676 0020 2046     		mov	r0, r4
 677 0022 FFF7FEFF 		bl	xTimerGenericCommand
 678              	.LVL50:
 679              		.loc 1 459 8 view .LVU129
 680 0026 0128     		cmp	r0, #1
 681 0028 02D0     		beq	.L56
 460:../../../core/ST/Middlewares/Third_Party/FreeRTOS/Source/CMSIS_RTOS/cmsis_os.c ****     {
 461:../../../core/ST/Middlewares/Third_Party/FreeRTOS/Source/CMSIS_RTOS/cmsis_os.c ****       result = osErrorOS;
 682              		.loc 1 461 14 view .LVU130
 683 002a FF20     		movs	r0, #255
 684              	.LVL51:
 685              	.L47:
 462:../../../core/ST/Middlewares/Third_Party/FreeRTOS/Source/CMSIS_RTOS/cmsis_os.c ****     }
 463:../../../core/ST/Middlewares/Third_Party/FreeRTOS/Source/CMSIS_RTOS/cmsis_os.c ****     else
 464:../../../core/ST/Middlewares/Third_Party/FreeRTOS/Source/CMSIS_RTOS/cmsis_os.c ****     {
 465:../../../core/ST/Middlewares/Third_Party/FreeRTOS/Source/CMSIS_RTOS/cmsis_os.c ****       portEND_SWITCHING_ISR(taskWoken);     
 466:../../../core/ST/Middlewares/Third_Party/FreeRTOS/Source/CMSIS_RTOS/cmsis_os.c ****     }
 467:../../../core/ST/Middlewares/Third_Party/FreeRTOS/Source/CMSIS_RTOS/cmsis_os.c ****   }
 468:../../../core/ST/Middlewares/Third_Party/FreeRTOS/Source/CMSIS_RTOS/cmsis_os.c ****   else 
 469:../../../core/ST/Middlewares/Third_Party/FreeRTOS/Source/CMSIS_RTOS/cmsis_os.c ****   {
 470:../../../core/ST/Middlewares/Third_Party/FreeRTOS/Source/CMSIS_RTOS/cmsis_os.c ****     if (xTimerChangePeriod(timer_id, ticks, 0) != pdPASS)
 471:../../../core/ST/Middlewares/Third_Party/FreeRTOS/Source/CMSIS_RTOS/cmsis_os.c ****       result = osErrorOS;
 472:../../../core/ST/Middlewares/Third_Party/FreeRTOS/Source/CMSIS_RTOS/cmsis_os.c ****   }
ARM GAS  C:\Users\tijsv\AppData\Local\Temp\cc6LJGIv.s 			page 23


 473:../../../core/ST/Middlewares/Third_Party/FreeRTOS/Source/CMSIS_RTOS/cmsis_os.c **** 
 474:../../../core/ST/Middlewares/Third_Party/FreeRTOS/Source/CMSIS_RTOS/cmsis_os.c **** #else 
 475:../../../core/ST/Middlewares/Third_Party/FreeRTOS/Source/CMSIS_RTOS/cmsis_os.c ****   result = osErrorOS;
 476:../../../core/ST/Middlewares/Third_Party/FreeRTOS/Source/CMSIS_RTOS/cmsis_os.c **** #endif
 477:../../../core/ST/Middlewares/Third_Party/FreeRTOS/Source/CMSIS_RTOS/cmsis_os.c ****   return result;
 478:../../../core/ST/Middlewares/Third_Party/FreeRTOS/Source/CMSIS_RTOS/cmsis_os.c **** }
 686              		.loc 1 478 1 view .LVU131
 687 002c 05B0     		add	sp, sp, #20
 688              	.LCFI18:
 689              		.cfi_remember_state
 690              		.cfi_def_cfa_offset 12
 691              		@ sp needed
 692 002e 30BD     		pop	{r4, r5, pc}
 693              	.LVL52:
 694              	.L56:
 695              	.LCFI19:
 696              		.cfi_restore_state
 465:../../../core/ST/Middlewares/Third_Party/FreeRTOS/Source/CMSIS_RTOS/cmsis_os.c ****     }
 697              		.loc 1 465 7 is_stmt 1 view .LVU132
 698 0030 039B     		ldr	r3, [sp, #12]
 699 0032 B3B1     		cbz	r3, .L53
 465:../../../core/ST/Middlewares/Third_Party/FreeRTOS/Source/CMSIS_RTOS/cmsis_os.c ****     }
 700              		.loc 1 465 7 discriminator 1 view .LVU133
 701 0034 0C4B     		ldr	r3, .L58
 702 0036 4FF08052 		mov	r2, #268435456
 703 003a 1A60     		str	r2, [r3]
 465:../../../core/ST/Middlewares/Third_Party/FreeRTOS/Source/CMSIS_RTOS/cmsis_os.c ****     }
 704              		.loc 1 465 7 discriminator 1 view .LVU134
 705              		.syntax unified
 706              	@ 465 "../../../core/ST/Middlewares/Third_Party/FreeRTOS/Source/CMSIS_RTOS/cmsis_os.c" 1
 707 003c BFF34F8F 		dsb
 708              	@ 0 "" 2
 465:../../../core/ST/Middlewares/Third_Party/FreeRTOS/Source/CMSIS_RTOS/cmsis_os.c ****     }
 709              		.loc 1 465 7 discriminator 1 view .LVU135
 710              	@ 465 "../../../core/ST/Middlewares/Third_Party/FreeRTOS/Source/CMSIS_RTOS/cmsis_os.c" 1
 711 0040 BFF36F8F 		isb
 712              	@ 0 "" 2
 449:../../../core/ST/Middlewares/Third_Party/FreeRTOS/Source/CMSIS_RTOS/cmsis_os.c **** #if (configUSE_TIMERS == 1)  
 713              		.loc 1 449 12 is_stmt 0 discriminator 1 view .LVU136
 714              		.thumb
 715              		.syntax unified
 716 0044 0020     		movs	r0, #0
 717 0046 F1E7     		b	.L47
 718              	.L49:
 470:../../../core/ST/Middlewares/Third_Party/FreeRTOS/Source/CMSIS_RTOS/cmsis_os.c ****       result = osErrorOS;
 719              		.loc 1 470 5 is_stmt 1 view .LVU137
 470:../../../core/ST/Middlewares/Third_Party/FreeRTOS/Source/CMSIS_RTOS/cmsis_os.c ****       result = osErrorOS;
 720              		.loc 1 470 9 is_stmt 0 view .LVU138
 721 0048 0023     		movs	r3, #0
 722 004a 0093     		str	r3, [sp]
 723 004c 2A46     		mov	r2, r5
 724 004e 0421     		movs	r1, #4
 725 0050 2046     		mov	r0, r4
 726 0052 FFF7FEFF 		bl	xTimerGenericCommand
 727              	.LVL53:
 470:../../../core/ST/Middlewares/Third_Party/FreeRTOS/Source/CMSIS_RTOS/cmsis_os.c ****       result = osErrorOS;
 728              		.loc 1 470 8 view .LVU139
ARM GAS  C:\Users\tijsv\AppData\Local\Temp\cc6LJGIv.s 			page 24


 729 0056 0128     		cmp	r0, #1
 730 0058 01D0     		beq	.L57
 471:../../../core/ST/Middlewares/Third_Party/FreeRTOS/Source/CMSIS_RTOS/cmsis_os.c ****   }
 731              		.loc 1 471 14 view .LVU140
 732 005a FF20     		movs	r0, #255
 733              	.LVL54:
 477:../../../core/ST/Middlewares/Third_Party/FreeRTOS/Source/CMSIS_RTOS/cmsis_os.c **** }
 734              		.loc 1 477 3 is_stmt 1 view .LVU141
 477:../../../core/ST/Middlewares/Third_Party/FreeRTOS/Source/CMSIS_RTOS/cmsis_os.c **** }
 735              		.loc 1 477 10 is_stmt 0 view .LVU142
 736 005c E6E7     		b	.L47
 737              	.LVL55:
 738              	.L57:
 449:../../../core/ST/Middlewares/Third_Party/FreeRTOS/Source/CMSIS_RTOS/cmsis_os.c **** #if (configUSE_TIMERS == 1)  
 739              		.loc 1 449 12 view .LVU143
 740 005e 0020     		movs	r0, #0
 741 0060 E4E7     		b	.L47
 742              	.L53:
 449:../../../core/ST/Middlewares/Third_Party/FreeRTOS/Source/CMSIS_RTOS/cmsis_os.c **** #if (configUSE_TIMERS == 1)  
 743              		.loc 1 449 12 view .LVU144
 744 0062 0020     		movs	r0, #0
 745 0064 E2E7     		b	.L47
 746              	.L59:
 747 0066 00BF     		.align	2
 748              	.L58:
 749 0068 04ED00E0 		.word	-536810236
 750              		.cfi_endproc
 751              	.LFE44:
 753              		.section	.text.osTimerStop,"ax",%progbits
 754              		.align	1
 755              		.global	osTimerStop
 756              		.syntax unified
 757              		.thumb
 758              		.thumb_func
 759              		.fpu fpv4-sp-d16
 761              	osTimerStop:
 762              	.LVL56:
 763              	.LFB45:
 479:../../../core/ST/Middlewares/Third_Party/FreeRTOS/Source/CMSIS_RTOS/cmsis_os.c **** 
 480:../../../core/ST/Middlewares/Third_Party/FreeRTOS/Source/CMSIS_RTOS/cmsis_os.c **** /**
 481:../../../core/ST/Middlewares/Third_Party/FreeRTOS/Source/CMSIS_RTOS/cmsis_os.c **** * @brief  Stop a timer.
 482:../../../core/ST/Middlewares/Third_Party/FreeRTOS/Source/CMSIS_RTOS/cmsis_os.c **** * @param  timer_id      timer ID obtained by \ref osTimerCreate
 483:../../../core/ST/Middlewares/Third_Party/FreeRTOS/Source/CMSIS_RTOS/cmsis_os.c **** * @retval  status code that indicates the execution status of the function.
 484:../../../core/ST/Middlewares/Third_Party/FreeRTOS/Source/CMSIS_RTOS/cmsis_os.c **** * @note   MUST REMAIN UNCHANGED: \b osTimerStop shall be consistent in every CMSIS-RTOS.
 485:../../../core/ST/Middlewares/Third_Party/FreeRTOS/Source/CMSIS_RTOS/cmsis_os.c **** */
 486:../../../core/ST/Middlewares/Third_Party/FreeRTOS/Source/CMSIS_RTOS/cmsis_os.c **** osStatus osTimerStop (osTimerId timer_id)
 487:../../../core/ST/Middlewares/Third_Party/FreeRTOS/Source/CMSIS_RTOS/cmsis_os.c **** {
 764              		.loc 1 487 1 is_stmt 1 view -0
 765              		.cfi_startproc
 766              		@ args = 0, pretend = 0, frame = 8
 767              		@ frame_needed = 0, uses_anonymous_args = 0
 768              		.loc 1 487 1 is_stmt 0 view .LVU146
 769 0000 10B5     		push	{r4, lr}
 770              	.LCFI20:
 771              		.cfi_def_cfa_offset 8
 772              		.cfi_offset 4, -8
 773              		.cfi_offset 14, -4
ARM GAS  C:\Users\tijsv\AppData\Local\Temp\cc6LJGIv.s 			page 25


 774 0002 84B0     		sub	sp, sp, #16
 775              	.LCFI21:
 776              		.cfi_def_cfa_offset 24
 777 0004 0446     		mov	r4, r0
 488:../../../core/ST/Middlewares/Third_Party/FreeRTOS/Source/CMSIS_RTOS/cmsis_os.c ****   osStatus result = osOK;
 778              		.loc 1 488 3 is_stmt 1 view .LVU147
 779              	.LVL57:
 489:../../../core/ST/Middlewares/Third_Party/FreeRTOS/Source/CMSIS_RTOS/cmsis_os.c **** #if (configUSE_TIMERS == 1)  
 490:../../../core/ST/Middlewares/Third_Party/FreeRTOS/Source/CMSIS_RTOS/cmsis_os.c ****   portBASE_TYPE taskWoken = pdFALSE;
 780              		.loc 1 490 3 view .LVU148
 781              		.loc 1 490 17 is_stmt 0 view .LVU149
 782 0006 0023     		movs	r3, #0
 783 0008 0393     		str	r3, [sp, #12]
 491:../../../core/ST/Middlewares/Third_Party/FreeRTOS/Source/CMSIS_RTOS/cmsis_os.c **** 
 492:../../../core/ST/Middlewares/Third_Party/FreeRTOS/Source/CMSIS_RTOS/cmsis_os.c ****   if (inHandlerMode()) {
 784              		.loc 1 492 3 is_stmt 1 view .LVU150
 785              		.loc 1 492 7 is_stmt 0 view .LVU151
 786 000a FFF7FEFF 		bl	inHandlerMode
 787              	.LVL58:
 788              		.loc 1 492 6 view .LVU152
 789 000e A0B1     		cbz	r0, .L61
 493:../../../core/ST/Middlewares/Third_Party/FreeRTOS/Source/CMSIS_RTOS/cmsis_os.c ****     if (xTimerStopFromISR(timer_id, &taskWoken) != pdPASS) {
 790              		.loc 1 493 5 is_stmt 1 view .LVU153
 791              		.loc 1 493 9 is_stmt 0 view .LVU154
 792 0010 0022     		movs	r2, #0
 793 0012 0092     		str	r2, [sp]
 794 0014 03AB     		add	r3, sp, #12
 795 0016 0821     		movs	r1, #8
 796 0018 2046     		mov	r0, r4
 797 001a FFF7FEFF 		bl	xTimerGenericCommand
 798              	.LVL59:
 799              		.loc 1 493 8 view .LVU155
 800 001e 0128     		cmp	r0, #1
 801 0020 19D1     		bne	.L63
 494:../../../core/ST/Middlewares/Third_Party/FreeRTOS/Source/CMSIS_RTOS/cmsis_os.c ****       return osErrorOS;
 495:../../../core/ST/Middlewares/Third_Party/FreeRTOS/Source/CMSIS_RTOS/cmsis_os.c ****     }
 496:../../../core/ST/Middlewares/Third_Party/FreeRTOS/Source/CMSIS_RTOS/cmsis_os.c ****     portEND_SWITCHING_ISR(taskWoken);
 802              		.loc 1 496 5 is_stmt 1 view .LVU156
 803 0022 039B     		ldr	r3, [sp, #12]
 804 0024 CBB1     		cbz	r3, .L64
 805              		.loc 1 496 5 discriminator 1 view .LVU157
 806 0026 0E4B     		ldr	r3, .L68
 807 0028 4FF08052 		mov	r2, #268435456
 808 002c 1A60     		str	r2, [r3]
 809              		.loc 1 496 5 discriminator 1 view .LVU158
 810              		.syntax unified
 811              	@ 496 "../../../core/ST/Middlewares/Third_Party/FreeRTOS/Source/CMSIS_RTOS/cmsis_os.c" 1
 812 002e BFF34F8F 		dsb
 813              	@ 0 "" 2
 814              		.loc 1 496 5 discriminator 1 view .LVU159
 815              	@ 496 "../../../core/ST/Middlewares/Third_Party/FreeRTOS/Source/CMSIS_RTOS/cmsis_os.c" 1
 816 0032 BFF36F8F 		isb
 817              	@ 0 "" 2
 488:../../../core/ST/Middlewares/Third_Party/FreeRTOS/Source/CMSIS_RTOS/cmsis_os.c **** #if (configUSE_TIMERS == 1)  
 818              		.loc 1 488 12 is_stmt 0 discriminator 1 view .LVU160
 819              		.thumb
 820              		.syntax unified
ARM GAS  C:\Users\tijsv\AppData\Local\Temp\cc6LJGIv.s 			page 26


 821 0036 0020     		movs	r0, #0
 822 0038 09E0     		b	.L60
 823              	.L61:
 497:../../../core/ST/Middlewares/Third_Party/FreeRTOS/Source/CMSIS_RTOS/cmsis_os.c ****   }
 498:../../../core/ST/Middlewares/Third_Party/FreeRTOS/Source/CMSIS_RTOS/cmsis_os.c ****   else {
 499:../../../core/ST/Middlewares/Third_Party/FreeRTOS/Source/CMSIS_RTOS/cmsis_os.c ****     if (xTimerStop(timer_id, 0) != pdPASS) {
 824              		.loc 1 499 5 is_stmt 1 view .LVU161
 825              		.loc 1 499 9 is_stmt 0 view .LVU162
 826 003a 0022     		movs	r2, #0
 827 003c 0092     		str	r2, [sp]
 828 003e 1346     		mov	r3, r2
 829 0040 0321     		movs	r1, #3
 830 0042 2046     		mov	r0, r4
 831 0044 FFF7FEFF 		bl	xTimerGenericCommand
 832              	.LVL60:
 833              		.loc 1 499 8 view .LVU163
 834 0048 0128     		cmp	r0, #1
 835 004a 02D0     		beq	.L67
 500:../../../core/ST/Middlewares/Third_Party/FreeRTOS/Source/CMSIS_RTOS/cmsis_os.c ****       result = osErrorOS;
 836              		.loc 1 500 14 view .LVU164
 837 004c FF20     		movs	r0, #255
 838              	.LVL61:
 839              	.L60:
 501:../../../core/ST/Middlewares/Third_Party/FreeRTOS/Source/CMSIS_RTOS/cmsis_os.c ****     }
 502:../../../core/ST/Middlewares/Third_Party/FreeRTOS/Source/CMSIS_RTOS/cmsis_os.c ****   }
 503:../../../core/ST/Middlewares/Third_Party/FreeRTOS/Source/CMSIS_RTOS/cmsis_os.c **** #else 
 504:../../../core/ST/Middlewares/Third_Party/FreeRTOS/Source/CMSIS_RTOS/cmsis_os.c ****   result = osErrorOS;
 505:../../../core/ST/Middlewares/Third_Party/FreeRTOS/Source/CMSIS_RTOS/cmsis_os.c **** #endif 
 506:../../../core/ST/Middlewares/Third_Party/FreeRTOS/Source/CMSIS_RTOS/cmsis_os.c ****   return result;
 507:../../../core/ST/Middlewares/Third_Party/FreeRTOS/Source/CMSIS_RTOS/cmsis_os.c **** }
 840              		.loc 1 507 1 view .LVU165
 841 004e 04B0     		add	sp, sp, #16
 842              	.LCFI22:
 843              		.cfi_remember_state
 844              		.cfi_def_cfa_offset 8
 845              		@ sp needed
 846 0050 10BD     		pop	{r4, pc}
 847              	.LVL62:
 848              	.L67:
 849              	.LCFI23:
 850              		.cfi_restore_state
 488:../../../core/ST/Middlewares/Third_Party/FreeRTOS/Source/CMSIS_RTOS/cmsis_os.c **** #if (configUSE_TIMERS == 1)  
 851              		.loc 1 488 12 view .LVU166
 852 0052 0020     		movs	r0, #0
 853 0054 FBE7     		b	.L60
 854              	.L63:
 494:../../../core/ST/Middlewares/Third_Party/FreeRTOS/Source/CMSIS_RTOS/cmsis_os.c ****     }
 855              		.loc 1 494 14 view .LVU167
 856 0056 FF20     		movs	r0, #255
 857 0058 F9E7     		b	.L60
 858              	.L64:
 488:../../../core/ST/Middlewares/Third_Party/FreeRTOS/Source/CMSIS_RTOS/cmsis_os.c **** #if (configUSE_TIMERS == 1)  
 859              		.loc 1 488 12 view .LVU168
 860 005a 0020     		movs	r0, #0
 861 005c F7E7     		b	.L60
 862              	.L69:
 863 005e 00BF     		.align	2
ARM GAS  C:\Users\tijsv\AppData\Local\Temp\cc6LJGIv.s 			page 27


 864              	.L68:
 865 0060 04ED00E0 		.word	-536810236
 866              		.cfi_endproc
 867              	.LFE45:
 869              		.section	.text.osTimerDelete,"ax",%progbits
 870              		.align	1
 871              		.global	osTimerDelete
 872              		.syntax unified
 873              		.thumb
 874              		.thumb_func
 875              		.fpu fpv4-sp-d16
 877              	osTimerDelete:
 878              	.LVL63:
 879              	.LFB46:
 508:../../../core/ST/Middlewares/Third_Party/FreeRTOS/Source/CMSIS_RTOS/cmsis_os.c **** 
 509:../../../core/ST/Middlewares/Third_Party/FreeRTOS/Source/CMSIS_RTOS/cmsis_os.c **** /**
 510:../../../core/ST/Middlewares/Third_Party/FreeRTOS/Source/CMSIS_RTOS/cmsis_os.c **** * @brief  Delete a timer.
 511:../../../core/ST/Middlewares/Third_Party/FreeRTOS/Source/CMSIS_RTOS/cmsis_os.c **** * @param  timer_id      timer ID obtained by \ref osTimerCreate
 512:../../../core/ST/Middlewares/Third_Party/FreeRTOS/Source/CMSIS_RTOS/cmsis_os.c **** * @retval  status code that indicates the execution status of the function.
 513:../../../core/ST/Middlewares/Third_Party/FreeRTOS/Source/CMSIS_RTOS/cmsis_os.c **** * @note   MUST REMAIN UNCHANGED: \b osTimerDelete shall be consistent in every CMSIS-RTOS.
 514:../../../core/ST/Middlewares/Third_Party/FreeRTOS/Source/CMSIS_RTOS/cmsis_os.c **** */
 515:../../../core/ST/Middlewares/Third_Party/FreeRTOS/Source/CMSIS_RTOS/cmsis_os.c **** osStatus osTimerDelete (osTimerId timer_id)
 516:../../../core/ST/Middlewares/Third_Party/FreeRTOS/Source/CMSIS_RTOS/cmsis_os.c **** {
 880              		.loc 1 516 1 is_stmt 1 view -0
 881              		.cfi_startproc
 882              		@ args = 0, pretend = 0, frame = 0
 883              		@ frame_needed = 0, uses_anonymous_args = 0
 884              		.loc 1 516 1 is_stmt 0 view .LVU170
 885 0000 10B5     		push	{r4, lr}
 886              	.LCFI24:
 887              		.cfi_def_cfa_offset 8
 888              		.cfi_offset 4, -8
 889              		.cfi_offset 14, -4
 890 0002 82B0     		sub	sp, sp, #8
 891              	.LCFI25:
 892              		.cfi_def_cfa_offset 16
 893 0004 0446     		mov	r4, r0
 517:../../../core/ST/Middlewares/Third_Party/FreeRTOS/Source/CMSIS_RTOS/cmsis_os.c **** osStatus result = osOK;
 894              		.loc 1 517 1 is_stmt 1 view .LVU171
 895              	.LVL64:
 518:../../../core/ST/Middlewares/Third_Party/FreeRTOS/Source/CMSIS_RTOS/cmsis_os.c **** 
 519:../../../core/ST/Middlewares/Third_Party/FreeRTOS/Source/CMSIS_RTOS/cmsis_os.c **** #if (configUSE_TIMERS == 1)
 520:../../../core/ST/Middlewares/Third_Party/FreeRTOS/Source/CMSIS_RTOS/cmsis_os.c **** 
 521:../../../core/ST/Middlewares/Third_Party/FreeRTOS/Source/CMSIS_RTOS/cmsis_os.c ****    if (inHandlerMode()) {
 896              		.loc 1 521 4 view .LVU172
 897              		.loc 1 521 8 is_stmt 0 view .LVU173
 898 0006 FFF7FEFF 		bl	inHandlerMode
 899              	.LVL65:
 900              		.loc 1 521 7 view .LVU174
 901 000a 70B9     		cbnz	r0, .L72
 522:../../../core/ST/Middlewares/Third_Party/FreeRTOS/Source/CMSIS_RTOS/cmsis_os.c ****      return osErrorISR;
 523:../../../core/ST/Middlewares/Third_Party/FreeRTOS/Source/CMSIS_RTOS/cmsis_os.c ****   }
 524:../../../core/ST/Middlewares/Third_Party/FreeRTOS/Source/CMSIS_RTOS/cmsis_os.c ****   else { 
 525:../../../core/ST/Middlewares/Third_Party/FreeRTOS/Source/CMSIS_RTOS/cmsis_os.c ****     if ((xTimerDelete(timer_id, osWaitForever )) != pdPASS) {
 902              		.loc 1 525 5 is_stmt 1 view .LVU175
 903              		.loc 1 525 10 is_stmt 0 view .LVU176
 904 000c 4FF0FF33 		mov	r3, #-1
ARM GAS  C:\Users\tijsv\AppData\Local\Temp\cc6LJGIv.s 			page 28


 905 0010 0093     		str	r3, [sp]
 906 0012 0023     		movs	r3, #0
 907 0014 1A46     		mov	r2, r3
 908 0016 0521     		movs	r1, #5
 909 0018 2046     		mov	r0, r4
 910 001a FFF7FEFF 		bl	xTimerGenericCommand
 911              	.LVL66:
 912              		.loc 1 525 8 view .LVU177
 913 001e 0128     		cmp	r0, #1
 914 0020 01D0     		beq	.L75
 526:../../../core/ST/Middlewares/Third_Party/FreeRTOS/Source/CMSIS_RTOS/cmsis_os.c ****       result = osErrorOS;
 915              		.loc 1 526 14 view .LVU178
 916 0022 FF20     		movs	r0, #255
 917              	.LVL67:
 918              		.loc 1 526 14 view .LVU179
 919 0024 02E0     		b	.L70
 920              	.LVL68:
 921              	.L75:
 517:../../../core/ST/Middlewares/Third_Party/FreeRTOS/Source/CMSIS_RTOS/cmsis_os.c **** 
 922              		.loc 1 517 10 view .LVU180
 923 0026 0020     		movs	r0, #0
 924 0028 00E0     		b	.L70
 925              	.L72:
 522:../../../core/ST/Middlewares/Third_Party/FreeRTOS/Source/CMSIS_RTOS/cmsis_os.c ****      return osErrorISR;
 926              		.loc 1 522 13 view .LVU181
 927 002a 8220     		movs	r0, #130
 928              	.LVL69:
 929              	.L70:
 527:../../../core/ST/Middlewares/Third_Party/FreeRTOS/Source/CMSIS_RTOS/cmsis_os.c ****     }
 528:../../../core/ST/Middlewares/Third_Party/FreeRTOS/Source/CMSIS_RTOS/cmsis_os.c ****   } 
 529:../../../core/ST/Middlewares/Third_Party/FreeRTOS/Source/CMSIS_RTOS/cmsis_os.c ****     
 530:../../../core/ST/Middlewares/Third_Party/FreeRTOS/Source/CMSIS_RTOS/cmsis_os.c **** #else 
 531:../../../core/ST/Middlewares/Third_Party/FreeRTOS/Source/CMSIS_RTOS/cmsis_os.c ****   result = osErrorOS;
 532:../../../core/ST/Middlewares/Third_Party/FreeRTOS/Source/CMSIS_RTOS/cmsis_os.c **** #endif 
 533:../../../core/ST/Middlewares/Third_Party/FreeRTOS/Source/CMSIS_RTOS/cmsis_os.c ****  
 534:../../../core/ST/Middlewares/Third_Party/FreeRTOS/Source/CMSIS_RTOS/cmsis_os.c ****   return result;
 535:../../../core/ST/Middlewares/Third_Party/FreeRTOS/Source/CMSIS_RTOS/cmsis_os.c **** }
 930              		.loc 1 535 1 view .LVU182
 931 002c 02B0     		add	sp, sp, #8
 932              	.LCFI26:
 933              		.cfi_def_cfa_offset 8
 934              		@ sp needed
 935 002e 10BD     		pop	{r4, pc}
 936              		.loc 1 535 1 view .LVU183
 937              		.cfi_endproc
 938              	.LFE46:
 940              		.section	.text.osSignalSet,"ax",%progbits
 941              		.align	1
 942              		.global	osSignalSet
 943              		.syntax unified
 944              		.thumb
 945              		.thumb_func
 946              		.fpu fpv4-sp-d16
 948              	osSignalSet:
 949              	.LVL70:
 950              	.LFB47:
 536:../../../core/ST/Middlewares/Third_Party/FreeRTOS/Source/CMSIS_RTOS/cmsis_os.c **** 
ARM GAS  C:\Users\tijsv\AppData\Local\Temp\cc6LJGIv.s 			page 29


 537:../../../core/ST/Middlewares/Third_Party/FreeRTOS/Source/CMSIS_RTOS/cmsis_os.c **** /***************************  Signal Management ********************************/
 538:../../../core/ST/Middlewares/Third_Party/FreeRTOS/Source/CMSIS_RTOS/cmsis_os.c **** /**
 539:../../../core/ST/Middlewares/Third_Party/FreeRTOS/Source/CMSIS_RTOS/cmsis_os.c **** * @brief  Set the specified Signal Flags of an active thread.
 540:../../../core/ST/Middlewares/Third_Party/FreeRTOS/Source/CMSIS_RTOS/cmsis_os.c **** * @param  thread_id     thread ID obtained by \ref osThreadCreate or \ref osThreadGetId.
 541:../../../core/ST/Middlewares/Third_Party/FreeRTOS/Source/CMSIS_RTOS/cmsis_os.c **** * @param  signals       specifies the signal flags of the thread that should be set.
 542:../../../core/ST/Middlewares/Third_Party/FreeRTOS/Source/CMSIS_RTOS/cmsis_os.c **** * @retval previous signal flags of the specified thread or 0x80000000 in case of incorrect paramete
 543:../../../core/ST/Middlewares/Third_Party/FreeRTOS/Source/CMSIS_RTOS/cmsis_os.c **** * @note   MUST REMAIN UNCHANGED: \b osSignalSet shall be consistent in every CMSIS-RTOS.
 544:../../../core/ST/Middlewares/Third_Party/FreeRTOS/Source/CMSIS_RTOS/cmsis_os.c **** */
 545:../../../core/ST/Middlewares/Third_Party/FreeRTOS/Source/CMSIS_RTOS/cmsis_os.c **** int32_t osSignalSet (osThreadId thread_id, int32_t signal)
 546:../../../core/ST/Middlewares/Third_Party/FreeRTOS/Source/CMSIS_RTOS/cmsis_os.c **** {
 951              		.loc 1 546 1 is_stmt 1 view -0
 952              		.cfi_startproc
 953              		@ args = 0, pretend = 0, frame = 8
 954              		@ frame_needed = 0, uses_anonymous_args = 0
 955              		.loc 1 546 1 is_stmt 0 view .LVU185
 956 0000 30B5     		push	{r4, r5, lr}
 957              	.LCFI27:
 958              		.cfi_def_cfa_offset 12
 959              		.cfi_offset 4, -12
 960              		.cfi_offset 5, -8
 961              		.cfi_offset 14, -4
 962 0002 85B0     		sub	sp, sp, #20
 963              	.LCFI28:
 964              		.cfi_def_cfa_offset 32
 965 0004 0446     		mov	r4, r0
 966 0006 0D46     		mov	r5, r1
 547:../../../core/ST/Middlewares/Third_Party/FreeRTOS/Source/CMSIS_RTOS/cmsis_os.c **** #if( configUSE_TASK_NOTIFICATIONS == 1 )	
 548:../../../core/ST/Middlewares/Third_Party/FreeRTOS/Source/CMSIS_RTOS/cmsis_os.c ****   BaseType_t xHigherPriorityTaskWoken = pdFALSE;
 967              		.loc 1 548 3 is_stmt 1 view .LVU186
 968              		.loc 1 548 14 is_stmt 0 view .LVU187
 969 0008 0023     		movs	r3, #0
 970 000a 0393     		str	r3, [sp, #12]
 549:../../../core/ST/Middlewares/Third_Party/FreeRTOS/Source/CMSIS_RTOS/cmsis_os.c ****   uint32_t ulPreviousNotificationValue = 0;
 971              		.loc 1 549 3 is_stmt 1 view .LVU188
 972              		.loc 1 549 12 is_stmt 0 view .LVU189
 973 000c 0293     		str	r3, [sp, #8]
 550:../../../core/ST/Middlewares/Third_Party/FreeRTOS/Source/CMSIS_RTOS/cmsis_os.c ****   
 551:../../../core/ST/Middlewares/Third_Party/FreeRTOS/Source/CMSIS_RTOS/cmsis_os.c ****   if (inHandlerMode())
 974              		.loc 1 551 3 is_stmt 1 view .LVU190
 975              		.loc 1 551 7 is_stmt 0 view .LVU191
 976 000e FFF7FEFF 		bl	inHandlerMode
 977              	.LVL71:
 978              		.loc 1 551 6 view .LVU192
 979 0012 A0B1     		cbz	r0, .L77
 552:../../../core/ST/Middlewares/Third_Party/FreeRTOS/Source/CMSIS_RTOS/cmsis_os.c ****   {
 553:../../../core/ST/Middlewares/Third_Party/FreeRTOS/Source/CMSIS_RTOS/cmsis_os.c ****     if(xTaskGenericNotifyFromISR( thread_id , (uint32_t)signal, eSetBits, &ulPreviousNotificationVa
 980              		.loc 1 553 5 is_stmt 1 view .LVU193
 981              		.loc 1 553 8 is_stmt 0 view .LVU194
 982 0014 03AB     		add	r3, sp, #12
 983 0016 0093     		str	r3, [sp]
 984 0018 02AB     		add	r3, sp, #8
 985 001a 0122     		movs	r2, #1
 986 001c 2946     		mov	r1, r5
 987 001e 2046     		mov	r0, r4
 988 0020 FFF7FEFF 		bl	xTaskGenericNotifyFromISR
 989              	.LVL72:
 990              		.loc 1 553 7 view .LVU195
ARM GAS  C:\Users\tijsv\AppData\Local\Temp\cc6LJGIv.s 			page 30


 991 0024 0128     		cmp	r0, #1
 992 0026 15D1     		bne	.L80
 554:../../../core/ST/Middlewares/Third_Party/FreeRTOS/Source/CMSIS_RTOS/cmsis_os.c ****       return 0x80000000;
 555:../../../core/ST/Middlewares/Third_Party/FreeRTOS/Source/CMSIS_RTOS/cmsis_os.c ****     
 556:../../../core/ST/Middlewares/Third_Party/FreeRTOS/Source/CMSIS_RTOS/cmsis_os.c ****     portYIELD_FROM_ISR( xHigherPriorityTaskWoken );
 993              		.loc 1 556 5 is_stmt 1 view .LVU196
 994 0028 039B     		ldr	r3, [sp, #12]
 995 002a 83B1     		cbz	r3, .L79
 996              		.loc 1 556 5 discriminator 1 view .LVU197
 997 002c 0C4B     		ldr	r3, .L83
 998 002e 4FF08052 		mov	r2, #268435456
 999 0032 1A60     		str	r2, [r3]
 1000              		.loc 1 556 5 discriminator 1 view .LVU198
 1001              		.syntax unified
 1002              	@ 556 "../../../core/ST/Middlewares/Third_Party/FreeRTOS/Source/CMSIS_RTOS/cmsis_os.c" 1
 1003 0034 BFF34F8F 		dsb
 1004              	@ 0 "" 2
 1005              		.loc 1 556 5 discriminator 1 view .LVU199
 1006              	@ 556 "../../../core/ST/Middlewares/Third_Party/FreeRTOS/Source/CMSIS_RTOS/cmsis_os.c" 1
 1007 0038 BFF36F8F 		isb
 1008              	@ 0 "" 2
 1009              		.thumb
 1010              		.syntax unified
 1011 003c 07E0     		b	.L79
 1012              	.L77:
 557:../../../core/ST/Middlewares/Third_Party/FreeRTOS/Source/CMSIS_RTOS/cmsis_os.c ****   }  
 558:../../../core/ST/Middlewares/Third_Party/FreeRTOS/Source/CMSIS_RTOS/cmsis_os.c ****   else if(xTaskGenericNotify( thread_id , (uint32_t)signal, eSetBits, &ulPreviousNotificationValue)
 1013              		.loc 1 558 8 view .LVU200
 1014              		.loc 1 558 11 is_stmt 0 view .LVU201
 1015 003e 02AB     		add	r3, sp, #8
 1016 0040 0122     		movs	r2, #1
 1017 0042 2946     		mov	r1, r5
 1018 0044 2046     		mov	r0, r4
 1019 0046 FFF7FEFF 		bl	xTaskGenericNotify
 1020              	.LVL73:
 1021              		.loc 1 558 10 view .LVU202
 1022 004a 0128     		cmp	r0, #1
 1023 004c 05D1     		bne	.L81
 1024              	.L79:
 559:../../../core/ST/Middlewares/Third_Party/FreeRTOS/Source/CMSIS_RTOS/cmsis_os.c ****     return 0x80000000;
 560:../../../core/ST/Middlewares/Third_Party/FreeRTOS/Source/CMSIS_RTOS/cmsis_os.c ****   
 561:../../../core/ST/Middlewares/Third_Party/FreeRTOS/Source/CMSIS_RTOS/cmsis_os.c ****   return ulPreviousNotificationValue;
 1025              		.loc 1 561 3 is_stmt 1 view .LVU203
 1026              		.loc 1 561 10 is_stmt 0 view .LVU204
 1027 004e 0298     		ldr	r0, [sp, #8]
 1028              	.L76:
 562:../../../core/ST/Middlewares/Third_Party/FreeRTOS/Source/CMSIS_RTOS/cmsis_os.c **** #else
 563:../../../core/ST/Middlewares/Third_Party/FreeRTOS/Source/CMSIS_RTOS/cmsis_os.c ****   (void) thread_id;
 564:../../../core/ST/Middlewares/Third_Party/FreeRTOS/Source/CMSIS_RTOS/cmsis_os.c ****   (void) signal;
 565:../../../core/ST/Middlewares/Third_Party/FreeRTOS/Source/CMSIS_RTOS/cmsis_os.c **** 
 566:../../../core/ST/Middlewares/Third_Party/FreeRTOS/Source/CMSIS_RTOS/cmsis_os.c ****   return 0x80000000; /* Task Notification not supported */ 	
 567:../../../core/ST/Middlewares/Third_Party/FreeRTOS/Source/CMSIS_RTOS/cmsis_os.c **** #endif
 568:../../../core/ST/Middlewares/Third_Party/FreeRTOS/Source/CMSIS_RTOS/cmsis_os.c **** }
 1029              		.loc 1 568 1 view .LVU205
 1030 0050 05B0     		add	sp, sp, #20
 1031              	.LCFI29:
 1032              		.cfi_remember_state
ARM GAS  C:\Users\tijsv\AppData\Local\Temp\cc6LJGIv.s 			page 31


 1033              		.cfi_def_cfa_offset 12
 1034              		@ sp needed
 1035 0052 30BD     		pop	{r4, r5, pc}
 1036              	.LVL74:
 1037              	.L80:
 1038              	.LCFI30:
 1039              		.cfi_restore_state
 554:../../../core/ST/Middlewares/Third_Party/FreeRTOS/Source/CMSIS_RTOS/cmsis_os.c ****     
 1040              		.loc 1 554 14 view .LVU206
 1041 0054 4FF00040 		mov	r0, #-2147483648
 1042 0058 FAE7     		b	.L76
 1043              	.L81:
 559:../../../core/ST/Middlewares/Third_Party/FreeRTOS/Source/CMSIS_RTOS/cmsis_os.c ****     return 0x80000000;
 1044              		.loc 1 559 12 view .LVU207
 1045 005a 4FF00040 		mov	r0, #-2147483648
 1046 005e F7E7     		b	.L76
 1047              	.L84:
 1048              		.align	2
 1049              	.L83:
 1050 0060 04ED00E0 		.word	-536810236
 1051              		.cfi_endproc
 1052              	.LFE47:
 1054              		.section	.text.osSignalWait,"ax",%progbits
 1055              		.align	1
 1056              		.global	osSignalWait
 1057              		.syntax unified
 1058              		.thumb
 1059              		.thumb_func
 1060              		.fpu fpv4-sp-d16
 1062              	osSignalWait:
 1063              	.LVL75:
 1064              	.LFB48:
 569:../../../core/ST/Middlewares/Third_Party/FreeRTOS/Source/CMSIS_RTOS/cmsis_os.c **** 
 570:../../../core/ST/Middlewares/Third_Party/FreeRTOS/Source/CMSIS_RTOS/cmsis_os.c **** /**
 571:../../../core/ST/Middlewares/Third_Party/FreeRTOS/Source/CMSIS_RTOS/cmsis_os.c **** * @brief  Clear the specified Signal Flags of an active thread.
 572:../../../core/ST/Middlewares/Third_Party/FreeRTOS/Source/CMSIS_RTOS/cmsis_os.c **** * @param  thread_id  thread ID obtained by \ref osThreadCreate or \ref osThreadGetId.
 573:../../../core/ST/Middlewares/Third_Party/FreeRTOS/Source/CMSIS_RTOS/cmsis_os.c **** * @param  signals    specifies the signal flags of the thread that shall be cleared.
 574:../../../core/ST/Middlewares/Third_Party/FreeRTOS/Source/CMSIS_RTOS/cmsis_os.c **** * @retval  previous signal flags of the specified thread or 0x80000000 in case of incorrect paramet
 575:../../../core/ST/Middlewares/Third_Party/FreeRTOS/Source/CMSIS_RTOS/cmsis_os.c **** * @note   MUST REMAIN UNCHANGED: \b osSignalClear shall be consistent in every CMSIS-RTOS.
 576:../../../core/ST/Middlewares/Third_Party/FreeRTOS/Source/CMSIS_RTOS/cmsis_os.c **** */
 577:../../../core/ST/Middlewares/Third_Party/FreeRTOS/Source/CMSIS_RTOS/cmsis_os.c **** int32_t osSignalClear (osThreadId thread_id, int32_t signal);
 578:../../../core/ST/Middlewares/Third_Party/FreeRTOS/Source/CMSIS_RTOS/cmsis_os.c **** 
 579:../../../core/ST/Middlewares/Third_Party/FreeRTOS/Source/CMSIS_RTOS/cmsis_os.c **** /**
 580:../../../core/ST/Middlewares/Third_Party/FreeRTOS/Source/CMSIS_RTOS/cmsis_os.c **** * @brief  Wait for one or more Signal Flags to become signaled for the current \b RUNNING thread.
 581:../../../core/ST/Middlewares/Third_Party/FreeRTOS/Source/CMSIS_RTOS/cmsis_os.c **** * @param  signals   wait until all specified signal flags set or 0 for any single signal flag.
 582:../../../core/ST/Middlewares/Third_Party/FreeRTOS/Source/CMSIS_RTOS/cmsis_os.c **** * @param  millisec  timeout value or 0 in case of no time-out.
 583:../../../core/ST/Middlewares/Third_Party/FreeRTOS/Source/CMSIS_RTOS/cmsis_os.c **** * @retval  event flag information or error code.
 584:../../../core/ST/Middlewares/Third_Party/FreeRTOS/Source/CMSIS_RTOS/cmsis_os.c **** * @note   MUST REMAIN UNCHANGED: \b osSignalWait shall be consistent in every CMSIS-RTOS.
 585:../../../core/ST/Middlewares/Third_Party/FreeRTOS/Source/CMSIS_RTOS/cmsis_os.c **** */
 586:../../../core/ST/Middlewares/Third_Party/FreeRTOS/Source/CMSIS_RTOS/cmsis_os.c **** osEvent osSignalWait (int32_t signals, uint32_t millisec)
 587:../../../core/ST/Middlewares/Third_Party/FreeRTOS/Source/CMSIS_RTOS/cmsis_os.c **** {
 1065              		.loc 1 587 1 is_stmt 1 view -0
 1066              		.cfi_startproc
 1067              		@ args = 0, pretend = 0, frame = 16
 1068              		@ frame_needed = 0, uses_anonymous_args = 0
 1069              		.loc 1 587 1 is_stmt 0 view .LVU209
 1070 0000 70B5     		push	{r4, r5, r6, lr}
ARM GAS  C:\Users\tijsv\AppData\Local\Temp\cc6LJGIv.s 			page 32


 1071              	.LCFI31:
 1072              		.cfi_def_cfa_offset 16
 1073              		.cfi_offset 4, -16
 1074              		.cfi_offset 5, -12
 1075              		.cfi_offset 6, -8
 1076              		.cfi_offset 14, -4
 1077 0002 84B0     		sub	sp, sp, #16
 1078              	.LCFI32:
 1079              		.cfi_def_cfa_offset 32
 1080 0004 0446     		mov	r4, r0
 1081 0006 0E46     		mov	r6, r1
 1082 0008 1546     		mov	r5, r2
 588:../../../core/ST/Middlewares/Third_Party/FreeRTOS/Source/CMSIS_RTOS/cmsis_os.c ****   osEvent ret;
 1083              		.loc 1 588 3 is_stmt 1 view .LVU210
 589:../../../core/ST/Middlewares/Third_Party/FreeRTOS/Source/CMSIS_RTOS/cmsis_os.c **** 
 590:../../../core/ST/Middlewares/Third_Party/FreeRTOS/Source/CMSIS_RTOS/cmsis_os.c **** #if( configUSE_TASK_NOTIFICATIONS == 1 )
 591:../../../core/ST/Middlewares/Third_Party/FreeRTOS/Source/CMSIS_RTOS/cmsis_os.c **** 	
 592:../../../core/ST/Middlewares/Third_Party/FreeRTOS/Source/CMSIS_RTOS/cmsis_os.c ****   TickType_t ticks;
 1084              		.loc 1 592 3 view .LVU211
 593:../../../core/ST/Middlewares/Third_Party/FreeRTOS/Source/CMSIS_RTOS/cmsis_os.c **** 
 594:../../../core/ST/Middlewares/Third_Party/FreeRTOS/Source/CMSIS_RTOS/cmsis_os.c ****   ret.value.signals = 0;  
 1085              		.loc 1 594 3 view .LVU212
 1086              		.loc 1 594 21 is_stmt 0 view .LVU213
 1087 000a 0023     		movs	r3, #0
 1088 000c 0293     		str	r3, [sp, #8]
 595:../../../core/ST/Middlewares/Third_Party/FreeRTOS/Source/CMSIS_RTOS/cmsis_os.c ****   ticks = 0;
 1089              		.loc 1 595 3 is_stmt 1 view .LVU214
 1090              	.LVL76:
 596:../../../core/ST/Middlewares/Third_Party/FreeRTOS/Source/CMSIS_RTOS/cmsis_os.c ****   if (millisec == osWaitForever) {
 1091              		.loc 1 596 3 view .LVU215
 597:../../../core/ST/Middlewares/Third_Party/FreeRTOS/Source/CMSIS_RTOS/cmsis_os.c ****     ticks = portMAX_DELAY;
 598:../../../core/ST/Middlewares/Third_Party/FreeRTOS/Source/CMSIS_RTOS/cmsis_os.c ****   }
 599:../../../core/ST/Middlewares/Third_Party/FreeRTOS/Source/CMSIS_RTOS/cmsis_os.c ****   else if (millisec != 0) {
 600:../../../core/ST/Middlewares/Third_Party/FreeRTOS/Source/CMSIS_RTOS/cmsis_os.c ****     ticks = millisec / portTICK_PERIOD_MS;
 601:../../../core/ST/Middlewares/Third_Party/FreeRTOS/Source/CMSIS_RTOS/cmsis_os.c ****     if (ticks == 0) {
 602:../../../core/ST/Middlewares/Third_Party/FreeRTOS/Source/CMSIS_RTOS/cmsis_os.c ****       ticks = 1;
 603:../../../core/ST/Middlewares/Third_Party/FreeRTOS/Source/CMSIS_RTOS/cmsis_os.c ****     }
 604:../../../core/ST/Middlewares/Third_Party/FreeRTOS/Source/CMSIS_RTOS/cmsis_os.c ****   }  
 605:../../../core/ST/Middlewares/Third_Party/FreeRTOS/Source/CMSIS_RTOS/cmsis_os.c ****   
 606:../../../core/ST/Middlewares/Third_Party/FreeRTOS/Source/CMSIS_RTOS/cmsis_os.c ****   if (inHandlerMode())
 1092              		.loc 1 606 3 view .LVU216
 1093              		.loc 1 606 7 is_stmt 0 view .LVU217
 1094 000e FFF7FEFF 		bl	inHandlerMode
 1095              	.LVL77:
 1096              		.loc 1 606 6 view .LVU218
 1097 0012 48B1     		cbz	r0, .L86
 607:../../../core/ST/Middlewares/Third_Party/FreeRTOS/Source/CMSIS_RTOS/cmsis_os.c ****   {
 608:../../../core/ST/Middlewares/Third_Party/FreeRTOS/Source/CMSIS_RTOS/cmsis_os.c ****     ret.status = osErrorISR;  /*Not allowed in ISR*/
 1098              		.loc 1 608 5 is_stmt 1 view .LVU219
 1099              		.loc 1 608 16 is_stmt 0 view .LVU220
 1100 0014 8223     		movs	r3, #130
 1101 0016 0193     		str	r3, [sp, #4]
 1102              	.L87:
 609:../../../core/ST/Middlewares/Third_Party/FreeRTOS/Source/CMSIS_RTOS/cmsis_os.c ****   }
 610:../../../core/ST/Middlewares/Third_Party/FreeRTOS/Source/CMSIS_RTOS/cmsis_os.c ****   else
 611:../../../core/ST/Middlewares/Third_Party/FreeRTOS/Source/CMSIS_RTOS/cmsis_os.c ****   {
 612:../../../core/ST/Middlewares/Third_Party/FreeRTOS/Source/CMSIS_RTOS/cmsis_os.c ****     if(xTaskNotifyWait( 0,(uint32_t) signals, (uint32_t *)&ret.value.signals, ticks) != pdTRUE)
ARM GAS  C:\Users\tijsv\AppData\Local\Temp\cc6LJGIv.s 			page 33


 613:../../../core/ST/Middlewares/Third_Party/FreeRTOS/Source/CMSIS_RTOS/cmsis_os.c ****     {
 614:../../../core/ST/Middlewares/Third_Party/FreeRTOS/Source/CMSIS_RTOS/cmsis_os.c ****       if(ticks == 0)  ret.status = osOK;
 615:../../../core/ST/Middlewares/Third_Party/FreeRTOS/Source/CMSIS_RTOS/cmsis_os.c ****       else  ret.status = osEventTimeout;
 616:../../../core/ST/Middlewares/Third_Party/FreeRTOS/Source/CMSIS_RTOS/cmsis_os.c ****     }
 617:../../../core/ST/Middlewares/Third_Party/FreeRTOS/Source/CMSIS_RTOS/cmsis_os.c ****     else if(ret.value.signals < 0)
 618:../../../core/ST/Middlewares/Third_Party/FreeRTOS/Source/CMSIS_RTOS/cmsis_os.c ****     {
 619:../../../core/ST/Middlewares/Third_Party/FreeRTOS/Source/CMSIS_RTOS/cmsis_os.c ****       ret.status =  osErrorValue;     
 620:../../../core/ST/Middlewares/Third_Party/FreeRTOS/Source/CMSIS_RTOS/cmsis_os.c ****     }
 621:../../../core/ST/Middlewares/Third_Party/FreeRTOS/Source/CMSIS_RTOS/cmsis_os.c ****     else  ret.status =  osEventSignal;
 622:../../../core/ST/Middlewares/Third_Party/FreeRTOS/Source/CMSIS_RTOS/cmsis_os.c ****   }
 623:../../../core/ST/Middlewares/Third_Party/FreeRTOS/Source/CMSIS_RTOS/cmsis_os.c **** #else
 624:../../../core/ST/Middlewares/Third_Party/FreeRTOS/Source/CMSIS_RTOS/cmsis_os.c ****   (void) signals;
 625:../../../core/ST/Middlewares/Third_Party/FreeRTOS/Source/CMSIS_RTOS/cmsis_os.c ****   (void) millisec;
 626:../../../core/ST/Middlewares/Third_Party/FreeRTOS/Source/CMSIS_RTOS/cmsis_os.c **** 	
 627:../../../core/ST/Middlewares/Third_Party/FreeRTOS/Source/CMSIS_RTOS/cmsis_os.c ****   ret.status =  osErrorOS;	/* Task Notification not supported */
 628:../../../core/ST/Middlewares/Third_Party/FreeRTOS/Source/CMSIS_RTOS/cmsis_os.c **** #endif
 629:../../../core/ST/Middlewares/Third_Party/FreeRTOS/Source/CMSIS_RTOS/cmsis_os.c ****   
 630:../../../core/ST/Middlewares/Third_Party/FreeRTOS/Source/CMSIS_RTOS/cmsis_os.c ****   return ret;
 1103              		.loc 1 630 3 is_stmt 1 view .LVU221
 1104              		.loc 1 630 10 is_stmt 0 view .LVU222
 1105 0018 04AB     		add	r3, sp, #16
 1106 001a 13E90700 		ldmdb	r3, {r0, r1, r2}
 1107 001e 84E80700 		stm	r4, {r0, r1, r2}
 631:../../../core/ST/Middlewares/Third_Party/FreeRTOS/Source/CMSIS_RTOS/cmsis_os.c **** }
 1108              		.loc 1 631 1 view .LVU223
 1109 0022 2046     		mov	r0, r4
 1110 0024 04B0     		add	sp, sp, #16
 1111              	.LCFI33:
 1112              		.cfi_remember_state
 1113              		.cfi_def_cfa_offset 16
 1114              		@ sp needed
 1115 0026 70BD     		pop	{r4, r5, r6, pc}
 1116              	.LVL78:
 1117              	.L86:
 1118              	.LCFI34:
 1119              		.cfi_restore_state
 612:../../../core/ST/Middlewares/Third_Party/FreeRTOS/Source/CMSIS_RTOS/cmsis_os.c ****     {
 1120              		.loc 1 612 5 is_stmt 1 view .LVU224
 612:../../../core/ST/Middlewares/Third_Party/FreeRTOS/Source/CMSIS_RTOS/cmsis_os.c ****     {
 1121              		.loc 1 612 8 is_stmt 0 view .LVU225
 1122 0028 2B46     		mov	r3, r5
 1123 002a 02AA     		add	r2, sp, #8
 1124 002c 3146     		mov	r1, r6
 1125 002e 0020     		movs	r0, #0
 1126 0030 FFF7FEFF 		bl	xTaskNotifyWait
 1127              	.LVL79:
 612:../../../core/ST/Middlewares/Third_Party/FreeRTOS/Source/CMSIS_RTOS/cmsis_os.c ****     {
 1128              		.loc 1 612 7 view .LVU226
 1129 0034 0128     		cmp	r0, #1
 1130 0036 06D0     		beq	.L88
 614:../../../core/ST/Middlewares/Third_Party/FreeRTOS/Source/CMSIS_RTOS/cmsis_os.c ****       else  ret.status = osEventTimeout;
 1131              		.loc 1 614 7 is_stmt 1 view .LVU227
 614:../../../core/ST/Middlewares/Third_Party/FreeRTOS/Source/CMSIS_RTOS/cmsis_os.c ****       else  ret.status = osEventTimeout;
 1132              		.loc 1 614 9 is_stmt 0 view .LVU228
 1133 0038 15B9     		cbnz	r5, .L89
 614:../../../core/ST/Middlewares/Third_Party/FreeRTOS/Source/CMSIS_RTOS/cmsis_os.c ****       else  ret.status = osEventTimeout;
 1134              		.loc 1 614 23 is_stmt 1 discriminator 1 view .LVU229
ARM GAS  C:\Users\tijsv\AppData\Local\Temp\cc6LJGIv.s 			page 34


 614:../../../core/ST/Middlewares/Third_Party/FreeRTOS/Source/CMSIS_RTOS/cmsis_os.c ****       else  ret.status = osEventTimeout;
 1135              		.loc 1 614 34 is_stmt 0 discriminator 1 view .LVU230
 1136 003a 0023     		movs	r3, #0
 1137 003c 0193     		str	r3, [sp, #4]
 1138 003e EBE7     		b	.L87
 1139              	.L89:
 615:../../../core/ST/Middlewares/Third_Party/FreeRTOS/Source/CMSIS_RTOS/cmsis_os.c ****     }
 1140              		.loc 1 615 13 is_stmt 1 view .LVU231
 615:../../../core/ST/Middlewares/Third_Party/FreeRTOS/Source/CMSIS_RTOS/cmsis_os.c ****     }
 1141              		.loc 1 615 24 is_stmt 0 view .LVU232
 1142 0040 4023     		movs	r3, #64
 1143 0042 0193     		str	r3, [sp, #4]
 1144 0044 E8E7     		b	.L87
 1145              	.L88:
 617:../../../core/ST/Middlewares/Third_Party/FreeRTOS/Source/CMSIS_RTOS/cmsis_os.c ****     {
 1146              		.loc 1 617 10 is_stmt 1 view .LVU233
 617:../../../core/ST/Middlewares/Third_Party/FreeRTOS/Source/CMSIS_RTOS/cmsis_os.c ****     {
 1147              		.loc 1 617 22 is_stmt 0 view .LVU234
 1148 0046 029B     		ldr	r3, [sp, #8]
 617:../../../core/ST/Middlewares/Third_Party/FreeRTOS/Source/CMSIS_RTOS/cmsis_os.c ****     {
 1149              		.loc 1 617 12 view .LVU235
 1150 0048 002B     		cmp	r3, #0
 1151 004a 02DB     		blt	.L92
 621:../../../core/ST/Middlewares/Third_Party/FreeRTOS/Source/CMSIS_RTOS/cmsis_os.c ****   }
 1152              		.loc 1 621 11 is_stmt 1 view .LVU236
 621:../../../core/ST/Middlewares/Third_Party/FreeRTOS/Source/CMSIS_RTOS/cmsis_os.c ****   }
 1153              		.loc 1 621 22 is_stmt 0 view .LVU237
 1154 004c 0823     		movs	r3, #8
 1155 004e 0193     		str	r3, [sp, #4]
 1156 0050 E2E7     		b	.L87
 1157              	.L92:
 619:../../../core/ST/Middlewares/Third_Party/FreeRTOS/Source/CMSIS_RTOS/cmsis_os.c ****     }
 1158              		.loc 1 619 7 is_stmt 1 view .LVU238
 619:../../../core/ST/Middlewares/Third_Party/FreeRTOS/Source/CMSIS_RTOS/cmsis_os.c ****     }
 1159              		.loc 1 619 18 is_stmt 0 view .LVU239
 1160 0052 8623     		movs	r3, #134
 1161 0054 0193     		str	r3, [sp, #4]
 1162 0056 DFE7     		b	.L87
 1163              		.cfi_endproc
 1164              	.LFE48:
 1166              		.section	.text.osMutexCreate,"ax",%progbits
 1167              		.align	1
 1168              		.global	osMutexCreate
 1169              		.syntax unified
 1170              		.thumb
 1171              		.thumb_func
 1172              		.fpu fpv4-sp-d16
 1174              	osMutexCreate:
 1175              	.LVL80:
 1176              	.LFB49:
 632:../../../core/ST/Middlewares/Third_Party/FreeRTOS/Source/CMSIS_RTOS/cmsis_os.c **** 
 633:../../../core/ST/Middlewares/Third_Party/FreeRTOS/Source/CMSIS_RTOS/cmsis_os.c **** /****************************  Mutex Management ********************************/
 634:../../../core/ST/Middlewares/Third_Party/FreeRTOS/Source/CMSIS_RTOS/cmsis_os.c **** /**
 635:../../../core/ST/Middlewares/Third_Party/FreeRTOS/Source/CMSIS_RTOS/cmsis_os.c **** * @brief  Create and Initialize a Mutex object
 636:../../../core/ST/Middlewares/Third_Party/FreeRTOS/Source/CMSIS_RTOS/cmsis_os.c **** * @param  mutex_def     mutex definition referenced with \ref osMutex.
 637:../../../core/ST/Middlewares/Third_Party/FreeRTOS/Source/CMSIS_RTOS/cmsis_os.c **** * @retval  mutex ID for reference by other functions or NULL in case of error.
 638:../../../core/ST/Middlewares/Third_Party/FreeRTOS/Source/CMSIS_RTOS/cmsis_os.c **** * @note   MUST REMAIN UNCHANGED: \b osMutexCreate shall be consistent in every CMSIS-RTOS.
ARM GAS  C:\Users\tijsv\AppData\Local\Temp\cc6LJGIv.s 			page 35


 639:../../../core/ST/Middlewares/Third_Party/FreeRTOS/Source/CMSIS_RTOS/cmsis_os.c **** */
 640:../../../core/ST/Middlewares/Third_Party/FreeRTOS/Source/CMSIS_RTOS/cmsis_os.c **** osMutexId osMutexCreate (const osMutexDef_t *mutex_def)
 641:../../../core/ST/Middlewares/Third_Party/FreeRTOS/Source/CMSIS_RTOS/cmsis_os.c **** {
 1177              		.loc 1 641 1 is_stmt 1 view -0
 1178              		.cfi_startproc
 1179              		@ args = 0, pretend = 0, frame = 0
 1180              		@ frame_needed = 0, uses_anonymous_args = 0
 1181              		.loc 1 641 1 is_stmt 0 view .LVU241
 1182 0000 08B5     		push	{r3, lr}
 1183              	.LCFI35:
 1184              		.cfi_def_cfa_offset 8
 1185              		.cfi_offset 3, -8
 1186              		.cfi_offset 14, -4
 642:../../../core/ST/Middlewares/Third_Party/FreeRTOS/Source/CMSIS_RTOS/cmsis_os.c **** #if ( configUSE_MUTEXES == 1)
 643:../../../core/ST/Middlewares/Third_Party/FreeRTOS/Source/CMSIS_RTOS/cmsis_os.c **** 
 644:../../../core/ST/Middlewares/Third_Party/FreeRTOS/Source/CMSIS_RTOS/cmsis_os.c **** #if( configSUPPORT_STATIC_ALLOCATION == 1 ) && ( configSUPPORT_DYNAMIC_ALLOCATION == 1 )
 645:../../../core/ST/Middlewares/Third_Party/FreeRTOS/Source/CMSIS_RTOS/cmsis_os.c **** 
 646:../../../core/ST/Middlewares/Third_Party/FreeRTOS/Source/CMSIS_RTOS/cmsis_os.c ****   if (mutex_def->controlblock != NULL) {
 647:../../../core/ST/Middlewares/Third_Party/FreeRTOS/Source/CMSIS_RTOS/cmsis_os.c ****     return xSemaphoreCreateMutexStatic( mutex_def->controlblock );
 648:../../../core/ST/Middlewares/Third_Party/FreeRTOS/Source/CMSIS_RTOS/cmsis_os.c ****      }
 649:../../../core/ST/Middlewares/Third_Party/FreeRTOS/Source/CMSIS_RTOS/cmsis_os.c ****   else {
 650:../../../core/ST/Middlewares/Third_Party/FreeRTOS/Source/CMSIS_RTOS/cmsis_os.c ****     return xSemaphoreCreateMutex(); 
 651:../../../core/ST/Middlewares/Third_Party/FreeRTOS/Source/CMSIS_RTOS/cmsis_os.c ****   }
 652:../../../core/ST/Middlewares/Third_Party/FreeRTOS/Source/CMSIS_RTOS/cmsis_os.c **** #elif ( configSUPPORT_STATIC_ALLOCATION == 1 )
 653:../../../core/ST/Middlewares/Third_Party/FreeRTOS/Source/CMSIS_RTOS/cmsis_os.c ****   return xSemaphoreCreateMutexStatic( mutex_def->controlblock );
 654:../../../core/ST/Middlewares/Third_Party/FreeRTOS/Source/CMSIS_RTOS/cmsis_os.c **** #else  
 655:../../../core/ST/Middlewares/Third_Party/FreeRTOS/Source/CMSIS_RTOS/cmsis_os.c ****     return xSemaphoreCreateMutex(); 
 1187              		.loc 1 655 5 is_stmt 1 view .LVU242
 1188              		.loc 1 655 12 is_stmt 0 view .LVU243
 1189 0002 0120     		movs	r0, #1
 1190              	.LVL81:
 1191              		.loc 1 655 12 view .LVU244
 1192 0004 FFF7FEFF 		bl	xQueueCreateMutex
 1193              	.LVL82:
 656:../../../core/ST/Middlewares/Third_Party/FreeRTOS/Source/CMSIS_RTOS/cmsis_os.c **** #endif
 657:../../../core/ST/Middlewares/Third_Party/FreeRTOS/Source/CMSIS_RTOS/cmsis_os.c **** #else
 658:../../../core/ST/Middlewares/Third_Party/FreeRTOS/Source/CMSIS_RTOS/cmsis_os.c ****   return NULL;
 659:../../../core/ST/Middlewares/Third_Party/FreeRTOS/Source/CMSIS_RTOS/cmsis_os.c **** #endif
 660:../../../core/ST/Middlewares/Third_Party/FreeRTOS/Source/CMSIS_RTOS/cmsis_os.c **** }
 1194              		.loc 1 660 1 view .LVU245
 1195 0008 08BD     		pop	{r3, pc}
 1196              		.cfi_endproc
 1197              	.LFE49:
 1199              		.section	.text.osMutexWait,"ax",%progbits
 1200              		.align	1
 1201              		.global	osMutexWait
 1202              		.syntax unified
 1203              		.thumb
 1204              		.thumb_func
 1205              		.fpu fpv4-sp-d16
 1207              	osMutexWait:
 1208              	.LVL83:
 1209              	.LFB50:
 661:../../../core/ST/Middlewares/Third_Party/FreeRTOS/Source/CMSIS_RTOS/cmsis_os.c **** 
 662:../../../core/ST/Middlewares/Third_Party/FreeRTOS/Source/CMSIS_RTOS/cmsis_os.c **** /**
 663:../../../core/ST/Middlewares/Third_Party/FreeRTOS/Source/CMSIS_RTOS/cmsis_os.c **** * @brief Wait until a Mutex becomes available
 664:../../../core/ST/Middlewares/Third_Party/FreeRTOS/Source/CMSIS_RTOS/cmsis_os.c **** * @param mutex_id      mutex ID obtained by \ref osMutexCreate.
ARM GAS  C:\Users\tijsv\AppData\Local\Temp\cc6LJGIv.s 			page 36


 665:../../../core/ST/Middlewares/Third_Party/FreeRTOS/Source/CMSIS_RTOS/cmsis_os.c **** * @param millisec      timeout value or 0 in case of no time-out.
 666:../../../core/ST/Middlewares/Third_Party/FreeRTOS/Source/CMSIS_RTOS/cmsis_os.c **** * @retval  status code that indicates the execution status of the function.
 667:../../../core/ST/Middlewares/Third_Party/FreeRTOS/Source/CMSIS_RTOS/cmsis_os.c **** * @note   MUST REMAIN UNCHANGED: \b osMutexWait shall be consistent in every CMSIS-RTOS.
 668:../../../core/ST/Middlewares/Third_Party/FreeRTOS/Source/CMSIS_RTOS/cmsis_os.c **** */
 669:../../../core/ST/Middlewares/Third_Party/FreeRTOS/Source/CMSIS_RTOS/cmsis_os.c **** osStatus osMutexWait (osMutexId mutex_id, uint32_t millisec)
 670:../../../core/ST/Middlewares/Third_Party/FreeRTOS/Source/CMSIS_RTOS/cmsis_os.c **** {
 1210              		.loc 1 670 1 is_stmt 1 view -0
 1211              		.cfi_startproc
 1212              		@ args = 0, pretend = 0, frame = 8
 1213              		@ frame_needed = 0, uses_anonymous_args = 0
 1214              		.loc 1 670 1 is_stmt 0 view .LVU247
 1215 0000 30B5     		push	{r4, r5, lr}
 1216              	.LCFI36:
 1217              		.cfi_def_cfa_offset 12
 1218              		.cfi_offset 4, -12
 1219              		.cfi_offset 5, -8
 1220              		.cfi_offset 14, -4
 1221 0002 83B0     		sub	sp, sp, #12
 1222              	.LCFI37:
 1223              		.cfi_def_cfa_offset 24
 671:../../../core/ST/Middlewares/Third_Party/FreeRTOS/Source/CMSIS_RTOS/cmsis_os.c ****   TickType_t ticks;
 1224              		.loc 1 671 3 is_stmt 1 view .LVU248
 672:../../../core/ST/Middlewares/Third_Party/FreeRTOS/Source/CMSIS_RTOS/cmsis_os.c ****   portBASE_TYPE taskWoken = pdFALSE;  
 1225              		.loc 1 672 3 view .LVU249
 1226              		.loc 1 672 17 is_stmt 0 view .LVU250
 1227 0004 0023     		movs	r3, #0
 1228 0006 0193     		str	r3, [sp, #4]
 673:../../../core/ST/Middlewares/Third_Party/FreeRTOS/Source/CMSIS_RTOS/cmsis_os.c ****   
 674:../../../core/ST/Middlewares/Third_Party/FreeRTOS/Source/CMSIS_RTOS/cmsis_os.c ****   
 675:../../../core/ST/Middlewares/Third_Party/FreeRTOS/Source/CMSIS_RTOS/cmsis_os.c ****   if (mutex_id == NULL) {
 1229              		.loc 1 675 3 is_stmt 1 view .LVU251
 1230              		.loc 1 675 6 is_stmt 0 view .LVU252
 1231 0008 00B3     		cbz	r0, .L98
 1232 000a 0C46     		mov	r4, r1
 1233 000c 0546     		mov	r5, r0
 676:../../../core/ST/Middlewares/Third_Party/FreeRTOS/Source/CMSIS_RTOS/cmsis_os.c ****     return osErrorParameter;
 677:../../../core/ST/Middlewares/Third_Party/FreeRTOS/Source/CMSIS_RTOS/cmsis_os.c ****   }
 678:../../../core/ST/Middlewares/Third_Party/FreeRTOS/Source/CMSIS_RTOS/cmsis_os.c ****   
 679:../../../core/ST/Middlewares/Third_Party/FreeRTOS/Source/CMSIS_RTOS/cmsis_os.c ****   ticks = 0;
 1234              		.loc 1 679 3 is_stmt 1 view .LVU253
 1235              	.LVL84:
 680:../../../core/ST/Middlewares/Third_Party/FreeRTOS/Source/CMSIS_RTOS/cmsis_os.c ****   if (millisec == osWaitForever) {
 1236              		.loc 1 680 3 view .LVU254
 681:../../../core/ST/Middlewares/Third_Party/FreeRTOS/Source/CMSIS_RTOS/cmsis_os.c ****     ticks = portMAX_DELAY;
 682:../../../core/ST/Middlewares/Third_Party/FreeRTOS/Source/CMSIS_RTOS/cmsis_os.c ****   }
 683:../../../core/ST/Middlewares/Third_Party/FreeRTOS/Source/CMSIS_RTOS/cmsis_os.c ****   else if (millisec != 0) {
 684:../../../core/ST/Middlewares/Third_Party/FreeRTOS/Source/CMSIS_RTOS/cmsis_os.c ****     ticks = millisec / portTICK_PERIOD_MS;
 685:../../../core/ST/Middlewares/Third_Party/FreeRTOS/Source/CMSIS_RTOS/cmsis_os.c ****     if (ticks == 0) {
 686:../../../core/ST/Middlewares/Third_Party/FreeRTOS/Source/CMSIS_RTOS/cmsis_os.c ****       ticks = 1;
 687:../../../core/ST/Middlewares/Third_Party/FreeRTOS/Source/CMSIS_RTOS/cmsis_os.c ****     }
 688:../../../core/ST/Middlewares/Third_Party/FreeRTOS/Source/CMSIS_RTOS/cmsis_os.c ****   }
 689:../../../core/ST/Middlewares/Third_Party/FreeRTOS/Source/CMSIS_RTOS/cmsis_os.c ****   
 690:../../../core/ST/Middlewares/Third_Party/FreeRTOS/Source/CMSIS_RTOS/cmsis_os.c ****   if (inHandlerMode()) {
 1237              		.loc 1 690 3 view .LVU255
 1238              		.loc 1 690 7 is_stmt 0 view .LVU256
 1239 000e FFF7FEFF 		bl	inHandlerMode
 1240              	.LVL85:
ARM GAS  C:\Users\tijsv\AppData\Local\Temp\cc6LJGIv.s 			page 37


 1241              		.loc 1 690 6 view .LVU257
 1242 0012 90B1     		cbz	r0, .L97
 691:../../../core/ST/Middlewares/Third_Party/FreeRTOS/Source/CMSIS_RTOS/cmsis_os.c ****     if (xSemaphoreTakeFromISR(mutex_id, &taskWoken) != pdTRUE) {
 1243              		.loc 1 691 5 is_stmt 1 view .LVU258
 1244              		.loc 1 691 9 is_stmt 0 view .LVU259
 1245 0014 01AA     		add	r2, sp, #4
 1246 0016 0021     		movs	r1, #0
 1247 0018 2846     		mov	r0, r5
 1248 001a FFF7FEFF 		bl	xQueueReceiveFromISR
 1249              	.LVL86:
 1250              		.loc 1 691 8 view .LVU260
 1251 001e 0128     		cmp	r0, #1
 1252 0020 16D1     		bne	.L99
 692:../../../core/ST/Middlewares/Third_Party/FreeRTOS/Source/CMSIS_RTOS/cmsis_os.c ****       return osErrorOS;
 693:../../../core/ST/Middlewares/Third_Party/FreeRTOS/Source/CMSIS_RTOS/cmsis_os.c ****     }
 694:../../../core/ST/Middlewares/Third_Party/FreeRTOS/Source/CMSIS_RTOS/cmsis_os.c **** 	portEND_SWITCHING_ISR(taskWoken);
 1253              		.loc 1 694 2 is_stmt 1 view .LVU261
 1254 0022 019B     		ldr	r3, [sp, #4]
 1255 0024 B3B1     		cbz	r3, .L100
 1256              		.loc 1 694 2 discriminator 1 view .LVU262
 1257 0026 0D4B     		ldr	r3, .L103
 1258 0028 4FF08052 		mov	r2, #268435456
 1259 002c 1A60     		str	r2, [r3]
 1260              		.loc 1 694 2 discriminator 1 view .LVU263
 1261              		.syntax unified
 1262              	@ 694 "../../../core/ST/Middlewares/Third_Party/FreeRTOS/Source/CMSIS_RTOS/cmsis_os.c" 1
 1263 002e BFF34F8F 		dsb
 1264              	@ 0 "" 2
 1265              		.loc 1 694 2 discriminator 1 view .LVU264
 1266              	@ 694 "../../../core/ST/Middlewares/Third_Party/FreeRTOS/Source/CMSIS_RTOS/cmsis_os.c" 1
 1267 0032 BFF36F8F 		isb
 1268              	@ 0 "" 2
 695:../../../core/ST/Middlewares/Third_Party/FreeRTOS/Source/CMSIS_RTOS/cmsis_os.c ****   } 
 696:../../../core/ST/Middlewares/Third_Party/FreeRTOS/Source/CMSIS_RTOS/cmsis_os.c ****   else if (xSemaphoreTake(mutex_id, ticks) != pdTRUE) {
 697:../../../core/ST/Middlewares/Third_Party/FreeRTOS/Source/CMSIS_RTOS/cmsis_os.c ****     return osErrorOS;
 698:../../../core/ST/Middlewares/Third_Party/FreeRTOS/Source/CMSIS_RTOS/cmsis_os.c ****   }
 699:../../../core/ST/Middlewares/Third_Party/FreeRTOS/Source/CMSIS_RTOS/cmsis_os.c ****   
 700:../../../core/ST/Middlewares/Third_Party/FreeRTOS/Source/CMSIS_RTOS/cmsis_os.c ****   return osOK;
 1269              		.loc 1 700 10 is_stmt 0 discriminator 1 view .LVU265
 1270              		.thumb
 1271              		.syntax unified
 1272 0036 0020     		movs	r0, #0
 1273 0038 06E0     		b	.L95
 1274              	.L97:
 696:../../../core/ST/Middlewares/Third_Party/FreeRTOS/Source/CMSIS_RTOS/cmsis_os.c ****     return osErrorOS;
 1275              		.loc 1 696 8 is_stmt 1 view .LVU266
 696:../../../core/ST/Middlewares/Third_Party/FreeRTOS/Source/CMSIS_RTOS/cmsis_os.c ****     return osErrorOS;
 1276              		.loc 1 696 12 is_stmt 0 view .LVU267
 1277 003a 2146     		mov	r1, r4
 1278 003c 2846     		mov	r0, r5
 1279 003e FFF7FEFF 		bl	xQueueSemaphoreTake
 1280              	.LVL87:
 696:../../../core/ST/Middlewares/Third_Party/FreeRTOS/Source/CMSIS_RTOS/cmsis_os.c ****     return osErrorOS;
 1281              		.loc 1 696 11 view .LVU268
 1282 0042 0128     		cmp	r0, #1
 1283 0044 08D1     		bne	.L101
 1284              		.loc 1 700 10 view .LVU269
ARM GAS  C:\Users\tijsv\AppData\Local\Temp\cc6LJGIv.s 			page 38


 1285 0046 0020     		movs	r0, #0
 1286              	.LVL88:
 1287              	.L95:
 701:../../../core/ST/Middlewares/Third_Party/FreeRTOS/Source/CMSIS_RTOS/cmsis_os.c **** }
 1288              		.loc 1 701 1 view .LVU270
 1289 0048 03B0     		add	sp, sp, #12
 1290              	.LCFI38:
 1291              		.cfi_remember_state
 1292              		.cfi_def_cfa_offset 12
 1293              		@ sp needed
 1294 004a 30BD     		pop	{r4, r5, pc}
 1295              	.LVL89:
 1296              	.L98:
 1297              	.LCFI39:
 1298              		.cfi_restore_state
 676:../../../core/ST/Middlewares/Third_Party/FreeRTOS/Source/CMSIS_RTOS/cmsis_os.c ****   }
 1299              		.loc 1 676 12 view .LVU271
 1300 004c 8020     		movs	r0, #128
 1301              	.LVL90:
 676:../../../core/ST/Middlewares/Third_Party/FreeRTOS/Source/CMSIS_RTOS/cmsis_os.c ****   }
 1302              		.loc 1 676 12 view .LVU272
 1303 004e FBE7     		b	.L95
 1304              	.LVL91:
 1305              	.L99:
 692:../../../core/ST/Middlewares/Third_Party/FreeRTOS/Source/CMSIS_RTOS/cmsis_os.c ****     }
 1306              		.loc 1 692 14 view .LVU273
 1307 0050 FF20     		movs	r0, #255
 1308 0052 F9E7     		b	.L95
 1309              	.L100:
 700:../../../core/ST/Middlewares/Third_Party/FreeRTOS/Source/CMSIS_RTOS/cmsis_os.c **** }
 1310              		.loc 1 700 10 view .LVU274
 1311 0054 0020     		movs	r0, #0
 1312 0056 F7E7     		b	.L95
 1313              	.L101:
 697:../../../core/ST/Middlewares/Third_Party/FreeRTOS/Source/CMSIS_RTOS/cmsis_os.c ****   }
 1314              		.loc 1 697 12 view .LVU275
 1315 0058 FF20     		movs	r0, #255
 1316 005a F5E7     		b	.L95
 1317              	.L104:
 1318              		.align	2
 1319              	.L103:
 1320 005c 04ED00E0 		.word	-536810236
 1321              		.cfi_endproc
 1322              	.LFE50:
 1324              		.section	.text.osMutexRelease,"ax",%progbits
 1325              		.align	1
 1326              		.global	osMutexRelease
 1327              		.syntax unified
 1328              		.thumb
 1329              		.thumb_func
 1330              		.fpu fpv4-sp-d16
 1332              	osMutexRelease:
 1333              	.LVL92:
 1334              	.LFB51:
 702:../../../core/ST/Middlewares/Third_Party/FreeRTOS/Source/CMSIS_RTOS/cmsis_os.c **** 
 703:../../../core/ST/Middlewares/Third_Party/FreeRTOS/Source/CMSIS_RTOS/cmsis_os.c **** /**
 704:../../../core/ST/Middlewares/Third_Party/FreeRTOS/Source/CMSIS_RTOS/cmsis_os.c **** * @brief Release a Mutex that was obtained by \ref osMutexWait
ARM GAS  C:\Users\tijsv\AppData\Local\Temp\cc6LJGIv.s 			page 39


 705:../../../core/ST/Middlewares/Third_Party/FreeRTOS/Source/CMSIS_RTOS/cmsis_os.c **** * @param mutex_id      mutex ID obtained by \ref osMutexCreate.
 706:../../../core/ST/Middlewares/Third_Party/FreeRTOS/Source/CMSIS_RTOS/cmsis_os.c **** * @retval  status code that indicates the execution status of the function.
 707:../../../core/ST/Middlewares/Third_Party/FreeRTOS/Source/CMSIS_RTOS/cmsis_os.c **** * @note   MUST REMAIN UNCHANGED: \b osMutexRelease shall be consistent in every CMSIS-RTOS.
 708:../../../core/ST/Middlewares/Third_Party/FreeRTOS/Source/CMSIS_RTOS/cmsis_os.c **** */
 709:../../../core/ST/Middlewares/Third_Party/FreeRTOS/Source/CMSIS_RTOS/cmsis_os.c **** osStatus osMutexRelease (osMutexId mutex_id)
 710:../../../core/ST/Middlewares/Third_Party/FreeRTOS/Source/CMSIS_RTOS/cmsis_os.c **** {
 1335              		.loc 1 710 1 is_stmt 1 view -0
 1336              		.cfi_startproc
 1337              		@ args = 0, pretend = 0, frame = 8
 1338              		@ frame_needed = 0, uses_anonymous_args = 0
 1339              		.loc 1 710 1 is_stmt 0 view .LVU277
 1340 0000 10B5     		push	{r4, lr}
 1341              	.LCFI40:
 1342              		.cfi_def_cfa_offset 8
 1343              		.cfi_offset 4, -8
 1344              		.cfi_offset 14, -4
 1345 0002 82B0     		sub	sp, sp, #8
 1346              	.LCFI41:
 1347              		.cfi_def_cfa_offset 16
 1348 0004 0446     		mov	r4, r0
 711:../../../core/ST/Middlewares/Third_Party/FreeRTOS/Source/CMSIS_RTOS/cmsis_os.c ****   osStatus result = osOK;
 1349              		.loc 1 711 3 is_stmt 1 view .LVU278
 1350              	.LVL93:
 712:../../../core/ST/Middlewares/Third_Party/FreeRTOS/Source/CMSIS_RTOS/cmsis_os.c ****   portBASE_TYPE taskWoken = pdFALSE;
 1351              		.loc 1 712 3 view .LVU279
 1352              		.loc 1 712 17 is_stmt 0 view .LVU280
 1353 0006 0023     		movs	r3, #0
 1354 0008 0193     		str	r3, [sp, #4]
 713:../../../core/ST/Middlewares/Third_Party/FreeRTOS/Source/CMSIS_RTOS/cmsis_os.c ****   
 714:../../../core/ST/Middlewares/Third_Party/FreeRTOS/Source/CMSIS_RTOS/cmsis_os.c ****   if (inHandlerMode()) {
 1355              		.loc 1 714 3 is_stmt 1 view .LVU281
 1356              		.loc 1 714 7 is_stmt 0 view .LVU282
 1357 000a FFF7FEFF 		bl	inHandlerMode
 1358              	.LVL94:
 1359              		.loc 1 714 6 view .LVU283
 1360 000e 88B1     		cbz	r0, .L106
 715:../../../core/ST/Middlewares/Third_Party/FreeRTOS/Source/CMSIS_RTOS/cmsis_os.c ****     if (xSemaphoreGiveFromISR(mutex_id, &taskWoken) != pdTRUE) {
 1361              		.loc 1 715 5 is_stmt 1 view .LVU284
 1362              		.loc 1 715 9 is_stmt 0 view .LVU285
 1363 0010 01A9     		add	r1, sp, #4
 1364 0012 2046     		mov	r0, r4
 1365 0014 FFF7FEFF 		bl	xQueueGiveFromISR
 1366              	.LVL95:
 1367              		.loc 1 715 8 view .LVU286
 1368 0018 0128     		cmp	r0, #1
 1369 001a 18D1     		bne	.L108
 716:../../../core/ST/Middlewares/Third_Party/FreeRTOS/Source/CMSIS_RTOS/cmsis_os.c ****       return osErrorOS;
 717:../../../core/ST/Middlewares/Third_Party/FreeRTOS/Source/CMSIS_RTOS/cmsis_os.c ****     }
 718:../../../core/ST/Middlewares/Third_Party/FreeRTOS/Source/CMSIS_RTOS/cmsis_os.c ****     portEND_SWITCHING_ISR(taskWoken);
 1370              		.loc 1 718 5 is_stmt 1 view .LVU287
 1371 001c 019B     		ldr	r3, [sp, #4]
 1372 001e C3B1     		cbz	r3, .L109
 1373              		.loc 1 718 5 discriminator 1 view .LVU288
 1374 0020 0D4B     		ldr	r3, .L113
 1375 0022 4FF08052 		mov	r2, #268435456
 1376 0026 1A60     		str	r2, [r3]
 1377              		.loc 1 718 5 discriminator 1 view .LVU289
ARM GAS  C:\Users\tijsv\AppData\Local\Temp\cc6LJGIv.s 			page 40


 1378              		.syntax unified
 1379              	@ 718 "../../../core/ST/Middlewares/Third_Party/FreeRTOS/Source/CMSIS_RTOS/cmsis_os.c" 1
 1380 0028 BFF34F8F 		dsb
 1381              	@ 0 "" 2
 1382              		.loc 1 718 5 discriminator 1 view .LVU290
 1383              	@ 718 "../../../core/ST/Middlewares/Third_Party/FreeRTOS/Source/CMSIS_RTOS/cmsis_os.c" 1
 1384 002c BFF36F8F 		isb
 1385              	@ 0 "" 2
 711:../../../core/ST/Middlewares/Third_Party/FreeRTOS/Source/CMSIS_RTOS/cmsis_os.c ****   portBASE_TYPE taskWoken = pdFALSE;
 1386              		.loc 1 711 12 is_stmt 0 discriminator 1 view .LVU291
 1387              		.thumb
 1388              		.syntax unified
 1389 0030 0020     		movs	r0, #0
 1390 0032 08E0     		b	.L105
 1391              	.L106:
 719:../../../core/ST/Middlewares/Third_Party/FreeRTOS/Source/CMSIS_RTOS/cmsis_os.c ****   }
 720:../../../core/ST/Middlewares/Third_Party/FreeRTOS/Source/CMSIS_RTOS/cmsis_os.c ****   else if (xSemaphoreGive(mutex_id) != pdTRUE) 
 1392              		.loc 1 720 8 is_stmt 1 view .LVU292
 1393              		.loc 1 720 12 is_stmt 0 view .LVU293
 1394 0034 0023     		movs	r3, #0
 1395 0036 1A46     		mov	r2, r3
 1396 0038 1946     		mov	r1, r3
 1397 003a 2046     		mov	r0, r4
 1398 003c FFF7FEFF 		bl	xQueueGenericSend
 1399              	.LVL96:
 1400              		.loc 1 720 11 view .LVU294
 1401 0040 0128     		cmp	r0, #1
 1402 0042 02D0     		beq	.L112
 721:../../../core/ST/Middlewares/Third_Party/FreeRTOS/Source/CMSIS_RTOS/cmsis_os.c ****   {
 722:../../../core/ST/Middlewares/Third_Party/FreeRTOS/Source/CMSIS_RTOS/cmsis_os.c ****     result = osErrorOS;
 1403              		.loc 1 722 12 view .LVU295
 1404 0044 FF20     		movs	r0, #255
 1405              	.LVL97:
 1406              	.L105:
 723:../../../core/ST/Middlewares/Third_Party/FreeRTOS/Source/CMSIS_RTOS/cmsis_os.c ****   }
 724:../../../core/ST/Middlewares/Third_Party/FreeRTOS/Source/CMSIS_RTOS/cmsis_os.c ****   return result;
 725:../../../core/ST/Middlewares/Third_Party/FreeRTOS/Source/CMSIS_RTOS/cmsis_os.c **** }
 1407              		.loc 1 725 1 view .LVU296
 1408 0046 02B0     		add	sp, sp, #8
 1409              	.LCFI42:
 1410              		.cfi_remember_state
 1411              		.cfi_def_cfa_offset 8
 1412              		@ sp needed
 1413 0048 10BD     		pop	{r4, pc}
 1414              	.LVL98:
 1415              	.L112:
 1416              	.LCFI43:
 1417              		.cfi_restore_state
 711:../../../core/ST/Middlewares/Third_Party/FreeRTOS/Source/CMSIS_RTOS/cmsis_os.c ****   portBASE_TYPE taskWoken = pdFALSE;
 1418              		.loc 1 711 12 view .LVU297
 1419 004a 0020     		movs	r0, #0
 1420 004c FBE7     		b	.L105
 1421              	.L108:
 716:../../../core/ST/Middlewares/Third_Party/FreeRTOS/Source/CMSIS_RTOS/cmsis_os.c ****     }
 1422              		.loc 1 716 14 view .LVU298
 1423 004e FF20     		movs	r0, #255
 1424 0050 F9E7     		b	.L105
ARM GAS  C:\Users\tijsv\AppData\Local\Temp\cc6LJGIv.s 			page 41


 1425              	.L109:
 711:../../../core/ST/Middlewares/Third_Party/FreeRTOS/Source/CMSIS_RTOS/cmsis_os.c ****   portBASE_TYPE taskWoken = pdFALSE;
 1426              		.loc 1 711 12 view .LVU299
 1427 0052 0020     		movs	r0, #0
 1428 0054 F7E7     		b	.L105
 1429              	.L114:
 1430 0056 00BF     		.align	2
 1431              	.L113:
 1432 0058 04ED00E0 		.word	-536810236
 1433              		.cfi_endproc
 1434              	.LFE51:
 1436              		.section	.text.osMutexDelete,"ax",%progbits
 1437              		.align	1
 1438              		.global	osMutexDelete
 1439              		.syntax unified
 1440              		.thumb
 1441              		.thumb_func
 1442              		.fpu fpv4-sp-d16
 1444              	osMutexDelete:
 1445              	.LVL99:
 1446              	.LFB52:
 726:../../../core/ST/Middlewares/Third_Party/FreeRTOS/Source/CMSIS_RTOS/cmsis_os.c **** 
 727:../../../core/ST/Middlewares/Third_Party/FreeRTOS/Source/CMSIS_RTOS/cmsis_os.c **** /**
 728:../../../core/ST/Middlewares/Third_Party/FreeRTOS/Source/CMSIS_RTOS/cmsis_os.c **** * @brief Delete a Mutex
 729:../../../core/ST/Middlewares/Third_Party/FreeRTOS/Source/CMSIS_RTOS/cmsis_os.c **** * @param mutex_id  mutex ID obtained by \ref osMutexCreate.
 730:../../../core/ST/Middlewares/Third_Party/FreeRTOS/Source/CMSIS_RTOS/cmsis_os.c **** * @retval  status code that indicates the execution status of the function.
 731:../../../core/ST/Middlewares/Third_Party/FreeRTOS/Source/CMSIS_RTOS/cmsis_os.c **** * @note   MUST REMAIN UNCHANGED: \b osMutexDelete shall be consistent in every CMSIS-RTOS.
 732:../../../core/ST/Middlewares/Third_Party/FreeRTOS/Source/CMSIS_RTOS/cmsis_os.c **** */
 733:../../../core/ST/Middlewares/Third_Party/FreeRTOS/Source/CMSIS_RTOS/cmsis_os.c **** osStatus osMutexDelete (osMutexId mutex_id)
 734:../../../core/ST/Middlewares/Third_Party/FreeRTOS/Source/CMSIS_RTOS/cmsis_os.c **** {
 1447              		.loc 1 734 1 is_stmt 1 view -0
 1448              		.cfi_startproc
 1449              		@ args = 0, pretend = 0, frame = 0
 1450              		@ frame_needed = 0, uses_anonymous_args = 0
 1451              		.loc 1 734 1 is_stmt 0 view .LVU301
 1452 0000 10B5     		push	{r4, lr}
 1453              	.LCFI44:
 1454              		.cfi_def_cfa_offset 8
 1455              		.cfi_offset 4, -8
 1456              		.cfi_offset 14, -4
 1457 0002 0446     		mov	r4, r0
 735:../../../core/ST/Middlewares/Third_Party/FreeRTOS/Source/CMSIS_RTOS/cmsis_os.c ****   if (inHandlerMode()) {
 1458              		.loc 1 735 3 is_stmt 1 view .LVU302
 1459              		.loc 1 735 7 is_stmt 0 view .LVU303
 1460 0004 FFF7FEFF 		bl	inHandlerMode
 1461              	.LVL100:
 1462              		.loc 1 735 6 view .LVU304
 1463 0008 20B9     		cbnz	r0, .L117
 736:../../../core/ST/Middlewares/Third_Party/FreeRTOS/Source/CMSIS_RTOS/cmsis_os.c ****     return osErrorISR;
 737:../../../core/ST/Middlewares/Third_Party/FreeRTOS/Source/CMSIS_RTOS/cmsis_os.c ****   }
 738:../../../core/ST/Middlewares/Third_Party/FreeRTOS/Source/CMSIS_RTOS/cmsis_os.c **** 
 739:../../../core/ST/Middlewares/Third_Party/FreeRTOS/Source/CMSIS_RTOS/cmsis_os.c ****   vQueueDelete(mutex_id);
 1464              		.loc 1 739 3 is_stmt 1 view .LVU305
 1465 000a 2046     		mov	r0, r4
 1466 000c FFF7FEFF 		bl	vQueueDelete
 1467              	.LVL101:
 740:../../../core/ST/Middlewares/Third_Party/FreeRTOS/Source/CMSIS_RTOS/cmsis_os.c **** 
ARM GAS  C:\Users\tijsv\AppData\Local\Temp\cc6LJGIv.s 			page 42


 741:../../../core/ST/Middlewares/Third_Party/FreeRTOS/Source/CMSIS_RTOS/cmsis_os.c ****   return osOK;
 1468              		.loc 1 741 3 view .LVU306
 1469              		.loc 1 741 10 is_stmt 0 view .LVU307
 1470 0010 0020     		movs	r0, #0
 1471              	.L115:
 742:../../../core/ST/Middlewares/Third_Party/FreeRTOS/Source/CMSIS_RTOS/cmsis_os.c **** }
 1472              		.loc 1 742 1 view .LVU308
 1473 0012 10BD     		pop	{r4, pc}
 1474              	.LVL102:
 1475              	.L117:
 736:../../../core/ST/Middlewares/Third_Party/FreeRTOS/Source/CMSIS_RTOS/cmsis_os.c ****     return osErrorISR;
 1476              		.loc 1 736 12 view .LVU309
 1477 0014 8220     		movs	r0, #130
 1478 0016 FCE7     		b	.L115
 1479              		.cfi_endproc
 1480              	.LFE52:
 1482              		.section	.text.osSemaphoreCreate,"ax",%progbits
 1483              		.align	1
 1484              		.global	osSemaphoreCreate
 1485              		.syntax unified
 1486              		.thumb
 1487              		.thumb_func
 1488              		.fpu fpv4-sp-d16
 1490              	osSemaphoreCreate:
 1491              	.LVL103:
 1492              	.LFB53:
 743:../../../core/ST/Middlewares/Third_Party/FreeRTOS/Source/CMSIS_RTOS/cmsis_os.c **** 
 744:../../../core/ST/Middlewares/Third_Party/FreeRTOS/Source/CMSIS_RTOS/cmsis_os.c **** /********************  Semaphore Management Functions **************************/
 745:../../../core/ST/Middlewares/Third_Party/FreeRTOS/Source/CMSIS_RTOS/cmsis_os.c **** 
 746:../../../core/ST/Middlewares/Third_Party/FreeRTOS/Source/CMSIS_RTOS/cmsis_os.c **** #if (defined (osFeature_Semaphore)  &&  (osFeature_Semaphore != 0))
 747:../../../core/ST/Middlewares/Third_Party/FreeRTOS/Source/CMSIS_RTOS/cmsis_os.c **** 
 748:../../../core/ST/Middlewares/Third_Party/FreeRTOS/Source/CMSIS_RTOS/cmsis_os.c **** /**
 749:../../../core/ST/Middlewares/Third_Party/FreeRTOS/Source/CMSIS_RTOS/cmsis_os.c **** * @brief Create and Initialize a Semaphore object used for managing resources
 750:../../../core/ST/Middlewares/Third_Party/FreeRTOS/Source/CMSIS_RTOS/cmsis_os.c **** * @param semaphore_def semaphore definition referenced with \ref osSemaphore.
 751:../../../core/ST/Middlewares/Third_Party/FreeRTOS/Source/CMSIS_RTOS/cmsis_os.c **** * @param count         number of available resources.
 752:../../../core/ST/Middlewares/Third_Party/FreeRTOS/Source/CMSIS_RTOS/cmsis_os.c **** * @retval  semaphore ID for reference by other functions or NULL in case of error.
 753:../../../core/ST/Middlewares/Third_Party/FreeRTOS/Source/CMSIS_RTOS/cmsis_os.c **** * @note   MUST REMAIN UNCHANGED: \b osSemaphoreCreate shall be consistent in every CMSIS-RTOS.
 754:../../../core/ST/Middlewares/Third_Party/FreeRTOS/Source/CMSIS_RTOS/cmsis_os.c **** */
 755:../../../core/ST/Middlewares/Third_Party/FreeRTOS/Source/CMSIS_RTOS/cmsis_os.c **** osSemaphoreId osSemaphoreCreate (const osSemaphoreDef_t *semaphore_def, int32_t count)
 756:../../../core/ST/Middlewares/Third_Party/FreeRTOS/Source/CMSIS_RTOS/cmsis_os.c **** { 
 1493              		.loc 1 756 1 is_stmt 1 view -0
 1494              		.cfi_startproc
 1495              		@ args = 0, pretend = 0, frame = 0
 1496              		@ frame_needed = 0, uses_anonymous_args = 0
 1497              		.loc 1 756 1 is_stmt 0 view .LVU311
 1498 0000 10B5     		push	{r4, lr}
 1499              	.LCFI45:
 1500              		.cfi_def_cfa_offset 8
 1501              		.cfi_offset 4, -8
 1502              		.cfi_offset 14, -4
 757:../../../core/ST/Middlewares/Third_Party/FreeRTOS/Source/CMSIS_RTOS/cmsis_os.c **** #if( configSUPPORT_STATIC_ALLOCATION == 1 ) && ( configSUPPORT_DYNAMIC_ALLOCATION == 1 )
 758:../../../core/ST/Middlewares/Third_Party/FreeRTOS/Source/CMSIS_RTOS/cmsis_os.c **** 
 759:../../../core/ST/Middlewares/Third_Party/FreeRTOS/Source/CMSIS_RTOS/cmsis_os.c ****   osSemaphoreId sema;
 760:../../../core/ST/Middlewares/Third_Party/FreeRTOS/Source/CMSIS_RTOS/cmsis_os.c ****   
 761:../../../core/ST/Middlewares/Third_Party/FreeRTOS/Source/CMSIS_RTOS/cmsis_os.c ****   if (semaphore_def->controlblock != NULL){
 762:../../../core/ST/Middlewares/Third_Party/FreeRTOS/Source/CMSIS_RTOS/cmsis_os.c ****     if (count == 1) {
 763:../../../core/ST/Middlewares/Third_Party/FreeRTOS/Source/CMSIS_RTOS/cmsis_os.c ****       return xSemaphoreCreateBinaryStatic( semaphore_def->controlblock );
ARM GAS  C:\Users\tijsv\AppData\Local\Temp\cc6LJGIv.s 			page 43


 764:../../../core/ST/Middlewares/Third_Party/FreeRTOS/Source/CMSIS_RTOS/cmsis_os.c ****     }
 765:../../../core/ST/Middlewares/Third_Party/FreeRTOS/Source/CMSIS_RTOS/cmsis_os.c ****     else {
 766:../../../core/ST/Middlewares/Third_Party/FreeRTOS/Source/CMSIS_RTOS/cmsis_os.c **** #if (configUSE_COUNTING_SEMAPHORES == 1 )
 767:../../../core/ST/Middlewares/Third_Party/FreeRTOS/Source/CMSIS_RTOS/cmsis_os.c ****       return xSemaphoreCreateCountingStatic( count, count, semaphore_def->controlblock );
 768:../../../core/ST/Middlewares/Third_Party/FreeRTOS/Source/CMSIS_RTOS/cmsis_os.c **** #else
 769:../../../core/ST/Middlewares/Third_Party/FreeRTOS/Source/CMSIS_RTOS/cmsis_os.c ****       return NULL;
 770:../../../core/ST/Middlewares/Third_Party/FreeRTOS/Source/CMSIS_RTOS/cmsis_os.c **** #endif
 771:../../../core/ST/Middlewares/Third_Party/FreeRTOS/Source/CMSIS_RTOS/cmsis_os.c ****     }
 772:../../../core/ST/Middlewares/Third_Party/FreeRTOS/Source/CMSIS_RTOS/cmsis_os.c ****   }
 773:../../../core/ST/Middlewares/Third_Party/FreeRTOS/Source/CMSIS_RTOS/cmsis_os.c ****   else {
 774:../../../core/ST/Middlewares/Third_Party/FreeRTOS/Source/CMSIS_RTOS/cmsis_os.c ****     if (count == 1) {
 775:../../../core/ST/Middlewares/Third_Party/FreeRTOS/Source/CMSIS_RTOS/cmsis_os.c ****       vSemaphoreCreateBinary(sema);
 776:../../../core/ST/Middlewares/Third_Party/FreeRTOS/Source/CMSIS_RTOS/cmsis_os.c ****       return sema;
 777:../../../core/ST/Middlewares/Third_Party/FreeRTOS/Source/CMSIS_RTOS/cmsis_os.c ****     }
 778:../../../core/ST/Middlewares/Third_Party/FreeRTOS/Source/CMSIS_RTOS/cmsis_os.c ****     else {
 779:../../../core/ST/Middlewares/Third_Party/FreeRTOS/Source/CMSIS_RTOS/cmsis_os.c **** #if (configUSE_COUNTING_SEMAPHORES == 1 )	
 780:../../../core/ST/Middlewares/Third_Party/FreeRTOS/Source/CMSIS_RTOS/cmsis_os.c ****       return xSemaphoreCreateCounting(count, count);
 781:../../../core/ST/Middlewares/Third_Party/FreeRTOS/Source/CMSIS_RTOS/cmsis_os.c **** #else
 782:../../../core/ST/Middlewares/Third_Party/FreeRTOS/Source/CMSIS_RTOS/cmsis_os.c ****       return NULL;
 783:../../../core/ST/Middlewares/Third_Party/FreeRTOS/Source/CMSIS_RTOS/cmsis_os.c **** #endif    
 784:../../../core/ST/Middlewares/Third_Party/FreeRTOS/Source/CMSIS_RTOS/cmsis_os.c ****     }
 785:../../../core/ST/Middlewares/Third_Party/FreeRTOS/Source/CMSIS_RTOS/cmsis_os.c ****   }
 786:../../../core/ST/Middlewares/Third_Party/FreeRTOS/Source/CMSIS_RTOS/cmsis_os.c **** #elif ( configSUPPORT_STATIC_ALLOCATION == 1 ) // configSUPPORT_DYNAMIC_ALLOCATION == 0
 787:../../../core/ST/Middlewares/Third_Party/FreeRTOS/Source/CMSIS_RTOS/cmsis_os.c ****   if(count == 1) {
 788:../../../core/ST/Middlewares/Third_Party/FreeRTOS/Source/CMSIS_RTOS/cmsis_os.c ****     return xSemaphoreCreateBinaryStatic( semaphore_def->controlblock );
 789:../../../core/ST/Middlewares/Third_Party/FreeRTOS/Source/CMSIS_RTOS/cmsis_os.c ****   }
 790:../../../core/ST/Middlewares/Third_Party/FreeRTOS/Source/CMSIS_RTOS/cmsis_os.c ****   else
 791:../../../core/ST/Middlewares/Third_Party/FreeRTOS/Source/CMSIS_RTOS/cmsis_os.c ****   {
 792:../../../core/ST/Middlewares/Third_Party/FreeRTOS/Source/CMSIS_RTOS/cmsis_os.c **** #if (configUSE_COUNTING_SEMAPHORES == 1 )
 793:../../../core/ST/Middlewares/Third_Party/FreeRTOS/Source/CMSIS_RTOS/cmsis_os.c ****       return xSemaphoreCreateCountingStatic( count, count, semaphore_def->controlblock );
 794:../../../core/ST/Middlewares/Third_Party/FreeRTOS/Source/CMSIS_RTOS/cmsis_os.c **** #else
 795:../../../core/ST/Middlewares/Third_Party/FreeRTOS/Source/CMSIS_RTOS/cmsis_os.c ****       return NULL;
 796:../../../core/ST/Middlewares/Third_Party/FreeRTOS/Source/CMSIS_RTOS/cmsis_os.c **** #endif    
 797:../../../core/ST/Middlewares/Third_Party/FreeRTOS/Source/CMSIS_RTOS/cmsis_os.c ****   }
 798:../../../core/ST/Middlewares/Third_Party/FreeRTOS/Source/CMSIS_RTOS/cmsis_os.c **** #else  // configSUPPORT_STATIC_ALLOCATION == 0  && configSUPPORT_DYNAMIC_ALLOCATION == 1
 799:../../../core/ST/Middlewares/Third_Party/FreeRTOS/Source/CMSIS_RTOS/cmsis_os.c ****   osSemaphoreId sema;
 1503              		.loc 1 799 3 is_stmt 1 view .LVU312
 800:../../../core/ST/Middlewares/Third_Party/FreeRTOS/Source/CMSIS_RTOS/cmsis_os.c ****  
 801:../../../core/ST/Middlewares/Third_Party/FreeRTOS/Source/CMSIS_RTOS/cmsis_os.c ****   if (count == 1) {
 1504              		.loc 1 801 3 view .LVU313
 1505              		.loc 1 801 6 is_stmt 0 view .LVU314
 1506 0002 0129     		cmp	r1, #1
 1507 0004 02D0     		beq	.L124
 802:../../../core/ST/Middlewares/Third_Party/FreeRTOS/Source/CMSIS_RTOS/cmsis_os.c ****     vSemaphoreCreateBinary(sema);
 803:../../../core/ST/Middlewares/Third_Party/FreeRTOS/Source/CMSIS_RTOS/cmsis_os.c ****     return sema;
 804:../../../core/ST/Middlewares/Third_Party/FreeRTOS/Source/CMSIS_RTOS/cmsis_os.c ****   }
 805:../../../core/ST/Middlewares/Third_Party/FreeRTOS/Source/CMSIS_RTOS/cmsis_os.c ****   else {
 806:../../../core/ST/Middlewares/Third_Party/FreeRTOS/Source/CMSIS_RTOS/cmsis_os.c **** #if (configUSE_COUNTING_SEMAPHORES == 1 )	
 807:../../../core/ST/Middlewares/Third_Party/FreeRTOS/Source/CMSIS_RTOS/cmsis_os.c ****     return xSemaphoreCreateCounting(count, count);
 808:../../../core/ST/Middlewares/Third_Party/FreeRTOS/Source/CMSIS_RTOS/cmsis_os.c **** #else
 809:../../../core/ST/Middlewares/Third_Party/FreeRTOS/Source/CMSIS_RTOS/cmsis_os.c ****     return NULL;
 1508              		.loc 1 809 12 view .LVU315
 1509 0006 0024     		movs	r4, #0
 1510              	.LVL104:
 1511              	.L119:
 810:../../../core/ST/Middlewares/Third_Party/FreeRTOS/Source/CMSIS_RTOS/cmsis_os.c **** #endif
 811:../../../core/ST/Middlewares/Third_Party/FreeRTOS/Source/CMSIS_RTOS/cmsis_os.c ****   }
ARM GAS  C:\Users\tijsv\AppData\Local\Temp\cc6LJGIv.s 			page 44


 812:../../../core/ST/Middlewares/Third_Party/FreeRTOS/Source/CMSIS_RTOS/cmsis_os.c **** #endif
 813:../../../core/ST/Middlewares/Third_Party/FreeRTOS/Source/CMSIS_RTOS/cmsis_os.c **** }
 1512              		.loc 1 813 1 view .LVU316
 1513 0008 2046     		mov	r0, r4
 1514 000a 10BD     		pop	{r4, pc}
 1515              	.LVL105:
 1516              	.L124:
 802:../../../core/ST/Middlewares/Third_Party/FreeRTOS/Source/CMSIS_RTOS/cmsis_os.c ****     vSemaphoreCreateBinary(sema);
 1517              		.loc 1 802 5 is_stmt 1 view .LVU317
 1518 000c 0322     		movs	r2, #3
 1519 000e 0021     		movs	r1, #0
 1520              	.LVL106:
 802:../../../core/ST/Middlewares/Third_Party/FreeRTOS/Source/CMSIS_RTOS/cmsis_os.c ****     vSemaphoreCreateBinary(sema);
 1521              		.loc 1 802 5 is_stmt 0 view .LVU318
 1522 0010 0120     		movs	r0, #1
 1523              	.LVL107:
 802:../../../core/ST/Middlewares/Third_Party/FreeRTOS/Source/CMSIS_RTOS/cmsis_os.c ****     vSemaphoreCreateBinary(sema);
 1524              		.loc 1 802 5 view .LVU319
 1525 0012 FFF7FEFF 		bl	xQueueGenericCreate
 1526              	.LVL108:
 802:../../../core/ST/Middlewares/Third_Party/FreeRTOS/Source/CMSIS_RTOS/cmsis_os.c ****     vSemaphoreCreateBinary(sema);
 1527              		.loc 1 802 5 is_stmt 1 view .LVU320
 1528 0016 0446     		mov	r4, r0
 1529 0018 0028     		cmp	r0, #0
 1530 001a F5D0     		beq	.L119
 802:../../../core/ST/Middlewares/Third_Party/FreeRTOS/Source/CMSIS_RTOS/cmsis_os.c ****     vSemaphoreCreateBinary(sema);
 1531              		.loc 1 802 5 discriminator 1 view .LVU321
 1532 001c 0023     		movs	r3, #0
 1533 001e 1A46     		mov	r2, r3
 1534 0020 1946     		mov	r1, r3
 1535 0022 FFF7FEFF 		bl	xQueueGenericSend
 1536              	.LVL109:
 802:../../../core/ST/Middlewares/Third_Party/FreeRTOS/Source/CMSIS_RTOS/cmsis_os.c ****     vSemaphoreCreateBinary(sema);
 1537              		.loc 1 802 33 discriminator 1 view .LVU322
 803:../../../core/ST/Middlewares/Third_Party/FreeRTOS/Source/CMSIS_RTOS/cmsis_os.c ****   }
 1538              		.loc 1 803 5 discriminator 1 view .LVU323
 803:../../../core/ST/Middlewares/Third_Party/FreeRTOS/Source/CMSIS_RTOS/cmsis_os.c ****   }
 1539              		.loc 1 803 12 is_stmt 0 discriminator 1 view .LVU324
 1540 0026 EFE7     		b	.L119
 1541              		.cfi_endproc
 1542              	.LFE53:
 1544              		.section	.text.osSemaphoreWait,"ax",%progbits
 1545              		.align	1
 1546              		.global	osSemaphoreWait
 1547              		.syntax unified
 1548              		.thumb
 1549              		.thumb_func
 1550              		.fpu fpv4-sp-d16
 1552              	osSemaphoreWait:
 1553              	.LVL110:
 1554              	.LFB54:
 814:../../../core/ST/Middlewares/Third_Party/FreeRTOS/Source/CMSIS_RTOS/cmsis_os.c **** 
 815:../../../core/ST/Middlewares/Third_Party/FreeRTOS/Source/CMSIS_RTOS/cmsis_os.c **** /**
 816:../../../core/ST/Middlewares/Third_Party/FreeRTOS/Source/CMSIS_RTOS/cmsis_os.c **** * @brief Wait until a Semaphore token becomes available
 817:../../../core/ST/Middlewares/Third_Party/FreeRTOS/Source/CMSIS_RTOS/cmsis_os.c **** * @param  semaphore_id  semaphore object referenced with \ref osSemaphore.
 818:../../../core/ST/Middlewares/Third_Party/FreeRTOS/Source/CMSIS_RTOS/cmsis_os.c **** * @param  millisec      timeout value or 0 in case of no time-out.
 819:../../../core/ST/Middlewares/Third_Party/FreeRTOS/Source/CMSIS_RTOS/cmsis_os.c **** * @retval  number of available tokens, or -1 in case of incorrect parameters.
ARM GAS  C:\Users\tijsv\AppData\Local\Temp\cc6LJGIv.s 			page 45


 820:../../../core/ST/Middlewares/Third_Party/FreeRTOS/Source/CMSIS_RTOS/cmsis_os.c **** * @note   MUST REMAIN UNCHANGED: \b osSemaphoreWait shall be consistent in every CMSIS-RTOS.
 821:../../../core/ST/Middlewares/Third_Party/FreeRTOS/Source/CMSIS_RTOS/cmsis_os.c **** */
 822:../../../core/ST/Middlewares/Third_Party/FreeRTOS/Source/CMSIS_RTOS/cmsis_os.c **** int32_t osSemaphoreWait (osSemaphoreId semaphore_id, uint32_t millisec)
 823:../../../core/ST/Middlewares/Third_Party/FreeRTOS/Source/CMSIS_RTOS/cmsis_os.c **** {
 1555              		.loc 1 823 1 is_stmt 1 view -0
 1556              		.cfi_startproc
 1557              		@ args = 0, pretend = 0, frame = 8
 1558              		@ frame_needed = 0, uses_anonymous_args = 0
 1559              		.loc 1 823 1 is_stmt 0 view .LVU326
 1560 0000 70B5     		push	{r4, r5, r6, lr}
 1561              	.LCFI46:
 1562              		.cfi_def_cfa_offset 16
 1563              		.cfi_offset 4, -16
 1564              		.cfi_offset 5, -12
 1565              		.cfi_offset 6, -8
 1566              		.cfi_offset 14, -4
 1567 0002 82B0     		sub	sp, sp, #8
 1568              	.LCFI47:
 1569              		.cfi_def_cfa_offset 24
 824:../../../core/ST/Middlewares/Third_Party/FreeRTOS/Source/CMSIS_RTOS/cmsis_os.c ****   TickType_t ticks;
 1570              		.loc 1 824 3 is_stmt 1 view .LVU327
 825:../../../core/ST/Middlewares/Third_Party/FreeRTOS/Source/CMSIS_RTOS/cmsis_os.c ****   portBASE_TYPE taskWoken = pdFALSE;  
 1571              		.loc 1 825 3 view .LVU328
 1572              		.loc 1 825 17 is_stmt 0 view .LVU329
 1573 0004 0023     		movs	r3, #0
 1574 0006 0193     		str	r3, [sp, #4]
 826:../../../core/ST/Middlewares/Third_Party/FreeRTOS/Source/CMSIS_RTOS/cmsis_os.c ****   
 827:../../../core/ST/Middlewares/Third_Party/FreeRTOS/Source/CMSIS_RTOS/cmsis_os.c ****   
 828:../../../core/ST/Middlewares/Third_Party/FreeRTOS/Source/CMSIS_RTOS/cmsis_os.c ****   if (semaphore_id == NULL) {
 1575              		.loc 1 828 3 is_stmt 1 view .LVU330
 1576              		.loc 1 828 6 is_stmt 0 view .LVU331
 1577 0008 08B3     		cbz	r0, .L128
 1578 000a 0C46     		mov	r4, r1
 1579 000c 0646     		mov	r6, r0
 829:../../../core/ST/Middlewares/Third_Party/FreeRTOS/Source/CMSIS_RTOS/cmsis_os.c ****     return osErrorParameter;
 830:../../../core/ST/Middlewares/Third_Party/FreeRTOS/Source/CMSIS_RTOS/cmsis_os.c ****   }
 831:../../../core/ST/Middlewares/Third_Party/FreeRTOS/Source/CMSIS_RTOS/cmsis_os.c ****   
 832:../../../core/ST/Middlewares/Third_Party/FreeRTOS/Source/CMSIS_RTOS/cmsis_os.c ****   ticks = 0;
 1580              		.loc 1 832 3 is_stmt 1 view .LVU332
 1581              	.LVL111:
 833:../../../core/ST/Middlewares/Third_Party/FreeRTOS/Source/CMSIS_RTOS/cmsis_os.c ****   if (millisec == osWaitForever) {
 1582              		.loc 1 833 3 view .LVU333
 834:../../../core/ST/Middlewares/Third_Party/FreeRTOS/Source/CMSIS_RTOS/cmsis_os.c ****     ticks = portMAX_DELAY;
 835:../../../core/ST/Middlewares/Third_Party/FreeRTOS/Source/CMSIS_RTOS/cmsis_os.c ****   }
 836:../../../core/ST/Middlewares/Third_Party/FreeRTOS/Source/CMSIS_RTOS/cmsis_os.c ****   else if (millisec != 0) {
 837:../../../core/ST/Middlewares/Third_Party/FreeRTOS/Source/CMSIS_RTOS/cmsis_os.c ****     ticks = millisec / portTICK_PERIOD_MS;
 838:../../../core/ST/Middlewares/Third_Party/FreeRTOS/Source/CMSIS_RTOS/cmsis_os.c ****     if (ticks == 0) {
 839:../../../core/ST/Middlewares/Third_Party/FreeRTOS/Source/CMSIS_RTOS/cmsis_os.c ****       ticks = 1;
 840:../../../core/ST/Middlewares/Third_Party/FreeRTOS/Source/CMSIS_RTOS/cmsis_os.c ****     }
 841:../../../core/ST/Middlewares/Third_Party/FreeRTOS/Source/CMSIS_RTOS/cmsis_os.c ****   }
 842:../../../core/ST/Middlewares/Third_Party/FreeRTOS/Source/CMSIS_RTOS/cmsis_os.c ****   
 843:../../../core/ST/Middlewares/Third_Party/FreeRTOS/Source/CMSIS_RTOS/cmsis_os.c ****   if (inHandlerMode()) {
 1583              		.loc 1 843 3 view .LVU334
 1584              		.loc 1 843 7 is_stmt 0 view .LVU335
 1585 000e FFF7FEFF 		bl	inHandlerMode
 1586              	.LVL112:
 1587              		.loc 1 843 6 view .LVU336
ARM GAS  C:\Users\tijsv\AppData\Local\Temp\cc6LJGIv.s 			page 46


 1588 0012 0546     		mov	r5, r0
 1589 0014 90B1     		cbz	r0, .L127
 844:../../../core/ST/Middlewares/Third_Party/FreeRTOS/Source/CMSIS_RTOS/cmsis_os.c ****     if (xSemaphoreTakeFromISR(semaphore_id, &taskWoken) != pdTRUE) {
 1590              		.loc 1 844 5 is_stmt 1 view .LVU337
 1591              		.loc 1 844 9 is_stmt 0 view .LVU338
 1592 0016 01AA     		add	r2, sp, #4
 1593 0018 0021     		movs	r1, #0
 1594 001a 3046     		mov	r0, r6
 1595 001c FFF7FEFF 		bl	xQueueReceiveFromISR
 1596              	.LVL113:
 1597              		.loc 1 844 8 view .LVU339
 1598 0020 0128     		cmp	r0, #1
 1599 0022 16D1     		bne	.L129
 845:../../../core/ST/Middlewares/Third_Party/FreeRTOS/Source/CMSIS_RTOS/cmsis_os.c ****       return osErrorOS;
 846:../../../core/ST/Middlewares/Third_Party/FreeRTOS/Source/CMSIS_RTOS/cmsis_os.c ****     }
 847:../../../core/ST/Middlewares/Third_Party/FreeRTOS/Source/CMSIS_RTOS/cmsis_os.c **** 	portEND_SWITCHING_ISR(taskWoken);
 1600              		.loc 1 847 2 is_stmt 1 view .LVU340
 1601 0024 019D     		ldr	r5, [sp, #4]
 1602 0026 7DB1     		cbz	r5, .L125
 1603              		.loc 1 847 2 discriminator 1 view .LVU341
 1604 0028 0C4B     		ldr	r3, .L133
 1605 002a 4FF08052 		mov	r2, #268435456
 1606 002e 1A60     		str	r2, [r3]
 1607              		.loc 1 847 2 discriminator 1 view .LVU342
 1608              		.syntax unified
 1609              	@ 847 "../../../core/ST/Middlewares/Third_Party/FreeRTOS/Source/CMSIS_RTOS/cmsis_os.c" 1
 1610 0030 BFF34F8F 		dsb
 1611              	@ 0 "" 2
 1612              		.loc 1 847 2 discriminator 1 view .LVU343
 1613              	@ 847 "../../../core/ST/Middlewares/Third_Party/FreeRTOS/Source/CMSIS_RTOS/cmsis_os.c" 1
 1614 0034 BFF36F8F 		isb
 1615              	@ 0 "" 2
 848:../../../core/ST/Middlewares/Third_Party/FreeRTOS/Source/CMSIS_RTOS/cmsis_os.c ****   }  
 849:../../../core/ST/Middlewares/Third_Party/FreeRTOS/Source/CMSIS_RTOS/cmsis_os.c ****   else if (xSemaphoreTake(semaphore_id, ticks) != pdTRUE) {
 850:../../../core/ST/Middlewares/Third_Party/FreeRTOS/Source/CMSIS_RTOS/cmsis_os.c ****     return osErrorOS;
 851:../../../core/ST/Middlewares/Third_Party/FreeRTOS/Source/CMSIS_RTOS/cmsis_os.c ****   }
 852:../../../core/ST/Middlewares/Third_Party/FreeRTOS/Source/CMSIS_RTOS/cmsis_os.c ****   
 853:../../../core/ST/Middlewares/Third_Party/FreeRTOS/Source/CMSIS_RTOS/cmsis_os.c ****   return osOK;
 1616              		.loc 1 853 10 is_stmt 0 discriminator 1 view .LVU344
 1617              		.thumb
 1618              		.syntax unified
 1619 0038 0025     		movs	r5, #0
 1620 003a 05E0     		b	.L125
 1621              	.L127:
 849:../../../core/ST/Middlewares/Third_Party/FreeRTOS/Source/CMSIS_RTOS/cmsis_os.c ****     return osErrorOS;
 1622              		.loc 1 849 8 is_stmt 1 view .LVU345
 849:../../../core/ST/Middlewares/Third_Party/FreeRTOS/Source/CMSIS_RTOS/cmsis_os.c ****     return osErrorOS;
 1623              		.loc 1 849 12 is_stmt 0 view .LVU346
 1624 003c 2146     		mov	r1, r4
 1625 003e 3046     		mov	r0, r6
 1626 0040 FFF7FEFF 		bl	xQueueSemaphoreTake
 1627              	.LVL114:
 849:../../../core/ST/Middlewares/Third_Party/FreeRTOS/Source/CMSIS_RTOS/cmsis_os.c ****     return osErrorOS;
 1628              		.loc 1 849 11 view .LVU347
 1629 0044 0128     		cmp	r0, #1
 1630 0046 06D1     		bne	.L132
 1631              	.LVL115:
ARM GAS  C:\Users\tijsv\AppData\Local\Temp\cc6LJGIv.s 			page 47


 1632              	.L125:
 854:../../../core/ST/Middlewares/Third_Party/FreeRTOS/Source/CMSIS_RTOS/cmsis_os.c **** }
 1633              		.loc 1 854 1 view .LVU348
 1634 0048 2846     		mov	r0, r5
 1635 004a 02B0     		add	sp, sp, #8
 1636              	.LCFI48:
 1637              		.cfi_remember_state
 1638              		.cfi_def_cfa_offset 16
 1639              		@ sp needed
 1640 004c 70BD     		pop	{r4, r5, r6, pc}
 1641              	.LVL116:
 1642              	.L128:
 1643              	.LCFI49:
 1644              		.cfi_restore_state
 829:../../../core/ST/Middlewares/Third_Party/FreeRTOS/Source/CMSIS_RTOS/cmsis_os.c ****   }
 1645              		.loc 1 829 12 view .LVU349
 1646 004e 8025     		movs	r5, #128
 1647 0050 FAE7     		b	.L125
 1648              	.LVL117:
 1649              	.L129:
 845:../../../core/ST/Middlewares/Third_Party/FreeRTOS/Source/CMSIS_RTOS/cmsis_os.c ****     }
 1650              		.loc 1 845 14 view .LVU350
 1651 0052 FF25     		movs	r5, #255
 1652 0054 F8E7     		b	.L125
 1653              	.L132:
 850:../../../core/ST/Middlewares/Third_Party/FreeRTOS/Source/CMSIS_RTOS/cmsis_os.c ****   }
 1654              		.loc 1 850 12 view .LVU351
 1655 0056 FF25     		movs	r5, #255
 1656 0058 F6E7     		b	.L125
 1657              	.L134:
 1658 005a 00BF     		.align	2
 1659              	.L133:
 1660 005c 04ED00E0 		.word	-536810236
 1661              		.cfi_endproc
 1662              	.LFE54:
 1664              		.section	.text.osSemaphoreRelease,"ax",%progbits
 1665              		.align	1
 1666              		.global	osSemaphoreRelease
 1667              		.syntax unified
 1668              		.thumb
 1669              		.thumb_func
 1670              		.fpu fpv4-sp-d16
 1672              	osSemaphoreRelease:
 1673              	.LVL118:
 1674              	.LFB55:
 855:../../../core/ST/Middlewares/Third_Party/FreeRTOS/Source/CMSIS_RTOS/cmsis_os.c **** 
 856:../../../core/ST/Middlewares/Third_Party/FreeRTOS/Source/CMSIS_RTOS/cmsis_os.c **** /**
 857:../../../core/ST/Middlewares/Third_Party/FreeRTOS/Source/CMSIS_RTOS/cmsis_os.c **** * @brief Release a Semaphore token
 858:../../../core/ST/Middlewares/Third_Party/FreeRTOS/Source/CMSIS_RTOS/cmsis_os.c **** * @param  semaphore_id  semaphore object referenced with \ref osSemaphore.
 859:../../../core/ST/Middlewares/Third_Party/FreeRTOS/Source/CMSIS_RTOS/cmsis_os.c **** * @retval  status code that indicates the execution status of the function.
 860:../../../core/ST/Middlewares/Third_Party/FreeRTOS/Source/CMSIS_RTOS/cmsis_os.c **** * @note   MUST REMAIN UNCHANGED: \b osSemaphoreRelease shall be consistent in every CMSIS-RTOS.
 861:../../../core/ST/Middlewares/Third_Party/FreeRTOS/Source/CMSIS_RTOS/cmsis_os.c **** */
 862:../../../core/ST/Middlewares/Third_Party/FreeRTOS/Source/CMSIS_RTOS/cmsis_os.c **** osStatus osSemaphoreRelease (osSemaphoreId semaphore_id)
 863:../../../core/ST/Middlewares/Third_Party/FreeRTOS/Source/CMSIS_RTOS/cmsis_os.c **** {
 1675              		.loc 1 863 1 is_stmt 1 view -0
 1676              		.cfi_startproc
 1677              		@ args = 0, pretend = 0, frame = 8
ARM GAS  C:\Users\tijsv\AppData\Local\Temp\cc6LJGIv.s 			page 48


 1678              		@ frame_needed = 0, uses_anonymous_args = 0
 1679              		.loc 1 863 1 is_stmt 0 view .LVU353
 1680 0000 10B5     		push	{r4, lr}
 1681              	.LCFI50:
 1682              		.cfi_def_cfa_offset 8
 1683              		.cfi_offset 4, -8
 1684              		.cfi_offset 14, -4
 1685 0002 82B0     		sub	sp, sp, #8
 1686              	.LCFI51:
 1687              		.cfi_def_cfa_offset 16
 1688 0004 0446     		mov	r4, r0
 864:../../../core/ST/Middlewares/Third_Party/FreeRTOS/Source/CMSIS_RTOS/cmsis_os.c ****   osStatus result = osOK;
 1689              		.loc 1 864 3 is_stmt 1 view .LVU354
 1690              	.LVL119:
 865:../../../core/ST/Middlewares/Third_Party/FreeRTOS/Source/CMSIS_RTOS/cmsis_os.c ****   portBASE_TYPE taskWoken = pdFALSE;
 1691              		.loc 1 865 3 view .LVU355
 1692              		.loc 1 865 17 is_stmt 0 view .LVU356
 1693 0006 0023     		movs	r3, #0
 1694 0008 0193     		str	r3, [sp, #4]
 866:../../../core/ST/Middlewares/Third_Party/FreeRTOS/Source/CMSIS_RTOS/cmsis_os.c ****   
 867:../../../core/ST/Middlewares/Third_Party/FreeRTOS/Source/CMSIS_RTOS/cmsis_os.c ****   
 868:../../../core/ST/Middlewares/Third_Party/FreeRTOS/Source/CMSIS_RTOS/cmsis_os.c ****   if (inHandlerMode()) {
 1695              		.loc 1 868 3 is_stmt 1 view .LVU357
 1696              		.loc 1 868 7 is_stmt 0 view .LVU358
 1697 000a FFF7FEFF 		bl	inHandlerMode
 1698              	.LVL120:
 1699              		.loc 1 868 6 view .LVU359
 1700 000e 88B1     		cbz	r0, .L136
 869:../../../core/ST/Middlewares/Third_Party/FreeRTOS/Source/CMSIS_RTOS/cmsis_os.c ****     if (xSemaphoreGiveFromISR(semaphore_id, &taskWoken) != pdTRUE) {
 1701              		.loc 1 869 5 is_stmt 1 view .LVU360
 1702              		.loc 1 869 9 is_stmt 0 view .LVU361
 1703 0010 01A9     		add	r1, sp, #4
 1704 0012 2046     		mov	r0, r4
 1705 0014 FFF7FEFF 		bl	xQueueGiveFromISR
 1706              	.LVL121:
 1707              		.loc 1 869 8 view .LVU362
 1708 0018 0128     		cmp	r0, #1
 1709 001a 18D1     		bne	.L138
 870:../../../core/ST/Middlewares/Third_Party/FreeRTOS/Source/CMSIS_RTOS/cmsis_os.c ****       return osErrorOS;
 871:../../../core/ST/Middlewares/Third_Party/FreeRTOS/Source/CMSIS_RTOS/cmsis_os.c ****     }
 872:../../../core/ST/Middlewares/Third_Party/FreeRTOS/Source/CMSIS_RTOS/cmsis_os.c ****     portEND_SWITCHING_ISR(taskWoken);
 1710              		.loc 1 872 5 is_stmt 1 view .LVU363
 1711 001c 019B     		ldr	r3, [sp, #4]
 1712 001e C3B1     		cbz	r3, .L139
 1713              		.loc 1 872 5 discriminator 1 view .LVU364
 1714 0020 0D4B     		ldr	r3, .L143
 1715 0022 4FF08052 		mov	r2, #268435456
 1716 0026 1A60     		str	r2, [r3]
 1717              		.loc 1 872 5 discriminator 1 view .LVU365
 1718              		.syntax unified
 1719              	@ 872 "../../../core/ST/Middlewares/Third_Party/FreeRTOS/Source/CMSIS_RTOS/cmsis_os.c" 1
 1720 0028 BFF34F8F 		dsb
 1721              	@ 0 "" 2
 1722              		.loc 1 872 5 discriminator 1 view .LVU366
 1723              	@ 872 "../../../core/ST/Middlewares/Third_Party/FreeRTOS/Source/CMSIS_RTOS/cmsis_os.c" 1
 1724 002c BFF36F8F 		isb
 1725              	@ 0 "" 2
ARM GAS  C:\Users\tijsv\AppData\Local\Temp\cc6LJGIv.s 			page 49


 864:../../../core/ST/Middlewares/Third_Party/FreeRTOS/Source/CMSIS_RTOS/cmsis_os.c ****   portBASE_TYPE taskWoken = pdFALSE;
 1726              		.loc 1 864 12 is_stmt 0 discriminator 1 view .LVU367
 1727              		.thumb
 1728              		.syntax unified
 1729 0030 0020     		movs	r0, #0
 1730 0032 08E0     		b	.L135
 1731              	.L136:
 873:../../../core/ST/Middlewares/Third_Party/FreeRTOS/Source/CMSIS_RTOS/cmsis_os.c ****   }
 874:../../../core/ST/Middlewares/Third_Party/FreeRTOS/Source/CMSIS_RTOS/cmsis_os.c ****   else {
 875:../../../core/ST/Middlewares/Third_Party/FreeRTOS/Source/CMSIS_RTOS/cmsis_os.c ****     if (xSemaphoreGive(semaphore_id) != pdTRUE) {
 1732              		.loc 1 875 5 is_stmt 1 view .LVU368
 1733              		.loc 1 875 9 is_stmt 0 view .LVU369
 1734 0034 0023     		movs	r3, #0
 1735 0036 1A46     		mov	r2, r3
 1736 0038 1946     		mov	r1, r3
 1737 003a 2046     		mov	r0, r4
 1738 003c FFF7FEFF 		bl	xQueueGenericSend
 1739              	.LVL122:
 1740              		.loc 1 875 8 view .LVU370
 1741 0040 0128     		cmp	r0, #1
 1742 0042 02D0     		beq	.L142
 876:../../../core/ST/Middlewares/Third_Party/FreeRTOS/Source/CMSIS_RTOS/cmsis_os.c ****       result = osErrorOS;
 1743              		.loc 1 876 14 view .LVU371
 1744 0044 FF20     		movs	r0, #255
 1745              	.LVL123:
 1746              	.L135:
 877:../../../core/ST/Middlewares/Third_Party/FreeRTOS/Source/CMSIS_RTOS/cmsis_os.c ****     }
 878:../../../core/ST/Middlewares/Third_Party/FreeRTOS/Source/CMSIS_RTOS/cmsis_os.c ****   }
 879:../../../core/ST/Middlewares/Third_Party/FreeRTOS/Source/CMSIS_RTOS/cmsis_os.c ****   
 880:../../../core/ST/Middlewares/Third_Party/FreeRTOS/Source/CMSIS_RTOS/cmsis_os.c ****   return result;
 881:../../../core/ST/Middlewares/Third_Party/FreeRTOS/Source/CMSIS_RTOS/cmsis_os.c **** }
 1747              		.loc 1 881 1 view .LVU372
 1748 0046 02B0     		add	sp, sp, #8
 1749              	.LCFI52:
 1750              		.cfi_remember_state
 1751              		.cfi_def_cfa_offset 8
 1752              		@ sp needed
 1753 0048 10BD     		pop	{r4, pc}
 1754              	.LVL124:
 1755              	.L142:
 1756              	.LCFI53:
 1757              		.cfi_restore_state
 864:../../../core/ST/Middlewares/Third_Party/FreeRTOS/Source/CMSIS_RTOS/cmsis_os.c ****   portBASE_TYPE taskWoken = pdFALSE;
 1758              		.loc 1 864 12 view .LVU373
 1759 004a 0020     		movs	r0, #0
 1760 004c FBE7     		b	.L135
 1761              	.L138:
 870:../../../core/ST/Middlewares/Third_Party/FreeRTOS/Source/CMSIS_RTOS/cmsis_os.c ****     }
 1762              		.loc 1 870 14 view .LVU374
 1763 004e FF20     		movs	r0, #255
 1764 0050 F9E7     		b	.L135
 1765              	.L139:
 864:../../../core/ST/Middlewares/Third_Party/FreeRTOS/Source/CMSIS_RTOS/cmsis_os.c ****   portBASE_TYPE taskWoken = pdFALSE;
 1766              		.loc 1 864 12 view .LVU375
 1767 0052 0020     		movs	r0, #0
 1768 0054 F7E7     		b	.L135
 1769              	.L144:
ARM GAS  C:\Users\tijsv\AppData\Local\Temp\cc6LJGIv.s 			page 50


 1770 0056 00BF     		.align	2
 1771              	.L143:
 1772 0058 04ED00E0 		.word	-536810236
 1773              		.cfi_endproc
 1774              	.LFE55:
 1776              		.section	.text.osSemaphoreDelete,"ax",%progbits
 1777              		.align	1
 1778              		.global	osSemaphoreDelete
 1779              		.syntax unified
 1780              		.thumb
 1781              		.thumb_func
 1782              		.fpu fpv4-sp-d16
 1784              	osSemaphoreDelete:
 1785              	.LVL125:
 1786              	.LFB56:
 882:../../../core/ST/Middlewares/Third_Party/FreeRTOS/Source/CMSIS_RTOS/cmsis_os.c **** 
 883:../../../core/ST/Middlewares/Third_Party/FreeRTOS/Source/CMSIS_RTOS/cmsis_os.c **** /**
 884:../../../core/ST/Middlewares/Third_Party/FreeRTOS/Source/CMSIS_RTOS/cmsis_os.c **** * @brief Delete a Semaphore
 885:../../../core/ST/Middlewares/Third_Party/FreeRTOS/Source/CMSIS_RTOS/cmsis_os.c **** * @param  semaphore_id  semaphore object referenced with \ref osSemaphore.
 886:../../../core/ST/Middlewares/Third_Party/FreeRTOS/Source/CMSIS_RTOS/cmsis_os.c **** * @retval  status code that indicates the execution status of the function.
 887:../../../core/ST/Middlewares/Third_Party/FreeRTOS/Source/CMSIS_RTOS/cmsis_os.c **** * @note   MUST REMAIN UNCHANGED: \b osSemaphoreDelete shall be consistent in every CMSIS-RTOS.
 888:../../../core/ST/Middlewares/Third_Party/FreeRTOS/Source/CMSIS_RTOS/cmsis_os.c **** */
 889:../../../core/ST/Middlewares/Third_Party/FreeRTOS/Source/CMSIS_RTOS/cmsis_os.c **** osStatus osSemaphoreDelete (osSemaphoreId semaphore_id)
 890:../../../core/ST/Middlewares/Third_Party/FreeRTOS/Source/CMSIS_RTOS/cmsis_os.c **** {
 1787              		.loc 1 890 1 is_stmt 1 view -0
 1788              		.cfi_startproc
 1789              		@ args = 0, pretend = 0, frame = 0
 1790              		@ frame_needed = 0, uses_anonymous_args = 0
 1791              		.loc 1 890 1 is_stmt 0 view .LVU377
 1792 0000 10B5     		push	{r4, lr}
 1793              	.LCFI54:
 1794              		.cfi_def_cfa_offset 8
 1795              		.cfi_offset 4, -8
 1796              		.cfi_offset 14, -4
 1797 0002 0446     		mov	r4, r0
 891:../../../core/ST/Middlewares/Third_Party/FreeRTOS/Source/CMSIS_RTOS/cmsis_os.c ****   if (inHandlerMode()) {
 1798              		.loc 1 891 3 is_stmt 1 view .LVU378
 1799              		.loc 1 891 7 is_stmt 0 view .LVU379
 1800 0004 FFF7FEFF 		bl	inHandlerMode
 1801              	.LVL126:
 1802              		.loc 1 891 6 view .LVU380
 1803 0008 20B9     		cbnz	r0, .L147
 892:../../../core/ST/Middlewares/Third_Party/FreeRTOS/Source/CMSIS_RTOS/cmsis_os.c ****     return osErrorISR;
 893:../../../core/ST/Middlewares/Third_Party/FreeRTOS/Source/CMSIS_RTOS/cmsis_os.c ****   }
 894:../../../core/ST/Middlewares/Third_Party/FreeRTOS/Source/CMSIS_RTOS/cmsis_os.c **** 
 895:../../../core/ST/Middlewares/Third_Party/FreeRTOS/Source/CMSIS_RTOS/cmsis_os.c ****   vSemaphoreDelete(semaphore_id);
 1804              		.loc 1 895 3 is_stmt 1 view .LVU381
 1805 000a 2046     		mov	r0, r4
 1806 000c FFF7FEFF 		bl	vQueueDelete
 1807              	.LVL127:
 896:../../../core/ST/Middlewares/Third_Party/FreeRTOS/Source/CMSIS_RTOS/cmsis_os.c **** 
 897:../../../core/ST/Middlewares/Third_Party/FreeRTOS/Source/CMSIS_RTOS/cmsis_os.c ****   return osOK; 
 1808              		.loc 1 897 3 view .LVU382
 1809              		.loc 1 897 10 is_stmt 0 view .LVU383
 1810 0010 0020     		movs	r0, #0
 1811              	.L145:
 898:../../../core/ST/Middlewares/Third_Party/FreeRTOS/Source/CMSIS_RTOS/cmsis_os.c **** }
ARM GAS  C:\Users\tijsv\AppData\Local\Temp\cc6LJGIv.s 			page 51


 1812              		.loc 1 898 1 view .LVU384
 1813 0012 10BD     		pop	{r4, pc}
 1814              	.LVL128:
 1815              	.L147:
 892:../../../core/ST/Middlewares/Third_Party/FreeRTOS/Source/CMSIS_RTOS/cmsis_os.c ****     return osErrorISR;
 1816              		.loc 1 892 12 view .LVU385
 1817 0014 8220     		movs	r0, #130
 1818 0016 FCE7     		b	.L145
 1819              		.cfi_endproc
 1820              	.LFE56:
 1822              		.section	.text.osPoolCreate,"ax",%progbits
 1823              		.align	1
 1824              		.global	osPoolCreate
 1825              		.syntax unified
 1826              		.thumb
 1827              		.thumb_func
 1828              		.fpu fpv4-sp-d16
 1830              	osPoolCreate:
 1831              	.LVL129:
 1832              	.LFB57:
 899:../../../core/ST/Middlewares/Third_Party/FreeRTOS/Source/CMSIS_RTOS/cmsis_os.c **** 
 900:../../../core/ST/Middlewares/Third_Party/FreeRTOS/Source/CMSIS_RTOS/cmsis_os.c **** #endif    /* Use Semaphores */
 901:../../../core/ST/Middlewares/Third_Party/FreeRTOS/Source/CMSIS_RTOS/cmsis_os.c **** 
 902:../../../core/ST/Middlewares/Third_Party/FreeRTOS/Source/CMSIS_RTOS/cmsis_os.c **** /*******************   Memory Pool Management Functions  ***********************/
 903:../../../core/ST/Middlewares/Third_Party/FreeRTOS/Source/CMSIS_RTOS/cmsis_os.c **** 
 904:../../../core/ST/Middlewares/Third_Party/FreeRTOS/Source/CMSIS_RTOS/cmsis_os.c **** #if (defined (osFeature_Pool)  &&  (osFeature_Pool != 0)) 
 905:../../../core/ST/Middlewares/Third_Party/FreeRTOS/Source/CMSIS_RTOS/cmsis_os.c **** 
 906:../../../core/ST/Middlewares/Third_Party/FreeRTOS/Source/CMSIS_RTOS/cmsis_os.c **** //TODO
 907:../../../core/ST/Middlewares/Third_Party/FreeRTOS/Source/CMSIS_RTOS/cmsis_os.c **** //This is a primitive and inefficient wrapper around the existing FreeRTOS memory management.
 908:../../../core/ST/Middlewares/Third_Party/FreeRTOS/Source/CMSIS_RTOS/cmsis_os.c **** //A better implementation will have to modify heap_x.c!
 909:../../../core/ST/Middlewares/Third_Party/FreeRTOS/Source/CMSIS_RTOS/cmsis_os.c **** 
 910:../../../core/ST/Middlewares/Third_Party/FreeRTOS/Source/CMSIS_RTOS/cmsis_os.c **** 
 911:../../../core/ST/Middlewares/Third_Party/FreeRTOS/Source/CMSIS_RTOS/cmsis_os.c **** typedef struct os_pool_cb {
 912:../../../core/ST/Middlewares/Third_Party/FreeRTOS/Source/CMSIS_RTOS/cmsis_os.c ****   void *pool;
 913:../../../core/ST/Middlewares/Third_Party/FreeRTOS/Source/CMSIS_RTOS/cmsis_os.c ****   uint8_t *markers;
 914:../../../core/ST/Middlewares/Third_Party/FreeRTOS/Source/CMSIS_RTOS/cmsis_os.c ****   uint32_t pool_sz;
 915:../../../core/ST/Middlewares/Third_Party/FreeRTOS/Source/CMSIS_RTOS/cmsis_os.c ****   uint32_t item_sz;
 916:../../../core/ST/Middlewares/Third_Party/FreeRTOS/Source/CMSIS_RTOS/cmsis_os.c ****   uint32_t currentIndex;
 917:../../../core/ST/Middlewares/Third_Party/FreeRTOS/Source/CMSIS_RTOS/cmsis_os.c **** } os_pool_cb_t;
 918:../../../core/ST/Middlewares/Third_Party/FreeRTOS/Source/CMSIS_RTOS/cmsis_os.c **** 
 919:../../../core/ST/Middlewares/Third_Party/FreeRTOS/Source/CMSIS_RTOS/cmsis_os.c **** 
 920:../../../core/ST/Middlewares/Third_Party/FreeRTOS/Source/CMSIS_RTOS/cmsis_os.c **** /**
 921:../../../core/ST/Middlewares/Third_Party/FreeRTOS/Source/CMSIS_RTOS/cmsis_os.c **** * @brief Create and Initialize a memory pool
 922:../../../core/ST/Middlewares/Third_Party/FreeRTOS/Source/CMSIS_RTOS/cmsis_os.c **** * @param  pool_def      memory pool definition referenced with \ref osPool.
 923:../../../core/ST/Middlewares/Third_Party/FreeRTOS/Source/CMSIS_RTOS/cmsis_os.c **** * @retval  memory pool ID for reference by other functions or NULL in case of error.
 924:../../../core/ST/Middlewares/Third_Party/FreeRTOS/Source/CMSIS_RTOS/cmsis_os.c **** * @note   MUST REMAIN UNCHANGED: \b osPoolCreate shall be consistent in every CMSIS-RTOS.
 925:../../../core/ST/Middlewares/Third_Party/FreeRTOS/Source/CMSIS_RTOS/cmsis_os.c **** */
 926:../../../core/ST/Middlewares/Third_Party/FreeRTOS/Source/CMSIS_RTOS/cmsis_os.c **** osPoolId osPoolCreate (const osPoolDef_t *pool_def)
 927:../../../core/ST/Middlewares/Third_Party/FreeRTOS/Source/CMSIS_RTOS/cmsis_os.c **** {
 1833              		.loc 1 927 1 is_stmt 1 view -0
 1834              		.cfi_startproc
 1835              		@ args = 0, pretend = 0, frame = 0
 1836              		@ frame_needed = 0, uses_anonymous_args = 0
 1837              		.loc 1 927 1 is_stmt 0 view .LVU387
 1838 0000 F8B5     		push	{r3, r4, r5, r6, r7, lr}
 1839              	.LCFI55:
 1840              		.cfi_def_cfa_offset 24
ARM GAS  C:\Users\tijsv\AppData\Local\Temp\cc6LJGIv.s 			page 52


 1841              		.cfi_offset 3, -24
 1842              		.cfi_offset 4, -20
 1843              		.cfi_offset 5, -16
 1844              		.cfi_offset 6, -12
 1845              		.cfi_offset 7, -8
 1846              		.cfi_offset 14, -4
 1847 0002 0446     		mov	r4, r0
 928:../../../core/ST/Middlewares/Third_Party/FreeRTOS/Source/CMSIS_RTOS/cmsis_os.c **** #if (configSUPPORT_DYNAMIC_ALLOCATION == 1)
 929:../../../core/ST/Middlewares/Third_Party/FreeRTOS/Source/CMSIS_RTOS/cmsis_os.c ****   osPoolId thePool;
 1848              		.loc 1 929 3 is_stmt 1 view .LVU388
 930:../../../core/ST/Middlewares/Third_Party/FreeRTOS/Source/CMSIS_RTOS/cmsis_os.c ****   int itemSize = 4 * ((pool_def->item_sz + 3) / 4);
 1849              		.loc 1 930 3 view .LVU389
 1850              		.loc 1 930 32 is_stmt 0 view .LVU390
 1851 0004 4368     		ldr	r3, [r0, #4]
 1852              		.loc 1 930 42 view .LVU391
 1853 0006 0333     		adds	r3, r3, #3
 1854              		.loc 1 930 7 view .LVU392
 1855 0008 23F00306 		bic	r6, r3, #3
 1856              	.LVL130:
 931:../../../core/ST/Middlewares/Third_Party/FreeRTOS/Source/CMSIS_RTOS/cmsis_os.c ****   uint32_t i;
 1857              		.loc 1 931 3 is_stmt 1 view .LVU393
 932:../../../core/ST/Middlewares/Third_Party/FreeRTOS/Source/CMSIS_RTOS/cmsis_os.c ****   
 933:../../../core/ST/Middlewares/Third_Party/FreeRTOS/Source/CMSIS_RTOS/cmsis_os.c ****   /* First have to allocate memory for the pool control block. */
 934:../../../core/ST/Middlewares/Third_Party/FreeRTOS/Source/CMSIS_RTOS/cmsis_os.c ****  thePool = pvPortMalloc(sizeof(os_pool_cb_t));
 1858              		.loc 1 934 2 view .LVU394
 1859              		.loc 1 934 12 is_stmt 0 view .LVU395
 1860 000c 1420     		movs	r0, #20
 1861              	.LVL131:
 1862              		.loc 1 934 12 view .LVU396
 1863 000e FFF7FEFF 		bl	pvPortMalloc
 1864              	.LVL132:
 935:../../../core/ST/Middlewares/Third_Party/FreeRTOS/Source/CMSIS_RTOS/cmsis_os.c **** 
 936:../../../core/ST/Middlewares/Third_Party/FreeRTOS/Source/CMSIS_RTOS/cmsis_os.c ****   
 937:../../../core/ST/Middlewares/Third_Party/FreeRTOS/Source/CMSIS_RTOS/cmsis_os.c ****   if (thePool) {
 1865              		.loc 1 937 3 is_stmt 1 view .LVU397
 1866              		.loc 1 937 6 is_stmt 0 view .LVU398
 1867 0012 0546     		mov	r5, r0
 1868 0014 D8B1     		cbz	r0, .L149
 938:../../../core/ST/Middlewares/Third_Party/FreeRTOS/Source/CMSIS_RTOS/cmsis_os.c ****     thePool->pool_sz = pool_def->pool_sz;
 1869              		.loc 1 938 5 is_stmt 1 view .LVU399
 1870              		.loc 1 938 32 is_stmt 0 view .LVU400
 1871 0016 2368     		ldr	r3, [r4]
 1872              		.loc 1 938 22 view .LVU401
 1873 0018 8360     		str	r3, [r0, #8]
 939:../../../core/ST/Middlewares/Third_Party/FreeRTOS/Source/CMSIS_RTOS/cmsis_os.c ****     thePool->item_sz = itemSize;
 1874              		.loc 1 939 5 is_stmt 1 view .LVU402
 1875              		.loc 1 939 22 is_stmt 0 view .LVU403
 1876 001a C660     		str	r6, [r0, #12]
 940:../../../core/ST/Middlewares/Third_Party/FreeRTOS/Source/CMSIS_RTOS/cmsis_os.c ****     thePool->currentIndex = 0;
 1877              		.loc 1 940 5 is_stmt 1 view .LVU404
 1878              		.loc 1 940 27 is_stmt 0 view .LVU405
 1879 001c 0023     		movs	r3, #0
 1880 001e 0361     		str	r3, [r0, #16]
 941:../../../core/ST/Middlewares/Third_Party/FreeRTOS/Source/CMSIS_RTOS/cmsis_os.c ****     
 942:../../../core/ST/Middlewares/Third_Party/FreeRTOS/Source/CMSIS_RTOS/cmsis_os.c ****     /* Memory for markers */
 943:../../../core/ST/Middlewares/Third_Party/FreeRTOS/Source/CMSIS_RTOS/cmsis_os.c ****     thePool->markers = pvPortMalloc(pool_def->pool_sz);
 1881              		.loc 1 943 5 is_stmt 1 view .LVU406
ARM GAS  C:\Users\tijsv\AppData\Local\Temp\cc6LJGIv.s 			page 53


 1882              		.loc 1 943 24 is_stmt 0 view .LVU407
 1883 0020 2068     		ldr	r0, [r4]
 1884              	.LVL133:
 1885              		.loc 1 943 24 view .LVU408
 1886 0022 FFF7FEFF 		bl	pvPortMalloc
 1887              	.LVL134:
 1888 0026 0746     		mov	r7, r0
 1889              		.loc 1 943 22 view .LVU409
 1890 0028 6860     		str	r0, [r5, #4]
 944:../../../core/ST/Middlewares/Third_Party/FreeRTOS/Source/CMSIS_RTOS/cmsis_os.c ****    
 945:../../../core/ST/Middlewares/Third_Party/FreeRTOS/Source/CMSIS_RTOS/cmsis_os.c ****     if (thePool->markers) {
 1891              		.loc 1 945 5 is_stmt 1 view .LVU410
 1892              		.loc 1 945 8 is_stmt 0 view .LVU411
 1893 002a D0B1     		cbz	r0, .L151
 946:../../../core/ST/Middlewares/Third_Party/FreeRTOS/Source/CMSIS_RTOS/cmsis_os.c ****       /* Now allocate the pool itself. */
 947:../../../core/ST/Middlewares/Third_Party/FreeRTOS/Source/CMSIS_RTOS/cmsis_os.c ****      thePool->pool = pvPortMalloc(pool_def->pool_sz * itemSize);
 1894              		.loc 1 947 6 is_stmt 1 view .LVU412
 1895              		.loc 1 947 43 is_stmt 0 view .LVU413
 1896 002c 2068     		ldr	r0, [r4]
 1897              		.loc 1 947 22 view .LVU414
 1898 002e 00FB06F0 		mul	r0, r0, r6
 1899 0032 FFF7FEFF 		bl	pvPortMalloc
 1900              	.LVL135:
 1901 0036 0646     		mov	r6, r0
 1902              	.LVL136:
 1903              		.loc 1 947 20 view .LVU415
 1904 0038 2860     		str	r0, [r5]
 948:../../../core/ST/Middlewares/Third_Party/FreeRTOS/Source/CMSIS_RTOS/cmsis_os.c ****       
 949:../../../core/ST/Middlewares/Third_Party/FreeRTOS/Source/CMSIS_RTOS/cmsis_os.c ****       if (thePool->pool) {
 1905              		.loc 1 949 7 is_stmt 1 view .LVU416
 1906              		.loc 1 949 10 is_stmt 0 view .LVU417
 1907 003a 50B1     		cbz	r0, .L158
 950:../../../core/ST/Middlewares/Third_Party/FreeRTOS/Source/CMSIS_RTOS/cmsis_os.c ****         for (i = 0; i < pool_def->pool_sz; i++) {
 1908              		.loc 1 950 16 view .LVU418
 1909 003c 0023     		movs	r3, #0
 1910 003e 03E0     		b	.L152
 1911              	.LVL137:
 1912              	.L154:
 951:../../../core/ST/Middlewares/Third_Party/FreeRTOS/Source/CMSIS_RTOS/cmsis_os.c ****           thePool->markers[i] = 0;
 1913              		.loc 1 951 11 is_stmt 1 discriminator 3 view .LVU419
 1914              		.loc 1 951 18 is_stmt 0 discriminator 3 view .LVU420
 1915 0040 6A68     		ldr	r2, [r5, #4]
 1916              		.loc 1 951 31 discriminator 3 view .LVU421
 1917 0042 0021     		movs	r1, #0
 1918 0044 D154     		strb	r1, [r2, r3]
 950:../../../core/ST/Middlewares/Third_Party/FreeRTOS/Source/CMSIS_RTOS/cmsis_os.c ****         for (i = 0; i < pool_def->pool_sz; i++) {
 1919              		.loc 1 950 44 is_stmt 1 discriminator 3 view .LVU422
 950:../../../core/ST/Middlewares/Third_Party/FreeRTOS/Source/CMSIS_RTOS/cmsis_os.c ****         for (i = 0; i < pool_def->pool_sz; i++) {
 1920              		.loc 1 950 45 is_stmt 0 discriminator 3 view .LVU423
 1921 0046 0133     		adds	r3, r3, #1
 1922              	.LVL138:
 1923              	.L152:
 950:../../../core/ST/Middlewares/Third_Party/FreeRTOS/Source/CMSIS_RTOS/cmsis_os.c ****         for (i = 0; i < pool_def->pool_sz; i++) {
 1924              		.loc 1 950 21 is_stmt 1 discriminator 1 view .LVU424
 950:../../../core/ST/Middlewares/Third_Party/FreeRTOS/Source/CMSIS_RTOS/cmsis_os.c ****         for (i = 0; i < pool_def->pool_sz; i++) {
 1925              		.loc 1 950 33 is_stmt 0 discriminator 1 view .LVU425
 1926 0048 2268     		ldr	r2, [r4]
ARM GAS  C:\Users\tijsv\AppData\Local\Temp\cc6LJGIv.s 			page 54


 950:../../../core/ST/Middlewares/Third_Party/FreeRTOS/Source/CMSIS_RTOS/cmsis_os.c ****         for (i = 0; i < pool_def->pool_sz; i++) {
 1927              		.loc 1 950 9 discriminator 1 view .LVU426
 1928 004a 9A42     		cmp	r2, r3
 1929 004c F8D8     		bhi	.L154
 1930              	.LVL139:
 1931              	.L149:
 952:../../../core/ST/Middlewares/Third_Party/FreeRTOS/Source/CMSIS_RTOS/cmsis_os.c ****         }
 953:../../../core/ST/Middlewares/Third_Party/FreeRTOS/Source/CMSIS_RTOS/cmsis_os.c ****       }
 954:../../../core/ST/Middlewares/Third_Party/FreeRTOS/Source/CMSIS_RTOS/cmsis_os.c ****       else {
 955:../../../core/ST/Middlewares/Third_Party/FreeRTOS/Source/CMSIS_RTOS/cmsis_os.c ****         vPortFree(thePool->markers);
 956:../../../core/ST/Middlewares/Third_Party/FreeRTOS/Source/CMSIS_RTOS/cmsis_os.c ****         vPortFree(thePool);
 957:../../../core/ST/Middlewares/Third_Party/FreeRTOS/Source/CMSIS_RTOS/cmsis_os.c ****         thePool = NULL;
 958:../../../core/ST/Middlewares/Third_Party/FreeRTOS/Source/CMSIS_RTOS/cmsis_os.c ****       }
 959:../../../core/ST/Middlewares/Third_Party/FreeRTOS/Source/CMSIS_RTOS/cmsis_os.c ****     }
 960:../../../core/ST/Middlewares/Third_Party/FreeRTOS/Source/CMSIS_RTOS/cmsis_os.c ****     else {
 961:../../../core/ST/Middlewares/Third_Party/FreeRTOS/Source/CMSIS_RTOS/cmsis_os.c ****       vPortFree(thePool);
 962:../../../core/ST/Middlewares/Third_Party/FreeRTOS/Source/CMSIS_RTOS/cmsis_os.c ****       thePool = NULL;
 963:../../../core/ST/Middlewares/Third_Party/FreeRTOS/Source/CMSIS_RTOS/cmsis_os.c ****     }
 964:../../../core/ST/Middlewares/Third_Party/FreeRTOS/Source/CMSIS_RTOS/cmsis_os.c ****   }
 965:../../../core/ST/Middlewares/Third_Party/FreeRTOS/Source/CMSIS_RTOS/cmsis_os.c **** 
 966:../../../core/ST/Middlewares/Third_Party/FreeRTOS/Source/CMSIS_RTOS/cmsis_os.c ****   return thePool;
 967:../../../core/ST/Middlewares/Third_Party/FreeRTOS/Source/CMSIS_RTOS/cmsis_os.c ****  
 968:../../../core/ST/Middlewares/Third_Party/FreeRTOS/Source/CMSIS_RTOS/cmsis_os.c **** #else
 969:../../../core/ST/Middlewares/Third_Party/FreeRTOS/Source/CMSIS_RTOS/cmsis_os.c ****   return NULL;
 970:../../../core/ST/Middlewares/Third_Party/FreeRTOS/Source/CMSIS_RTOS/cmsis_os.c **** #endif
 971:../../../core/ST/Middlewares/Third_Party/FreeRTOS/Source/CMSIS_RTOS/cmsis_os.c **** }
 1932              		.loc 1 971 1 view .LVU427
 1933 004e 2846     		mov	r0, r5
 1934 0050 F8BD     		pop	{r3, r4, r5, r6, r7, pc}
 1935              	.LVL140:
 1936              	.L158:
 955:../../../core/ST/Middlewares/Third_Party/FreeRTOS/Source/CMSIS_RTOS/cmsis_os.c ****         vPortFree(thePool);
 1937              		.loc 1 955 9 is_stmt 1 view .LVU428
 1938 0052 6868     		ldr	r0, [r5, #4]
 1939 0054 FFF7FEFF 		bl	vPortFree
 1940              	.LVL141:
 956:../../../core/ST/Middlewares/Third_Party/FreeRTOS/Source/CMSIS_RTOS/cmsis_os.c ****         thePool = NULL;
 1941              		.loc 1 956 9 view .LVU429
 1942 0058 2846     		mov	r0, r5
 1943 005a FFF7FEFF 		bl	vPortFree
 1944              	.LVL142:
 957:../../../core/ST/Middlewares/Third_Party/FreeRTOS/Source/CMSIS_RTOS/cmsis_os.c ****       }
 1945              		.loc 1 957 9 view .LVU430
 957:../../../core/ST/Middlewares/Third_Party/FreeRTOS/Source/CMSIS_RTOS/cmsis_os.c ****       }
 1946              		.loc 1 957 17 is_stmt 0 view .LVU431
 1947 005e 3546     		mov	r5, r6
 1948 0060 F5E7     		b	.L149
 1949              	.LVL143:
 1950              	.L151:
 961:../../../core/ST/Middlewares/Third_Party/FreeRTOS/Source/CMSIS_RTOS/cmsis_os.c ****       thePool = NULL;
 1951              		.loc 1 961 7 is_stmt 1 view .LVU432
 1952 0062 2846     		mov	r0, r5
 1953 0064 FFF7FEFF 		bl	vPortFree
 1954              	.LVL144:
 962:../../../core/ST/Middlewares/Third_Party/FreeRTOS/Source/CMSIS_RTOS/cmsis_os.c ****     }
 1955              		.loc 1 962 7 view .LVU433
 962:../../../core/ST/Middlewares/Third_Party/FreeRTOS/Source/CMSIS_RTOS/cmsis_os.c ****     }
ARM GAS  C:\Users\tijsv\AppData\Local\Temp\cc6LJGIv.s 			page 55


 1956              		.loc 1 962 15 is_stmt 0 view .LVU434
 1957 0068 3D46     		mov	r5, r7
 1958              	.LVL145:
 966:../../../core/ST/Middlewares/Third_Party/FreeRTOS/Source/CMSIS_RTOS/cmsis_os.c ****  
 1959              		.loc 1 966 3 is_stmt 1 view .LVU435
 966:../../../core/ST/Middlewares/Third_Party/FreeRTOS/Source/CMSIS_RTOS/cmsis_os.c ****  
 1960              		.loc 1 966 10 is_stmt 0 view .LVU436
 1961 006a F0E7     		b	.L149
 1962              		.cfi_endproc
 1963              	.LFE57:
 1965              		.section	.text.osPoolAlloc,"ax",%progbits
 1966              		.align	1
 1967              		.global	osPoolAlloc
 1968              		.syntax unified
 1969              		.thumb
 1970              		.thumb_func
 1971              		.fpu fpv4-sp-d16
 1973              	osPoolAlloc:
 1974              	.LVL146:
 1975              	.LFB58:
 972:../../../core/ST/Middlewares/Third_Party/FreeRTOS/Source/CMSIS_RTOS/cmsis_os.c **** 
 973:../../../core/ST/Middlewares/Third_Party/FreeRTOS/Source/CMSIS_RTOS/cmsis_os.c **** /**
 974:../../../core/ST/Middlewares/Third_Party/FreeRTOS/Source/CMSIS_RTOS/cmsis_os.c **** * @brief Allocate a memory block from a memory pool
 975:../../../core/ST/Middlewares/Third_Party/FreeRTOS/Source/CMSIS_RTOS/cmsis_os.c **** * @param pool_id       memory pool ID obtain referenced with \ref osPoolCreate.
 976:../../../core/ST/Middlewares/Third_Party/FreeRTOS/Source/CMSIS_RTOS/cmsis_os.c **** * @retval  address of the allocated memory block or NULL in case of no memory available.
 977:../../../core/ST/Middlewares/Third_Party/FreeRTOS/Source/CMSIS_RTOS/cmsis_os.c **** * @note   MUST REMAIN UNCHANGED: \b osPoolAlloc shall be consistent in every CMSIS-RTOS.
 978:../../../core/ST/Middlewares/Third_Party/FreeRTOS/Source/CMSIS_RTOS/cmsis_os.c **** */
 979:../../../core/ST/Middlewares/Third_Party/FreeRTOS/Source/CMSIS_RTOS/cmsis_os.c **** void *osPoolAlloc (osPoolId pool_id)
 980:../../../core/ST/Middlewares/Third_Party/FreeRTOS/Source/CMSIS_RTOS/cmsis_os.c **** {
 1976              		.loc 1 980 1 is_stmt 1 view -0
 1977              		.cfi_startproc
 1978              		@ args = 0, pretend = 0, frame = 0
 1979              		@ frame_needed = 0, uses_anonymous_args = 0
 1980              		.loc 1 980 1 is_stmt 0 view .LVU438
 1981 0000 70B5     		push	{r4, r5, r6, lr}
 1982              	.LCFI56:
 1983              		.cfi_def_cfa_offset 16
 1984              		.cfi_offset 4, -16
 1985              		.cfi_offset 5, -12
 1986              		.cfi_offset 6, -8
 1987              		.cfi_offset 14, -4
 1988 0002 0446     		mov	r4, r0
 981:../../../core/ST/Middlewares/Third_Party/FreeRTOS/Source/CMSIS_RTOS/cmsis_os.c ****   int dummy = 0;
 1989              		.loc 1 981 3 is_stmt 1 view .LVU439
 1990              	.LVL147:
 982:../../../core/ST/Middlewares/Third_Party/FreeRTOS/Source/CMSIS_RTOS/cmsis_os.c ****   void *p = NULL;
 1991              		.loc 1 982 3 view .LVU440
 983:../../../core/ST/Middlewares/Third_Party/FreeRTOS/Source/CMSIS_RTOS/cmsis_os.c ****   uint32_t i;
 1992              		.loc 1 983 3 view .LVU441
 984:../../../core/ST/Middlewares/Third_Party/FreeRTOS/Source/CMSIS_RTOS/cmsis_os.c ****   uint32_t index;
 1993              		.loc 1 984 3 view .LVU442
 985:../../../core/ST/Middlewares/Third_Party/FreeRTOS/Source/CMSIS_RTOS/cmsis_os.c ****   
 986:../../../core/ST/Middlewares/Third_Party/FreeRTOS/Source/CMSIS_RTOS/cmsis_os.c ****   if (inHandlerMode()) {
 1994              		.loc 1 986 3 view .LVU443
 1995              		.loc 1 986 7 is_stmt 0 view .LVU444
 1996 0004 FFF7FEFF 		bl	inHandlerMode
 1997              	.LVL148:
ARM GAS  C:\Users\tijsv\AppData\Local\Temp\cc6LJGIv.s 			page 56


 1998              		.loc 1 986 6 view .LVU445
 1999 0008 58B1     		cbz	r0, .L160
 987:../../../core/ST/Middlewares/Third_Party/FreeRTOS/Source/CMSIS_RTOS/cmsis_os.c ****     dummy = portSET_INTERRUPT_MASK_FROM_ISR();
 2000              		.loc 1 987 5 is_stmt 1 view .LVU446
 2001              	.LBB10:
 2002              	.LBI10:
 2003              		.file 3 "../../../core/ST/Middlewares/Third_Party/FreeRTOS/Source/portable/GCC/ARM_CM4F/portmacro.
   1:../../../core/ST/Middlewares/Third_Party/FreeRTOS/Source/portable/GCC/ARM_CM4F/portmacro.h **** /*
   2:../../../core/ST/Middlewares/Third_Party/FreeRTOS/Source/portable/GCC/ARM_CM4F/portmacro.h ****  * FreeRTOS Kernel V10.0.1
   3:../../../core/ST/Middlewares/Third_Party/FreeRTOS/Source/portable/GCC/ARM_CM4F/portmacro.h ****  * Copyright (C) 2017 Amazon.com, Inc. or its affiliates.  All Rights Reserved.
   4:../../../core/ST/Middlewares/Third_Party/FreeRTOS/Source/portable/GCC/ARM_CM4F/portmacro.h ****  *
   5:../../../core/ST/Middlewares/Third_Party/FreeRTOS/Source/portable/GCC/ARM_CM4F/portmacro.h ****  * Permission is hereby granted, free of charge, to any person obtaining a copy of
   6:../../../core/ST/Middlewares/Third_Party/FreeRTOS/Source/portable/GCC/ARM_CM4F/portmacro.h ****  * this software and associated documentation files (the "Software"), to deal in
   7:../../../core/ST/Middlewares/Third_Party/FreeRTOS/Source/portable/GCC/ARM_CM4F/portmacro.h ****  * the Software without restriction, including without limitation the rights to
   8:../../../core/ST/Middlewares/Third_Party/FreeRTOS/Source/portable/GCC/ARM_CM4F/portmacro.h ****  * use, copy, modify, merge, publish, distribute, sublicense, and/or sell copies of
   9:../../../core/ST/Middlewares/Third_Party/FreeRTOS/Source/portable/GCC/ARM_CM4F/portmacro.h ****  * the Software, and to permit persons to whom the Software is furnished to do so,
  10:../../../core/ST/Middlewares/Third_Party/FreeRTOS/Source/portable/GCC/ARM_CM4F/portmacro.h ****  * subject to the following conditions:
  11:../../../core/ST/Middlewares/Third_Party/FreeRTOS/Source/portable/GCC/ARM_CM4F/portmacro.h ****  *
  12:../../../core/ST/Middlewares/Third_Party/FreeRTOS/Source/portable/GCC/ARM_CM4F/portmacro.h ****  * The above copyright notice and this permission notice shall be included in all
  13:../../../core/ST/Middlewares/Third_Party/FreeRTOS/Source/portable/GCC/ARM_CM4F/portmacro.h ****  * copies or substantial portions of the Software.
  14:../../../core/ST/Middlewares/Third_Party/FreeRTOS/Source/portable/GCC/ARM_CM4F/portmacro.h ****  *
  15:../../../core/ST/Middlewares/Third_Party/FreeRTOS/Source/portable/GCC/ARM_CM4F/portmacro.h ****  * THE SOFTWARE IS PROVIDED "AS IS", WITHOUT WARRANTY OF ANY KIND, EXPRESS OR
  16:../../../core/ST/Middlewares/Third_Party/FreeRTOS/Source/portable/GCC/ARM_CM4F/portmacro.h ****  * IMPLIED, INCLUDING BUT NOT LIMITED TO THE WARRANTIES OF MERCHANTABILITY, FITNESS
  17:../../../core/ST/Middlewares/Third_Party/FreeRTOS/Source/portable/GCC/ARM_CM4F/portmacro.h ****  * FOR A PARTICULAR PURPOSE AND NONINFRINGEMENT. IN NO EVENT SHALL THE AUTHORS OR
  18:../../../core/ST/Middlewares/Third_Party/FreeRTOS/Source/portable/GCC/ARM_CM4F/portmacro.h ****  * COPYRIGHT HOLDERS BE LIABLE FOR ANY CLAIM, DAMAGES OR OTHER LIABILITY, WHETHER
  19:../../../core/ST/Middlewares/Third_Party/FreeRTOS/Source/portable/GCC/ARM_CM4F/portmacro.h ****  * IN AN ACTION OF CONTRACT, TORT OR OTHERWISE, ARISING FROM, OUT OF OR IN
  20:../../../core/ST/Middlewares/Third_Party/FreeRTOS/Source/portable/GCC/ARM_CM4F/portmacro.h ****  * CONNECTION WITH THE SOFTWARE OR THE USE OR OTHER DEALINGS IN THE SOFTWARE.
  21:../../../core/ST/Middlewares/Third_Party/FreeRTOS/Source/portable/GCC/ARM_CM4F/portmacro.h ****  *
  22:../../../core/ST/Middlewares/Third_Party/FreeRTOS/Source/portable/GCC/ARM_CM4F/portmacro.h ****  * http://www.FreeRTOS.org
  23:../../../core/ST/Middlewares/Third_Party/FreeRTOS/Source/portable/GCC/ARM_CM4F/portmacro.h ****  * http://aws.amazon.com/freertos
  24:../../../core/ST/Middlewares/Third_Party/FreeRTOS/Source/portable/GCC/ARM_CM4F/portmacro.h ****  *
  25:../../../core/ST/Middlewares/Third_Party/FreeRTOS/Source/portable/GCC/ARM_CM4F/portmacro.h ****  * 1 tab == 4 spaces!
  26:../../../core/ST/Middlewares/Third_Party/FreeRTOS/Source/portable/GCC/ARM_CM4F/portmacro.h ****  */
  27:../../../core/ST/Middlewares/Third_Party/FreeRTOS/Source/portable/GCC/ARM_CM4F/portmacro.h **** 
  28:../../../core/ST/Middlewares/Third_Party/FreeRTOS/Source/portable/GCC/ARM_CM4F/portmacro.h **** 
  29:../../../core/ST/Middlewares/Third_Party/FreeRTOS/Source/portable/GCC/ARM_CM4F/portmacro.h **** #ifndef PORTMACRO_H
  30:../../../core/ST/Middlewares/Third_Party/FreeRTOS/Source/portable/GCC/ARM_CM4F/portmacro.h **** #define PORTMACRO_H
  31:../../../core/ST/Middlewares/Third_Party/FreeRTOS/Source/portable/GCC/ARM_CM4F/portmacro.h **** 
  32:../../../core/ST/Middlewares/Third_Party/FreeRTOS/Source/portable/GCC/ARM_CM4F/portmacro.h **** #ifdef __cplusplus
  33:../../../core/ST/Middlewares/Third_Party/FreeRTOS/Source/portable/GCC/ARM_CM4F/portmacro.h **** extern "C" {
  34:../../../core/ST/Middlewares/Third_Party/FreeRTOS/Source/portable/GCC/ARM_CM4F/portmacro.h **** #endif
  35:../../../core/ST/Middlewares/Third_Party/FreeRTOS/Source/portable/GCC/ARM_CM4F/portmacro.h **** 
  36:../../../core/ST/Middlewares/Third_Party/FreeRTOS/Source/portable/GCC/ARM_CM4F/portmacro.h **** /*-----------------------------------------------------------
  37:../../../core/ST/Middlewares/Third_Party/FreeRTOS/Source/portable/GCC/ARM_CM4F/portmacro.h ****  * Port specific definitions.
  38:../../../core/ST/Middlewares/Third_Party/FreeRTOS/Source/portable/GCC/ARM_CM4F/portmacro.h ****  *
  39:../../../core/ST/Middlewares/Third_Party/FreeRTOS/Source/portable/GCC/ARM_CM4F/portmacro.h ****  * The settings in this file configure FreeRTOS correctly for the
  40:../../../core/ST/Middlewares/Third_Party/FreeRTOS/Source/portable/GCC/ARM_CM4F/portmacro.h ****  * given hardware and compiler.
  41:../../../core/ST/Middlewares/Third_Party/FreeRTOS/Source/portable/GCC/ARM_CM4F/portmacro.h ****  *
  42:../../../core/ST/Middlewares/Third_Party/FreeRTOS/Source/portable/GCC/ARM_CM4F/portmacro.h ****  * These settings should not be altered.
  43:../../../core/ST/Middlewares/Third_Party/FreeRTOS/Source/portable/GCC/ARM_CM4F/portmacro.h ****  *-----------------------------------------------------------
  44:../../../core/ST/Middlewares/Third_Party/FreeRTOS/Source/portable/GCC/ARM_CM4F/portmacro.h ****  */
  45:../../../core/ST/Middlewares/Third_Party/FreeRTOS/Source/portable/GCC/ARM_CM4F/portmacro.h **** 
  46:../../../core/ST/Middlewares/Third_Party/FreeRTOS/Source/portable/GCC/ARM_CM4F/portmacro.h **** /* Type definitions. */
  47:../../../core/ST/Middlewares/Third_Party/FreeRTOS/Source/portable/GCC/ARM_CM4F/portmacro.h **** #define portCHAR		char
  48:../../../core/ST/Middlewares/Third_Party/FreeRTOS/Source/portable/GCC/ARM_CM4F/portmacro.h **** #define portFLOAT		float
  49:../../../core/ST/Middlewares/Third_Party/FreeRTOS/Source/portable/GCC/ARM_CM4F/portmacro.h **** #define portDOUBLE		double
  50:../../../core/ST/Middlewares/Third_Party/FreeRTOS/Source/portable/GCC/ARM_CM4F/portmacro.h **** #define portLONG		long
ARM GAS  C:\Users\tijsv\AppData\Local\Temp\cc6LJGIv.s 			page 57


  51:../../../core/ST/Middlewares/Third_Party/FreeRTOS/Source/portable/GCC/ARM_CM4F/portmacro.h **** #define portSHORT		short
  52:../../../core/ST/Middlewares/Third_Party/FreeRTOS/Source/portable/GCC/ARM_CM4F/portmacro.h **** #define portSTACK_TYPE	uint32_t
  53:../../../core/ST/Middlewares/Third_Party/FreeRTOS/Source/portable/GCC/ARM_CM4F/portmacro.h **** #define portBASE_TYPE	long
  54:../../../core/ST/Middlewares/Third_Party/FreeRTOS/Source/portable/GCC/ARM_CM4F/portmacro.h **** 
  55:../../../core/ST/Middlewares/Third_Party/FreeRTOS/Source/portable/GCC/ARM_CM4F/portmacro.h **** typedef portSTACK_TYPE StackType_t;
  56:../../../core/ST/Middlewares/Third_Party/FreeRTOS/Source/portable/GCC/ARM_CM4F/portmacro.h **** typedef long BaseType_t;
  57:../../../core/ST/Middlewares/Third_Party/FreeRTOS/Source/portable/GCC/ARM_CM4F/portmacro.h **** typedef unsigned long UBaseType_t;
  58:../../../core/ST/Middlewares/Third_Party/FreeRTOS/Source/portable/GCC/ARM_CM4F/portmacro.h **** 
  59:../../../core/ST/Middlewares/Third_Party/FreeRTOS/Source/portable/GCC/ARM_CM4F/portmacro.h **** #if( configUSE_16_BIT_TICKS == 1 )
  60:../../../core/ST/Middlewares/Third_Party/FreeRTOS/Source/portable/GCC/ARM_CM4F/portmacro.h **** 	typedef uint16_t TickType_t;
  61:../../../core/ST/Middlewares/Third_Party/FreeRTOS/Source/portable/GCC/ARM_CM4F/portmacro.h **** 	#define portMAX_DELAY ( TickType_t ) 0xffff
  62:../../../core/ST/Middlewares/Third_Party/FreeRTOS/Source/portable/GCC/ARM_CM4F/portmacro.h **** #else
  63:../../../core/ST/Middlewares/Third_Party/FreeRTOS/Source/portable/GCC/ARM_CM4F/portmacro.h **** 	typedef uint32_t TickType_t;
  64:../../../core/ST/Middlewares/Third_Party/FreeRTOS/Source/portable/GCC/ARM_CM4F/portmacro.h **** 	#define portMAX_DELAY ( TickType_t ) 0xffffffffUL
  65:../../../core/ST/Middlewares/Third_Party/FreeRTOS/Source/portable/GCC/ARM_CM4F/portmacro.h **** 
  66:../../../core/ST/Middlewares/Third_Party/FreeRTOS/Source/portable/GCC/ARM_CM4F/portmacro.h **** 	/* 32-bit tick type on a 32-bit architecture, so reads of the tick count do
  67:../../../core/ST/Middlewares/Third_Party/FreeRTOS/Source/portable/GCC/ARM_CM4F/portmacro.h **** 	not need to be guarded with a critical section. */
  68:../../../core/ST/Middlewares/Third_Party/FreeRTOS/Source/portable/GCC/ARM_CM4F/portmacro.h **** 	#define portTICK_TYPE_IS_ATOMIC 1
  69:../../../core/ST/Middlewares/Third_Party/FreeRTOS/Source/portable/GCC/ARM_CM4F/portmacro.h **** #endif
  70:../../../core/ST/Middlewares/Third_Party/FreeRTOS/Source/portable/GCC/ARM_CM4F/portmacro.h **** /*-----------------------------------------------------------*/
  71:../../../core/ST/Middlewares/Third_Party/FreeRTOS/Source/portable/GCC/ARM_CM4F/portmacro.h **** 
  72:../../../core/ST/Middlewares/Third_Party/FreeRTOS/Source/portable/GCC/ARM_CM4F/portmacro.h **** /* Architecture specifics. */
  73:../../../core/ST/Middlewares/Third_Party/FreeRTOS/Source/portable/GCC/ARM_CM4F/portmacro.h **** #define portSTACK_GROWTH			( -1 )
  74:../../../core/ST/Middlewares/Third_Party/FreeRTOS/Source/portable/GCC/ARM_CM4F/portmacro.h **** #define portTICK_PERIOD_MS			( ( TickType_t ) 1000 / configTICK_RATE_HZ )
  75:../../../core/ST/Middlewares/Third_Party/FreeRTOS/Source/portable/GCC/ARM_CM4F/portmacro.h **** #define portBYTE_ALIGNMENT			8
  76:../../../core/ST/Middlewares/Third_Party/FreeRTOS/Source/portable/GCC/ARM_CM4F/portmacro.h **** /*-----------------------------------------------------------*/
  77:../../../core/ST/Middlewares/Third_Party/FreeRTOS/Source/portable/GCC/ARM_CM4F/portmacro.h **** 
  78:../../../core/ST/Middlewares/Third_Party/FreeRTOS/Source/portable/GCC/ARM_CM4F/portmacro.h **** /* Scheduler utilities. */
  79:../../../core/ST/Middlewares/Third_Party/FreeRTOS/Source/portable/GCC/ARM_CM4F/portmacro.h **** #define portYIELD() 															\
  80:../../../core/ST/Middlewares/Third_Party/FreeRTOS/Source/portable/GCC/ARM_CM4F/portmacro.h **** {																				\
  81:../../../core/ST/Middlewares/Third_Party/FreeRTOS/Source/portable/GCC/ARM_CM4F/portmacro.h **** 	/* Set a PendSV to request a context switch. */								\
  82:../../../core/ST/Middlewares/Third_Party/FreeRTOS/Source/portable/GCC/ARM_CM4F/portmacro.h **** 	portNVIC_INT_CTRL_REG = portNVIC_PENDSVSET_BIT;								\
  83:../../../core/ST/Middlewares/Third_Party/FreeRTOS/Source/portable/GCC/ARM_CM4F/portmacro.h **** 																				\
  84:../../../core/ST/Middlewares/Third_Party/FreeRTOS/Source/portable/GCC/ARM_CM4F/portmacro.h **** 	/* Barriers are normally not required but do ensure the code is completely	\
  85:../../../core/ST/Middlewares/Third_Party/FreeRTOS/Source/portable/GCC/ARM_CM4F/portmacro.h **** 	within the specified behaviour for the architecture. */						\
  86:../../../core/ST/Middlewares/Third_Party/FreeRTOS/Source/portable/GCC/ARM_CM4F/portmacro.h **** 	__asm volatile( "dsb" ::: "memory" );										\
  87:../../../core/ST/Middlewares/Third_Party/FreeRTOS/Source/portable/GCC/ARM_CM4F/portmacro.h **** 	__asm volatile( "isb" );													\
  88:../../../core/ST/Middlewares/Third_Party/FreeRTOS/Source/portable/GCC/ARM_CM4F/portmacro.h **** }
  89:../../../core/ST/Middlewares/Third_Party/FreeRTOS/Source/portable/GCC/ARM_CM4F/portmacro.h **** 
  90:../../../core/ST/Middlewares/Third_Party/FreeRTOS/Source/portable/GCC/ARM_CM4F/portmacro.h **** #define portNVIC_INT_CTRL_REG		( * ( ( volatile uint32_t * ) 0xe000ed04 ) )
  91:../../../core/ST/Middlewares/Third_Party/FreeRTOS/Source/portable/GCC/ARM_CM4F/portmacro.h **** #define portNVIC_PENDSVSET_BIT		( 1UL << 28UL )
  92:../../../core/ST/Middlewares/Third_Party/FreeRTOS/Source/portable/GCC/ARM_CM4F/portmacro.h **** #define portEND_SWITCHING_ISR( xSwitchRequired ) if( xSwitchRequired != pdFALSE ) portYIELD()
  93:../../../core/ST/Middlewares/Third_Party/FreeRTOS/Source/portable/GCC/ARM_CM4F/portmacro.h **** #define portYIELD_FROM_ISR( x ) portEND_SWITCHING_ISR( x )
  94:../../../core/ST/Middlewares/Third_Party/FreeRTOS/Source/portable/GCC/ARM_CM4F/portmacro.h **** /*-----------------------------------------------------------*/
  95:../../../core/ST/Middlewares/Third_Party/FreeRTOS/Source/portable/GCC/ARM_CM4F/portmacro.h **** 
  96:../../../core/ST/Middlewares/Third_Party/FreeRTOS/Source/portable/GCC/ARM_CM4F/portmacro.h **** /* Critical section management. */
  97:../../../core/ST/Middlewares/Third_Party/FreeRTOS/Source/portable/GCC/ARM_CM4F/portmacro.h **** extern void vPortEnterCritical( void );
  98:../../../core/ST/Middlewares/Third_Party/FreeRTOS/Source/portable/GCC/ARM_CM4F/portmacro.h **** extern void vPortExitCritical( void );
  99:../../../core/ST/Middlewares/Third_Party/FreeRTOS/Source/portable/GCC/ARM_CM4F/portmacro.h **** #define portSET_INTERRUPT_MASK_FROM_ISR()		ulPortRaiseBASEPRI()
 100:../../../core/ST/Middlewares/Third_Party/FreeRTOS/Source/portable/GCC/ARM_CM4F/portmacro.h **** #define portCLEAR_INTERRUPT_MASK_FROM_ISR(x)	vPortSetBASEPRI(x)
 101:../../../core/ST/Middlewares/Third_Party/FreeRTOS/Source/portable/GCC/ARM_CM4F/portmacro.h **** #define portDISABLE_INTERRUPTS()				vPortRaiseBASEPRI()
 102:../../../core/ST/Middlewares/Third_Party/FreeRTOS/Source/portable/GCC/ARM_CM4F/portmacro.h **** #define portENABLE_INTERRUPTS()					vPortSetBASEPRI(0)
 103:../../../core/ST/Middlewares/Third_Party/FreeRTOS/Source/portable/GCC/ARM_CM4F/portmacro.h **** #define portENTER_CRITICAL()					vPortEnterCritical()
 104:../../../core/ST/Middlewares/Third_Party/FreeRTOS/Source/portable/GCC/ARM_CM4F/portmacro.h **** #define portEXIT_CRITICAL()						vPortExitCritical()
 105:../../../core/ST/Middlewares/Third_Party/FreeRTOS/Source/portable/GCC/ARM_CM4F/portmacro.h **** 
 106:../../../core/ST/Middlewares/Third_Party/FreeRTOS/Source/portable/GCC/ARM_CM4F/portmacro.h **** /*-----------------------------------------------------------*/
 107:../../../core/ST/Middlewares/Third_Party/FreeRTOS/Source/portable/GCC/ARM_CM4F/portmacro.h **** 
ARM GAS  C:\Users\tijsv\AppData\Local\Temp\cc6LJGIv.s 			page 58


 108:../../../core/ST/Middlewares/Third_Party/FreeRTOS/Source/portable/GCC/ARM_CM4F/portmacro.h **** /* Task function macros as described on the FreeRTOS.org WEB site.  These are
 109:../../../core/ST/Middlewares/Third_Party/FreeRTOS/Source/portable/GCC/ARM_CM4F/portmacro.h **** not necessary for to use this port.  They are defined so the common demo files
 110:../../../core/ST/Middlewares/Third_Party/FreeRTOS/Source/portable/GCC/ARM_CM4F/portmacro.h **** (which build with all the ports) will build. */
 111:../../../core/ST/Middlewares/Third_Party/FreeRTOS/Source/portable/GCC/ARM_CM4F/portmacro.h **** #define portTASK_FUNCTION_PROTO( vFunction, pvParameters ) void vFunction( void *pvParameters )
 112:../../../core/ST/Middlewares/Third_Party/FreeRTOS/Source/portable/GCC/ARM_CM4F/portmacro.h **** #define portTASK_FUNCTION( vFunction, pvParameters ) void vFunction( void *pvParameters )
 113:../../../core/ST/Middlewares/Third_Party/FreeRTOS/Source/portable/GCC/ARM_CM4F/portmacro.h **** /*-----------------------------------------------------------*/
 114:../../../core/ST/Middlewares/Third_Party/FreeRTOS/Source/portable/GCC/ARM_CM4F/portmacro.h **** 
 115:../../../core/ST/Middlewares/Third_Party/FreeRTOS/Source/portable/GCC/ARM_CM4F/portmacro.h **** /* Tickless idle/low power functionality. */
 116:../../../core/ST/Middlewares/Third_Party/FreeRTOS/Source/portable/GCC/ARM_CM4F/portmacro.h **** #ifndef portSUPPRESS_TICKS_AND_SLEEP
 117:../../../core/ST/Middlewares/Third_Party/FreeRTOS/Source/portable/GCC/ARM_CM4F/portmacro.h **** 	extern void vPortSuppressTicksAndSleep( TickType_t xExpectedIdleTime );
 118:../../../core/ST/Middlewares/Third_Party/FreeRTOS/Source/portable/GCC/ARM_CM4F/portmacro.h **** 	#define portSUPPRESS_TICKS_AND_SLEEP( xExpectedIdleTime ) vPortSuppressTicksAndSleep( xExpectedIdl
 119:../../../core/ST/Middlewares/Third_Party/FreeRTOS/Source/portable/GCC/ARM_CM4F/portmacro.h **** #endif
 120:../../../core/ST/Middlewares/Third_Party/FreeRTOS/Source/portable/GCC/ARM_CM4F/portmacro.h **** /*-----------------------------------------------------------*/
 121:../../../core/ST/Middlewares/Third_Party/FreeRTOS/Source/portable/GCC/ARM_CM4F/portmacro.h **** 
 122:../../../core/ST/Middlewares/Third_Party/FreeRTOS/Source/portable/GCC/ARM_CM4F/portmacro.h **** /* Architecture specific optimisations. */
 123:../../../core/ST/Middlewares/Third_Party/FreeRTOS/Source/portable/GCC/ARM_CM4F/portmacro.h **** #ifndef configUSE_PORT_OPTIMISED_TASK_SELECTION
 124:../../../core/ST/Middlewares/Third_Party/FreeRTOS/Source/portable/GCC/ARM_CM4F/portmacro.h **** 	#define configUSE_PORT_OPTIMISED_TASK_SELECTION 1
 125:../../../core/ST/Middlewares/Third_Party/FreeRTOS/Source/portable/GCC/ARM_CM4F/portmacro.h **** #endif
 126:../../../core/ST/Middlewares/Third_Party/FreeRTOS/Source/portable/GCC/ARM_CM4F/portmacro.h **** 
 127:../../../core/ST/Middlewares/Third_Party/FreeRTOS/Source/portable/GCC/ARM_CM4F/portmacro.h **** #if configUSE_PORT_OPTIMISED_TASK_SELECTION == 1
 128:../../../core/ST/Middlewares/Third_Party/FreeRTOS/Source/portable/GCC/ARM_CM4F/portmacro.h **** 
 129:../../../core/ST/Middlewares/Third_Party/FreeRTOS/Source/portable/GCC/ARM_CM4F/portmacro.h **** 	/* Generic helper function. */
 130:../../../core/ST/Middlewares/Third_Party/FreeRTOS/Source/portable/GCC/ARM_CM4F/portmacro.h **** 	__attribute__( ( always_inline ) ) static inline uint8_t ucPortCountLeadingZeros( uint32_t ulBitma
 131:../../../core/ST/Middlewares/Third_Party/FreeRTOS/Source/portable/GCC/ARM_CM4F/portmacro.h **** 	{
 132:../../../core/ST/Middlewares/Third_Party/FreeRTOS/Source/portable/GCC/ARM_CM4F/portmacro.h **** 	uint8_t ucReturn;
 133:../../../core/ST/Middlewares/Third_Party/FreeRTOS/Source/portable/GCC/ARM_CM4F/portmacro.h **** 
 134:../../../core/ST/Middlewares/Third_Party/FreeRTOS/Source/portable/GCC/ARM_CM4F/portmacro.h **** 		__asm volatile ( "clz %0, %1" : "=r" ( ucReturn ) : "r" ( ulBitmap ) : "memory" );
 135:../../../core/ST/Middlewares/Third_Party/FreeRTOS/Source/portable/GCC/ARM_CM4F/portmacro.h **** 		return ucReturn;
 136:../../../core/ST/Middlewares/Third_Party/FreeRTOS/Source/portable/GCC/ARM_CM4F/portmacro.h **** 	}
 137:../../../core/ST/Middlewares/Third_Party/FreeRTOS/Source/portable/GCC/ARM_CM4F/portmacro.h **** 
 138:../../../core/ST/Middlewares/Third_Party/FreeRTOS/Source/portable/GCC/ARM_CM4F/portmacro.h **** 	/* Check the configuration. */
 139:../../../core/ST/Middlewares/Third_Party/FreeRTOS/Source/portable/GCC/ARM_CM4F/portmacro.h **** 	#if( configMAX_PRIORITIES > 32 )
 140:../../../core/ST/Middlewares/Third_Party/FreeRTOS/Source/portable/GCC/ARM_CM4F/portmacro.h **** 		#error configUSE_PORT_OPTIMISED_TASK_SELECTION can only be set to 1 when configMAX_PRIORITIES is 
 141:../../../core/ST/Middlewares/Third_Party/FreeRTOS/Source/portable/GCC/ARM_CM4F/portmacro.h **** 	#endif
 142:../../../core/ST/Middlewares/Third_Party/FreeRTOS/Source/portable/GCC/ARM_CM4F/portmacro.h **** 
 143:../../../core/ST/Middlewares/Third_Party/FreeRTOS/Source/portable/GCC/ARM_CM4F/portmacro.h **** 	/* Store/clear the ready priorities in a bit map. */
 144:../../../core/ST/Middlewares/Third_Party/FreeRTOS/Source/portable/GCC/ARM_CM4F/portmacro.h **** 	#define portRECORD_READY_PRIORITY( uxPriority, uxReadyPriorities ) ( uxReadyPriorities ) |= ( 1UL 
 145:../../../core/ST/Middlewares/Third_Party/FreeRTOS/Source/portable/GCC/ARM_CM4F/portmacro.h **** 	#define portRESET_READY_PRIORITY( uxPriority, uxReadyPriorities ) ( uxReadyPriorities ) &= ~( 1UL 
 146:../../../core/ST/Middlewares/Third_Party/FreeRTOS/Source/portable/GCC/ARM_CM4F/portmacro.h **** 
 147:../../../core/ST/Middlewares/Third_Party/FreeRTOS/Source/portable/GCC/ARM_CM4F/portmacro.h **** 	/*-----------------------------------------------------------*/
 148:../../../core/ST/Middlewares/Third_Party/FreeRTOS/Source/portable/GCC/ARM_CM4F/portmacro.h **** 
 149:../../../core/ST/Middlewares/Third_Party/FreeRTOS/Source/portable/GCC/ARM_CM4F/portmacro.h **** 	#define portGET_HIGHEST_PRIORITY( uxTopPriority, uxReadyPriorities ) uxTopPriority = ( 31UL - ( ui
 150:../../../core/ST/Middlewares/Third_Party/FreeRTOS/Source/portable/GCC/ARM_CM4F/portmacro.h **** 
 151:../../../core/ST/Middlewares/Third_Party/FreeRTOS/Source/portable/GCC/ARM_CM4F/portmacro.h **** #endif /* configUSE_PORT_OPTIMISED_TASK_SELECTION */
 152:../../../core/ST/Middlewares/Third_Party/FreeRTOS/Source/portable/GCC/ARM_CM4F/portmacro.h **** 
 153:../../../core/ST/Middlewares/Third_Party/FreeRTOS/Source/portable/GCC/ARM_CM4F/portmacro.h **** /*-----------------------------------------------------------*/
 154:../../../core/ST/Middlewares/Third_Party/FreeRTOS/Source/portable/GCC/ARM_CM4F/portmacro.h **** 
 155:../../../core/ST/Middlewares/Third_Party/FreeRTOS/Source/portable/GCC/ARM_CM4F/portmacro.h **** #ifdef configASSERT
 156:../../../core/ST/Middlewares/Third_Party/FreeRTOS/Source/portable/GCC/ARM_CM4F/portmacro.h **** 	void vPortValidateInterruptPriority( void );
 157:../../../core/ST/Middlewares/Third_Party/FreeRTOS/Source/portable/GCC/ARM_CM4F/portmacro.h **** 	#define portASSERT_IF_INTERRUPT_PRIORITY_INVALID() 	vPortValidateInterruptPriority()
 158:../../../core/ST/Middlewares/Third_Party/FreeRTOS/Source/portable/GCC/ARM_CM4F/portmacro.h **** #endif
 159:../../../core/ST/Middlewares/Third_Party/FreeRTOS/Source/portable/GCC/ARM_CM4F/portmacro.h **** 
 160:../../../core/ST/Middlewares/Third_Party/FreeRTOS/Source/portable/GCC/ARM_CM4F/portmacro.h **** /* portNOP() is not required by this port. */
 161:../../../core/ST/Middlewares/Third_Party/FreeRTOS/Source/portable/GCC/ARM_CM4F/portmacro.h **** #define portNOP()
 162:../../../core/ST/Middlewares/Third_Party/FreeRTOS/Source/portable/GCC/ARM_CM4F/portmacro.h **** 
 163:../../../core/ST/Middlewares/Third_Party/FreeRTOS/Source/portable/GCC/ARM_CM4F/portmacro.h **** #define portINLINE	__inline
 164:../../../core/ST/Middlewares/Third_Party/FreeRTOS/Source/portable/GCC/ARM_CM4F/portmacro.h **** 
ARM GAS  C:\Users\tijsv\AppData\Local\Temp\cc6LJGIv.s 			page 59


 165:../../../core/ST/Middlewares/Third_Party/FreeRTOS/Source/portable/GCC/ARM_CM4F/portmacro.h **** #ifndef portFORCE_INLINE
 166:../../../core/ST/Middlewares/Third_Party/FreeRTOS/Source/portable/GCC/ARM_CM4F/portmacro.h **** 	#define portFORCE_INLINE inline __attribute__(( always_inline))
 167:../../../core/ST/Middlewares/Third_Party/FreeRTOS/Source/portable/GCC/ARM_CM4F/portmacro.h **** #endif
 168:../../../core/ST/Middlewares/Third_Party/FreeRTOS/Source/portable/GCC/ARM_CM4F/portmacro.h **** 
 169:../../../core/ST/Middlewares/Third_Party/FreeRTOS/Source/portable/GCC/ARM_CM4F/portmacro.h **** portFORCE_INLINE static BaseType_t xPortIsInsideInterrupt( void )
 170:../../../core/ST/Middlewares/Third_Party/FreeRTOS/Source/portable/GCC/ARM_CM4F/portmacro.h **** {
 171:../../../core/ST/Middlewares/Third_Party/FreeRTOS/Source/portable/GCC/ARM_CM4F/portmacro.h **** uint32_t ulCurrentInterrupt;
 172:../../../core/ST/Middlewares/Third_Party/FreeRTOS/Source/portable/GCC/ARM_CM4F/portmacro.h **** BaseType_t xReturn;
 173:../../../core/ST/Middlewares/Third_Party/FreeRTOS/Source/portable/GCC/ARM_CM4F/portmacro.h **** 
 174:../../../core/ST/Middlewares/Third_Party/FreeRTOS/Source/portable/GCC/ARM_CM4F/portmacro.h **** 	/* Obtain the number of the currently executing interrupt. */
 175:../../../core/ST/Middlewares/Third_Party/FreeRTOS/Source/portable/GCC/ARM_CM4F/portmacro.h **** 	__asm volatile( "mrs %0, ipsr" : "=r"( ulCurrentInterrupt ) :: "memory" );
 176:../../../core/ST/Middlewares/Third_Party/FreeRTOS/Source/portable/GCC/ARM_CM4F/portmacro.h **** 
 177:../../../core/ST/Middlewares/Third_Party/FreeRTOS/Source/portable/GCC/ARM_CM4F/portmacro.h **** 	if( ulCurrentInterrupt == 0 )
 178:../../../core/ST/Middlewares/Third_Party/FreeRTOS/Source/portable/GCC/ARM_CM4F/portmacro.h **** 	{
 179:../../../core/ST/Middlewares/Third_Party/FreeRTOS/Source/portable/GCC/ARM_CM4F/portmacro.h **** 		xReturn = pdFALSE;
 180:../../../core/ST/Middlewares/Third_Party/FreeRTOS/Source/portable/GCC/ARM_CM4F/portmacro.h **** 	}
 181:../../../core/ST/Middlewares/Third_Party/FreeRTOS/Source/portable/GCC/ARM_CM4F/portmacro.h **** 	else
 182:../../../core/ST/Middlewares/Third_Party/FreeRTOS/Source/portable/GCC/ARM_CM4F/portmacro.h **** 	{
 183:../../../core/ST/Middlewares/Third_Party/FreeRTOS/Source/portable/GCC/ARM_CM4F/portmacro.h **** 		xReturn = pdTRUE;
 184:../../../core/ST/Middlewares/Third_Party/FreeRTOS/Source/portable/GCC/ARM_CM4F/portmacro.h **** 	}
 185:../../../core/ST/Middlewares/Third_Party/FreeRTOS/Source/portable/GCC/ARM_CM4F/portmacro.h **** 
 186:../../../core/ST/Middlewares/Third_Party/FreeRTOS/Source/portable/GCC/ARM_CM4F/portmacro.h **** 	return xReturn;
 187:../../../core/ST/Middlewares/Third_Party/FreeRTOS/Source/portable/GCC/ARM_CM4F/portmacro.h **** }
 188:../../../core/ST/Middlewares/Third_Party/FreeRTOS/Source/portable/GCC/ARM_CM4F/portmacro.h **** 
 189:../../../core/ST/Middlewares/Third_Party/FreeRTOS/Source/portable/GCC/ARM_CM4F/portmacro.h **** /*-----------------------------------------------------------*/
 190:../../../core/ST/Middlewares/Third_Party/FreeRTOS/Source/portable/GCC/ARM_CM4F/portmacro.h **** 
 191:../../../core/ST/Middlewares/Third_Party/FreeRTOS/Source/portable/GCC/ARM_CM4F/portmacro.h **** portFORCE_INLINE static void vPortRaiseBASEPRI( void )
 192:../../../core/ST/Middlewares/Third_Party/FreeRTOS/Source/portable/GCC/ARM_CM4F/portmacro.h **** {
 193:../../../core/ST/Middlewares/Third_Party/FreeRTOS/Source/portable/GCC/ARM_CM4F/portmacro.h **** uint32_t ulNewBASEPRI;
 194:../../../core/ST/Middlewares/Third_Party/FreeRTOS/Source/portable/GCC/ARM_CM4F/portmacro.h **** 
 195:../../../core/ST/Middlewares/Third_Party/FreeRTOS/Source/portable/GCC/ARM_CM4F/portmacro.h **** 	__asm volatile
 196:../../../core/ST/Middlewares/Third_Party/FreeRTOS/Source/portable/GCC/ARM_CM4F/portmacro.h **** 	(
 197:../../../core/ST/Middlewares/Third_Party/FreeRTOS/Source/portable/GCC/ARM_CM4F/portmacro.h **** 		"	mov %0, %1												\n"	\
 198:../../../core/ST/Middlewares/Third_Party/FreeRTOS/Source/portable/GCC/ARM_CM4F/portmacro.h **** 		"	msr basepri, %0											\n" \
 199:../../../core/ST/Middlewares/Third_Party/FreeRTOS/Source/portable/GCC/ARM_CM4F/portmacro.h **** 		"	isb														\n" \
 200:../../../core/ST/Middlewares/Third_Party/FreeRTOS/Source/portable/GCC/ARM_CM4F/portmacro.h **** 		"	dsb														\n" \
 201:../../../core/ST/Middlewares/Third_Party/FreeRTOS/Source/portable/GCC/ARM_CM4F/portmacro.h **** 		:"=r" (ulNewBASEPRI) : "i" ( configMAX_SYSCALL_INTERRUPT_PRIORITY ) : "memory"
 202:../../../core/ST/Middlewares/Third_Party/FreeRTOS/Source/portable/GCC/ARM_CM4F/portmacro.h **** 	);
 203:../../../core/ST/Middlewares/Third_Party/FreeRTOS/Source/portable/GCC/ARM_CM4F/portmacro.h **** }
 204:../../../core/ST/Middlewares/Third_Party/FreeRTOS/Source/portable/GCC/ARM_CM4F/portmacro.h **** 
 205:../../../core/ST/Middlewares/Third_Party/FreeRTOS/Source/portable/GCC/ARM_CM4F/portmacro.h **** /*-----------------------------------------------------------*/
 206:../../../core/ST/Middlewares/Third_Party/FreeRTOS/Source/portable/GCC/ARM_CM4F/portmacro.h **** 
 207:../../../core/ST/Middlewares/Third_Party/FreeRTOS/Source/portable/GCC/ARM_CM4F/portmacro.h **** portFORCE_INLINE static uint32_t ulPortRaiseBASEPRI( void )
 2004              		.loc 3 207 34 view .LVU447
 2005              	.LBB11:
 208:../../../core/ST/Middlewares/Third_Party/FreeRTOS/Source/portable/GCC/ARM_CM4F/portmacro.h **** {
 209:../../../core/ST/Middlewares/Third_Party/FreeRTOS/Source/portable/GCC/ARM_CM4F/portmacro.h **** uint32_t ulOriginalBASEPRI, ulNewBASEPRI;
 2006              		.loc 3 209 1 view .LVU448
 210:../../../core/ST/Middlewares/Third_Party/FreeRTOS/Source/portable/GCC/ARM_CM4F/portmacro.h **** 
 211:../../../core/ST/Middlewares/Third_Party/FreeRTOS/Source/portable/GCC/ARM_CM4F/portmacro.h **** 	__asm volatile
 2007              		.loc 3 211 2 view .LVU449
 2008              		.syntax unified
 2009              	@ 211 "../../../core/ST/Middlewares/Third_Party/FreeRTOS/Source/portable/GCC/ARM_CM4F/portmacro.h" 
 2010 000a EFF31185 			mrs r5, basepri											
 2011 000e 4FF05003 		mov r3, #80												
 2012 0012 83F31188 		msr basepri, r3											
 2013 0016 BFF36F8F 		isb														
ARM GAS  C:\Users\tijsv\AppData\Local\Temp\cc6LJGIv.s 			page 60


 2014 001a BFF34F8F 		dsb														
 2015              	
 2016              	@ 0 "" 2
 2017              	.LVL149:
 212:../../../core/ST/Middlewares/Third_Party/FreeRTOS/Source/portable/GCC/ARM_CM4F/portmacro.h **** 	(
 213:../../../core/ST/Middlewares/Third_Party/FreeRTOS/Source/portable/GCC/ARM_CM4F/portmacro.h **** 		"	mrs %0, basepri											\n" \
 214:../../../core/ST/Middlewares/Third_Party/FreeRTOS/Source/portable/GCC/ARM_CM4F/portmacro.h **** 		"	mov %1, %2												\n"	\
 215:../../../core/ST/Middlewares/Third_Party/FreeRTOS/Source/portable/GCC/ARM_CM4F/portmacro.h **** 		"	msr basepri, %1											\n" \
 216:../../../core/ST/Middlewares/Third_Party/FreeRTOS/Source/portable/GCC/ARM_CM4F/portmacro.h **** 		"	isb														\n" \
 217:../../../core/ST/Middlewares/Third_Party/FreeRTOS/Source/portable/GCC/ARM_CM4F/portmacro.h **** 		"	dsb														\n" \
 218:../../../core/ST/Middlewares/Third_Party/FreeRTOS/Source/portable/GCC/ARM_CM4F/portmacro.h **** 		:"=r" (ulOriginalBASEPRI), "=r" (ulNewBASEPRI) : "i" ( configMAX_SYSCALL_INTERRUPT_PRIORITY ) : "
 219:../../../core/ST/Middlewares/Third_Party/FreeRTOS/Source/portable/GCC/ARM_CM4F/portmacro.h **** 	);
 220:../../../core/ST/Middlewares/Third_Party/FreeRTOS/Source/portable/GCC/ARM_CM4F/portmacro.h **** 
 221:../../../core/ST/Middlewares/Third_Party/FreeRTOS/Source/portable/GCC/ARM_CM4F/portmacro.h **** 	/* This return will not be reached but is necessary to prevent compiler
 222:../../../core/ST/Middlewares/Third_Party/FreeRTOS/Source/portable/GCC/ARM_CM4F/portmacro.h **** 	warnings. */
 223:../../../core/ST/Middlewares/Third_Party/FreeRTOS/Source/portable/GCC/ARM_CM4F/portmacro.h **** 	return ulOriginalBASEPRI;
 2018              		.loc 3 223 2 view .LVU450
 2019              		.thumb
 2020              		.syntax unified
 2021              	.L161:
 2022              		.loc 3 223 2 is_stmt 0 view .LVU451
 2023              	.LBE11:
 2024              	.LBE10:
 988:../../../core/ST/Middlewares/Third_Party/FreeRTOS/Source/CMSIS_RTOS/cmsis_os.c ****   }
 989:../../../core/ST/Middlewares/Third_Party/FreeRTOS/Source/CMSIS_RTOS/cmsis_os.c ****   else {
 990:../../../core/ST/Middlewares/Third_Party/FreeRTOS/Source/CMSIS_RTOS/cmsis_os.c ****     vPortEnterCritical();
 991:../../../core/ST/Middlewares/Third_Party/FreeRTOS/Source/CMSIS_RTOS/cmsis_os.c ****   }
 992:../../../core/ST/Middlewares/Third_Party/FreeRTOS/Source/CMSIS_RTOS/cmsis_os.c ****   
 993:../../../core/ST/Middlewares/Third_Party/FreeRTOS/Source/CMSIS_RTOS/cmsis_os.c ****   for (i = 0; i < pool_id->pool_sz; i++) {
 2025              		.loc 1 993 3 is_stmt 1 view .LVU452
 2026              		.loc 1 993 10 is_stmt 0 view .LVU453
 2027 001e 0022     		movs	r2, #0
 2028              		.loc 1 993 3 view .LVU454
 2029 0020 08E0     		b	.L162
 2030              	.LVL150:
 2031              	.L160:
 2032              		.loc 1 993 3 view .LVU455
 2033 0022 0546     		mov	r5, r0
 990:../../../core/ST/Middlewares/Third_Party/FreeRTOS/Source/CMSIS_RTOS/cmsis_os.c ****   }
 2034              		.loc 1 990 5 is_stmt 1 view .LVU456
 2035 0024 FFF7FEFF 		bl	vPortEnterCritical
 2036              	.LVL151:
 2037 0028 F9E7     		b	.L161
 2038              	.LVL152:
 2039              	.L163:
 994:../../../core/ST/Middlewares/Third_Party/FreeRTOS/Source/CMSIS_RTOS/cmsis_os.c ****     index = pool_id->currentIndex + i;
 995:../../../core/ST/Middlewares/Third_Party/FreeRTOS/Source/CMSIS_RTOS/cmsis_os.c ****     if (index >= pool_id->pool_sz) {
 996:../../../core/ST/Middlewares/Third_Party/FreeRTOS/Source/CMSIS_RTOS/cmsis_os.c ****       index = 0;
 997:../../../core/ST/Middlewares/Third_Party/FreeRTOS/Source/CMSIS_RTOS/cmsis_os.c ****     }
 998:../../../core/ST/Middlewares/Third_Party/FreeRTOS/Source/CMSIS_RTOS/cmsis_os.c ****     
 999:../../../core/ST/Middlewares/Third_Party/FreeRTOS/Source/CMSIS_RTOS/cmsis_os.c ****     if (pool_id->markers[index] == 0) {
 2040              		.loc 1 999 5 view .LVU457
 2041              		.loc 1 999 16 is_stmt 0 view .LVU458
 2042 002a 6168     		ldr	r1, [r4, #4]
 2043              		.loc 1 999 25 view .LVU459
 2044 002c C818     		adds	r0, r1, r3
 2045 002e C95C     		ldrb	r1, [r1, r3]	@ zero_extendqisi2
ARM GAS  C:\Users\tijsv\AppData\Local\Temp\cc6LJGIv.s 			page 61


 2046              		.loc 1 999 8 view .LVU460
 2047 0030 49B1     		cbz	r1, .L171
 993:../../../core/ST/Middlewares/Third_Party/FreeRTOS/Source/CMSIS_RTOS/cmsis_os.c ****     index = pool_id->currentIndex + i;
 2048              		.loc 1 993 37 is_stmt 1 discriminator 2 view .LVU461
 993:../../../core/ST/Middlewares/Third_Party/FreeRTOS/Source/CMSIS_RTOS/cmsis_os.c ****     index = pool_id->currentIndex + i;
 2049              		.loc 1 993 38 is_stmt 0 discriminator 2 view .LVU462
 2050 0032 0132     		adds	r2, r2, #1
 2051              	.LVL153:
 2052              	.L162:
 993:../../../core/ST/Middlewares/Third_Party/FreeRTOS/Source/CMSIS_RTOS/cmsis_os.c ****     index = pool_id->currentIndex + i;
 2053              		.loc 1 993 15 is_stmt 1 discriminator 1 view .LVU463
 993:../../../core/ST/Middlewares/Third_Party/FreeRTOS/Source/CMSIS_RTOS/cmsis_os.c ****     index = pool_id->currentIndex + i;
 2054              		.loc 1 993 26 is_stmt 0 discriminator 1 view .LVU464
 2055 0034 A168     		ldr	r1, [r4, #8]
 993:../../../core/ST/Middlewares/Third_Party/FreeRTOS/Source/CMSIS_RTOS/cmsis_os.c ****     index = pool_id->currentIndex + i;
 2056              		.loc 1 993 3 discriminator 1 view .LVU465
 2057 0036 9142     		cmp	r1, r2
 2058 0038 0DD9     		bls	.L172
 994:../../../core/ST/Middlewares/Third_Party/FreeRTOS/Source/CMSIS_RTOS/cmsis_os.c ****     index = pool_id->currentIndex + i;
 2059              		.loc 1 994 5 is_stmt 1 view .LVU466
 994:../../../core/ST/Middlewares/Third_Party/FreeRTOS/Source/CMSIS_RTOS/cmsis_os.c ****     index = pool_id->currentIndex + i;
 2060              		.loc 1 994 20 is_stmt 0 view .LVU467
 2061 003a 2369     		ldr	r3, [r4, #16]
 994:../../../core/ST/Middlewares/Third_Party/FreeRTOS/Source/CMSIS_RTOS/cmsis_os.c ****     index = pool_id->currentIndex + i;
 2062              		.loc 1 994 11 view .LVU468
 2063 003c 1344     		add	r3, r3, r2
 2064              	.LVL154:
 995:../../../core/ST/Middlewares/Third_Party/FreeRTOS/Source/CMSIS_RTOS/cmsis_os.c ****       index = 0;
 2065              		.loc 1 995 5 is_stmt 1 view .LVU469
 995:../../../core/ST/Middlewares/Third_Party/FreeRTOS/Source/CMSIS_RTOS/cmsis_os.c ****       index = 0;
 2066              		.loc 1 995 8 is_stmt 0 view .LVU470
 2067 003e 9942     		cmp	r1, r3
 2068 0040 F3D8     		bhi	.L163
 996:../../../core/ST/Middlewares/Third_Party/FreeRTOS/Source/CMSIS_RTOS/cmsis_os.c ****     }
 2069              		.loc 1 996 13 view .LVU471
 2070 0042 0023     		movs	r3, #0
 2071              	.LVL155:
 996:../../../core/ST/Middlewares/Third_Party/FreeRTOS/Source/CMSIS_RTOS/cmsis_os.c ****     }
 2072              		.loc 1 996 13 view .LVU472
 2073 0044 F1E7     		b	.L163
 2074              	.LVL156:
 2075              	.L171:
1000:../../../core/ST/Middlewares/Third_Party/FreeRTOS/Source/CMSIS_RTOS/cmsis_os.c ****       pool_id->markers[index] = 1;
 2076              		.loc 1 1000 7 is_stmt 1 view .LVU473
 2077              		.loc 1 1000 31 is_stmt 0 view .LVU474
 2078 0046 0122     		movs	r2, #1
 2079              	.LVL157:
 2080              		.loc 1 1000 31 view .LVU475
 2081 0048 0270     		strb	r2, [r0]
1001:../../../core/ST/Middlewares/Third_Party/FreeRTOS/Source/CMSIS_RTOS/cmsis_os.c ****       p = (void *)((uint32_t)(pool_id->pool) + (index * pool_id->item_sz));
 2082              		.loc 1 1001 7 is_stmt 1 view .LVU476
 2083              		.loc 1 1001 38 is_stmt 0 view .LVU477
 2084 004a 2268     		ldr	r2, [r4]
 2085              		.loc 1 1001 64 view .LVU478
 2086 004c E668     		ldr	r6, [r4, #12]
 2087              		.loc 1 1001 46 view .LVU479
 2088 004e 03FB0626 		mla	r6, r3, r6, r2
ARM GAS  C:\Users\tijsv\AppData\Local\Temp\cc6LJGIv.s 			page 62


 2089              	.LVL158:
1002:../../../core/ST/Middlewares/Third_Party/FreeRTOS/Source/CMSIS_RTOS/cmsis_os.c ****       pool_id->currentIndex = index;
 2090              		.loc 1 1002 7 is_stmt 1 view .LVU480
 2091              		.loc 1 1002 29 is_stmt 0 view .LVU481
 2092 0052 2361     		str	r3, [r4, #16]
1003:../../../core/ST/Middlewares/Third_Party/FreeRTOS/Source/CMSIS_RTOS/cmsis_os.c ****       break;
 2093              		.loc 1 1003 7 is_stmt 1 view .LVU482
 2094 0054 00E0     		b	.L165
 2095              	.LVL159:
 2096              	.L172:
 982:../../../core/ST/Middlewares/Third_Party/FreeRTOS/Source/CMSIS_RTOS/cmsis_os.c ****   uint32_t i;
 2097              		.loc 1 982 9 is_stmt 0 view .LVU483
 2098 0056 0026     		movs	r6, #0
 2099              	.LVL160:
 2100              	.L165:
1004:../../../core/ST/Middlewares/Third_Party/FreeRTOS/Source/CMSIS_RTOS/cmsis_os.c ****     }
1005:../../../core/ST/Middlewares/Third_Party/FreeRTOS/Source/CMSIS_RTOS/cmsis_os.c ****   }
1006:../../../core/ST/Middlewares/Third_Party/FreeRTOS/Source/CMSIS_RTOS/cmsis_os.c ****   
1007:../../../core/ST/Middlewares/Third_Party/FreeRTOS/Source/CMSIS_RTOS/cmsis_os.c ****   if (inHandlerMode()) {
 2101              		.loc 1 1007 3 is_stmt 1 view .LVU484
 2102              		.loc 1 1007 7 is_stmt 0 view .LVU485
 2103 0058 FFF7FEFF 		bl	inHandlerMode
 2104              	.LVL161:
 2105              		.loc 1 1007 6 view .LVU486
 2106 005c 18B1     		cbz	r0, .L167
1008:../../../core/ST/Middlewares/Third_Party/FreeRTOS/Source/CMSIS_RTOS/cmsis_os.c ****     portCLEAR_INTERRUPT_MASK_FROM_ISR(dummy);
 2107              		.loc 1 1008 5 is_stmt 1 view .LVU487
 2108              	.LVL162:
 2109              	.LBB12:
 2110              	.LBI12:
 224:../../../core/ST/Middlewares/Third_Party/FreeRTOS/Source/portable/GCC/ARM_CM4F/portmacro.h **** }
 225:../../../core/ST/Middlewares/Third_Party/FreeRTOS/Source/portable/GCC/ARM_CM4F/portmacro.h **** /*-----------------------------------------------------------*/
 226:../../../core/ST/Middlewares/Third_Party/FreeRTOS/Source/portable/GCC/ARM_CM4F/portmacro.h **** 
 227:../../../core/ST/Middlewares/Third_Party/FreeRTOS/Source/portable/GCC/ARM_CM4F/portmacro.h **** portFORCE_INLINE static void vPortSetBASEPRI( uint32_t ulNewMaskValue )
 2111              		.loc 3 227 30 view .LVU488
 2112              	.LBB13:
 228:../../../core/ST/Middlewares/Third_Party/FreeRTOS/Source/portable/GCC/ARM_CM4F/portmacro.h **** {
 229:../../../core/ST/Middlewares/Third_Party/FreeRTOS/Source/portable/GCC/ARM_CM4F/portmacro.h **** 	__asm volatile
 2113              		.loc 3 229 2 view .LVU489
 2114              		.syntax unified
 2115              	@ 229 "../../../core/ST/Middlewares/Third_Party/FreeRTOS/Source/portable/GCC/ARM_CM4F/portmacro.h" 
 2116 005e 85F31188 			msr basepri, r5	
 2117              	@ 0 "" 2
 2118              	.LVL163:
 2119              		.thumb
 2120              		.syntax unified
 2121              	.L159:
 2122              		.loc 3 229 2 is_stmt 0 view .LVU490
 2123              	.LBE13:
 2124              	.LBE12:
1009:../../../core/ST/Middlewares/Third_Party/FreeRTOS/Source/CMSIS_RTOS/cmsis_os.c ****   }
1010:../../../core/ST/Middlewares/Third_Party/FreeRTOS/Source/CMSIS_RTOS/cmsis_os.c ****   else {
1011:../../../core/ST/Middlewares/Third_Party/FreeRTOS/Source/CMSIS_RTOS/cmsis_os.c ****     vPortExitCritical();
1012:../../../core/ST/Middlewares/Third_Party/FreeRTOS/Source/CMSIS_RTOS/cmsis_os.c ****   }
1013:../../../core/ST/Middlewares/Third_Party/FreeRTOS/Source/CMSIS_RTOS/cmsis_os.c ****   
1014:../../../core/ST/Middlewares/Third_Party/FreeRTOS/Source/CMSIS_RTOS/cmsis_os.c ****   return p;
1015:../../../core/ST/Middlewares/Third_Party/FreeRTOS/Source/CMSIS_RTOS/cmsis_os.c **** }
ARM GAS  C:\Users\tijsv\AppData\Local\Temp\cc6LJGIv.s 			page 63


 2125              		.loc 1 1015 1 view .LVU491
 2126 0062 3046     		mov	r0, r6
 2127 0064 70BD     		pop	{r4, r5, r6, pc}
 2128              	.LVL164:
 2129              	.L167:
1011:../../../core/ST/Middlewares/Third_Party/FreeRTOS/Source/CMSIS_RTOS/cmsis_os.c ****   }
 2130              		.loc 1 1011 5 is_stmt 1 view .LVU492
 2131 0066 FFF7FEFF 		bl	vPortExitCritical
 2132              	.LVL165:
1014:../../../core/ST/Middlewares/Third_Party/FreeRTOS/Source/CMSIS_RTOS/cmsis_os.c **** }
 2133              		.loc 1 1014 3 view .LVU493
1014:../../../core/ST/Middlewares/Third_Party/FreeRTOS/Source/CMSIS_RTOS/cmsis_os.c **** }
 2134              		.loc 1 1014 10 is_stmt 0 view .LVU494
 2135 006a FAE7     		b	.L159
 2136              		.cfi_endproc
 2137              	.LFE58:
 2139              		.section	.text.osPoolCAlloc,"ax",%progbits
 2140              		.align	1
 2141              		.global	osPoolCAlloc
 2142              		.syntax unified
 2143              		.thumb
 2144              		.thumb_func
 2145              		.fpu fpv4-sp-d16
 2147              	osPoolCAlloc:
 2148              	.LVL166:
 2149              	.LFB59:
1016:../../../core/ST/Middlewares/Third_Party/FreeRTOS/Source/CMSIS_RTOS/cmsis_os.c **** 
1017:../../../core/ST/Middlewares/Third_Party/FreeRTOS/Source/CMSIS_RTOS/cmsis_os.c **** /**
1018:../../../core/ST/Middlewares/Third_Party/FreeRTOS/Source/CMSIS_RTOS/cmsis_os.c **** * @brief Allocate a memory block from a memory pool and set memory block to zero
1019:../../../core/ST/Middlewares/Third_Party/FreeRTOS/Source/CMSIS_RTOS/cmsis_os.c **** * @param  pool_id       memory pool ID obtain referenced with \ref osPoolCreate.
1020:../../../core/ST/Middlewares/Third_Party/FreeRTOS/Source/CMSIS_RTOS/cmsis_os.c **** * @retval  address of the allocated memory block or NULL in case of no memory available.
1021:../../../core/ST/Middlewares/Third_Party/FreeRTOS/Source/CMSIS_RTOS/cmsis_os.c **** * @note   MUST REMAIN UNCHANGED: \b osPoolCAlloc shall be consistent in every CMSIS-RTOS.
1022:../../../core/ST/Middlewares/Third_Party/FreeRTOS/Source/CMSIS_RTOS/cmsis_os.c **** */
1023:../../../core/ST/Middlewares/Third_Party/FreeRTOS/Source/CMSIS_RTOS/cmsis_os.c **** void *osPoolCAlloc (osPoolId pool_id)
1024:../../../core/ST/Middlewares/Third_Party/FreeRTOS/Source/CMSIS_RTOS/cmsis_os.c **** {
 2150              		.loc 1 1024 1 is_stmt 1 view -0
 2151              		.cfi_startproc
 2152              		@ args = 0, pretend = 0, frame = 0
 2153              		@ frame_needed = 0, uses_anonymous_args = 0
 2154              		.loc 1 1024 1 is_stmt 0 view .LVU496
 2155 0000 08B5     		push	{r3, lr}
 2156              	.LCFI57:
 2157              		.cfi_def_cfa_offset 8
 2158              		.cfi_offset 3, -8
 2159              		.cfi_offset 14, -4
1025:../../../core/ST/Middlewares/Third_Party/FreeRTOS/Source/CMSIS_RTOS/cmsis_os.c ****   void *p = osPoolAlloc(pool_id);
 2160              		.loc 1 1025 3 is_stmt 1 view .LVU497
 2161              		.loc 1 1025 13 is_stmt 0 view .LVU498
 2162 0002 FFF7FEFF 		bl	osPoolAlloc
 2163              	.LVL167:
1026:../../../core/ST/Middlewares/Third_Party/FreeRTOS/Source/CMSIS_RTOS/cmsis_os.c ****   
1027:../../../core/ST/Middlewares/Third_Party/FreeRTOS/Source/CMSIS_RTOS/cmsis_os.c ****   if (p != NULL)
 2164              		.loc 1 1027 3 is_stmt 1 view .LVU499
 2165              		.loc 1 1027 6 is_stmt 0 view .LVU500
 2166 0006 08B1     		cbz	r0, .L173
1028:../../../core/ST/Middlewares/Third_Party/FreeRTOS/Source/CMSIS_RTOS/cmsis_os.c ****   {
1029:../../../core/ST/Middlewares/Third_Party/FreeRTOS/Source/CMSIS_RTOS/cmsis_os.c ****     memset(p, 0, sizeof(pool_id->pool_sz));
ARM GAS  C:\Users\tijsv\AppData\Local\Temp\cc6LJGIv.s 			page 64


 2167              		.loc 1 1029 5 is_stmt 1 view .LVU501
 2168 0008 0023     		movs	r3, #0
 2169 000a 0360     		str	r3, [r0]	@ unaligned
1030:../../../core/ST/Middlewares/Third_Party/FreeRTOS/Source/CMSIS_RTOS/cmsis_os.c ****   }
1031:../../../core/ST/Middlewares/Third_Party/FreeRTOS/Source/CMSIS_RTOS/cmsis_os.c ****   
1032:../../../core/ST/Middlewares/Third_Party/FreeRTOS/Source/CMSIS_RTOS/cmsis_os.c ****   return p;
 2170              		.loc 1 1032 3 view .LVU502
 2171              	.L173:
1033:../../../core/ST/Middlewares/Third_Party/FreeRTOS/Source/CMSIS_RTOS/cmsis_os.c **** }
 2172              		.loc 1 1033 1 is_stmt 0 view .LVU503
 2173 000c 08BD     		pop	{r3, pc}
 2174              		.cfi_endproc
 2175              	.LFE59:
 2177              		.section	.text.osPoolFree,"ax",%progbits
 2178              		.align	1
 2179              		.global	osPoolFree
 2180              		.syntax unified
 2181              		.thumb
 2182              		.thumb_func
 2183              		.fpu fpv4-sp-d16
 2185              	osPoolFree:
 2186              	.LVL168:
 2187              	.LFB60:
1034:../../../core/ST/Middlewares/Third_Party/FreeRTOS/Source/CMSIS_RTOS/cmsis_os.c **** 
1035:../../../core/ST/Middlewares/Third_Party/FreeRTOS/Source/CMSIS_RTOS/cmsis_os.c **** /**
1036:../../../core/ST/Middlewares/Third_Party/FreeRTOS/Source/CMSIS_RTOS/cmsis_os.c **** * @brief Return an allocated memory block back to a specific memory pool
1037:../../../core/ST/Middlewares/Third_Party/FreeRTOS/Source/CMSIS_RTOS/cmsis_os.c **** * @param  pool_id       memory pool ID obtain referenced with \ref osPoolCreate.
1038:../../../core/ST/Middlewares/Third_Party/FreeRTOS/Source/CMSIS_RTOS/cmsis_os.c **** * @param  block         address of the allocated memory block that is returned to the memory pool.
1039:../../../core/ST/Middlewares/Third_Party/FreeRTOS/Source/CMSIS_RTOS/cmsis_os.c **** * @retval  status code that indicates the execution status of the function.
1040:../../../core/ST/Middlewares/Third_Party/FreeRTOS/Source/CMSIS_RTOS/cmsis_os.c **** * @note   MUST REMAIN UNCHANGED: \b osPoolFree shall be consistent in every CMSIS-RTOS.
1041:../../../core/ST/Middlewares/Third_Party/FreeRTOS/Source/CMSIS_RTOS/cmsis_os.c **** */
1042:../../../core/ST/Middlewares/Third_Party/FreeRTOS/Source/CMSIS_RTOS/cmsis_os.c **** osStatus osPoolFree (osPoolId pool_id, void *block)
1043:../../../core/ST/Middlewares/Third_Party/FreeRTOS/Source/CMSIS_RTOS/cmsis_os.c **** {
 2188              		.loc 1 1043 1 is_stmt 1 view -0
 2189              		.cfi_startproc
 2190              		@ args = 0, pretend = 0, frame = 0
 2191              		@ frame_needed = 0, uses_anonymous_args = 0
 2192              		@ link register save eliminated.
1044:../../../core/ST/Middlewares/Third_Party/FreeRTOS/Source/CMSIS_RTOS/cmsis_os.c ****   uint32_t index;
 2193              		.loc 1 1044 3 view .LVU505
1045:../../../core/ST/Middlewares/Third_Party/FreeRTOS/Source/CMSIS_RTOS/cmsis_os.c ****   
1046:../../../core/ST/Middlewares/Third_Party/FreeRTOS/Source/CMSIS_RTOS/cmsis_os.c ****   if (pool_id == NULL) {
 2194              		.loc 1 1046 3 view .LVU506
 2195              		.loc 1 1046 6 is_stmt 0 view .LVU507
 2196 0000 0346     		mov	r3, r0
 2197 0002 98B1     		cbz	r0, .L178
1047:../../../core/ST/Middlewares/Third_Party/FreeRTOS/Source/CMSIS_RTOS/cmsis_os.c ****     return osErrorParameter;
1048:../../../core/ST/Middlewares/Third_Party/FreeRTOS/Source/CMSIS_RTOS/cmsis_os.c ****   }
1049:../../../core/ST/Middlewares/Third_Party/FreeRTOS/Source/CMSIS_RTOS/cmsis_os.c ****   
1050:../../../core/ST/Middlewares/Third_Party/FreeRTOS/Source/CMSIS_RTOS/cmsis_os.c ****   if (block == NULL) {
 2198              		.loc 1 1050 3 is_stmt 1 view .LVU508
 2199              		.loc 1 1050 6 is_stmt 0 view .LVU509
 2200 0004 A1B1     		cbz	r1, .L179
1051:../../../core/ST/Middlewares/Third_Party/FreeRTOS/Source/CMSIS_RTOS/cmsis_os.c ****     return osErrorParameter;
1052:../../../core/ST/Middlewares/Third_Party/FreeRTOS/Source/CMSIS_RTOS/cmsis_os.c ****   }
1053:../../../core/ST/Middlewares/Third_Party/FreeRTOS/Source/CMSIS_RTOS/cmsis_os.c ****   
1054:../../../core/ST/Middlewares/Third_Party/FreeRTOS/Source/CMSIS_RTOS/cmsis_os.c ****   if (block < pool_id->pool) {
ARM GAS  C:\Users\tijsv\AppData\Local\Temp\cc6LJGIv.s 			page 65


 2201              		.loc 1 1054 3 is_stmt 1 view .LVU510
 2202              		.loc 1 1054 22 is_stmt 0 view .LVU511
 2203 0006 0268     		ldr	r2, [r0]
 2204              		.loc 1 1054 6 view .LVU512
 2205 0008 8A42     		cmp	r2, r1
 2206 000a 13D8     		bhi	.L180
1055:../../../core/ST/Middlewares/Third_Party/FreeRTOS/Source/CMSIS_RTOS/cmsis_os.c ****     return osErrorParameter;
1056:../../../core/ST/Middlewares/Third_Party/FreeRTOS/Source/CMSIS_RTOS/cmsis_os.c ****   }
1057:../../../core/ST/Middlewares/Third_Party/FreeRTOS/Source/CMSIS_RTOS/cmsis_os.c ****   
1058:../../../core/ST/Middlewares/Third_Party/FreeRTOS/Source/CMSIS_RTOS/cmsis_os.c ****   index = (uint32_t)block - (uint32_t)(pool_id->pool);
 2207              		.loc 1 1058 3 is_stmt 1 view .LVU513
 2208              		.loc 1 1058 9 is_stmt 0 view .LVU514
 2209 000c 891A     		subs	r1, r1, r2
 2210              	.LVL169:
1059:../../../core/ST/Middlewares/Third_Party/FreeRTOS/Source/CMSIS_RTOS/cmsis_os.c ****   if (index % pool_id->item_sz) {
 2211              		.loc 1 1059 3 is_stmt 1 view .LVU515
 2212              		.loc 1 1059 22 is_stmt 0 view .LVU516
 2213 000e C268     		ldr	r2, [r0, #12]
 2214              		.loc 1 1059 13 view .LVU517
 2215 0010 B1FBF2F0 		udiv	r0, r1, r2
 2216              	.LVL170:
 2217              		.loc 1 1059 13 view .LVU518
 2218 0014 02FB1010 		mls	r0, r2, r0, r1
 2219              		.loc 1 1059 6 view .LVU519
 2220 0018 70B9     		cbnz	r0, .L181
1060:../../../core/ST/Middlewares/Third_Party/FreeRTOS/Source/CMSIS_RTOS/cmsis_os.c ****     return osErrorParameter;
1061:../../../core/ST/Middlewares/Third_Party/FreeRTOS/Source/CMSIS_RTOS/cmsis_os.c ****   }
1062:../../../core/ST/Middlewares/Third_Party/FreeRTOS/Source/CMSIS_RTOS/cmsis_os.c ****   index = index / pool_id->item_sz;
 2221              		.loc 1 1062 3 is_stmt 1 view .LVU520
 2222              		.loc 1 1062 9 is_stmt 0 view .LVU521
 2223 001a B1FBF2F1 		udiv	r1, r1, r2
 2224              	.LVL171:
1063:../../../core/ST/Middlewares/Third_Party/FreeRTOS/Source/CMSIS_RTOS/cmsis_os.c ****   if (index >= pool_id->pool_sz) {
 2225              		.loc 1 1063 3 is_stmt 1 view .LVU522
 2226              		.loc 1 1063 23 is_stmt 0 view .LVU523
 2227 001e 9A68     		ldr	r2, [r3, #8]
 2228              		.loc 1 1063 6 view .LVU524
 2229 0020 8A42     		cmp	r2, r1
 2230 0022 0BD9     		bls	.L182
1064:../../../core/ST/Middlewares/Third_Party/FreeRTOS/Source/CMSIS_RTOS/cmsis_os.c ****     return osErrorParameter;
1065:../../../core/ST/Middlewares/Third_Party/FreeRTOS/Source/CMSIS_RTOS/cmsis_os.c ****   }
1066:../../../core/ST/Middlewares/Third_Party/FreeRTOS/Source/CMSIS_RTOS/cmsis_os.c ****   
1067:../../../core/ST/Middlewares/Third_Party/FreeRTOS/Source/CMSIS_RTOS/cmsis_os.c ****   pool_id->markers[index] = 0;
 2231              		.loc 1 1067 3 is_stmt 1 view .LVU525
 2232              		.loc 1 1067 10 is_stmt 0 view .LVU526
 2233 0024 5B68     		ldr	r3, [r3, #4]
 2234              	.LVL172:
 2235              		.loc 1 1067 27 view .LVU527
 2236 0026 0022     		movs	r2, #0
 2237 0028 5A54     		strb	r2, [r3, r1]
1068:../../../core/ST/Middlewares/Third_Party/FreeRTOS/Source/CMSIS_RTOS/cmsis_os.c ****   
1069:../../../core/ST/Middlewares/Third_Party/FreeRTOS/Source/CMSIS_RTOS/cmsis_os.c ****   return osOK;
 2238              		.loc 1 1069 3 is_stmt 1 view .LVU528
 2239              		.loc 1 1069 10 is_stmt 0 view .LVU529
 2240 002a 7047     		bx	lr
 2241              	.LVL173:
 2242              	.L178:
ARM GAS  C:\Users\tijsv\AppData\Local\Temp\cc6LJGIv.s 			page 66


1047:../../../core/ST/Middlewares/Third_Party/FreeRTOS/Source/CMSIS_RTOS/cmsis_os.c ****   }
 2243              		.loc 1 1047 12 view .LVU530
 2244 002c 8020     		movs	r0, #128
 2245              	.LVL174:
1047:../../../core/ST/Middlewares/Third_Party/FreeRTOS/Source/CMSIS_RTOS/cmsis_os.c ****   }
 2246              		.loc 1 1047 12 view .LVU531
 2247 002e 7047     		bx	lr
 2248              	.LVL175:
 2249              	.L179:
1051:../../../core/ST/Middlewares/Third_Party/FreeRTOS/Source/CMSIS_RTOS/cmsis_os.c ****   }
 2250              		.loc 1 1051 12 view .LVU532
 2251 0030 8020     		movs	r0, #128
 2252              	.LVL176:
1051:../../../core/ST/Middlewares/Third_Party/FreeRTOS/Source/CMSIS_RTOS/cmsis_os.c ****   }
 2253              		.loc 1 1051 12 view .LVU533
 2254 0032 7047     		bx	lr
 2255              	.LVL177:
 2256              	.L180:
1055:../../../core/ST/Middlewares/Third_Party/FreeRTOS/Source/CMSIS_RTOS/cmsis_os.c ****   }
 2257              		.loc 1 1055 12 view .LVU534
 2258 0034 8020     		movs	r0, #128
 2259              	.LVL178:
1055:../../../core/ST/Middlewares/Third_Party/FreeRTOS/Source/CMSIS_RTOS/cmsis_os.c ****   }
 2260              		.loc 1 1055 12 view .LVU535
 2261 0036 7047     		bx	lr
 2262              	.LVL179:
 2263              	.L181:
1060:../../../core/ST/Middlewares/Third_Party/FreeRTOS/Source/CMSIS_RTOS/cmsis_os.c ****   }
 2264              		.loc 1 1060 12 view .LVU536
 2265 0038 8020     		movs	r0, #128
 2266 003a 7047     		bx	lr
 2267              	.L182:
1064:../../../core/ST/Middlewares/Third_Party/FreeRTOS/Source/CMSIS_RTOS/cmsis_os.c ****   }
 2268              		.loc 1 1064 12 view .LVU537
 2269 003c 8020     		movs	r0, #128
1070:../../../core/ST/Middlewares/Third_Party/FreeRTOS/Source/CMSIS_RTOS/cmsis_os.c **** }
 2270              		.loc 1 1070 1 view .LVU538
 2271 003e 7047     		bx	lr
 2272              		.cfi_endproc
 2273              	.LFE60:
 2275              		.section	.text.osMessageCreate,"ax",%progbits
 2276              		.align	1
 2277              		.global	osMessageCreate
 2278              		.syntax unified
 2279              		.thumb
 2280              		.thumb_func
 2281              		.fpu fpv4-sp-d16
 2283              	osMessageCreate:
 2284              	.LVL180:
 2285              	.LFB61:
1071:../../../core/ST/Middlewares/Third_Party/FreeRTOS/Source/CMSIS_RTOS/cmsis_os.c **** 
1072:../../../core/ST/Middlewares/Third_Party/FreeRTOS/Source/CMSIS_RTOS/cmsis_os.c **** 
1073:../../../core/ST/Middlewares/Third_Party/FreeRTOS/Source/CMSIS_RTOS/cmsis_os.c **** #endif   /* Use Memory Pool Management */
1074:../../../core/ST/Middlewares/Third_Party/FreeRTOS/Source/CMSIS_RTOS/cmsis_os.c **** 
1075:../../../core/ST/Middlewares/Third_Party/FreeRTOS/Source/CMSIS_RTOS/cmsis_os.c **** /*******************   Message Queue Management Functions  *********************/
1076:../../../core/ST/Middlewares/Third_Party/FreeRTOS/Source/CMSIS_RTOS/cmsis_os.c **** 
1077:../../../core/ST/Middlewares/Third_Party/FreeRTOS/Source/CMSIS_RTOS/cmsis_os.c **** #if (defined (osFeature_MessageQ)  &&  (osFeature_MessageQ != 0)) /* Use Message Queues */
ARM GAS  C:\Users\tijsv\AppData\Local\Temp\cc6LJGIv.s 			page 67


1078:../../../core/ST/Middlewares/Third_Party/FreeRTOS/Source/CMSIS_RTOS/cmsis_os.c **** 
1079:../../../core/ST/Middlewares/Third_Party/FreeRTOS/Source/CMSIS_RTOS/cmsis_os.c **** /**
1080:../../../core/ST/Middlewares/Third_Party/FreeRTOS/Source/CMSIS_RTOS/cmsis_os.c **** * @brief Create and Initialize a Message Queue
1081:../../../core/ST/Middlewares/Third_Party/FreeRTOS/Source/CMSIS_RTOS/cmsis_os.c **** * @param queue_def     queue definition referenced with \ref osMessageQ.
1082:../../../core/ST/Middlewares/Third_Party/FreeRTOS/Source/CMSIS_RTOS/cmsis_os.c **** * @param  thread_id     thread ID (obtained by \ref osThreadCreate or \ref osThreadGetId) or NULL.
1083:../../../core/ST/Middlewares/Third_Party/FreeRTOS/Source/CMSIS_RTOS/cmsis_os.c **** * @retval  message queue ID for reference by other functions or NULL in case of error.
1084:../../../core/ST/Middlewares/Third_Party/FreeRTOS/Source/CMSIS_RTOS/cmsis_os.c **** * @note   MUST REMAIN UNCHANGED: \b osMessageCreate shall be consistent in every CMSIS-RTOS.
1085:../../../core/ST/Middlewares/Third_Party/FreeRTOS/Source/CMSIS_RTOS/cmsis_os.c **** */
1086:../../../core/ST/Middlewares/Third_Party/FreeRTOS/Source/CMSIS_RTOS/cmsis_os.c **** osMessageQId osMessageCreate (const osMessageQDef_t *queue_def, osThreadId thread_id)
1087:../../../core/ST/Middlewares/Third_Party/FreeRTOS/Source/CMSIS_RTOS/cmsis_os.c **** {
 2286              		.loc 1 1087 1 is_stmt 1 view -0
 2287              		.cfi_startproc
 2288              		@ args = 0, pretend = 0, frame = 0
 2289              		@ frame_needed = 0, uses_anonymous_args = 0
 2290              		.loc 1 1087 1 is_stmt 0 view .LVU540
 2291 0000 08B5     		push	{r3, lr}
 2292              	.LCFI58:
 2293              		.cfi_def_cfa_offset 8
 2294              		.cfi_offset 3, -8
 2295              		.cfi_offset 14, -4
1088:../../../core/ST/Middlewares/Third_Party/FreeRTOS/Source/CMSIS_RTOS/cmsis_os.c ****   (void) thread_id;
 2296              		.loc 1 1088 3 is_stmt 1 view .LVU541
1089:../../../core/ST/Middlewares/Third_Party/FreeRTOS/Source/CMSIS_RTOS/cmsis_os.c ****   
1090:../../../core/ST/Middlewares/Third_Party/FreeRTOS/Source/CMSIS_RTOS/cmsis_os.c **** #if( configSUPPORT_STATIC_ALLOCATION == 1 ) && ( configSUPPORT_DYNAMIC_ALLOCATION == 1 )
1091:../../../core/ST/Middlewares/Third_Party/FreeRTOS/Source/CMSIS_RTOS/cmsis_os.c **** 
1092:../../../core/ST/Middlewares/Third_Party/FreeRTOS/Source/CMSIS_RTOS/cmsis_os.c ****   if ((queue_def->buffer != NULL) && (queue_def->controlblock != NULL)) {
1093:../../../core/ST/Middlewares/Third_Party/FreeRTOS/Source/CMSIS_RTOS/cmsis_os.c ****     return xQueueCreateStatic(queue_def->queue_sz, queue_def->item_sz, queue_def->buffer, queue_def
1094:../../../core/ST/Middlewares/Third_Party/FreeRTOS/Source/CMSIS_RTOS/cmsis_os.c ****   }
1095:../../../core/ST/Middlewares/Third_Party/FreeRTOS/Source/CMSIS_RTOS/cmsis_os.c ****   else {
1096:../../../core/ST/Middlewares/Third_Party/FreeRTOS/Source/CMSIS_RTOS/cmsis_os.c ****     return xQueueCreate(queue_def->queue_sz, queue_def->item_sz);
1097:../../../core/ST/Middlewares/Third_Party/FreeRTOS/Source/CMSIS_RTOS/cmsis_os.c ****   }
1098:../../../core/ST/Middlewares/Third_Party/FreeRTOS/Source/CMSIS_RTOS/cmsis_os.c **** #elif ( configSUPPORT_STATIC_ALLOCATION == 1 )
1099:../../../core/ST/Middlewares/Third_Party/FreeRTOS/Source/CMSIS_RTOS/cmsis_os.c ****   return xQueueCreateStatic(queue_def->queue_sz, queue_def->item_sz, queue_def->buffer, queue_def->
1100:../../../core/ST/Middlewares/Third_Party/FreeRTOS/Source/CMSIS_RTOS/cmsis_os.c **** #else  
1101:../../../core/ST/Middlewares/Third_Party/FreeRTOS/Source/CMSIS_RTOS/cmsis_os.c ****   return xQueueCreate(queue_def->queue_sz, queue_def->item_sz);
 2297              		.loc 1 1101 3 view .LVU542
 2298              		.loc 1 1101 10 is_stmt 0 view .LVU543
 2299 0002 0022     		movs	r2, #0
 2300 0004 4168     		ldr	r1, [r0, #4]
 2301              	.LVL181:
 2302              		.loc 1 1101 10 view .LVU544
 2303 0006 0068     		ldr	r0, [r0]
 2304              	.LVL182:
 2305              		.loc 1 1101 10 view .LVU545
 2306 0008 FFF7FEFF 		bl	xQueueGenericCreate
 2307              	.LVL183:
1102:../../../core/ST/Middlewares/Third_Party/FreeRTOS/Source/CMSIS_RTOS/cmsis_os.c **** #endif
1103:../../../core/ST/Middlewares/Third_Party/FreeRTOS/Source/CMSIS_RTOS/cmsis_os.c **** }
 2308              		.loc 1 1103 1 view .LVU546
 2309 000c 08BD     		pop	{r3, pc}
 2310              		.cfi_endproc
 2311              	.LFE61:
 2313              		.section	.text.osMessagePut,"ax",%progbits
 2314              		.align	1
 2315              		.global	osMessagePut
 2316              		.syntax unified
 2317              		.thumb
ARM GAS  C:\Users\tijsv\AppData\Local\Temp\cc6LJGIv.s 			page 68


 2318              		.thumb_func
 2319              		.fpu fpv4-sp-d16
 2321              	osMessagePut:
 2322              	.LVL184:
 2323              	.LFB62:
1104:../../../core/ST/Middlewares/Third_Party/FreeRTOS/Source/CMSIS_RTOS/cmsis_os.c **** 
1105:../../../core/ST/Middlewares/Third_Party/FreeRTOS/Source/CMSIS_RTOS/cmsis_os.c **** /**
1106:../../../core/ST/Middlewares/Third_Party/FreeRTOS/Source/CMSIS_RTOS/cmsis_os.c **** * @brief Put a Message to a Queue.
1107:../../../core/ST/Middlewares/Third_Party/FreeRTOS/Source/CMSIS_RTOS/cmsis_os.c **** * @param  queue_id  message queue ID obtained with \ref osMessageCreate.
1108:../../../core/ST/Middlewares/Third_Party/FreeRTOS/Source/CMSIS_RTOS/cmsis_os.c **** * @param  info      message information.
1109:../../../core/ST/Middlewares/Third_Party/FreeRTOS/Source/CMSIS_RTOS/cmsis_os.c **** * @param  millisec  timeout value or 0 in case of no time-out.
1110:../../../core/ST/Middlewares/Third_Party/FreeRTOS/Source/CMSIS_RTOS/cmsis_os.c **** * @retval status code that indicates the execution status of the function.
1111:../../../core/ST/Middlewares/Third_Party/FreeRTOS/Source/CMSIS_RTOS/cmsis_os.c **** * @note   MUST REMAIN UNCHANGED: \b osMessagePut shall be consistent in every CMSIS-RTOS.
1112:../../../core/ST/Middlewares/Third_Party/FreeRTOS/Source/CMSIS_RTOS/cmsis_os.c **** */
1113:../../../core/ST/Middlewares/Third_Party/FreeRTOS/Source/CMSIS_RTOS/cmsis_os.c **** osStatus osMessagePut (osMessageQId queue_id, uint32_t info, uint32_t millisec)
1114:../../../core/ST/Middlewares/Third_Party/FreeRTOS/Source/CMSIS_RTOS/cmsis_os.c **** {
 2324              		.loc 1 1114 1 is_stmt 1 view -0
 2325              		.cfi_startproc
 2326              		@ args = 0, pretend = 0, frame = 16
 2327              		@ frame_needed = 0, uses_anonymous_args = 0
 2328              		.loc 1 1114 1 is_stmt 0 view .LVU548
 2329 0000 30B5     		push	{r4, r5, lr}
 2330              	.LCFI59:
 2331              		.cfi_def_cfa_offset 12
 2332              		.cfi_offset 4, -12
 2333              		.cfi_offset 5, -8
 2334              		.cfi_offset 14, -4
 2335 0002 85B0     		sub	sp, sp, #20
 2336              	.LCFI60:
 2337              		.cfi_def_cfa_offset 32
 2338 0004 0446     		mov	r4, r0
 2339 0006 0191     		str	r1, [sp, #4]
1115:../../../core/ST/Middlewares/Third_Party/FreeRTOS/Source/CMSIS_RTOS/cmsis_os.c ****   portBASE_TYPE taskWoken = pdFALSE;
 2340              		.loc 1 1115 3 is_stmt 1 view .LVU549
 2341              		.loc 1 1115 17 is_stmt 0 view .LVU550
 2342 0008 0023     		movs	r3, #0
 2343 000a 0393     		str	r3, [sp, #12]
1116:../../../core/ST/Middlewares/Third_Party/FreeRTOS/Source/CMSIS_RTOS/cmsis_os.c ****   TickType_t ticks;
 2344              		.loc 1 1116 3 is_stmt 1 view .LVU551
1117:../../../core/ST/Middlewares/Third_Party/FreeRTOS/Source/CMSIS_RTOS/cmsis_os.c ****   
1118:../../../core/ST/Middlewares/Third_Party/FreeRTOS/Source/CMSIS_RTOS/cmsis_os.c ****   ticks = millisec / portTICK_PERIOD_MS;
 2345              		.loc 1 1118 3 view .LVU552
 2346              	.LVL185:
1119:../../../core/ST/Middlewares/Third_Party/FreeRTOS/Source/CMSIS_RTOS/cmsis_os.c ****   if (ticks == 0) {
 2347              		.loc 1 1119 3 view .LVU553
 2348              		.loc 1 1119 6 is_stmt 0 view .LVU554
 2349 000c 1546     		mov	r5, r2
 2350 000e 02B9     		cbnz	r2, .L186
1120:../../../core/ST/Middlewares/Third_Party/FreeRTOS/Source/CMSIS_RTOS/cmsis_os.c ****     ticks = 1;
 2351              		.loc 1 1120 11 view .LVU555
 2352 0010 0125     		movs	r5, #1
 2353              	.L186:
 2354              	.LVL186:
1121:../../../core/ST/Middlewares/Third_Party/FreeRTOS/Source/CMSIS_RTOS/cmsis_os.c ****   }
1122:../../../core/ST/Middlewares/Third_Party/FreeRTOS/Source/CMSIS_RTOS/cmsis_os.c ****   
1123:../../../core/ST/Middlewares/Third_Party/FreeRTOS/Source/CMSIS_RTOS/cmsis_os.c ****   if (inHandlerMode()) {
 2355              		.loc 1 1123 3 is_stmt 1 view .LVU556
ARM GAS  C:\Users\tijsv\AppData\Local\Temp\cc6LJGIv.s 			page 69


 2356              		.loc 1 1123 7 is_stmt 0 view .LVU557
 2357 0012 FFF7FEFF 		bl	inHandlerMode
 2358              	.LVL187:
 2359              		.loc 1 1123 6 view .LVU558
 2360 0016 98B1     		cbz	r0, .L187
1124:../../../core/ST/Middlewares/Third_Party/FreeRTOS/Source/CMSIS_RTOS/cmsis_os.c ****     if (xQueueSendFromISR(queue_id, &info, &taskWoken) != pdTRUE) {
 2361              		.loc 1 1124 5 is_stmt 1 view .LVU559
 2362              		.loc 1 1124 9 is_stmt 0 view .LVU560
 2363 0018 0023     		movs	r3, #0
 2364 001a 03AA     		add	r2, sp, #12
 2365 001c 01A9     		add	r1, sp, #4
 2366 001e 2046     		mov	r0, r4
 2367 0020 FFF7FEFF 		bl	xQueueGenericSendFromISR
 2368              	.LVL188:
 2369              		.loc 1 1124 8 view .LVU561
 2370 0024 0128     		cmp	r0, #1
 2371 0026 16D1     		bne	.L190
1125:../../../core/ST/Middlewares/Third_Party/FreeRTOS/Source/CMSIS_RTOS/cmsis_os.c ****       return osErrorOS;
1126:../../../core/ST/Middlewares/Third_Party/FreeRTOS/Source/CMSIS_RTOS/cmsis_os.c ****     }
1127:../../../core/ST/Middlewares/Third_Party/FreeRTOS/Source/CMSIS_RTOS/cmsis_os.c ****     portEND_SWITCHING_ISR(taskWoken);
 2372              		.loc 1 1127 5 is_stmt 1 view .LVU562
 2373 0028 039B     		ldr	r3, [sp, #12]
 2374 002a B3B1     		cbz	r3, .L191
 2375              		.loc 1 1127 5 discriminator 1 view .LVU563
 2376 002c 0D4B     		ldr	r3, .L194
 2377 002e 4FF08052 		mov	r2, #268435456
 2378 0032 1A60     		str	r2, [r3]
 2379              		.loc 1 1127 5 discriminator 1 view .LVU564
 2380              		.syntax unified
 2381              	@ 1127 "../../../core/ST/Middlewares/Third_Party/FreeRTOS/Source/CMSIS_RTOS/cmsis_os.c" 1
 2382 0034 BFF34F8F 		dsb
 2383              	@ 0 "" 2
 2384              		.loc 1 1127 5 discriminator 1 view .LVU565
 2385              	@ 1127 "../../../core/ST/Middlewares/Third_Party/FreeRTOS/Source/CMSIS_RTOS/cmsis_os.c" 1
 2386 0038 BFF36F8F 		isb
 2387              	@ 0 "" 2
1128:../../../core/ST/Middlewares/Third_Party/FreeRTOS/Source/CMSIS_RTOS/cmsis_os.c ****   }
1129:../../../core/ST/Middlewares/Third_Party/FreeRTOS/Source/CMSIS_RTOS/cmsis_os.c ****   else {
1130:../../../core/ST/Middlewares/Third_Party/FreeRTOS/Source/CMSIS_RTOS/cmsis_os.c ****     if (xQueueSend(queue_id, &info, ticks) != pdTRUE) {
1131:../../../core/ST/Middlewares/Third_Party/FreeRTOS/Source/CMSIS_RTOS/cmsis_os.c ****       return osErrorOS;
1132:../../../core/ST/Middlewares/Third_Party/FreeRTOS/Source/CMSIS_RTOS/cmsis_os.c ****     }
1133:../../../core/ST/Middlewares/Third_Party/FreeRTOS/Source/CMSIS_RTOS/cmsis_os.c ****   }
1134:../../../core/ST/Middlewares/Third_Party/FreeRTOS/Source/CMSIS_RTOS/cmsis_os.c ****   
1135:../../../core/ST/Middlewares/Third_Party/FreeRTOS/Source/CMSIS_RTOS/cmsis_os.c ****   return osOK;
 2388              		.loc 1 1135 10 is_stmt 0 discriminator 1 view .LVU566
 2389              		.thumb
 2390              		.syntax unified
 2391 003c 0020     		movs	r0, #0
 2392 003e 08E0     		b	.L185
 2393              	.L187:
1130:../../../core/ST/Middlewares/Third_Party/FreeRTOS/Source/CMSIS_RTOS/cmsis_os.c ****       return osErrorOS;
 2394              		.loc 1 1130 5 is_stmt 1 view .LVU567
1130:../../../core/ST/Middlewares/Third_Party/FreeRTOS/Source/CMSIS_RTOS/cmsis_os.c ****       return osErrorOS;
 2395              		.loc 1 1130 9 is_stmt 0 view .LVU568
 2396 0040 0023     		movs	r3, #0
 2397 0042 2A46     		mov	r2, r5
 2398 0044 01A9     		add	r1, sp, #4
ARM GAS  C:\Users\tijsv\AppData\Local\Temp\cc6LJGIv.s 			page 70


 2399 0046 2046     		mov	r0, r4
 2400 0048 FFF7FEFF 		bl	xQueueGenericSend
 2401              	.LVL189:
1130:../../../core/ST/Middlewares/Third_Party/FreeRTOS/Source/CMSIS_RTOS/cmsis_os.c ****       return osErrorOS;
 2402              		.loc 1 1130 8 view .LVU569
 2403 004c 0128     		cmp	r0, #1
 2404 004e 06D1     		bne	.L192
 2405              		.loc 1 1135 10 view .LVU570
 2406 0050 0020     		movs	r0, #0
 2407              	.L185:
1136:../../../core/ST/Middlewares/Third_Party/FreeRTOS/Source/CMSIS_RTOS/cmsis_os.c **** }
 2408              		.loc 1 1136 1 view .LVU571
 2409 0052 05B0     		add	sp, sp, #20
 2410              	.LCFI61:
 2411              		.cfi_remember_state
 2412              		.cfi_def_cfa_offset 12
 2413              		@ sp needed
 2414 0054 30BD     		pop	{r4, r5, pc}
 2415              	.LVL190:
 2416              	.L190:
 2417              	.LCFI62:
 2418              		.cfi_restore_state
1125:../../../core/ST/Middlewares/Third_Party/FreeRTOS/Source/CMSIS_RTOS/cmsis_os.c ****     }
 2419              		.loc 1 1125 14 view .LVU572
 2420 0056 FF20     		movs	r0, #255
 2421 0058 FBE7     		b	.L185
 2422              	.L191:
1135:../../../core/ST/Middlewares/Third_Party/FreeRTOS/Source/CMSIS_RTOS/cmsis_os.c **** }
 2423              		.loc 1 1135 10 view .LVU573
 2424 005a 0020     		movs	r0, #0
 2425 005c F9E7     		b	.L185
 2426              	.L192:
1131:../../../core/ST/Middlewares/Third_Party/FreeRTOS/Source/CMSIS_RTOS/cmsis_os.c ****     }
 2427              		.loc 1 1131 14 view .LVU574
 2428 005e FF20     		movs	r0, #255
 2429 0060 F7E7     		b	.L185
 2430              	.L195:
 2431 0062 00BF     		.align	2
 2432              	.L194:
 2433 0064 04ED00E0 		.word	-536810236
 2434              		.cfi_endproc
 2435              	.LFE62:
 2437              		.section	.text.osMessageGet,"ax",%progbits
 2438              		.align	1
 2439              		.global	osMessageGet
 2440              		.syntax unified
 2441              		.thumb
 2442              		.thumb_func
 2443              		.fpu fpv4-sp-d16
 2445              	osMessageGet:
 2446              	.LVL191:
 2447              	.LFB63:
1137:../../../core/ST/Middlewares/Third_Party/FreeRTOS/Source/CMSIS_RTOS/cmsis_os.c **** 
1138:../../../core/ST/Middlewares/Third_Party/FreeRTOS/Source/CMSIS_RTOS/cmsis_os.c **** /**
1139:../../../core/ST/Middlewares/Third_Party/FreeRTOS/Source/CMSIS_RTOS/cmsis_os.c **** * @brief Get a Message or Wait for a Message from a Queue.
1140:../../../core/ST/Middlewares/Third_Party/FreeRTOS/Source/CMSIS_RTOS/cmsis_os.c **** * @param  queue_id  message queue ID obtained with \ref osMessageCreate.
1141:../../../core/ST/Middlewares/Third_Party/FreeRTOS/Source/CMSIS_RTOS/cmsis_os.c **** * @param  millisec  timeout value or 0 in case of no time-out.
ARM GAS  C:\Users\tijsv\AppData\Local\Temp\cc6LJGIv.s 			page 71


1142:../../../core/ST/Middlewares/Third_Party/FreeRTOS/Source/CMSIS_RTOS/cmsis_os.c **** * @retval event information that includes status code.
1143:../../../core/ST/Middlewares/Third_Party/FreeRTOS/Source/CMSIS_RTOS/cmsis_os.c **** * @note   MUST REMAIN UNCHANGED: \b osMessageGet shall be consistent in every CMSIS-RTOS.
1144:../../../core/ST/Middlewares/Third_Party/FreeRTOS/Source/CMSIS_RTOS/cmsis_os.c **** */
1145:../../../core/ST/Middlewares/Third_Party/FreeRTOS/Source/CMSIS_RTOS/cmsis_os.c **** osEvent osMessageGet (osMessageQId queue_id, uint32_t millisec)
1146:../../../core/ST/Middlewares/Third_Party/FreeRTOS/Source/CMSIS_RTOS/cmsis_os.c **** {
 2448              		.loc 1 1146 1 is_stmt 1 view -0
 2449              		.cfi_startproc
 2450              		@ args = 0, pretend = 0, frame = 16
 2451              		@ frame_needed = 0, uses_anonymous_args = 0
 2452              		.loc 1 1146 1 is_stmt 0 view .LVU576
 2453 0000 70B5     		push	{r4, r5, r6, lr}
 2454              	.LCFI63:
 2455              		.cfi_def_cfa_offset 16
 2456              		.cfi_offset 4, -16
 2457              		.cfi_offset 5, -12
 2458              		.cfi_offset 6, -8
 2459              		.cfi_offset 14, -4
 2460 0002 84B0     		sub	sp, sp, #16
 2461              	.LCFI64:
 2462              		.cfi_def_cfa_offset 32
 2463 0004 0446     		mov	r4, r0
1147:../../../core/ST/Middlewares/Third_Party/FreeRTOS/Source/CMSIS_RTOS/cmsis_os.c ****   portBASE_TYPE taskWoken;
 2464              		.loc 1 1147 3 is_stmt 1 view .LVU577
1148:../../../core/ST/Middlewares/Third_Party/FreeRTOS/Source/CMSIS_RTOS/cmsis_os.c ****   TickType_t ticks;
 2465              		.loc 1 1148 3 view .LVU578
1149:../../../core/ST/Middlewares/Third_Party/FreeRTOS/Source/CMSIS_RTOS/cmsis_os.c ****   osEvent event;
 2466              		.loc 1 1149 3 view .LVU579
1150:../../../core/ST/Middlewares/Third_Party/FreeRTOS/Source/CMSIS_RTOS/cmsis_os.c ****   
1151:../../../core/ST/Middlewares/Third_Party/FreeRTOS/Source/CMSIS_RTOS/cmsis_os.c ****   event.def.message_id = queue_id;
 2467              		.loc 1 1151 3 view .LVU580
 2468              		.loc 1 1151 24 is_stmt 0 view .LVU581
 2469 0006 0291     		str	r1, [sp, #8]
1152:../../../core/ST/Middlewares/Third_Party/FreeRTOS/Source/CMSIS_RTOS/cmsis_os.c ****   event.value.v = 0;
 2470              		.loc 1 1152 3 is_stmt 1 view .LVU582
 2471              		.loc 1 1152 17 is_stmt 0 view .LVU583
 2472 0008 0023     		movs	r3, #0
 2473 000a 0193     		str	r3, [sp, #4]
1153:../../../core/ST/Middlewares/Third_Party/FreeRTOS/Source/CMSIS_RTOS/cmsis_os.c ****   
1154:../../../core/ST/Middlewares/Third_Party/FreeRTOS/Source/CMSIS_RTOS/cmsis_os.c ****   if (queue_id == NULL) {
 2474              		.loc 1 1154 3 is_stmt 1 view .LVU584
 2475              		.loc 1 1154 6 is_stmt 0 view .LVU585
 2476 000c D1B1     		cbz	r1, .L207
 2477 000e 0D46     		mov	r5, r1
 2478 0010 1646     		mov	r6, r2
1155:../../../core/ST/Middlewares/Third_Party/FreeRTOS/Source/CMSIS_RTOS/cmsis_os.c ****     event.status = osErrorParameter;
1156:../../../core/ST/Middlewares/Third_Party/FreeRTOS/Source/CMSIS_RTOS/cmsis_os.c ****     return event;
1157:../../../core/ST/Middlewares/Third_Party/FreeRTOS/Source/CMSIS_RTOS/cmsis_os.c ****   }
1158:../../../core/ST/Middlewares/Third_Party/FreeRTOS/Source/CMSIS_RTOS/cmsis_os.c ****   
1159:../../../core/ST/Middlewares/Third_Party/FreeRTOS/Source/CMSIS_RTOS/cmsis_os.c ****   taskWoken = pdFALSE;
 2479              		.loc 1 1159 3 is_stmt 1 view .LVU586
 2480              		.loc 1 1159 13 is_stmt 0 view .LVU587
 2481 0012 0023     		movs	r3, #0
 2482 0014 0393     		str	r3, [sp, #12]
1160:../../../core/ST/Middlewares/Third_Party/FreeRTOS/Source/CMSIS_RTOS/cmsis_os.c ****   
1161:../../../core/ST/Middlewares/Third_Party/FreeRTOS/Source/CMSIS_RTOS/cmsis_os.c ****   ticks = 0;
 2483              		.loc 1 1161 3 is_stmt 1 view .LVU588
 2484              	.LVL192:
ARM GAS  C:\Users\tijsv\AppData\Local\Temp\cc6LJGIv.s 			page 72


1162:../../../core/ST/Middlewares/Third_Party/FreeRTOS/Source/CMSIS_RTOS/cmsis_os.c ****   if (millisec == osWaitForever) {
 2485              		.loc 1 1162 3 view .LVU589
1163:../../../core/ST/Middlewares/Third_Party/FreeRTOS/Source/CMSIS_RTOS/cmsis_os.c ****     ticks = portMAX_DELAY;
1164:../../../core/ST/Middlewares/Third_Party/FreeRTOS/Source/CMSIS_RTOS/cmsis_os.c ****   }
1165:../../../core/ST/Middlewares/Third_Party/FreeRTOS/Source/CMSIS_RTOS/cmsis_os.c ****   else if (millisec != 0) {
1166:../../../core/ST/Middlewares/Third_Party/FreeRTOS/Source/CMSIS_RTOS/cmsis_os.c ****     ticks = millisec / portTICK_PERIOD_MS;
1167:../../../core/ST/Middlewares/Third_Party/FreeRTOS/Source/CMSIS_RTOS/cmsis_os.c ****     if (ticks == 0) {
1168:../../../core/ST/Middlewares/Third_Party/FreeRTOS/Source/CMSIS_RTOS/cmsis_os.c ****       ticks = 1;
1169:../../../core/ST/Middlewares/Third_Party/FreeRTOS/Source/CMSIS_RTOS/cmsis_os.c ****     }
1170:../../../core/ST/Middlewares/Third_Party/FreeRTOS/Source/CMSIS_RTOS/cmsis_os.c ****   }
1171:../../../core/ST/Middlewares/Third_Party/FreeRTOS/Source/CMSIS_RTOS/cmsis_os.c ****   
1172:../../../core/ST/Middlewares/Third_Party/FreeRTOS/Source/CMSIS_RTOS/cmsis_os.c ****   if (inHandlerMode()) {
 2486              		.loc 1 1172 3 view .LVU590
 2487              		.loc 1 1172 7 is_stmt 0 view .LVU591
 2488 0016 FFF7FEFF 		bl	inHandlerMode
 2489              	.LVL193:
 2490              		.loc 1 1172 6 view .LVU592
 2491 001a F0B1     		cbz	r0, .L199
1173:../../../core/ST/Middlewares/Third_Party/FreeRTOS/Source/CMSIS_RTOS/cmsis_os.c ****     if (xQueueReceiveFromISR(queue_id, &event.value.v, &taskWoken) == pdTRUE) {
 2492              		.loc 1 1173 5 is_stmt 1 view .LVU593
 2493              		.loc 1 1173 9 is_stmt 0 view .LVU594
 2494 001c 03AA     		add	r2, sp, #12
 2495 001e 01A9     		add	r1, sp, #4
 2496 0020 2846     		mov	r0, r5
 2497 0022 FFF7FEFF 		bl	xQueueReceiveFromISR
 2498              	.LVL194:
 2499              		.loc 1 1173 8 view .LVU595
 2500 0026 0128     		cmp	r0, #1
 2501 0028 14D0     		beq	.L208
1174:../../../core/ST/Middlewares/Third_Party/FreeRTOS/Source/CMSIS_RTOS/cmsis_os.c ****       /* We have mail */
1175:../../../core/ST/Middlewares/Third_Party/FreeRTOS/Source/CMSIS_RTOS/cmsis_os.c ****       event.status = osEventMessage;
1176:../../../core/ST/Middlewares/Third_Party/FreeRTOS/Source/CMSIS_RTOS/cmsis_os.c ****     }
1177:../../../core/ST/Middlewares/Third_Party/FreeRTOS/Source/CMSIS_RTOS/cmsis_os.c ****     else {
1178:../../../core/ST/Middlewares/Third_Party/FreeRTOS/Source/CMSIS_RTOS/cmsis_os.c ****       event.status = osOK;
 2502              		.loc 1 1178 7 is_stmt 1 view .LVU596
 2503              		.loc 1 1178 20 is_stmt 0 view .LVU597
 2504 002a 0023     		movs	r3, #0
 2505 002c 0093     		str	r3, [sp]
 2506              	.L201:
1179:../../../core/ST/Middlewares/Third_Party/FreeRTOS/Source/CMSIS_RTOS/cmsis_os.c ****     }
1180:../../../core/ST/Middlewares/Third_Party/FreeRTOS/Source/CMSIS_RTOS/cmsis_os.c ****     portEND_SWITCHING_ISR(taskWoken);
 2507              		.loc 1 1180 5 is_stmt 1 view .LVU598
 2508 002e 039B     		ldr	r3, [sp, #12]
 2509 0030 EBB1     		cbz	r3, .L202
 2510              		.loc 1 1180 5 discriminator 1 view .LVU599
 2511 0032 144B     		ldr	r3, .L210
 2512 0034 4FF08052 		mov	r2, #268435456
 2513 0038 1A60     		str	r2, [r3]
 2514              		.loc 1 1180 5 discriminator 1 view .LVU600
 2515              		.syntax unified
 2516              	@ 1180 "../../../core/ST/Middlewares/Third_Party/FreeRTOS/Source/CMSIS_RTOS/cmsis_os.c" 1
 2517 003a BFF34F8F 		dsb
 2518              	@ 0 "" 2
 2519              		.loc 1 1180 5 discriminator 1 view .LVU601
 2520              	@ 1180 "../../../core/ST/Middlewares/Third_Party/FreeRTOS/Source/CMSIS_RTOS/cmsis_os.c" 1
 2521 003e BFF36F8F 		isb
 2522              	@ 0 "" 2
ARM GAS  C:\Users\tijsv\AppData\Local\Temp\cc6LJGIv.s 			page 73


 2523              		.thumb
 2524              		.syntax unified
 2525 0042 14E0     		b	.L202
 2526              	.LVL195:
 2527              	.L207:
1155:../../../core/ST/Middlewares/Third_Party/FreeRTOS/Source/CMSIS_RTOS/cmsis_os.c ****     return event;
 2528              		.loc 1 1155 5 view .LVU602
1155:../../../core/ST/Middlewares/Third_Party/FreeRTOS/Source/CMSIS_RTOS/cmsis_os.c ****     return event;
 2529              		.loc 1 1155 18 is_stmt 0 view .LVU603
 2530 0044 8023     		movs	r3, #128
 2531 0046 0093     		str	r3, [sp]
1156:../../../core/ST/Middlewares/Third_Party/FreeRTOS/Source/CMSIS_RTOS/cmsis_os.c ****   }
 2532              		.loc 1 1156 5 is_stmt 1 view .LVU604
1156:../../../core/ST/Middlewares/Third_Party/FreeRTOS/Source/CMSIS_RTOS/cmsis_os.c ****   }
 2533              		.loc 1 1156 12 is_stmt 0 view .LVU605
 2534 0048 6B46     		mov	r3, sp
 2535 004a 93E80700 		ldm	r3, {r0, r1, r2}
 2536              	.LVL196:
1156:../../../core/ST/Middlewares/Third_Party/FreeRTOS/Source/CMSIS_RTOS/cmsis_os.c ****   }
 2537              		.loc 1 1156 12 view .LVU606
 2538 004e 84E80700 		stm	r4, {r0, r1, r2}
 2539 0052 11E0     		b	.L196
 2540              	.LVL197:
 2541              	.L208:
1175:../../../core/ST/Middlewares/Third_Party/FreeRTOS/Source/CMSIS_RTOS/cmsis_os.c ****     }
 2542              		.loc 1 1175 7 is_stmt 1 view .LVU607
1175:../../../core/ST/Middlewares/Third_Party/FreeRTOS/Source/CMSIS_RTOS/cmsis_os.c ****     }
 2543              		.loc 1 1175 20 is_stmt 0 view .LVU608
 2544 0054 1023     		movs	r3, #16
 2545 0056 0093     		str	r3, [sp]
 2546 0058 E9E7     		b	.L201
 2547              	.L199:
1181:../../../core/ST/Middlewares/Third_Party/FreeRTOS/Source/CMSIS_RTOS/cmsis_os.c ****   }
1182:../../../core/ST/Middlewares/Third_Party/FreeRTOS/Source/CMSIS_RTOS/cmsis_os.c ****   else {
1183:../../../core/ST/Middlewares/Third_Party/FreeRTOS/Source/CMSIS_RTOS/cmsis_os.c ****     if (xQueueReceive(queue_id, &event.value.v, ticks) == pdTRUE) {
 2548              		.loc 1 1183 5 is_stmt 1 view .LVU609
 2549              		.loc 1 1183 9 is_stmt 0 view .LVU610
 2550 005a 3246     		mov	r2, r6
 2551 005c 01A9     		add	r1, sp, #4
 2552 005e 2846     		mov	r0, r5
 2553 0060 FFF7FEFF 		bl	xQueueReceive
 2554              	.LVL198:
 2555              		.loc 1 1183 8 view .LVU611
 2556 0064 0128     		cmp	r0, #1
 2557 0066 0AD0     		beq	.L209
1184:../../../core/ST/Middlewares/Third_Party/FreeRTOS/Source/CMSIS_RTOS/cmsis_os.c ****       /* We have mail */
1185:../../../core/ST/Middlewares/Third_Party/FreeRTOS/Source/CMSIS_RTOS/cmsis_os.c ****       event.status = osEventMessage;
1186:../../../core/ST/Middlewares/Third_Party/FreeRTOS/Source/CMSIS_RTOS/cmsis_os.c ****     }
1187:../../../core/ST/Middlewares/Third_Party/FreeRTOS/Source/CMSIS_RTOS/cmsis_os.c ****     else {
1188:../../../core/ST/Middlewares/Third_Party/FreeRTOS/Source/CMSIS_RTOS/cmsis_os.c ****       event.status = (ticks == 0) ? osOK : osEventTimeout;
 2558              		.loc 1 1188 7 is_stmt 1 view .LVU612
 2559              		.loc 1 1188 42 is_stmt 0 view .LVU613
 2560 0068 06B1     		cbz	r6, .L204
 2561 006a 4026     		movs	r6, #64
 2562              	.LVL199:
 2563              	.L204:
 2564              		.loc 1 1188 20 discriminator 4 view .LVU614
ARM GAS  C:\Users\tijsv\AppData\Local\Temp\cc6LJGIv.s 			page 74


 2565 006c 0096     		str	r6, [sp]
 2566              	.L202:
1189:../../../core/ST/Middlewares/Third_Party/FreeRTOS/Source/CMSIS_RTOS/cmsis_os.c ****     }
1190:../../../core/ST/Middlewares/Third_Party/FreeRTOS/Source/CMSIS_RTOS/cmsis_os.c ****   }
1191:../../../core/ST/Middlewares/Third_Party/FreeRTOS/Source/CMSIS_RTOS/cmsis_os.c ****   
1192:../../../core/ST/Middlewares/Third_Party/FreeRTOS/Source/CMSIS_RTOS/cmsis_os.c ****   return event;
 2567              		.loc 1 1192 3 is_stmt 1 view .LVU615
 2568              		.loc 1 1192 10 is_stmt 0 view .LVU616
 2569 006e 6B46     		mov	r3, sp
 2570 0070 93E80700 		ldm	r3, {r0, r1, r2}
 2571 0074 84E80700 		stm	r4, {r0, r1, r2}
 2572              	.LVL200:
 2573              	.L196:
1193:../../../core/ST/Middlewares/Third_Party/FreeRTOS/Source/CMSIS_RTOS/cmsis_os.c **** }
 2574              		.loc 1 1193 1 view .LVU617
 2575 0078 2046     		mov	r0, r4
 2576 007a 04B0     		add	sp, sp, #16
 2577              	.LCFI65:
 2578              		.cfi_remember_state
 2579              		.cfi_def_cfa_offset 16
 2580              		@ sp needed
 2581 007c 70BD     		pop	{r4, r5, r6, pc}
 2582              	.LVL201:
 2583              	.L209:
 2584              	.LCFI66:
 2585              		.cfi_restore_state
1185:../../../core/ST/Middlewares/Third_Party/FreeRTOS/Source/CMSIS_RTOS/cmsis_os.c ****     }
 2586              		.loc 1 1185 7 is_stmt 1 view .LVU618
1185:../../../core/ST/Middlewares/Third_Party/FreeRTOS/Source/CMSIS_RTOS/cmsis_os.c ****     }
 2587              		.loc 1 1185 20 is_stmt 0 view .LVU619
 2588 007e 1023     		movs	r3, #16
 2589 0080 0093     		str	r3, [sp]
 2590 0082 F4E7     		b	.L202
 2591              	.L211:
 2592              		.align	2
 2593              	.L210:
 2594 0084 04ED00E0 		.word	-536810236
 2595              		.cfi_endproc
 2596              	.LFE63:
 2598              		.section	.text.osMailCreate,"ax",%progbits
 2599              		.align	1
 2600              		.global	osMailCreate
 2601              		.syntax unified
 2602              		.thumb
 2603              		.thumb_func
 2604              		.fpu fpv4-sp-d16
 2606              	osMailCreate:
 2607              	.LVL202:
 2608              	.LFB64:
1194:../../../core/ST/Middlewares/Third_Party/FreeRTOS/Source/CMSIS_RTOS/cmsis_os.c **** 
1195:../../../core/ST/Middlewares/Third_Party/FreeRTOS/Source/CMSIS_RTOS/cmsis_os.c **** #endif     /* Use Message Queues */
1196:../../../core/ST/Middlewares/Third_Party/FreeRTOS/Source/CMSIS_RTOS/cmsis_os.c **** 
1197:../../../core/ST/Middlewares/Third_Party/FreeRTOS/Source/CMSIS_RTOS/cmsis_os.c **** /********************   Mail Queue Management Functions  ***********************/
1198:../../../core/ST/Middlewares/Third_Party/FreeRTOS/Source/CMSIS_RTOS/cmsis_os.c **** #if (defined (osFeature_MailQ)  &&  (osFeature_MailQ != 0))  /* Use Mail Queues */
1199:../../../core/ST/Middlewares/Third_Party/FreeRTOS/Source/CMSIS_RTOS/cmsis_os.c **** 
1200:../../../core/ST/Middlewares/Third_Party/FreeRTOS/Source/CMSIS_RTOS/cmsis_os.c **** 
1201:../../../core/ST/Middlewares/Third_Party/FreeRTOS/Source/CMSIS_RTOS/cmsis_os.c **** typedef struct os_mailQ_cb {
ARM GAS  C:\Users\tijsv\AppData\Local\Temp\cc6LJGIv.s 			page 75


1202:../../../core/ST/Middlewares/Third_Party/FreeRTOS/Source/CMSIS_RTOS/cmsis_os.c ****   const osMailQDef_t *queue_def;
1203:../../../core/ST/Middlewares/Third_Party/FreeRTOS/Source/CMSIS_RTOS/cmsis_os.c ****   QueueHandle_t handle;
1204:../../../core/ST/Middlewares/Third_Party/FreeRTOS/Source/CMSIS_RTOS/cmsis_os.c ****   osPoolId pool;
1205:../../../core/ST/Middlewares/Third_Party/FreeRTOS/Source/CMSIS_RTOS/cmsis_os.c **** } os_mailQ_cb_t;
1206:../../../core/ST/Middlewares/Third_Party/FreeRTOS/Source/CMSIS_RTOS/cmsis_os.c **** 
1207:../../../core/ST/Middlewares/Third_Party/FreeRTOS/Source/CMSIS_RTOS/cmsis_os.c **** /**
1208:../../../core/ST/Middlewares/Third_Party/FreeRTOS/Source/CMSIS_RTOS/cmsis_os.c **** * @brief Create and Initialize mail queue
1209:../../../core/ST/Middlewares/Third_Party/FreeRTOS/Source/CMSIS_RTOS/cmsis_os.c **** * @param  queue_def     reference to the mail queue definition obtain with \ref osMailQ
1210:../../../core/ST/Middlewares/Third_Party/FreeRTOS/Source/CMSIS_RTOS/cmsis_os.c **** * @param   thread_id     thread ID (obtained by \ref osThreadCreate or \ref osThreadGetId) or NULL.
1211:../../../core/ST/Middlewares/Third_Party/FreeRTOS/Source/CMSIS_RTOS/cmsis_os.c **** * @retval mail queue ID for reference by other functions or NULL in case of error.
1212:../../../core/ST/Middlewares/Third_Party/FreeRTOS/Source/CMSIS_RTOS/cmsis_os.c **** * @note   MUST REMAIN UNCHANGED: \b osMailCreate shall be consistent in every CMSIS-RTOS.
1213:../../../core/ST/Middlewares/Third_Party/FreeRTOS/Source/CMSIS_RTOS/cmsis_os.c **** */
1214:../../../core/ST/Middlewares/Third_Party/FreeRTOS/Source/CMSIS_RTOS/cmsis_os.c **** osMailQId osMailCreate (const osMailQDef_t *queue_def, osThreadId thread_id)
1215:../../../core/ST/Middlewares/Third_Party/FreeRTOS/Source/CMSIS_RTOS/cmsis_os.c **** {
 2609              		.loc 1 1215 1 is_stmt 1 view -0
 2610              		.cfi_startproc
 2611              		@ args = 0, pretend = 0, frame = 16
 2612              		@ frame_needed = 0, uses_anonymous_args = 0
 2613              		.loc 1 1215 1 is_stmt 0 view .LVU621
 2614 0000 70B5     		push	{r4, r5, r6, lr}
 2615              	.LCFI67:
 2616              		.cfi_def_cfa_offset 16
 2617              		.cfi_offset 4, -16
 2618              		.cfi_offset 5, -12
 2619              		.cfi_offset 6, -8
 2620              		.cfi_offset 14, -4
 2621 0002 84B0     		sub	sp, sp, #16
 2622              	.LCFI68:
 2623              		.cfi_def_cfa_offset 32
 2624 0004 0446     		mov	r4, r0
1216:../../../core/ST/Middlewares/Third_Party/FreeRTOS/Source/CMSIS_RTOS/cmsis_os.c **** #if (configSUPPORT_DYNAMIC_ALLOCATION == 1)
1217:../../../core/ST/Middlewares/Third_Party/FreeRTOS/Source/CMSIS_RTOS/cmsis_os.c ****   (void) thread_id;
 2625              		.loc 1 1217 3 is_stmt 1 view .LVU622
1218:../../../core/ST/Middlewares/Third_Party/FreeRTOS/Source/CMSIS_RTOS/cmsis_os.c ****   
1219:../../../core/ST/Middlewares/Third_Party/FreeRTOS/Source/CMSIS_RTOS/cmsis_os.c ****   osPoolDef_t pool_def = {queue_def->queue_sz, queue_def->item_sz, NULL};
 2626              		.loc 1 1219 3 view .LVU623
 2627              		.loc 1 1219 36 is_stmt 0 view .LVU624
 2628 0006 0368     		ldr	r3, [r0]
 2629              		.loc 1 1219 15 view .LVU625
 2630 0008 0193     		str	r3, [sp, #4]
 2631              		.loc 1 1219 57 view .LVU626
 2632 000a 4368     		ldr	r3, [r0, #4]
 2633              		.loc 1 1219 15 view .LVU627
 2634 000c 0293     		str	r3, [sp, #8]
 2635 000e 0023     		movs	r3, #0
 2636 0010 0393     		str	r3, [sp, #12]
1220:../../../core/ST/Middlewares/Third_Party/FreeRTOS/Source/CMSIS_RTOS/cmsis_os.c ****   
1221:../../../core/ST/Middlewares/Third_Party/FreeRTOS/Source/CMSIS_RTOS/cmsis_os.c ****   /* Create a mail queue control block */
1222:../../../core/ST/Middlewares/Third_Party/FreeRTOS/Source/CMSIS_RTOS/cmsis_os.c **** 
1223:../../../core/ST/Middlewares/Third_Party/FreeRTOS/Source/CMSIS_RTOS/cmsis_os.c ****   *(queue_def->cb) = pvPortMalloc(sizeof(struct os_mailQ_cb));
 2637              		.loc 1 1223 3 is_stmt 1 view .LVU628
 2638              		.loc 1 1223 14 is_stmt 0 view .LVU629
 2639 0012 8568     		ldr	r5, [r0, #8]
 2640              		.loc 1 1223 22 view .LVU630
 2641 0014 0C20     		movs	r0, #12
 2642              	.LVL203:
 2643              		.loc 1 1223 22 view .LVU631
ARM GAS  C:\Users\tijsv\AppData\Local\Temp\cc6LJGIv.s 			page 76


 2644 0016 FFF7FEFF 		bl	pvPortMalloc
 2645              	.LVL204:
 2646              		.loc 1 1223 20 view .LVU632
 2647 001a 2860     		str	r0, [r5]
1224:../../../core/ST/Middlewares/Third_Party/FreeRTOS/Source/CMSIS_RTOS/cmsis_os.c **** 
1225:../../../core/ST/Middlewares/Third_Party/FreeRTOS/Source/CMSIS_RTOS/cmsis_os.c ****   if (*(queue_def->cb) == NULL) {
 2648              		.loc 1 1225 3 is_stmt 1 view .LVU633
 2649              		.loc 1 1225 18 is_stmt 0 view .LVU634
 2650 001c A368     		ldr	r3, [r4, #8]
 2651              		.loc 1 1225 7 view .LVU635
 2652 001e 1D68     		ldr	r5, [r3]
 2653              		.loc 1 1225 6 view .LVU636
 2654 0020 A5B1     		cbz	r5, .L212
1226:../../../core/ST/Middlewares/Third_Party/FreeRTOS/Source/CMSIS_RTOS/cmsis_os.c ****     return NULL;
1227:../../../core/ST/Middlewares/Third_Party/FreeRTOS/Source/CMSIS_RTOS/cmsis_os.c ****   }
1228:../../../core/ST/Middlewares/Third_Party/FreeRTOS/Source/CMSIS_RTOS/cmsis_os.c ****   (*(queue_def->cb))->queue_def = queue_def;
 2655              		.loc 1 1228 3 is_stmt 1 view .LVU637
 2656              		.loc 1 1228 33 is_stmt 0 view .LVU638
 2657 0022 2C60     		str	r4, [r5]
1229:../../../core/ST/Middlewares/Third_Party/FreeRTOS/Source/CMSIS_RTOS/cmsis_os.c ****   
1230:../../../core/ST/Middlewares/Third_Party/FreeRTOS/Source/CMSIS_RTOS/cmsis_os.c ****   /* Create a queue in FreeRTOS */
1231:../../../core/ST/Middlewares/Third_Party/FreeRTOS/Source/CMSIS_RTOS/cmsis_os.c ****   (*(queue_def->cb))->handle = xQueueCreate(queue_def->queue_sz, sizeof(void *));
 2658              		.loc 1 1231 3 is_stmt 1 view .LVU639
 2659              		.loc 1 1231 15 is_stmt 0 view .LVU640
 2660 0024 A368     		ldr	r3, [r4, #8]
 2661              		.loc 1 1231 4 view .LVU641
 2662 0026 1D68     		ldr	r5, [r3]
 2663              		.loc 1 1231 32 view .LVU642
 2664 0028 0022     		movs	r2, #0
 2665 002a 0421     		movs	r1, #4
 2666 002c 2068     		ldr	r0, [r4]
 2667 002e FFF7FEFF 		bl	xQueueGenericCreate
 2668              	.LVL205:
 2669              		.loc 1 1231 30 view .LVU643
 2670 0032 6860     		str	r0, [r5, #4]
1232:../../../core/ST/Middlewares/Third_Party/FreeRTOS/Source/CMSIS_RTOS/cmsis_os.c **** 
1233:../../../core/ST/Middlewares/Third_Party/FreeRTOS/Source/CMSIS_RTOS/cmsis_os.c **** 
1234:../../../core/ST/Middlewares/Third_Party/FreeRTOS/Source/CMSIS_RTOS/cmsis_os.c ****   if ((*(queue_def->cb))->handle == NULL) {
 2671              		.loc 1 1234 3 is_stmt 1 view .LVU644
 2672              		.loc 1 1234 19 is_stmt 0 view .LVU645
 2673 0034 A368     		ldr	r3, [r4, #8]
 2674              		.loc 1 1234 8 view .LVU646
 2675 0036 1E68     		ldr	r6, [r3]
 2676              		.loc 1 1234 25 view .LVU647
 2677 0038 7568     		ldr	r5, [r6, #4]
 2678              		.loc 1 1234 6 view .LVU648
 2679 003a 55B1     		cbz	r5, .L216
1235:../../../core/ST/Middlewares/Third_Party/FreeRTOS/Source/CMSIS_RTOS/cmsis_os.c ****     vPortFree(*(queue_def->cb));
1236:../../../core/ST/Middlewares/Third_Party/FreeRTOS/Source/CMSIS_RTOS/cmsis_os.c ****     return NULL;
1237:../../../core/ST/Middlewares/Third_Party/FreeRTOS/Source/CMSIS_RTOS/cmsis_os.c ****   }
1238:../../../core/ST/Middlewares/Third_Party/FreeRTOS/Source/CMSIS_RTOS/cmsis_os.c ****   
1239:../../../core/ST/Middlewares/Third_Party/FreeRTOS/Source/CMSIS_RTOS/cmsis_os.c ****   /* Create a mail pool */
1240:../../../core/ST/Middlewares/Third_Party/FreeRTOS/Source/CMSIS_RTOS/cmsis_os.c ****   (*(queue_def->cb))->pool = osPoolCreate(&pool_def);
 2680              		.loc 1 1240 3 is_stmt 1 view .LVU649
 2681              		.loc 1 1240 30 is_stmt 0 view .LVU650
 2682 003c 01A8     		add	r0, sp, #4
 2683 003e FFF7FEFF 		bl	osPoolCreate
ARM GAS  C:\Users\tijsv\AppData\Local\Temp\cc6LJGIv.s 			page 77


 2684              	.LVL206:
 2685              		.loc 1 1240 28 view .LVU651
 2686 0042 B060     		str	r0, [r6, #8]
1241:../../../core/ST/Middlewares/Third_Party/FreeRTOS/Source/CMSIS_RTOS/cmsis_os.c ****   if ((*(queue_def->cb))->pool == NULL) {
 2687              		.loc 1 1241 3 is_stmt 1 view .LVU652
 2688              		.loc 1 1241 19 is_stmt 0 view .LVU653
 2689 0044 A368     		ldr	r3, [r4, #8]
 2690              		.loc 1 1241 8 view .LVU654
 2691 0046 1D68     		ldr	r5, [r3]
 2692              		.loc 1 1241 25 view .LVU655
 2693 0048 AC68     		ldr	r4, [r5, #8]
 2694              	.LVL207:
 2695              		.loc 1 1241 6 view .LVU656
 2696 004a 34B1     		cbz	r4, .L217
 2697              	.L212:
1242:../../../core/ST/Middlewares/Third_Party/FreeRTOS/Source/CMSIS_RTOS/cmsis_os.c ****     //TODO: Delete queue. How to do it in FreeRTOS?
1243:../../../core/ST/Middlewares/Third_Party/FreeRTOS/Source/CMSIS_RTOS/cmsis_os.c ****     vPortFree(*(queue_def->cb));
1244:../../../core/ST/Middlewares/Third_Party/FreeRTOS/Source/CMSIS_RTOS/cmsis_os.c ****     return NULL;
1245:../../../core/ST/Middlewares/Third_Party/FreeRTOS/Source/CMSIS_RTOS/cmsis_os.c ****   }
1246:../../../core/ST/Middlewares/Third_Party/FreeRTOS/Source/CMSIS_RTOS/cmsis_os.c ****   
1247:../../../core/ST/Middlewares/Third_Party/FreeRTOS/Source/CMSIS_RTOS/cmsis_os.c ****   return *(queue_def->cb);
1248:../../../core/ST/Middlewares/Third_Party/FreeRTOS/Source/CMSIS_RTOS/cmsis_os.c **** #else
1249:../../../core/ST/Middlewares/Third_Party/FreeRTOS/Source/CMSIS_RTOS/cmsis_os.c ****   return NULL;
1250:../../../core/ST/Middlewares/Third_Party/FreeRTOS/Source/CMSIS_RTOS/cmsis_os.c **** #endif
1251:../../../core/ST/Middlewares/Third_Party/FreeRTOS/Source/CMSIS_RTOS/cmsis_os.c **** }
 2698              		.loc 1 1251 1 view .LVU657
 2699 004c 2846     		mov	r0, r5
 2700 004e 04B0     		add	sp, sp, #16
 2701              	.LCFI69:
 2702              		.cfi_remember_state
 2703              		.cfi_def_cfa_offset 16
 2704              		@ sp needed
 2705 0050 70BD     		pop	{r4, r5, r6, pc}
 2706              	.LVL208:
 2707              	.L216:
 2708              	.LCFI70:
 2709              		.cfi_restore_state
1235:../../../core/ST/Middlewares/Third_Party/FreeRTOS/Source/CMSIS_RTOS/cmsis_os.c ****     return NULL;
 2710              		.loc 1 1235 5 is_stmt 1 view .LVU658
 2711 0052 3046     		mov	r0, r6
 2712 0054 FFF7FEFF 		bl	vPortFree
 2713              	.LVL209:
1236:../../../core/ST/Middlewares/Third_Party/FreeRTOS/Source/CMSIS_RTOS/cmsis_os.c ****   }
 2714              		.loc 1 1236 5 view .LVU659
1236:../../../core/ST/Middlewares/Third_Party/FreeRTOS/Source/CMSIS_RTOS/cmsis_os.c ****   }
 2715              		.loc 1 1236 12 is_stmt 0 view .LVU660
 2716 0058 F8E7     		b	.L212
 2717              	.LVL210:
 2718              	.L217:
1243:../../../core/ST/Middlewares/Third_Party/FreeRTOS/Source/CMSIS_RTOS/cmsis_os.c ****     return NULL;
 2719              		.loc 1 1243 5 is_stmt 1 view .LVU661
 2720 005a 2846     		mov	r0, r5
 2721 005c FFF7FEFF 		bl	vPortFree
 2722              	.LVL211:
1244:../../../core/ST/Middlewares/Third_Party/FreeRTOS/Source/CMSIS_RTOS/cmsis_os.c ****   }
 2723              		.loc 1 1244 5 view .LVU662
1244:../../../core/ST/Middlewares/Third_Party/FreeRTOS/Source/CMSIS_RTOS/cmsis_os.c ****   }
ARM GAS  C:\Users\tijsv\AppData\Local\Temp\cc6LJGIv.s 			page 78


 2724              		.loc 1 1244 12 is_stmt 0 view .LVU663
 2725 0060 2546     		mov	r5, r4
 2726 0062 F3E7     		b	.L212
 2727              		.cfi_endproc
 2728              	.LFE64:
 2730              		.section	.text.osMailAlloc,"ax",%progbits
 2731              		.align	1
 2732              		.global	osMailAlloc
 2733              		.syntax unified
 2734              		.thumb
 2735              		.thumb_func
 2736              		.fpu fpv4-sp-d16
 2738              	osMailAlloc:
 2739              	.LVL212:
 2740              	.LFB65:
1252:../../../core/ST/Middlewares/Third_Party/FreeRTOS/Source/CMSIS_RTOS/cmsis_os.c **** 
1253:../../../core/ST/Middlewares/Third_Party/FreeRTOS/Source/CMSIS_RTOS/cmsis_os.c **** /**
1254:../../../core/ST/Middlewares/Third_Party/FreeRTOS/Source/CMSIS_RTOS/cmsis_os.c **** * @brief Allocate a memory block from a mail
1255:../../../core/ST/Middlewares/Third_Party/FreeRTOS/Source/CMSIS_RTOS/cmsis_os.c **** * @param  queue_id      mail queue ID obtained with \ref osMailCreate.
1256:../../../core/ST/Middlewares/Third_Party/FreeRTOS/Source/CMSIS_RTOS/cmsis_os.c **** * @param  millisec      timeout value or 0 in case of no time-out.
1257:../../../core/ST/Middlewares/Third_Party/FreeRTOS/Source/CMSIS_RTOS/cmsis_os.c **** * @retval pointer to memory block that can be filled with mail or NULL in case error.
1258:../../../core/ST/Middlewares/Third_Party/FreeRTOS/Source/CMSIS_RTOS/cmsis_os.c **** * @note   MUST REMAIN UNCHANGED: \b osMailAlloc shall be consistent in every CMSIS-RTOS.
1259:../../../core/ST/Middlewares/Third_Party/FreeRTOS/Source/CMSIS_RTOS/cmsis_os.c **** */
1260:../../../core/ST/Middlewares/Third_Party/FreeRTOS/Source/CMSIS_RTOS/cmsis_os.c **** void *osMailAlloc (osMailQId queue_id, uint32_t millisec)
1261:../../../core/ST/Middlewares/Third_Party/FreeRTOS/Source/CMSIS_RTOS/cmsis_os.c **** {
 2741              		.loc 1 1261 1 is_stmt 1 view -0
 2742              		.cfi_startproc
 2743              		@ args = 0, pretend = 0, frame = 0
 2744              		@ frame_needed = 0, uses_anonymous_args = 0
 2745              		.loc 1 1261 1 is_stmt 0 view .LVU665
 2746 0000 08B5     		push	{r3, lr}
 2747              	.LCFI71:
 2748              		.cfi_def_cfa_offset 8
 2749              		.cfi_offset 3, -8
 2750              		.cfi_offset 14, -4
1262:../../../core/ST/Middlewares/Third_Party/FreeRTOS/Source/CMSIS_RTOS/cmsis_os.c ****   (void) millisec;
 2751              		.loc 1 1262 3 is_stmt 1 view .LVU666
1263:../../../core/ST/Middlewares/Third_Party/FreeRTOS/Source/CMSIS_RTOS/cmsis_os.c ****   void *p;
 2752              		.loc 1 1263 3 view .LVU667
1264:../../../core/ST/Middlewares/Third_Party/FreeRTOS/Source/CMSIS_RTOS/cmsis_os.c ****   
1265:../../../core/ST/Middlewares/Third_Party/FreeRTOS/Source/CMSIS_RTOS/cmsis_os.c ****   
1266:../../../core/ST/Middlewares/Third_Party/FreeRTOS/Source/CMSIS_RTOS/cmsis_os.c ****   if (queue_id == NULL) {
 2753              		.loc 1 1266 3 view .LVU668
 2754              		.loc 1 1266 6 is_stmt 0 view .LVU669
 2755 0002 10B1     		cbz	r0, .L218
1267:../../../core/ST/Middlewares/Third_Party/FreeRTOS/Source/CMSIS_RTOS/cmsis_os.c ****     return NULL;
1268:../../../core/ST/Middlewares/Third_Party/FreeRTOS/Source/CMSIS_RTOS/cmsis_os.c ****   }
1269:../../../core/ST/Middlewares/Third_Party/FreeRTOS/Source/CMSIS_RTOS/cmsis_os.c ****   
1270:../../../core/ST/Middlewares/Third_Party/FreeRTOS/Source/CMSIS_RTOS/cmsis_os.c ****   p = osPoolAlloc(queue_id->pool);
 2756              		.loc 1 1270 3 is_stmt 1 view .LVU670
 2757              		.loc 1 1270 7 is_stmt 0 view .LVU671
 2758 0004 8068     		ldr	r0, [r0, #8]
 2759              	.LVL213:
 2760              		.loc 1 1270 7 view .LVU672
 2761 0006 FFF7FEFF 		bl	osPoolAlloc
 2762              	.LVL214:
1271:../../../core/ST/Middlewares/Third_Party/FreeRTOS/Source/CMSIS_RTOS/cmsis_os.c ****   
ARM GAS  C:\Users\tijsv\AppData\Local\Temp\cc6LJGIv.s 			page 79


1272:../../../core/ST/Middlewares/Third_Party/FreeRTOS/Source/CMSIS_RTOS/cmsis_os.c ****   return p;
 2763              		.loc 1 1272 3 is_stmt 1 view .LVU673
 2764              	.L218:
1273:../../../core/ST/Middlewares/Third_Party/FreeRTOS/Source/CMSIS_RTOS/cmsis_os.c **** }
 2765              		.loc 1 1273 1 is_stmt 0 view .LVU674
 2766 000a 08BD     		pop	{r3, pc}
 2767              		.cfi_endproc
 2768              	.LFE65:
 2770              		.section	.text.osMailCAlloc,"ax",%progbits
 2771              		.align	1
 2772              		.global	osMailCAlloc
 2773              		.syntax unified
 2774              		.thumb
 2775              		.thumb_func
 2776              		.fpu fpv4-sp-d16
 2778              	osMailCAlloc:
 2779              	.LVL215:
 2780              	.LFB66:
1274:../../../core/ST/Middlewares/Third_Party/FreeRTOS/Source/CMSIS_RTOS/cmsis_os.c **** 
1275:../../../core/ST/Middlewares/Third_Party/FreeRTOS/Source/CMSIS_RTOS/cmsis_os.c **** /**
1276:../../../core/ST/Middlewares/Third_Party/FreeRTOS/Source/CMSIS_RTOS/cmsis_os.c **** * @brief Allocate a memory block from a mail and set memory block to zero
1277:../../../core/ST/Middlewares/Third_Party/FreeRTOS/Source/CMSIS_RTOS/cmsis_os.c **** * @param  queue_id      mail queue ID obtained with \ref osMailCreate.
1278:../../../core/ST/Middlewares/Third_Party/FreeRTOS/Source/CMSIS_RTOS/cmsis_os.c **** * @param  millisec      timeout value or 0 in case of no time-out.
1279:../../../core/ST/Middlewares/Third_Party/FreeRTOS/Source/CMSIS_RTOS/cmsis_os.c **** * @retval pointer to memory block that can be filled with mail or NULL in case error.
1280:../../../core/ST/Middlewares/Third_Party/FreeRTOS/Source/CMSIS_RTOS/cmsis_os.c **** * @note   MUST REMAIN UNCHANGED: \b osMailCAlloc shall be consistent in every CMSIS-RTOS.
1281:../../../core/ST/Middlewares/Third_Party/FreeRTOS/Source/CMSIS_RTOS/cmsis_os.c **** */
1282:../../../core/ST/Middlewares/Third_Party/FreeRTOS/Source/CMSIS_RTOS/cmsis_os.c **** void *osMailCAlloc (osMailQId queue_id, uint32_t millisec)
1283:../../../core/ST/Middlewares/Third_Party/FreeRTOS/Source/CMSIS_RTOS/cmsis_os.c **** {
 2781              		.loc 1 1283 1 is_stmt 1 view -0
 2782              		.cfi_startproc
 2783              		@ args = 0, pretend = 0, frame = 0
 2784              		@ frame_needed = 0, uses_anonymous_args = 0
 2785              		.loc 1 1283 1 is_stmt 0 view .LVU676
 2786 0000 10B5     		push	{r4, lr}
 2787              	.LCFI72:
 2788              		.cfi_def_cfa_offset 8
 2789              		.cfi_offset 4, -8
 2790              		.cfi_offset 14, -4
 2791 0002 0446     		mov	r4, r0
1284:../../../core/ST/Middlewares/Third_Party/FreeRTOS/Source/CMSIS_RTOS/cmsis_os.c ****   uint32_t i;
 2792              		.loc 1 1284 3 is_stmt 1 view .LVU677
1285:../../../core/ST/Middlewares/Third_Party/FreeRTOS/Source/CMSIS_RTOS/cmsis_os.c ****   void *p = osMailAlloc(queue_id, millisec);
 2793              		.loc 1 1285 3 view .LVU678
 2794              		.loc 1 1285 13 is_stmt 0 view .LVU679
 2795 0004 FFF7FEFF 		bl	osMailAlloc
 2796              	.LVL216:
1286:../../../core/ST/Middlewares/Third_Party/FreeRTOS/Source/CMSIS_RTOS/cmsis_os.c ****   
1287:../../../core/ST/Middlewares/Third_Party/FreeRTOS/Source/CMSIS_RTOS/cmsis_os.c ****   if (p) {
 2797              		.loc 1 1287 3 is_stmt 1 view .LVU680
 2798              		.loc 1 1287 6 is_stmt 0 view .LVU681
 2799 0008 0146     		mov	r1, r0
 2800 000a 40B1     		cbz	r0, .L222
1288:../../../core/ST/Middlewares/Third_Party/FreeRTOS/Source/CMSIS_RTOS/cmsis_os.c ****     for (i = 0; i < queue_id->queue_def->item_sz; i++) {
 2801              		.loc 1 1288 12 view .LVU682
 2802 000c 0023     		movs	r3, #0
 2803 000e 02E0     		b	.L223
 2804              	.LVL217:
ARM GAS  C:\Users\tijsv\AppData\Local\Temp\cc6LJGIv.s 			page 80


 2805              	.L225:
1289:../../../core/ST/Middlewares/Third_Party/FreeRTOS/Source/CMSIS_RTOS/cmsis_os.c ****       ((uint8_t *)p)[i] = 0;
 2806              		.loc 1 1289 7 is_stmt 1 discriminator 3 view .LVU683
 2807              		.loc 1 1289 25 is_stmt 0 discriminator 3 view .LVU684
 2808 0010 0022     		movs	r2, #0
 2809 0012 CA54     		strb	r2, [r1, r3]
1288:../../../core/ST/Middlewares/Third_Party/FreeRTOS/Source/CMSIS_RTOS/cmsis_os.c ****     for (i = 0; i < queue_id->queue_def->item_sz; i++) {
 2810              		.loc 1 1288 51 is_stmt 1 discriminator 3 view .LVU685
1288:../../../core/ST/Middlewares/Third_Party/FreeRTOS/Source/CMSIS_RTOS/cmsis_os.c ****     for (i = 0; i < queue_id->queue_def->item_sz; i++) {
 2811              		.loc 1 1288 52 is_stmt 0 discriminator 3 view .LVU686
 2812 0014 0133     		adds	r3, r3, #1
 2813              	.LVL218:
 2814              	.L223:
1288:../../../core/ST/Middlewares/Third_Party/FreeRTOS/Source/CMSIS_RTOS/cmsis_os.c ****     for (i = 0; i < queue_id->queue_def->item_sz; i++) {
 2815              		.loc 1 1288 17 is_stmt 1 discriminator 1 view .LVU687
1288:../../../core/ST/Middlewares/Third_Party/FreeRTOS/Source/CMSIS_RTOS/cmsis_os.c ****     for (i = 0; i < queue_id->queue_def->item_sz; i++) {
 2816              		.loc 1 1288 29 is_stmt 0 discriminator 1 view .LVU688
 2817 0016 2268     		ldr	r2, [r4]
1288:../../../core/ST/Middlewares/Third_Party/FreeRTOS/Source/CMSIS_RTOS/cmsis_os.c ****     for (i = 0; i < queue_id->queue_def->item_sz; i++) {
 2818              		.loc 1 1288 40 discriminator 1 view .LVU689
 2819 0018 5268     		ldr	r2, [r2, #4]
1288:../../../core/ST/Middlewares/Third_Party/FreeRTOS/Source/CMSIS_RTOS/cmsis_os.c ****     for (i = 0; i < queue_id->queue_def->item_sz; i++) {
 2820              		.loc 1 1288 5 discriminator 1 view .LVU690
 2821 001a 9A42     		cmp	r2, r3
 2822 001c F8D8     		bhi	.L225
 2823              	.LVL219:
 2824              	.L222:
1290:../../../core/ST/Middlewares/Third_Party/FreeRTOS/Source/CMSIS_RTOS/cmsis_os.c ****     }
1291:../../../core/ST/Middlewares/Third_Party/FreeRTOS/Source/CMSIS_RTOS/cmsis_os.c ****   }
1292:../../../core/ST/Middlewares/Third_Party/FreeRTOS/Source/CMSIS_RTOS/cmsis_os.c ****   
1293:../../../core/ST/Middlewares/Third_Party/FreeRTOS/Source/CMSIS_RTOS/cmsis_os.c ****   return p;
1294:../../../core/ST/Middlewares/Third_Party/FreeRTOS/Source/CMSIS_RTOS/cmsis_os.c **** }
 2825              		.loc 1 1294 1 view .LVU691
 2826 001e 0846     		mov	r0, r1
 2827              	.LVL220:
 2828              		.loc 1 1294 1 view .LVU692
 2829 0020 10BD     		pop	{r4, pc}
 2830              		.loc 1 1294 1 view .LVU693
 2831              		.cfi_endproc
 2832              	.LFE66:
 2834              		.section	.text.osMailPut,"ax",%progbits
 2835              		.align	1
 2836              		.global	osMailPut
 2837              		.syntax unified
 2838              		.thumb
 2839              		.thumb_func
 2840              		.fpu fpv4-sp-d16
 2842              	osMailPut:
 2843              	.LVL221:
 2844              	.LFB67:
1295:../../../core/ST/Middlewares/Third_Party/FreeRTOS/Source/CMSIS_RTOS/cmsis_os.c **** 
1296:../../../core/ST/Middlewares/Third_Party/FreeRTOS/Source/CMSIS_RTOS/cmsis_os.c **** /**
1297:../../../core/ST/Middlewares/Third_Party/FreeRTOS/Source/CMSIS_RTOS/cmsis_os.c **** * @brief Put a mail to a queue
1298:../../../core/ST/Middlewares/Third_Party/FreeRTOS/Source/CMSIS_RTOS/cmsis_os.c **** * @param  queue_id      mail queue ID obtained with \ref osMailCreate.
1299:../../../core/ST/Middlewares/Third_Party/FreeRTOS/Source/CMSIS_RTOS/cmsis_os.c **** * @param  mail          memory block previously allocated with \ref osMailAlloc or \ref osMailCAllo
1300:../../../core/ST/Middlewares/Third_Party/FreeRTOS/Source/CMSIS_RTOS/cmsis_os.c **** * @retval status code that indicates the execution status of the function.
1301:../../../core/ST/Middlewares/Third_Party/FreeRTOS/Source/CMSIS_RTOS/cmsis_os.c **** * @note   MUST REMAIN UNCHANGED: \b osMailPut shall be consistent in every CMSIS-RTOS.
ARM GAS  C:\Users\tijsv\AppData\Local\Temp\cc6LJGIv.s 			page 81


1302:../../../core/ST/Middlewares/Third_Party/FreeRTOS/Source/CMSIS_RTOS/cmsis_os.c **** */
1303:../../../core/ST/Middlewares/Third_Party/FreeRTOS/Source/CMSIS_RTOS/cmsis_os.c **** osStatus osMailPut (osMailQId queue_id, void *mail)
1304:../../../core/ST/Middlewares/Third_Party/FreeRTOS/Source/CMSIS_RTOS/cmsis_os.c **** {
 2845              		.loc 1 1304 1 is_stmt 1 view -0
 2846              		.cfi_startproc
 2847              		@ args = 0, pretend = 0, frame = 16
 2848              		@ frame_needed = 0, uses_anonymous_args = 0
 2849              		.loc 1 1304 1 is_stmt 0 view .LVU695
 2850 0000 10B5     		push	{r4, lr}
 2851              	.LCFI73:
 2852              		.cfi_def_cfa_offset 8
 2853              		.cfi_offset 4, -8
 2854              		.cfi_offset 14, -4
 2855 0002 84B0     		sub	sp, sp, #16
 2856              	.LCFI74:
 2857              		.cfi_def_cfa_offset 24
 2858 0004 0191     		str	r1, [sp, #4]
1305:../../../core/ST/Middlewares/Third_Party/FreeRTOS/Source/CMSIS_RTOS/cmsis_os.c ****   portBASE_TYPE taskWoken;
 2859              		.loc 1 1305 3 is_stmt 1 view .LVU696
1306:../../../core/ST/Middlewares/Third_Party/FreeRTOS/Source/CMSIS_RTOS/cmsis_os.c ****   
1307:../../../core/ST/Middlewares/Third_Party/FreeRTOS/Source/CMSIS_RTOS/cmsis_os.c ****   
1308:../../../core/ST/Middlewares/Third_Party/FreeRTOS/Source/CMSIS_RTOS/cmsis_os.c ****   if (queue_id == NULL) {
 2860              		.loc 1 1308 3 view .LVU697
 2861              		.loc 1 1308 6 is_stmt 0 view .LVU698
 2862 0006 20B3     		cbz	r0, .L231
 2863 0008 0446     		mov	r4, r0
1309:../../../core/ST/Middlewares/Third_Party/FreeRTOS/Source/CMSIS_RTOS/cmsis_os.c ****     return osErrorParameter;
1310:../../../core/ST/Middlewares/Third_Party/FreeRTOS/Source/CMSIS_RTOS/cmsis_os.c ****   }
1311:../../../core/ST/Middlewares/Third_Party/FreeRTOS/Source/CMSIS_RTOS/cmsis_os.c ****   
1312:../../../core/ST/Middlewares/Third_Party/FreeRTOS/Source/CMSIS_RTOS/cmsis_os.c ****   taskWoken = pdFALSE;
 2864              		.loc 1 1312 3 is_stmt 1 view .LVU699
 2865              		.loc 1 1312 13 is_stmt 0 view .LVU700
 2866 000a 0023     		movs	r3, #0
 2867 000c 0393     		str	r3, [sp, #12]
1313:../../../core/ST/Middlewares/Third_Party/FreeRTOS/Source/CMSIS_RTOS/cmsis_os.c ****   
1314:../../../core/ST/Middlewares/Third_Party/FreeRTOS/Source/CMSIS_RTOS/cmsis_os.c ****   if (inHandlerMode()) {
 2868              		.loc 1 1314 3 is_stmt 1 view .LVU701
 2869              		.loc 1 1314 7 is_stmt 0 view .LVU702
 2870 000e FFF7FEFF 		bl	inHandlerMode
 2871              	.LVL222:
 2872              		.loc 1 1314 6 view .LVU703
 2873 0012 98B1     		cbz	r0, .L230
1315:../../../core/ST/Middlewares/Third_Party/FreeRTOS/Source/CMSIS_RTOS/cmsis_os.c ****     if (xQueueSendFromISR(queue_id->handle, &mail, &taskWoken) != pdTRUE) {
 2874              		.loc 1 1315 5 is_stmt 1 view .LVU704
 2875              		.loc 1 1315 9 is_stmt 0 view .LVU705
 2876 0014 0023     		movs	r3, #0
 2877 0016 03AA     		add	r2, sp, #12
 2878 0018 01A9     		add	r1, sp, #4
 2879 001a 6068     		ldr	r0, [r4, #4]
 2880 001c FFF7FEFF 		bl	xQueueGenericSendFromISR
 2881              	.LVL223:
 2882              		.loc 1 1315 8 view .LVU706
 2883 0020 0128     		cmp	r0, #1
 2884 0022 18D1     		bne	.L232
1316:../../../core/ST/Middlewares/Third_Party/FreeRTOS/Source/CMSIS_RTOS/cmsis_os.c ****       return osErrorOS;
1317:../../../core/ST/Middlewares/Third_Party/FreeRTOS/Source/CMSIS_RTOS/cmsis_os.c ****     }
1318:../../../core/ST/Middlewares/Third_Party/FreeRTOS/Source/CMSIS_RTOS/cmsis_os.c ****     portEND_SWITCHING_ISR(taskWoken);
ARM GAS  C:\Users\tijsv\AppData\Local\Temp\cc6LJGIv.s 			page 82


 2885              		.loc 1 1318 5 is_stmt 1 view .LVU707
 2886 0024 039B     		ldr	r3, [sp, #12]
 2887 0026 C3B1     		cbz	r3, .L233
 2888              		.loc 1 1318 5 discriminator 1 view .LVU708
 2889 0028 0E4B     		ldr	r3, .L236
 2890 002a 4FF08052 		mov	r2, #268435456
 2891 002e 1A60     		str	r2, [r3]
 2892              		.loc 1 1318 5 discriminator 1 view .LVU709
 2893              		.syntax unified
 2894              	@ 1318 "../../../core/ST/Middlewares/Third_Party/FreeRTOS/Source/CMSIS_RTOS/cmsis_os.c" 1
 2895 0030 BFF34F8F 		dsb
 2896              	@ 0 "" 2
 2897              		.loc 1 1318 5 discriminator 1 view .LVU710
 2898              	@ 1318 "../../../core/ST/Middlewares/Third_Party/FreeRTOS/Source/CMSIS_RTOS/cmsis_os.c" 1
 2899 0034 BFF36F8F 		isb
 2900              	@ 0 "" 2
1319:../../../core/ST/Middlewares/Third_Party/FreeRTOS/Source/CMSIS_RTOS/cmsis_os.c ****   }
1320:../../../core/ST/Middlewares/Third_Party/FreeRTOS/Source/CMSIS_RTOS/cmsis_os.c ****   else {
1321:../../../core/ST/Middlewares/Third_Party/FreeRTOS/Source/CMSIS_RTOS/cmsis_os.c ****     if (xQueueSend(queue_id->handle, &mail, 0) != pdTRUE) { 
1322:../../../core/ST/Middlewares/Third_Party/FreeRTOS/Source/CMSIS_RTOS/cmsis_os.c ****       return osErrorOS;
1323:../../../core/ST/Middlewares/Third_Party/FreeRTOS/Source/CMSIS_RTOS/cmsis_os.c ****     }
1324:../../../core/ST/Middlewares/Third_Party/FreeRTOS/Source/CMSIS_RTOS/cmsis_os.c ****   }
1325:../../../core/ST/Middlewares/Third_Party/FreeRTOS/Source/CMSIS_RTOS/cmsis_os.c ****   
1326:../../../core/ST/Middlewares/Third_Party/FreeRTOS/Source/CMSIS_RTOS/cmsis_os.c ****   return osOK;
 2901              		.loc 1 1326 10 is_stmt 0 discriminator 1 view .LVU711
 2902              		.thumb
 2903              		.syntax unified
 2904 0038 0020     		movs	r0, #0
 2905 003a 08E0     		b	.L228
 2906              	.L230:
1321:../../../core/ST/Middlewares/Third_Party/FreeRTOS/Source/CMSIS_RTOS/cmsis_os.c ****       return osErrorOS;
 2907              		.loc 1 1321 5 is_stmt 1 view .LVU712
1321:../../../core/ST/Middlewares/Third_Party/FreeRTOS/Source/CMSIS_RTOS/cmsis_os.c ****       return osErrorOS;
 2908              		.loc 1 1321 9 is_stmt 0 view .LVU713
 2909 003c 0023     		movs	r3, #0
 2910 003e 1A46     		mov	r2, r3
 2911 0040 01A9     		add	r1, sp, #4
 2912 0042 6068     		ldr	r0, [r4, #4]
 2913 0044 FFF7FEFF 		bl	xQueueGenericSend
 2914              	.LVL224:
1321:../../../core/ST/Middlewares/Third_Party/FreeRTOS/Source/CMSIS_RTOS/cmsis_os.c ****       return osErrorOS;
 2915              		.loc 1 1321 8 view .LVU714
 2916 0048 0128     		cmp	r0, #1
 2917 004a 08D1     		bne	.L234
 2918              		.loc 1 1326 10 view .LVU715
 2919 004c 0020     		movs	r0, #0
 2920              	.LVL225:
 2921              	.L228:
1327:../../../core/ST/Middlewares/Third_Party/FreeRTOS/Source/CMSIS_RTOS/cmsis_os.c **** }
 2922              		.loc 1 1327 1 view .LVU716
 2923 004e 04B0     		add	sp, sp, #16
 2924              	.LCFI75:
 2925              		.cfi_remember_state
 2926              		.cfi_def_cfa_offset 8
 2927              		@ sp needed
 2928 0050 10BD     		pop	{r4, pc}
 2929              	.LVL226:
ARM GAS  C:\Users\tijsv\AppData\Local\Temp\cc6LJGIv.s 			page 83


 2930              	.L231:
 2931              	.LCFI76:
 2932              		.cfi_restore_state
1309:../../../core/ST/Middlewares/Third_Party/FreeRTOS/Source/CMSIS_RTOS/cmsis_os.c ****   }
 2933              		.loc 1 1309 12 view .LVU717
 2934 0052 8020     		movs	r0, #128
 2935              	.LVL227:
1309:../../../core/ST/Middlewares/Third_Party/FreeRTOS/Source/CMSIS_RTOS/cmsis_os.c ****   }
 2936              		.loc 1 1309 12 view .LVU718
 2937 0054 FBE7     		b	.L228
 2938              	.LVL228:
 2939              	.L232:
1316:../../../core/ST/Middlewares/Third_Party/FreeRTOS/Source/CMSIS_RTOS/cmsis_os.c ****     }
 2940              		.loc 1 1316 14 view .LVU719
 2941 0056 FF20     		movs	r0, #255
 2942 0058 F9E7     		b	.L228
 2943              	.L233:
1326:../../../core/ST/Middlewares/Third_Party/FreeRTOS/Source/CMSIS_RTOS/cmsis_os.c **** }
 2944              		.loc 1 1326 10 view .LVU720
 2945 005a 0020     		movs	r0, #0
 2946 005c F7E7     		b	.L228
 2947              	.L234:
1322:../../../core/ST/Middlewares/Third_Party/FreeRTOS/Source/CMSIS_RTOS/cmsis_os.c ****     }
 2948              		.loc 1 1322 14 view .LVU721
 2949 005e FF20     		movs	r0, #255
 2950 0060 F5E7     		b	.L228
 2951              	.L237:
 2952 0062 00BF     		.align	2
 2953              	.L236:
 2954 0064 04ED00E0 		.word	-536810236
 2955              		.cfi_endproc
 2956              	.LFE67:
 2958              		.section	.text.osMailGet,"ax",%progbits
 2959              		.align	1
 2960              		.global	osMailGet
 2961              		.syntax unified
 2962              		.thumb
 2963              		.thumb_func
 2964              		.fpu fpv4-sp-d16
 2966              	osMailGet:
 2967              	.LVL229:
 2968              	.LFB68:
1328:../../../core/ST/Middlewares/Third_Party/FreeRTOS/Source/CMSIS_RTOS/cmsis_os.c **** 
1329:../../../core/ST/Middlewares/Third_Party/FreeRTOS/Source/CMSIS_RTOS/cmsis_os.c **** /**
1330:../../../core/ST/Middlewares/Third_Party/FreeRTOS/Source/CMSIS_RTOS/cmsis_os.c **** * @brief Get a mail from a queue
1331:../../../core/ST/Middlewares/Third_Party/FreeRTOS/Source/CMSIS_RTOS/cmsis_os.c **** * @param  queue_id   mail queue ID obtained with \ref osMailCreate.
1332:../../../core/ST/Middlewares/Third_Party/FreeRTOS/Source/CMSIS_RTOS/cmsis_os.c **** * @param millisec    timeout value or 0 in case of no time-out
1333:../../../core/ST/Middlewares/Third_Party/FreeRTOS/Source/CMSIS_RTOS/cmsis_os.c **** * @retval event that contains mail information or error code.
1334:../../../core/ST/Middlewares/Third_Party/FreeRTOS/Source/CMSIS_RTOS/cmsis_os.c **** * @note   MUST REMAIN UNCHANGED: \b osMailGet shall be consistent in every CMSIS-RTOS.
1335:../../../core/ST/Middlewares/Third_Party/FreeRTOS/Source/CMSIS_RTOS/cmsis_os.c **** */
1336:../../../core/ST/Middlewares/Third_Party/FreeRTOS/Source/CMSIS_RTOS/cmsis_os.c **** osEvent osMailGet (osMailQId queue_id, uint32_t millisec)
1337:../../../core/ST/Middlewares/Third_Party/FreeRTOS/Source/CMSIS_RTOS/cmsis_os.c **** {
 2969              		.loc 1 1337 1 is_stmt 1 view -0
 2970              		.cfi_startproc
 2971              		@ args = 0, pretend = 0, frame = 16
 2972              		@ frame_needed = 0, uses_anonymous_args = 0
 2973              		.loc 1 1337 1 is_stmt 0 view .LVU723
ARM GAS  C:\Users\tijsv\AppData\Local\Temp\cc6LJGIv.s 			page 84


 2974 0000 70B5     		push	{r4, r5, r6, lr}
 2975              	.LCFI77:
 2976              		.cfi_def_cfa_offset 16
 2977              		.cfi_offset 4, -16
 2978              		.cfi_offset 5, -12
 2979              		.cfi_offset 6, -8
 2980              		.cfi_offset 14, -4
 2981 0002 84B0     		sub	sp, sp, #16
 2982              	.LCFI78:
 2983              		.cfi_def_cfa_offset 32
 2984 0004 0446     		mov	r4, r0
1338:../../../core/ST/Middlewares/Third_Party/FreeRTOS/Source/CMSIS_RTOS/cmsis_os.c ****   portBASE_TYPE taskWoken;
 2985              		.loc 1 1338 3 is_stmt 1 view .LVU724
1339:../../../core/ST/Middlewares/Third_Party/FreeRTOS/Source/CMSIS_RTOS/cmsis_os.c ****   TickType_t ticks;
 2986              		.loc 1 1339 3 view .LVU725
1340:../../../core/ST/Middlewares/Third_Party/FreeRTOS/Source/CMSIS_RTOS/cmsis_os.c ****   osEvent event;
 2987              		.loc 1 1340 3 view .LVU726
1341:../../../core/ST/Middlewares/Third_Party/FreeRTOS/Source/CMSIS_RTOS/cmsis_os.c ****   
1342:../../../core/ST/Middlewares/Third_Party/FreeRTOS/Source/CMSIS_RTOS/cmsis_os.c ****   event.def.mail_id = queue_id;
 2988              		.loc 1 1342 3 view .LVU727
 2989              		.loc 1 1342 21 is_stmt 0 view .LVU728
 2990 0006 0291     		str	r1, [sp, #8]
1343:../../../core/ST/Middlewares/Third_Party/FreeRTOS/Source/CMSIS_RTOS/cmsis_os.c ****   
1344:../../../core/ST/Middlewares/Third_Party/FreeRTOS/Source/CMSIS_RTOS/cmsis_os.c ****   if (queue_id == NULL) {
 2991              		.loc 1 1344 3 is_stmt 1 view .LVU729
 2992              		.loc 1 1344 6 is_stmt 0 view .LVU730
 2993 0008 D1B1     		cbz	r1, .L249
 2994 000a 0D46     		mov	r5, r1
 2995 000c 1646     		mov	r6, r2
1345:../../../core/ST/Middlewares/Third_Party/FreeRTOS/Source/CMSIS_RTOS/cmsis_os.c ****     event.status = osErrorParameter;
1346:../../../core/ST/Middlewares/Third_Party/FreeRTOS/Source/CMSIS_RTOS/cmsis_os.c ****     return event;
1347:../../../core/ST/Middlewares/Third_Party/FreeRTOS/Source/CMSIS_RTOS/cmsis_os.c ****   }
1348:../../../core/ST/Middlewares/Third_Party/FreeRTOS/Source/CMSIS_RTOS/cmsis_os.c ****   
1349:../../../core/ST/Middlewares/Third_Party/FreeRTOS/Source/CMSIS_RTOS/cmsis_os.c ****   taskWoken = pdFALSE;
 2996              		.loc 1 1349 3 is_stmt 1 view .LVU731
 2997              		.loc 1 1349 13 is_stmt 0 view .LVU732
 2998 000e 0023     		movs	r3, #0
 2999 0010 0393     		str	r3, [sp, #12]
1350:../../../core/ST/Middlewares/Third_Party/FreeRTOS/Source/CMSIS_RTOS/cmsis_os.c ****   
1351:../../../core/ST/Middlewares/Third_Party/FreeRTOS/Source/CMSIS_RTOS/cmsis_os.c ****   ticks = 0;
 3000              		.loc 1 1351 3 is_stmt 1 view .LVU733
 3001              	.LVL230:
1352:../../../core/ST/Middlewares/Third_Party/FreeRTOS/Source/CMSIS_RTOS/cmsis_os.c ****   if (millisec == osWaitForever) {
 3002              		.loc 1 1352 3 view .LVU734
1353:../../../core/ST/Middlewares/Third_Party/FreeRTOS/Source/CMSIS_RTOS/cmsis_os.c ****     ticks = portMAX_DELAY;
1354:../../../core/ST/Middlewares/Third_Party/FreeRTOS/Source/CMSIS_RTOS/cmsis_os.c ****   }
1355:../../../core/ST/Middlewares/Third_Party/FreeRTOS/Source/CMSIS_RTOS/cmsis_os.c ****   else if (millisec != 0) {
1356:../../../core/ST/Middlewares/Third_Party/FreeRTOS/Source/CMSIS_RTOS/cmsis_os.c ****     ticks = millisec / portTICK_PERIOD_MS;
1357:../../../core/ST/Middlewares/Third_Party/FreeRTOS/Source/CMSIS_RTOS/cmsis_os.c ****     if (ticks == 0) {
1358:../../../core/ST/Middlewares/Third_Party/FreeRTOS/Source/CMSIS_RTOS/cmsis_os.c ****       ticks = 1;
1359:../../../core/ST/Middlewares/Third_Party/FreeRTOS/Source/CMSIS_RTOS/cmsis_os.c ****     }
1360:../../../core/ST/Middlewares/Third_Party/FreeRTOS/Source/CMSIS_RTOS/cmsis_os.c ****   }
1361:../../../core/ST/Middlewares/Third_Party/FreeRTOS/Source/CMSIS_RTOS/cmsis_os.c ****   
1362:../../../core/ST/Middlewares/Third_Party/FreeRTOS/Source/CMSIS_RTOS/cmsis_os.c ****   if (inHandlerMode()) {
 3003              		.loc 1 1362 3 view .LVU735
 3004              		.loc 1 1362 7 is_stmt 0 view .LVU736
 3005 0012 FFF7FEFF 		bl	inHandlerMode
ARM GAS  C:\Users\tijsv\AppData\Local\Temp\cc6LJGIv.s 			page 85


 3006              	.LVL231:
 3007              		.loc 1 1362 6 view .LVU737
 3008 0016 F0B1     		cbz	r0, .L241
1363:../../../core/ST/Middlewares/Third_Party/FreeRTOS/Source/CMSIS_RTOS/cmsis_os.c ****     if (xQueueReceiveFromISR(queue_id->handle, &event.value.p, &taskWoken) == pdTRUE) {
 3009              		.loc 1 1363 5 is_stmt 1 view .LVU738
 3010              		.loc 1 1363 9 is_stmt 0 view .LVU739
 3011 0018 03AA     		add	r2, sp, #12
 3012 001a 01A9     		add	r1, sp, #4
 3013 001c 6868     		ldr	r0, [r5, #4]
 3014 001e FFF7FEFF 		bl	xQueueReceiveFromISR
 3015              	.LVL232:
 3016              		.loc 1 1363 8 view .LVU740
 3017 0022 0128     		cmp	r0, #1
 3018 0024 14D0     		beq	.L250
1364:../../../core/ST/Middlewares/Third_Party/FreeRTOS/Source/CMSIS_RTOS/cmsis_os.c ****       /* We have mail */
1365:../../../core/ST/Middlewares/Third_Party/FreeRTOS/Source/CMSIS_RTOS/cmsis_os.c ****       event.status = osEventMail;
1366:../../../core/ST/Middlewares/Third_Party/FreeRTOS/Source/CMSIS_RTOS/cmsis_os.c ****     }
1367:../../../core/ST/Middlewares/Third_Party/FreeRTOS/Source/CMSIS_RTOS/cmsis_os.c ****     else {
1368:../../../core/ST/Middlewares/Third_Party/FreeRTOS/Source/CMSIS_RTOS/cmsis_os.c ****       event.status = osOK;
 3019              		.loc 1 1368 7 is_stmt 1 view .LVU741
 3020              		.loc 1 1368 20 is_stmt 0 view .LVU742
 3021 0026 0023     		movs	r3, #0
 3022 0028 0093     		str	r3, [sp]
 3023              	.L243:
1369:../../../core/ST/Middlewares/Third_Party/FreeRTOS/Source/CMSIS_RTOS/cmsis_os.c ****     }
1370:../../../core/ST/Middlewares/Third_Party/FreeRTOS/Source/CMSIS_RTOS/cmsis_os.c ****     portEND_SWITCHING_ISR(taskWoken);
 3024              		.loc 1 1370 5 is_stmt 1 view .LVU743
 3025 002a 039B     		ldr	r3, [sp, #12]
 3026 002c EBB1     		cbz	r3, .L244
 3027              		.loc 1 1370 5 discriminator 1 view .LVU744
 3028 002e 144B     		ldr	r3, .L252
 3029 0030 4FF08052 		mov	r2, #268435456
 3030 0034 1A60     		str	r2, [r3]
 3031              		.loc 1 1370 5 discriminator 1 view .LVU745
 3032              		.syntax unified
 3033              	@ 1370 "../../../core/ST/Middlewares/Third_Party/FreeRTOS/Source/CMSIS_RTOS/cmsis_os.c" 1
 3034 0036 BFF34F8F 		dsb
 3035              	@ 0 "" 2
 3036              		.loc 1 1370 5 discriminator 1 view .LVU746
 3037              	@ 1370 "../../../core/ST/Middlewares/Third_Party/FreeRTOS/Source/CMSIS_RTOS/cmsis_os.c" 1
 3038 003a BFF36F8F 		isb
 3039              	@ 0 "" 2
 3040              		.thumb
 3041              		.syntax unified
 3042 003e 14E0     		b	.L244
 3043              	.LVL233:
 3044              	.L249:
1345:../../../core/ST/Middlewares/Third_Party/FreeRTOS/Source/CMSIS_RTOS/cmsis_os.c ****     return event;
 3045              		.loc 1 1345 5 view .LVU747
1345:../../../core/ST/Middlewares/Third_Party/FreeRTOS/Source/CMSIS_RTOS/cmsis_os.c ****     return event;
 3046              		.loc 1 1345 18 is_stmt 0 view .LVU748
 3047 0040 8023     		movs	r3, #128
 3048 0042 0093     		str	r3, [sp]
1346:../../../core/ST/Middlewares/Third_Party/FreeRTOS/Source/CMSIS_RTOS/cmsis_os.c ****   }
 3049              		.loc 1 1346 5 is_stmt 1 view .LVU749
1346:../../../core/ST/Middlewares/Third_Party/FreeRTOS/Source/CMSIS_RTOS/cmsis_os.c ****   }
 3050              		.loc 1 1346 12 is_stmt 0 view .LVU750
ARM GAS  C:\Users\tijsv\AppData\Local\Temp\cc6LJGIv.s 			page 86


 3051 0044 6B46     		mov	r3, sp
 3052 0046 93E80700 		ldm	r3, {r0, r1, r2}
 3053              	.LVL234:
1346:../../../core/ST/Middlewares/Third_Party/FreeRTOS/Source/CMSIS_RTOS/cmsis_os.c ****   }
 3054              		.loc 1 1346 12 view .LVU751
 3055 004a 84E80700 		stm	r4, {r0, r1, r2}
 3056 004e 11E0     		b	.L238
 3057              	.LVL235:
 3058              	.L250:
1365:../../../core/ST/Middlewares/Third_Party/FreeRTOS/Source/CMSIS_RTOS/cmsis_os.c ****     }
 3059              		.loc 1 1365 7 is_stmt 1 view .LVU752
1365:../../../core/ST/Middlewares/Third_Party/FreeRTOS/Source/CMSIS_RTOS/cmsis_os.c ****     }
 3060              		.loc 1 1365 20 is_stmt 0 view .LVU753
 3061 0050 2023     		movs	r3, #32
 3062 0052 0093     		str	r3, [sp]
 3063 0054 E9E7     		b	.L243
 3064              	.L241:
1371:../../../core/ST/Middlewares/Third_Party/FreeRTOS/Source/CMSIS_RTOS/cmsis_os.c ****   }
1372:../../../core/ST/Middlewares/Third_Party/FreeRTOS/Source/CMSIS_RTOS/cmsis_os.c ****   else {
1373:../../../core/ST/Middlewares/Third_Party/FreeRTOS/Source/CMSIS_RTOS/cmsis_os.c ****     if (xQueueReceive(queue_id->handle, &event.value.p, ticks) == pdTRUE) {
 3065              		.loc 1 1373 5 is_stmt 1 view .LVU754
 3066              		.loc 1 1373 9 is_stmt 0 view .LVU755
 3067 0056 3246     		mov	r2, r6
 3068 0058 01A9     		add	r1, sp, #4
 3069 005a 6868     		ldr	r0, [r5, #4]
 3070 005c FFF7FEFF 		bl	xQueueReceive
 3071              	.LVL236:
 3072              		.loc 1 1373 8 view .LVU756
 3073 0060 0128     		cmp	r0, #1
 3074 0062 0AD0     		beq	.L251
1374:../../../core/ST/Middlewares/Third_Party/FreeRTOS/Source/CMSIS_RTOS/cmsis_os.c ****       /* We have mail */
1375:../../../core/ST/Middlewares/Third_Party/FreeRTOS/Source/CMSIS_RTOS/cmsis_os.c ****       event.status = osEventMail;
1376:../../../core/ST/Middlewares/Third_Party/FreeRTOS/Source/CMSIS_RTOS/cmsis_os.c ****     }
1377:../../../core/ST/Middlewares/Third_Party/FreeRTOS/Source/CMSIS_RTOS/cmsis_os.c ****     else {
1378:../../../core/ST/Middlewares/Third_Party/FreeRTOS/Source/CMSIS_RTOS/cmsis_os.c ****       event.status = (ticks == 0) ? osOK : osEventTimeout;
 3075              		.loc 1 1378 7 is_stmt 1 view .LVU757
 3076              		.loc 1 1378 42 is_stmt 0 view .LVU758
 3077 0064 06B1     		cbz	r6, .L246
 3078 0066 4026     		movs	r6, #64
 3079              	.LVL237:
 3080              	.L246:
 3081              		.loc 1 1378 20 discriminator 4 view .LVU759
 3082 0068 0096     		str	r6, [sp]
 3083              	.L244:
1379:../../../core/ST/Middlewares/Third_Party/FreeRTOS/Source/CMSIS_RTOS/cmsis_os.c ****     }
1380:../../../core/ST/Middlewares/Third_Party/FreeRTOS/Source/CMSIS_RTOS/cmsis_os.c ****   }
1381:../../../core/ST/Middlewares/Third_Party/FreeRTOS/Source/CMSIS_RTOS/cmsis_os.c ****   
1382:../../../core/ST/Middlewares/Third_Party/FreeRTOS/Source/CMSIS_RTOS/cmsis_os.c ****   return event;
 3084              		.loc 1 1382 3 is_stmt 1 view .LVU760
 3085              		.loc 1 1382 10 is_stmt 0 view .LVU761
 3086 006a 6B46     		mov	r3, sp
 3087 006c 93E80700 		ldm	r3, {r0, r1, r2}
 3088 0070 84E80700 		stm	r4, {r0, r1, r2}
 3089              	.LVL238:
 3090              	.L238:
1383:../../../core/ST/Middlewares/Third_Party/FreeRTOS/Source/CMSIS_RTOS/cmsis_os.c **** }
 3091              		.loc 1 1383 1 view .LVU762
ARM GAS  C:\Users\tijsv\AppData\Local\Temp\cc6LJGIv.s 			page 87


 3092 0074 2046     		mov	r0, r4
 3093 0076 04B0     		add	sp, sp, #16
 3094              	.LCFI79:
 3095              		.cfi_remember_state
 3096              		.cfi_def_cfa_offset 16
 3097              		@ sp needed
 3098 0078 70BD     		pop	{r4, r5, r6, pc}
 3099              	.LVL239:
 3100              	.L251:
 3101              	.LCFI80:
 3102              		.cfi_restore_state
1375:../../../core/ST/Middlewares/Third_Party/FreeRTOS/Source/CMSIS_RTOS/cmsis_os.c ****     }
 3103              		.loc 1 1375 7 is_stmt 1 view .LVU763
1375:../../../core/ST/Middlewares/Third_Party/FreeRTOS/Source/CMSIS_RTOS/cmsis_os.c ****     }
 3104              		.loc 1 1375 20 is_stmt 0 view .LVU764
 3105 007a 2023     		movs	r3, #32
 3106 007c 0093     		str	r3, [sp]
 3107 007e F4E7     		b	.L244
 3108              	.L253:
 3109              		.align	2
 3110              	.L252:
 3111 0080 04ED00E0 		.word	-536810236
 3112              		.cfi_endproc
 3113              	.LFE68:
 3115              		.section	.text.osMailFree,"ax",%progbits
 3116              		.align	1
 3117              		.global	osMailFree
 3118              		.syntax unified
 3119              		.thumb
 3120              		.thumb_func
 3121              		.fpu fpv4-sp-d16
 3123              	osMailFree:
 3124              	.LVL240:
 3125              	.LFB69:
1384:../../../core/ST/Middlewares/Third_Party/FreeRTOS/Source/CMSIS_RTOS/cmsis_os.c **** 
1385:../../../core/ST/Middlewares/Third_Party/FreeRTOS/Source/CMSIS_RTOS/cmsis_os.c **** /**
1386:../../../core/ST/Middlewares/Third_Party/FreeRTOS/Source/CMSIS_RTOS/cmsis_os.c **** * @brief Free a memory block from a mail
1387:../../../core/ST/Middlewares/Third_Party/FreeRTOS/Source/CMSIS_RTOS/cmsis_os.c **** * @param  queue_id mail queue ID obtained with \ref osMailCreate.
1388:../../../core/ST/Middlewares/Third_Party/FreeRTOS/Source/CMSIS_RTOS/cmsis_os.c **** * @param  mail     pointer to the memory block that was obtained with \ref osMailGet.
1389:../../../core/ST/Middlewares/Third_Party/FreeRTOS/Source/CMSIS_RTOS/cmsis_os.c **** * @retval status code that indicates the execution status of the function.
1390:../../../core/ST/Middlewares/Third_Party/FreeRTOS/Source/CMSIS_RTOS/cmsis_os.c **** * @note   MUST REMAIN UNCHANGED: \b osMailFree shall be consistent in every CMSIS-RTOS.
1391:../../../core/ST/Middlewares/Third_Party/FreeRTOS/Source/CMSIS_RTOS/cmsis_os.c **** */
1392:../../../core/ST/Middlewares/Third_Party/FreeRTOS/Source/CMSIS_RTOS/cmsis_os.c **** osStatus osMailFree (osMailQId queue_id, void *mail)
1393:../../../core/ST/Middlewares/Third_Party/FreeRTOS/Source/CMSIS_RTOS/cmsis_os.c **** {
 3126              		.loc 1 1393 1 is_stmt 1 view -0
 3127              		.cfi_startproc
 3128              		@ args = 0, pretend = 0, frame = 0
 3129              		@ frame_needed = 0, uses_anonymous_args = 0
1394:../../../core/ST/Middlewares/Third_Party/FreeRTOS/Source/CMSIS_RTOS/cmsis_os.c ****   if (queue_id == NULL) {
 3130              		.loc 1 1394 3 view .LVU766
 3131              		.loc 1 1394 6 is_stmt 0 view .LVU767
 3132 0000 20B1     		cbz	r0, .L256
1393:../../../core/ST/Middlewares/Third_Party/FreeRTOS/Source/CMSIS_RTOS/cmsis_os.c ****   if (queue_id == NULL) {
 3133              		.loc 1 1393 1 view .LVU768
 3134 0002 08B5     		push	{r3, lr}
 3135              	.LCFI81:
 3136              		.cfi_def_cfa_offset 8
ARM GAS  C:\Users\tijsv\AppData\Local\Temp\cc6LJGIv.s 			page 88


 3137              		.cfi_offset 3, -8
 3138              		.cfi_offset 14, -4
1395:../../../core/ST/Middlewares/Third_Party/FreeRTOS/Source/CMSIS_RTOS/cmsis_os.c ****     return osErrorParameter;
1396:../../../core/ST/Middlewares/Third_Party/FreeRTOS/Source/CMSIS_RTOS/cmsis_os.c ****   }
1397:../../../core/ST/Middlewares/Third_Party/FreeRTOS/Source/CMSIS_RTOS/cmsis_os.c ****   
1398:../../../core/ST/Middlewares/Third_Party/FreeRTOS/Source/CMSIS_RTOS/cmsis_os.c ****   return osPoolFree(queue_id->pool, mail);
 3139              		.loc 1 1398 3 is_stmt 1 view .LVU769
 3140              		.loc 1 1398 10 is_stmt 0 view .LVU770
 3141 0004 8068     		ldr	r0, [r0, #8]
 3142              	.LVL241:
 3143              		.loc 1 1398 10 view .LVU771
 3144 0006 FFF7FEFF 		bl	osPoolFree
 3145              	.LVL242:
1399:../../../core/ST/Middlewares/Third_Party/FreeRTOS/Source/CMSIS_RTOS/cmsis_os.c **** }
 3146              		.loc 1 1399 1 view .LVU772
 3147 000a 08BD     		pop	{r3, pc}
 3148              	.LVL243:
 3149              	.L256:
 3150              	.LCFI82:
 3151              		.cfi_def_cfa_offset 0
 3152              		.cfi_restore 3
 3153              		.cfi_restore 14
1395:../../../core/ST/Middlewares/Third_Party/FreeRTOS/Source/CMSIS_RTOS/cmsis_os.c ****     return osErrorParameter;
 3154              		.loc 1 1395 12 view .LVU773
 3155 000c 8020     		movs	r0, #128
 3156              	.LVL244:
 3157              		.loc 1 1399 1 view .LVU774
 3158 000e 7047     		bx	lr
 3159              		.cfi_endproc
 3160              	.LFE69:
 3162              		.section	.text.osSystickHandler,"ax",%progbits
 3163              		.align	1
 3164              		.global	osSystickHandler
 3165              		.syntax unified
 3166              		.thumb
 3167              		.thumb_func
 3168              		.fpu fpv4-sp-d16
 3170              	osSystickHandler:
 3171              	.LFB70:
1400:../../../core/ST/Middlewares/Third_Party/FreeRTOS/Source/CMSIS_RTOS/cmsis_os.c **** #endif  /* Use Mail Queues */
1401:../../../core/ST/Middlewares/Third_Party/FreeRTOS/Source/CMSIS_RTOS/cmsis_os.c **** 
1402:../../../core/ST/Middlewares/Third_Party/FreeRTOS/Source/CMSIS_RTOS/cmsis_os.c **** /*************************** Additional specific APIs to Free RTOS ************/
1403:../../../core/ST/Middlewares/Third_Party/FreeRTOS/Source/CMSIS_RTOS/cmsis_os.c **** /**
1404:../../../core/ST/Middlewares/Third_Party/FreeRTOS/Source/CMSIS_RTOS/cmsis_os.c **** * @brief  Handles the tick increment
1405:../../../core/ST/Middlewares/Third_Party/FreeRTOS/Source/CMSIS_RTOS/cmsis_os.c **** * @param  none.
1406:../../../core/ST/Middlewares/Third_Party/FreeRTOS/Source/CMSIS_RTOS/cmsis_os.c **** * @retval none.
1407:../../../core/ST/Middlewares/Third_Party/FreeRTOS/Source/CMSIS_RTOS/cmsis_os.c **** */
1408:../../../core/ST/Middlewares/Third_Party/FreeRTOS/Source/CMSIS_RTOS/cmsis_os.c **** void osSystickHandler(void)
1409:../../../core/ST/Middlewares/Third_Party/FreeRTOS/Source/CMSIS_RTOS/cmsis_os.c **** {
 3172              		.loc 1 1409 1 is_stmt 1 view -0
 3173              		.cfi_startproc
 3174              		@ args = 0, pretend = 0, frame = 0
 3175              		@ frame_needed = 0, uses_anonymous_args = 0
 3176 0000 08B5     		push	{r3, lr}
 3177              	.LCFI83:
 3178              		.cfi_def_cfa_offset 8
 3179              		.cfi_offset 3, -8
ARM GAS  C:\Users\tijsv\AppData\Local\Temp\cc6LJGIv.s 			page 89


 3180              		.cfi_offset 14, -4
1410:../../../core/ST/Middlewares/Third_Party/FreeRTOS/Source/CMSIS_RTOS/cmsis_os.c **** 
1411:../../../core/ST/Middlewares/Third_Party/FreeRTOS/Source/CMSIS_RTOS/cmsis_os.c **** #if (INCLUDE_xTaskGetSchedulerState  == 1 )
1412:../../../core/ST/Middlewares/Third_Party/FreeRTOS/Source/CMSIS_RTOS/cmsis_os.c ****   if (xTaskGetSchedulerState() != taskSCHEDULER_NOT_STARTED)
 3181              		.loc 1 1412 3 view .LVU776
 3182              		.loc 1 1412 7 is_stmt 0 view .LVU777
 3183 0002 FFF7FEFF 		bl	xTaskGetSchedulerState
 3184              	.LVL245:
 3185              		.loc 1 1412 6 view .LVU778
 3186 0006 0128     		cmp	r0, #1
 3187 0008 00D1     		bne	.L264
 3188              	.L261:
1413:../../../core/ST/Middlewares/Third_Party/FreeRTOS/Source/CMSIS_RTOS/cmsis_os.c ****   {
1414:../../../core/ST/Middlewares/Third_Party/FreeRTOS/Source/CMSIS_RTOS/cmsis_os.c **** #endif  /* INCLUDE_xTaskGetSchedulerState */  
1415:../../../core/ST/Middlewares/Third_Party/FreeRTOS/Source/CMSIS_RTOS/cmsis_os.c ****     xPortSysTickHandler();
1416:../../../core/ST/Middlewares/Third_Party/FreeRTOS/Source/CMSIS_RTOS/cmsis_os.c **** #if (INCLUDE_xTaskGetSchedulerState  == 1 )
1417:../../../core/ST/Middlewares/Third_Party/FreeRTOS/Source/CMSIS_RTOS/cmsis_os.c ****   }
1418:../../../core/ST/Middlewares/Third_Party/FreeRTOS/Source/CMSIS_RTOS/cmsis_os.c **** #endif  /* INCLUDE_xTaskGetSchedulerState */  
1419:../../../core/ST/Middlewares/Third_Party/FreeRTOS/Source/CMSIS_RTOS/cmsis_os.c **** }
 3189              		.loc 1 1419 1 view .LVU779
 3190 000a 08BD     		pop	{r3, pc}
 3191              	.L264:
1415:../../../core/ST/Middlewares/Third_Party/FreeRTOS/Source/CMSIS_RTOS/cmsis_os.c **** #if (INCLUDE_xTaskGetSchedulerState  == 1 )
 3192              		.loc 1 1415 5 is_stmt 1 view .LVU780
 3193 000c FFF7FEFF 		bl	SysTick_Handler
 3194              	.LVL246:
 3195              		.loc 1 1419 1 is_stmt 0 view .LVU781
 3196 0010 FBE7     		b	.L261
 3197              		.cfi_endproc
 3198              	.LFE70:
 3200              		.section	.text.osThreadGetState,"ax",%progbits
 3201              		.align	1
 3202              		.global	osThreadGetState
 3203              		.syntax unified
 3204              		.thumb
 3205              		.thumb_func
 3206              		.fpu fpv4-sp-d16
 3208              	osThreadGetState:
 3209              	.LVL247:
 3210              	.LFB71:
1420:../../../core/ST/Middlewares/Third_Party/FreeRTOS/Source/CMSIS_RTOS/cmsis_os.c **** 
1421:../../../core/ST/Middlewares/Third_Party/FreeRTOS/Source/CMSIS_RTOS/cmsis_os.c **** #if ( INCLUDE_eTaskGetState == 1 )
1422:../../../core/ST/Middlewares/Third_Party/FreeRTOS/Source/CMSIS_RTOS/cmsis_os.c **** /**
1423:../../../core/ST/Middlewares/Third_Party/FreeRTOS/Source/CMSIS_RTOS/cmsis_os.c **** * @brief  Obtain the state of any thread.
1424:../../../core/ST/Middlewares/Third_Party/FreeRTOS/Source/CMSIS_RTOS/cmsis_os.c **** * @param   thread_id   thread ID obtained by \ref osThreadCreate or \ref osThreadGetId.
1425:../../../core/ST/Middlewares/Third_Party/FreeRTOS/Source/CMSIS_RTOS/cmsis_os.c **** * @retval  the stae of the thread, states are encoded by the osThreadState enumerated type.
1426:../../../core/ST/Middlewares/Third_Party/FreeRTOS/Source/CMSIS_RTOS/cmsis_os.c **** */
1427:../../../core/ST/Middlewares/Third_Party/FreeRTOS/Source/CMSIS_RTOS/cmsis_os.c **** osThreadState osThreadGetState(osThreadId thread_id)
1428:../../../core/ST/Middlewares/Third_Party/FreeRTOS/Source/CMSIS_RTOS/cmsis_os.c **** {
 3211              		.loc 1 1428 1 is_stmt 1 view -0
 3212              		.cfi_startproc
 3213              		@ args = 0, pretend = 0, frame = 0
 3214              		@ frame_needed = 0, uses_anonymous_args = 0
 3215              		.loc 1 1428 1 is_stmt 0 view .LVU783
 3216 0000 08B5     		push	{r3, lr}
 3217              	.LCFI84:
 3218              		.cfi_def_cfa_offset 8
ARM GAS  C:\Users\tijsv\AppData\Local\Temp\cc6LJGIv.s 			page 90


 3219              		.cfi_offset 3, -8
 3220              		.cfi_offset 14, -4
1429:../../../core/ST/Middlewares/Third_Party/FreeRTOS/Source/CMSIS_RTOS/cmsis_os.c ****   eTaskState ThreadState;
 3221              		.loc 1 1429 3 is_stmt 1 view .LVU784
1430:../../../core/ST/Middlewares/Third_Party/FreeRTOS/Source/CMSIS_RTOS/cmsis_os.c ****   osThreadState result;
 3222              		.loc 1 1430 3 view .LVU785
1431:../../../core/ST/Middlewares/Third_Party/FreeRTOS/Source/CMSIS_RTOS/cmsis_os.c ****   
1432:../../../core/ST/Middlewares/Third_Party/FreeRTOS/Source/CMSIS_RTOS/cmsis_os.c ****   ThreadState = eTaskGetState(thread_id);
 3223              		.loc 1 1432 3 view .LVU786
 3224              		.loc 1 1432 17 is_stmt 0 view .LVU787
 3225 0002 FFF7FEFF 		bl	eTaskGetState
 3226              	.LVL248:
1433:../../../core/ST/Middlewares/Third_Party/FreeRTOS/Source/CMSIS_RTOS/cmsis_os.c ****   
1434:../../../core/ST/Middlewares/Third_Party/FreeRTOS/Source/CMSIS_RTOS/cmsis_os.c ****   switch (ThreadState)
 3227              		.loc 1 1434 3 is_stmt 1 view .LVU788
 3228 0006 0428     		cmp	r0, #4
 3229 0008 0CD8     		bhi	.L266
 3230 000a DFE800F0 		tbb	[pc, r0]
 3231              	.L268:
 3232 000e 03       		.byte	(.L272-.L268)/2
 3233 000f 0E       		.byte	(.L273-.L268)/2
 3234 0010 05       		.byte	(.L270-.L268)/2
 3235 0011 07       		.byte	(.L269-.L268)/2
 3236 0012 09       		.byte	(.L267-.L268)/2
 3237 0013 00       		.p2align 1
 3238              	.L272:
1432:../../../core/ST/Middlewares/Third_Party/FreeRTOS/Source/CMSIS_RTOS/cmsis_os.c ****   
 3239              		.loc 1 1432 17 is_stmt 0 view .LVU789
 3240 0014 0020     		movs	r0, #0
 3241              	.LVL249:
 3242              	.L265:
1435:../../../core/ST/Middlewares/Third_Party/FreeRTOS/Source/CMSIS_RTOS/cmsis_os.c ****   {
1436:../../../core/ST/Middlewares/Third_Party/FreeRTOS/Source/CMSIS_RTOS/cmsis_os.c ****   case eRunning :
1437:../../../core/ST/Middlewares/Third_Party/FreeRTOS/Source/CMSIS_RTOS/cmsis_os.c ****     result = osThreadRunning;
1438:../../../core/ST/Middlewares/Third_Party/FreeRTOS/Source/CMSIS_RTOS/cmsis_os.c ****     break;
1439:../../../core/ST/Middlewares/Third_Party/FreeRTOS/Source/CMSIS_RTOS/cmsis_os.c ****   case eReady :
1440:../../../core/ST/Middlewares/Third_Party/FreeRTOS/Source/CMSIS_RTOS/cmsis_os.c ****     result = osThreadReady;
1441:../../../core/ST/Middlewares/Third_Party/FreeRTOS/Source/CMSIS_RTOS/cmsis_os.c ****     break;
1442:../../../core/ST/Middlewares/Third_Party/FreeRTOS/Source/CMSIS_RTOS/cmsis_os.c ****   case eBlocked :
1443:../../../core/ST/Middlewares/Third_Party/FreeRTOS/Source/CMSIS_RTOS/cmsis_os.c ****     result = osThreadBlocked;
1444:../../../core/ST/Middlewares/Third_Party/FreeRTOS/Source/CMSIS_RTOS/cmsis_os.c ****     break;
1445:../../../core/ST/Middlewares/Third_Party/FreeRTOS/Source/CMSIS_RTOS/cmsis_os.c ****   case eSuspended :
1446:../../../core/ST/Middlewares/Third_Party/FreeRTOS/Source/CMSIS_RTOS/cmsis_os.c ****     result = osThreadSuspended;
1447:../../../core/ST/Middlewares/Third_Party/FreeRTOS/Source/CMSIS_RTOS/cmsis_os.c ****     break;
1448:../../../core/ST/Middlewares/Third_Party/FreeRTOS/Source/CMSIS_RTOS/cmsis_os.c ****   case eDeleted :
1449:../../../core/ST/Middlewares/Third_Party/FreeRTOS/Source/CMSIS_RTOS/cmsis_os.c ****     result = osThreadDeleted;
1450:../../../core/ST/Middlewares/Third_Party/FreeRTOS/Source/CMSIS_RTOS/cmsis_os.c ****     break;
1451:../../../core/ST/Middlewares/Third_Party/FreeRTOS/Source/CMSIS_RTOS/cmsis_os.c ****   default:
1452:../../../core/ST/Middlewares/Third_Party/FreeRTOS/Source/CMSIS_RTOS/cmsis_os.c ****     result = osThreadError;
1453:../../../core/ST/Middlewares/Third_Party/FreeRTOS/Source/CMSIS_RTOS/cmsis_os.c ****   } 
1454:../../../core/ST/Middlewares/Third_Party/FreeRTOS/Source/CMSIS_RTOS/cmsis_os.c ****   
1455:../../../core/ST/Middlewares/Third_Party/FreeRTOS/Source/CMSIS_RTOS/cmsis_os.c ****   return result;
1456:../../../core/ST/Middlewares/Third_Party/FreeRTOS/Source/CMSIS_RTOS/cmsis_os.c **** }
 3243              		.loc 1 1456 1 view .LVU790
 3244 0016 08BD     		pop	{r3, pc}
 3245              	.LVL250:
 3246              	.L270:
ARM GAS  C:\Users\tijsv\AppData\Local\Temp\cc6LJGIv.s 			page 91


1443:../../../core/ST/Middlewares/Third_Party/FreeRTOS/Source/CMSIS_RTOS/cmsis_os.c ****     break;
 3247              		.loc 1 1443 5 is_stmt 1 view .LVU791
1444:../../../core/ST/Middlewares/Third_Party/FreeRTOS/Source/CMSIS_RTOS/cmsis_os.c ****   case eSuspended :
 3248              		.loc 1 1444 5 view .LVU792
1443:../../../core/ST/Middlewares/Third_Party/FreeRTOS/Source/CMSIS_RTOS/cmsis_os.c ****     break;
 3249              		.loc 1 1443 12 is_stmt 0 view .LVU793
 3250 0018 0220     		movs	r0, #2
 3251              	.LVL251:
1444:../../../core/ST/Middlewares/Third_Party/FreeRTOS/Source/CMSIS_RTOS/cmsis_os.c ****   case eSuspended :
 3252              		.loc 1 1444 5 view .LVU794
 3253 001a FCE7     		b	.L265
 3254              	.LVL252:
 3255              	.L269:
1446:../../../core/ST/Middlewares/Third_Party/FreeRTOS/Source/CMSIS_RTOS/cmsis_os.c ****     break;
 3256              		.loc 1 1446 5 is_stmt 1 view .LVU795
1447:../../../core/ST/Middlewares/Third_Party/FreeRTOS/Source/CMSIS_RTOS/cmsis_os.c ****   case eDeleted :
 3257              		.loc 1 1447 5 view .LVU796
1446:../../../core/ST/Middlewares/Third_Party/FreeRTOS/Source/CMSIS_RTOS/cmsis_os.c ****     break;
 3258              		.loc 1 1446 12 is_stmt 0 view .LVU797
 3259 001c 0320     		movs	r0, #3
 3260              	.LVL253:
1447:../../../core/ST/Middlewares/Third_Party/FreeRTOS/Source/CMSIS_RTOS/cmsis_os.c ****   case eDeleted :
 3261              		.loc 1 1447 5 view .LVU798
 3262 001e FAE7     		b	.L265
 3263              	.LVL254:
 3264              	.L267:
1449:../../../core/ST/Middlewares/Third_Party/FreeRTOS/Source/CMSIS_RTOS/cmsis_os.c ****     break;
 3265              		.loc 1 1449 5 is_stmt 1 view .LVU799
1450:../../../core/ST/Middlewares/Third_Party/FreeRTOS/Source/CMSIS_RTOS/cmsis_os.c ****   default:
 3266              		.loc 1 1450 5 view .LVU800
1449:../../../core/ST/Middlewares/Third_Party/FreeRTOS/Source/CMSIS_RTOS/cmsis_os.c ****     break;
 3267              		.loc 1 1449 12 is_stmt 0 view .LVU801
 3268 0020 0420     		movs	r0, #4
 3269              	.LVL255:
1450:../../../core/ST/Middlewares/Third_Party/FreeRTOS/Source/CMSIS_RTOS/cmsis_os.c ****   default:
 3270              		.loc 1 1450 5 view .LVU802
 3271 0022 F8E7     		b	.L265
 3272              	.LVL256:
 3273              	.L266:
1452:../../../core/ST/Middlewares/Third_Party/FreeRTOS/Source/CMSIS_RTOS/cmsis_os.c ****   } 
 3274              		.loc 1 1452 5 is_stmt 1 view .LVU803
1452:../../../core/ST/Middlewares/Third_Party/FreeRTOS/Source/CMSIS_RTOS/cmsis_os.c ****   } 
 3275              		.loc 1 1452 12 is_stmt 0 view .LVU804
 3276 0024 6FF00040 		mvn	r0, #-2147483648
 3277              	.LVL257:
1452:../../../core/ST/Middlewares/Third_Party/FreeRTOS/Source/CMSIS_RTOS/cmsis_os.c ****   } 
 3278              		.loc 1 1452 12 view .LVU805
 3279 0028 F5E7     		b	.L265
 3280              	.LVL258:
 3281              	.L273:
1440:../../../core/ST/Middlewares/Third_Party/FreeRTOS/Source/CMSIS_RTOS/cmsis_os.c ****     break;
 3282              		.loc 1 1440 12 view .LVU806
 3283 002a 0120     		movs	r0, #1
 3284              	.LVL259:
1455:../../../core/ST/Middlewares/Third_Party/FreeRTOS/Source/CMSIS_RTOS/cmsis_os.c **** }
 3285              		.loc 1 1455 3 is_stmt 1 view .LVU807
1455:../../../core/ST/Middlewares/Third_Party/FreeRTOS/Source/CMSIS_RTOS/cmsis_os.c **** }
ARM GAS  C:\Users\tijsv\AppData\Local\Temp\cc6LJGIv.s 			page 92


 3286              		.loc 1 1455 10 is_stmt 0 view .LVU808
 3287 002c F3E7     		b	.L265
 3288              		.cfi_endproc
 3289              	.LFE71:
 3291              		.section	.text.osThreadIsSuspended,"ax",%progbits
 3292              		.align	1
 3293              		.global	osThreadIsSuspended
 3294              		.syntax unified
 3295              		.thumb
 3296              		.thumb_func
 3297              		.fpu fpv4-sp-d16
 3299              	osThreadIsSuspended:
 3300              	.LVL260:
 3301              	.LFB72:
1457:../../../core/ST/Middlewares/Third_Party/FreeRTOS/Source/CMSIS_RTOS/cmsis_os.c **** #endif /* INCLUDE_eTaskGetState */
1458:../../../core/ST/Middlewares/Third_Party/FreeRTOS/Source/CMSIS_RTOS/cmsis_os.c **** 
1459:../../../core/ST/Middlewares/Third_Party/FreeRTOS/Source/CMSIS_RTOS/cmsis_os.c **** #if (INCLUDE_eTaskGetState == 1)
1460:../../../core/ST/Middlewares/Third_Party/FreeRTOS/Source/CMSIS_RTOS/cmsis_os.c **** /**
1461:../../../core/ST/Middlewares/Third_Party/FreeRTOS/Source/CMSIS_RTOS/cmsis_os.c **** * @brief Check if a thread is already suspended or not.
1462:../../../core/ST/Middlewares/Third_Party/FreeRTOS/Source/CMSIS_RTOS/cmsis_os.c **** * @param thread_id thread ID obtained by \ref osThreadCreate or \ref osThreadGetId.
1463:../../../core/ST/Middlewares/Third_Party/FreeRTOS/Source/CMSIS_RTOS/cmsis_os.c **** * @retval status code that indicates the execution status of the function.
1464:../../../core/ST/Middlewares/Third_Party/FreeRTOS/Source/CMSIS_RTOS/cmsis_os.c **** */
1465:../../../core/ST/Middlewares/Third_Party/FreeRTOS/Source/CMSIS_RTOS/cmsis_os.c **** osStatus osThreadIsSuspended(osThreadId thread_id)
1466:../../../core/ST/Middlewares/Third_Party/FreeRTOS/Source/CMSIS_RTOS/cmsis_os.c **** {
 3302              		.loc 1 1466 1 is_stmt 1 view -0
 3303              		.cfi_startproc
 3304              		@ args = 0, pretend = 0, frame = 0
 3305              		@ frame_needed = 0, uses_anonymous_args = 0
 3306              		.loc 1 1466 1 is_stmt 0 view .LVU810
 3307 0000 08B5     		push	{r3, lr}
 3308              	.LCFI85:
 3309              		.cfi_def_cfa_offset 8
 3310              		.cfi_offset 3, -8
 3311              		.cfi_offset 14, -4
1467:../../../core/ST/Middlewares/Third_Party/FreeRTOS/Source/CMSIS_RTOS/cmsis_os.c ****   if (eTaskGetState(thread_id) == eSuspended)
 3312              		.loc 1 1467 3 is_stmt 1 view .LVU811
 3313              		.loc 1 1467 7 is_stmt 0 view .LVU812
 3314 0002 FFF7FEFF 		bl	eTaskGetState
 3315              	.LVL261:
 3316              		.loc 1 1467 6 view .LVU813
 3317 0006 0328     		cmp	r0, #3
 3318 0008 01D0     		beq	.L279
1468:../../../core/ST/Middlewares/Third_Party/FreeRTOS/Source/CMSIS_RTOS/cmsis_os.c ****     return osOK;
1469:../../../core/ST/Middlewares/Third_Party/FreeRTOS/Source/CMSIS_RTOS/cmsis_os.c ****   else
1470:../../../core/ST/Middlewares/Third_Party/FreeRTOS/Source/CMSIS_RTOS/cmsis_os.c ****     return osErrorOS;
 3319              		.loc 1 1470 12 view .LVU814
 3320 000a FF20     		movs	r0, #255
 3321              	.L275:
1471:../../../core/ST/Middlewares/Third_Party/FreeRTOS/Source/CMSIS_RTOS/cmsis_os.c **** }
 3322              		.loc 1 1471 1 view .LVU815
 3323 000c 08BD     		pop	{r3, pc}
 3324              	.L279:
1468:../../../core/ST/Middlewares/Third_Party/FreeRTOS/Source/CMSIS_RTOS/cmsis_os.c ****     return osOK;
 3325              		.loc 1 1468 12 view .LVU816
 3326 000e 0020     		movs	r0, #0
 3327 0010 FCE7     		b	.L275
 3328              		.cfi_endproc
ARM GAS  C:\Users\tijsv\AppData\Local\Temp\cc6LJGIv.s 			page 93


 3329              	.LFE72:
 3331              		.section	.text.osThreadSuspend,"ax",%progbits
 3332              		.align	1
 3333              		.global	osThreadSuspend
 3334              		.syntax unified
 3335              		.thumb
 3336              		.thumb_func
 3337              		.fpu fpv4-sp-d16
 3339              	osThreadSuspend:
 3340              	.LVL262:
 3341              	.LFB73:
1472:../../../core/ST/Middlewares/Third_Party/FreeRTOS/Source/CMSIS_RTOS/cmsis_os.c **** #endif /* INCLUDE_eTaskGetState */
1473:../../../core/ST/Middlewares/Third_Party/FreeRTOS/Source/CMSIS_RTOS/cmsis_os.c **** /**
1474:../../../core/ST/Middlewares/Third_Party/FreeRTOS/Source/CMSIS_RTOS/cmsis_os.c **** * @brief  Suspend execution of a thread.
1475:../../../core/ST/Middlewares/Third_Party/FreeRTOS/Source/CMSIS_RTOS/cmsis_os.c **** * @param   thread_id   thread ID obtained by \ref osThreadCreate or \ref osThreadGetId.
1476:../../../core/ST/Middlewares/Third_Party/FreeRTOS/Source/CMSIS_RTOS/cmsis_os.c **** * @retval  status code that indicates the execution status of the function.
1477:../../../core/ST/Middlewares/Third_Party/FreeRTOS/Source/CMSIS_RTOS/cmsis_os.c **** */
1478:../../../core/ST/Middlewares/Third_Party/FreeRTOS/Source/CMSIS_RTOS/cmsis_os.c **** osStatus osThreadSuspend (osThreadId thread_id)
1479:../../../core/ST/Middlewares/Third_Party/FreeRTOS/Source/CMSIS_RTOS/cmsis_os.c **** {
 3342              		.loc 1 1479 1 is_stmt 1 view -0
 3343              		.cfi_startproc
 3344              		@ args = 0, pretend = 0, frame = 0
 3345              		@ frame_needed = 0, uses_anonymous_args = 0
 3346              		.loc 1 1479 1 is_stmt 0 view .LVU818
 3347 0000 08B5     		push	{r3, lr}
 3348              	.LCFI86:
 3349              		.cfi_def_cfa_offset 8
 3350              		.cfi_offset 3, -8
 3351              		.cfi_offset 14, -4
1480:../../../core/ST/Middlewares/Third_Party/FreeRTOS/Source/CMSIS_RTOS/cmsis_os.c **** #if (INCLUDE_vTaskSuspend == 1)
1481:../../../core/ST/Middlewares/Third_Party/FreeRTOS/Source/CMSIS_RTOS/cmsis_os.c ****     vTaskSuspend(thread_id);
 3352              		.loc 1 1481 5 is_stmt 1 view .LVU819
 3353 0002 FFF7FEFF 		bl	vTaskSuspend
 3354              	.LVL263:
1482:../../../core/ST/Middlewares/Third_Party/FreeRTOS/Source/CMSIS_RTOS/cmsis_os.c ****   
1483:../../../core/ST/Middlewares/Third_Party/FreeRTOS/Source/CMSIS_RTOS/cmsis_os.c ****   return osOK;
 3355              		.loc 1 1483 3 view .LVU820
1484:../../../core/ST/Middlewares/Third_Party/FreeRTOS/Source/CMSIS_RTOS/cmsis_os.c **** #else
1485:../../../core/ST/Middlewares/Third_Party/FreeRTOS/Source/CMSIS_RTOS/cmsis_os.c ****   return osErrorResource;
1486:../../../core/ST/Middlewares/Third_Party/FreeRTOS/Source/CMSIS_RTOS/cmsis_os.c **** #endif
1487:../../../core/ST/Middlewares/Third_Party/FreeRTOS/Source/CMSIS_RTOS/cmsis_os.c **** }
 3356              		.loc 1 1487 1 is_stmt 0 view .LVU821
 3357 0006 0020     		movs	r0, #0
 3358 0008 08BD     		pop	{r3, pc}
 3359              		.cfi_endproc
 3360              	.LFE73:
 3362              		.section	.text.osThreadResume,"ax",%progbits
 3363              		.align	1
 3364              		.global	osThreadResume
 3365              		.syntax unified
 3366              		.thumb
 3367              		.thumb_func
 3368              		.fpu fpv4-sp-d16
 3370              	osThreadResume:
 3371              	.LVL264:
 3372              	.LFB74:
1488:../../../core/ST/Middlewares/Third_Party/FreeRTOS/Source/CMSIS_RTOS/cmsis_os.c **** 
ARM GAS  C:\Users\tijsv\AppData\Local\Temp\cc6LJGIv.s 			page 94


1489:../../../core/ST/Middlewares/Third_Party/FreeRTOS/Source/CMSIS_RTOS/cmsis_os.c **** /**
1490:../../../core/ST/Middlewares/Third_Party/FreeRTOS/Source/CMSIS_RTOS/cmsis_os.c **** * @brief  Resume execution of a suspended thread.
1491:../../../core/ST/Middlewares/Third_Party/FreeRTOS/Source/CMSIS_RTOS/cmsis_os.c **** * @param   thread_id   thread ID obtained by \ref osThreadCreate or \ref osThreadGetId.
1492:../../../core/ST/Middlewares/Third_Party/FreeRTOS/Source/CMSIS_RTOS/cmsis_os.c **** * @retval  status code that indicates the execution status of the function.
1493:../../../core/ST/Middlewares/Third_Party/FreeRTOS/Source/CMSIS_RTOS/cmsis_os.c **** */
1494:../../../core/ST/Middlewares/Third_Party/FreeRTOS/Source/CMSIS_RTOS/cmsis_os.c **** osStatus osThreadResume (osThreadId thread_id)
1495:../../../core/ST/Middlewares/Third_Party/FreeRTOS/Source/CMSIS_RTOS/cmsis_os.c **** {
 3373              		.loc 1 1495 1 is_stmt 1 view -0
 3374              		.cfi_startproc
 3375              		@ args = 0, pretend = 0, frame = 0
 3376              		@ frame_needed = 0, uses_anonymous_args = 0
 3377              		.loc 1 1495 1 is_stmt 0 view .LVU823
 3378 0000 10B5     		push	{r4, lr}
 3379              	.LCFI87:
 3380              		.cfi_def_cfa_offset 8
 3381              		.cfi_offset 4, -8
 3382              		.cfi_offset 14, -4
 3383 0002 0446     		mov	r4, r0
1496:../../../core/ST/Middlewares/Third_Party/FreeRTOS/Source/CMSIS_RTOS/cmsis_os.c **** #if (INCLUDE_vTaskSuspend == 1)  
1497:../../../core/ST/Middlewares/Third_Party/FreeRTOS/Source/CMSIS_RTOS/cmsis_os.c ****   if(inHandlerMode())
 3384              		.loc 1 1497 3 is_stmt 1 view .LVU824
 3385              		.loc 1 1497 6 is_stmt 0 view .LVU825
 3386 0004 FFF7FEFF 		bl	inHandlerMode
 3387              	.LVL265:
 3388              		.loc 1 1497 5 view .LVU826
 3389 0008 68B1     		cbz	r0, .L283
1498:../../../core/ST/Middlewares/Third_Party/FreeRTOS/Source/CMSIS_RTOS/cmsis_os.c ****   {
1499:../../../core/ST/Middlewares/Third_Party/FreeRTOS/Source/CMSIS_RTOS/cmsis_os.c ****     if (xTaskResumeFromISR(thread_id) == pdTRUE)
 3390              		.loc 1 1499 5 is_stmt 1 view .LVU827
 3391              		.loc 1 1499 9 is_stmt 0 view .LVU828
 3392 000a 2046     		mov	r0, r4
 3393 000c FFF7FEFF 		bl	xTaskResumeFromISR
 3394              	.LVL266:
 3395              		.loc 1 1499 8 view .LVU829
 3396 0010 0128     		cmp	r0, #1
 3397 0012 0BD1     		bne	.L284
1500:../../../core/ST/Middlewares/Third_Party/FreeRTOS/Source/CMSIS_RTOS/cmsis_os.c ****     {
1501:../../../core/ST/Middlewares/Third_Party/FreeRTOS/Source/CMSIS_RTOS/cmsis_os.c ****       portYIELD_FROM_ISR(pdTRUE);
 3398              		.loc 1 1501 7 is_stmt 1 discriminator 1 view .LVU830
 3399              		.loc 1 1501 7 discriminator 1 view .LVU831
 3400 0014 064B     		ldr	r3, .L286
 3401 0016 4FF08052 		mov	r2, #268435456
 3402 001a 1A60     		str	r2, [r3]
 3403              		.loc 1 1501 7 discriminator 1 view .LVU832
 3404              		.syntax unified
 3405              	@ 1501 "../../../core/ST/Middlewares/Third_Party/FreeRTOS/Source/CMSIS_RTOS/cmsis_os.c" 1
 3406 001c BFF34F8F 		dsb
 3407              	@ 0 "" 2
 3408              		.loc 1 1501 7 discriminator 1 view .LVU833
 3409              	@ 1501 "../../../core/ST/Middlewares/Third_Party/FreeRTOS/Source/CMSIS_RTOS/cmsis_os.c" 1
 3410 0020 BFF36F8F 		isb
 3411              	@ 0 "" 2
 3412              		.thumb
 3413              		.syntax unified
 3414 0024 02E0     		b	.L284
 3415              	.L283:
1502:../../../core/ST/Middlewares/Third_Party/FreeRTOS/Source/CMSIS_RTOS/cmsis_os.c ****     }
ARM GAS  C:\Users\tijsv\AppData\Local\Temp\cc6LJGIv.s 			page 95


1503:../../../core/ST/Middlewares/Third_Party/FreeRTOS/Source/CMSIS_RTOS/cmsis_os.c ****   }
1504:../../../core/ST/Middlewares/Third_Party/FreeRTOS/Source/CMSIS_RTOS/cmsis_os.c ****   else
1505:../../../core/ST/Middlewares/Third_Party/FreeRTOS/Source/CMSIS_RTOS/cmsis_os.c ****   {
1506:../../../core/ST/Middlewares/Third_Party/FreeRTOS/Source/CMSIS_RTOS/cmsis_os.c ****     vTaskResume(thread_id);
 3416              		.loc 1 1506 5 view .LVU834
 3417 0026 2046     		mov	r0, r4
 3418 0028 FFF7FEFF 		bl	vTaskResume
 3419              	.LVL267:
 3420              	.L284:
1507:../../../core/ST/Middlewares/Third_Party/FreeRTOS/Source/CMSIS_RTOS/cmsis_os.c ****   }
1508:../../../core/ST/Middlewares/Third_Party/FreeRTOS/Source/CMSIS_RTOS/cmsis_os.c ****   return osOK;
 3421              		.loc 1 1508 3 view .LVU835
1509:../../../core/ST/Middlewares/Third_Party/FreeRTOS/Source/CMSIS_RTOS/cmsis_os.c **** #else
1510:../../../core/ST/Middlewares/Third_Party/FreeRTOS/Source/CMSIS_RTOS/cmsis_os.c ****   return osErrorResource;
1511:../../../core/ST/Middlewares/Third_Party/FreeRTOS/Source/CMSIS_RTOS/cmsis_os.c **** #endif
1512:../../../core/ST/Middlewares/Third_Party/FreeRTOS/Source/CMSIS_RTOS/cmsis_os.c **** }
 3422              		.loc 1 1512 1 is_stmt 0 view .LVU836
 3423 002c 0020     		movs	r0, #0
 3424 002e 10BD     		pop	{r4, pc}
 3425              	.LVL268:
 3426              	.L287:
 3427              		.loc 1 1512 1 view .LVU837
 3428              		.align	2
 3429              	.L286:
 3430 0030 04ED00E0 		.word	-536810236
 3431              		.cfi_endproc
 3432              	.LFE74:
 3434              		.section	.text.osThreadSuspendAll,"ax",%progbits
 3435              		.align	1
 3436              		.global	osThreadSuspendAll
 3437              		.syntax unified
 3438              		.thumb
 3439              		.thumb_func
 3440              		.fpu fpv4-sp-d16
 3442              	osThreadSuspendAll:
 3443              	.LFB75:
1513:../../../core/ST/Middlewares/Third_Party/FreeRTOS/Source/CMSIS_RTOS/cmsis_os.c **** 
1514:../../../core/ST/Middlewares/Third_Party/FreeRTOS/Source/CMSIS_RTOS/cmsis_os.c **** /**
1515:../../../core/ST/Middlewares/Third_Party/FreeRTOS/Source/CMSIS_RTOS/cmsis_os.c **** * @brief  Suspend execution of a all active threads.
1516:../../../core/ST/Middlewares/Third_Party/FreeRTOS/Source/CMSIS_RTOS/cmsis_os.c **** * @retval  status code that indicates the execution status of the function.
1517:../../../core/ST/Middlewares/Third_Party/FreeRTOS/Source/CMSIS_RTOS/cmsis_os.c **** */
1518:../../../core/ST/Middlewares/Third_Party/FreeRTOS/Source/CMSIS_RTOS/cmsis_os.c **** osStatus osThreadSuspendAll (void)
1519:../../../core/ST/Middlewares/Third_Party/FreeRTOS/Source/CMSIS_RTOS/cmsis_os.c **** {
 3444              		.loc 1 1519 1 is_stmt 1 view -0
 3445              		.cfi_startproc
 3446              		@ args = 0, pretend = 0, frame = 0
 3447              		@ frame_needed = 0, uses_anonymous_args = 0
 3448 0000 08B5     		push	{r3, lr}
 3449              	.LCFI88:
 3450              		.cfi_def_cfa_offset 8
 3451              		.cfi_offset 3, -8
 3452              		.cfi_offset 14, -4
1520:../../../core/ST/Middlewares/Third_Party/FreeRTOS/Source/CMSIS_RTOS/cmsis_os.c ****   vTaskSuspendAll();
 3453              		.loc 1 1520 3 view .LVU839
 3454 0002 FFF7FEFF 		bl	vTaskSuspendAll
 3455              	.LVL269:
1521:../../../core/ST/Middlewares/Third_Party/FreeRTOS/Source/CMSIS_RTOS/cmsis_os.c ****   
ARM GAS  C:\Users\tijsv\AppData\Local\Temp\cc6LJGIv.s 			page 96


1522:../../../core/ST/Middlewares/Third_Party/FreeRTOS/Source/CMSIS_RTOS/cmsis_os.c ****   return osOK;
 3456              		.loc 1 1522 3 view .LVU840
1523:../../../core/ST/Middlewares/Third_Party/FreeRTOS/Source/CMSIS_RTOS/cmsis_os.c **** }
 3457              		.loc 1 1523 1 is_stmt 0 view .LVU841
 3458 0006 0020     		movs	r0, #0
 3459 0008 08BD     		pop	{r3, pc}
 3460              		.cfi_endproc
 3461              	.LFE75:
 3463              		.section	.text.osThreadResumeAll,"ax",%progbits
 3464              		.align	1
 3465              		.global	osThreadResumeAll
 3466              		.syntax unified
 3467              		.thumb
 3468              		.thumb_func
 3469              		.fpu fpv4-sp-d16
 3471              	osThreadResumeAll:
 3472              	.LFB76:
1524:../../../core/ST/Middlewares/Third_Party/FreeRTOS/Source/CMSIS_RTOS/cmsis_os.c **** 
1525:../../../core/ST/Middlewares/Third_Party/FreeRTOS/Source/CMSIS_RTOS/cmsis_os.c **** /**
1526:../../../core/ST/Middlewares/Third_Party/FreeRTOS/Source/CMSIS_RTOS/cmsis_os.c **** * @brief  Resume execution of a all suspended threads.
1527:../../../core/ST/Middlewares/Third_Party/FreeRTOS/Source/CMSIS_RTOS/cmsis_os.c **** * @retval  status code that indicates the execution status of the function.
1528:../../../core/ST/Middlewares/Third_Party/FreeRTOS/Source/CMSIS_RTOS/cmsis_os.c **** */
1529:../../../core/ST/Middlewares/Third_Party/FreeRTOS/Source/CMSIS_RTOS/cmsis_os.c **** osStatus osThreadResumeAll (void)
1530:../../../core/ST/Middlewares/Third_Party/FreeRTOS/Source/CMSIS_RTOS/cmsis_os.c **** {
 3473              		.loc 1 1530 1 is_stmt 1 view -0
 3474              		.cfi_startproc
 3475              		@ args = 0, pretend = 0, frame = 0
 3476              		@ frame_needed = 0, uses_anonymous_args = 0
 3477 0000 08B5     		push	{r3, lr}
 3478              	.LCFI89:
 3479              		.cfi_def_cfa_offset 8
 3480              		.cfi_offset 3, -8
 3481              		.cfi_offset 14, -4
1531:../../../core/ST/Middlewares/Third_Party/FreeRTOS/Source/CMSIS_RTOS/cmsis_os.c ****   if (xTaskResumeAll() == pdTRUE)
 3482              		.loc 1 1531 3 view .LVU843
 3483              		.loc 1 1531 7 is_stmt 0 view .LVU844
 3484 0002 FFF7FEFF 		bl	xTaskResumeAll
 3485              	.LVL270:
 3486              		.loc 1 1531 6 view .LVU845
 3487 0006 0128     		cmp	r0, #1
 3488 0008 01D0     		beq	.L294
1532:../../../core/ST/Middlewares/Third_Party/FreeRTOS/Source/CMSIS_RTOS/cmsis_os.c ****     return osOK;
1533:../../../core/ST/Middlewares/Third_Party/FreeRTOS/Source/CMSIS_RTOS/cmsis_os.c ****   else
1534:../../../core/ST/Middlewares/Third_Party/FreeRTOS/Source/CMSIS_RTOS/cmsis_os.c ****     return osErrorOS;
 3489              		.loc 1 1534 12 view .LVU846
 3490 000a FF20     		movs	r0, #255
 3491              	.L290:
1535:../../../core/ST/Middlewares/Third_Party/FreeRTOS/Source/CMSIS_RTOS/cmsis_os.c ****   
1536:../../../core/ST/Middlewares/Third_Party/FreeRTOS/Source/CMSIS_RTOS/cmsis_os.c **** }
 3492              		.loc 1 1536 1 view .LVU847
 3493 000c 08BD     		pop	{r3, pc}
 3494              	.L294:
1532:../../../core/ST/Middlewares/Third_Party/FreeRTOS/Source/CMSIS_RTOS/cmsis_os.c ****     return osOK;
 3495              		.loc 1 1532 12 view .LVU848
 3496 000e 0020     		movs	r0, #0
 3497 0010 FCE7     		b	.L290
 3498              		.cfi_endproc
ARM GAS  C:\Users\tijsv\AppData\Local\Temp\cc6LJGIv.s 			page 97


 3499              	.LFE76:
 3501              		.section	.text.osDelayUntil,"ax",%progbits
 3502              		.align	1
 3503              		.global	osDelayUntil
 3504              		.syntax unified
 3505              		.thumb
 3506              		.thumb_func
 3507              		.fpu fpv4-sp-d16
 3509              	osDelayUntil:
 3510              	.LVL271:
 3511              	.LFB77:
1537:../../../core/ST/Middlewares/Third_Party/FreeRTOS/Source/CMSIS_RTOS/cmsis_os.c **** 
1538:../../../core/ST/Middlewares/Third_Party/FreeRTOS/Source/CMSIS_RTOS/cmsis_os.c **** /**
1539:../../../core/ST/Middlewares/Third_Party/FreeRTOS/Source/CMSIS_RTOS/cmsis_os.c **** * @brief  Delay a task until a specified time
1540:../../../core/ST/Middlewares/Third_Party/FreeRTOS/Source/CMSIS_RTOS/cmsis_os.c **** * @param   PreviousWakeTime   Pointer to a variable that holds the time at which the 
1541:../../../core/ST/Middlewares/Third_Party/FreeRTOS/Source/CMSIS_RTOS/cmsis_os.c **** *          task was last unblocked. PreviousWakeTime must be initialised with the current time
1542:../../../core/ST/Middlewares/Third_Party/FreeRTOS/Source/CMSIS_RTOS/cmsis_os.c **** *          prior to its first use (PreviousWakeTime = osKernelSysTick() )
1543:../../../core/ST/Middlewares/Third_Party/FreeRTOS/Source/CMSIS_RTOS/cmsis_os.c **** * @param   millisec    time delay value
1544:../../../core/ST/Middlewares/Third_Party/FreeRTOS/Source/CMSIS_RTOS/cmsis_os.c **** * @retval  status code that indicates the execution status of the function.
1545:../../../core/ST/Middlewares/Third_Party/FreeRTOS/Source/CMSIS_RTOS/cmsis_os.c **** */
1546:../../../core/ST/Middlewares/Third_Party/FreeRTOS/Source/CMSIS_RTOS/cmsis_os.c **** osStatus osDelayUntil (uint32_t *PreviousWakeTime, uint32_t millisec)
1547:../../../core/ST/Middlewares/Third_Party/FreeRTOS/Source/CMSIS_RTOS/cmsis_os.c **** {
 3512              		.loc 1 1547 1 is_stmt 1 view -0
 3513              		.cfi_startproc
 3514              		@ args = 0, pretend = 0, frame = 0
 3515              		@ frame_needed = 0, uses_anonymous_args = 0
 3516              		@ link register save eliminated.
1548:../../../core/ST/Middlewares/Third_Party/FreeRTOS/Source/CMSIS_RTOS/cmsis_os.c **** #if INCLUDE_vTaskDelayUntil
1549:../../../core/ST/Middlewares/Third_Party/FreeRTOS/Source/CMSIS_RTOS/cmsis_os.c ****   TickType_t ticks = (millisec / portTICK_PERIOD_MS);
1550:../../../core/ST/Middlewares/Third_Party/FreeRTOS/Source/CMSIS_RTOS/cmsis_os.c ****   vTaskDelayUntil((TickType_t *) PreviousWakeTime, ticks ? ticks : 1);
1551:../../../core/ST/Middlewares/Third_Party/FreeRTOS/Source/CMSIS_RTOS/cmsis_os.c ****   
1552:../../../core/ST/Middlewares/Third_Party/FreeRTOS/Source/CMSIS_RTOS/cmsis_os.c ****   return osOK;
1553:../../../core/ST/Middlewares/Third_Party/FreeRTOS/Source/CMSIS_RTOS/cmsis_os.c **** #else
1554:../../../core/ST/Middlewares/Third_Party/FreeRTOS/Source/CMSIS_RTOS/cmsis_os.c ****   (void) millisec;
 3517              		.loc 1 1554 3 view .LVU850
1555:../../../core/ST/Middlewares/Third_Party/FreeRTOS/Source/CMSIS_RTOS/cmsis_os.c ****   (void) PreviousWakeTime;
 3518              		.loc 1 1555 3 view .LVU851
1556:../../../core/ST/Middlewares/Third_Party/FreeRTOS/Source/CMSIS_RTOS/cmsis_os.c ****   
1557:../../../core/ST/Middlewares/Third_Party/FreeRTOS/Source/CMSIS_RTOS/cmsis_os.c ****   return osErrorResource;
 3519              		.loc 1 1557 3 view .LVU852
1558:../../../core/ST/Middlewares/Third_Party/FreeRTOS/Source/CMSIS_RTOS/cmsis_os.c **** #endif
1559:../../../core/ST/Middlewares/Third_Party/FreeRTOS/Source/CMSIS_RTOS/cmsis_os.c **** }
 3520              		.loc 1 1559 1 is_stmt 0 view .LVU853
 3521 0000 8120     		movs	r0, #129
 3522              	.LVL272:
 3523              		.loc 1 1559 1 view .LVU854
 3524 0002 7047     		bx	lr
 3525              		.cfi_endproc
 3526              	.LFE77:
 3528              		.section	.text.osAbortDelay,"ax",%progbits
 3529              		.align	1
 3530              		.global	osAbortDelay
 3531              		.syntax unified
 3532              		.thumb
 3533              		.thumb_func
 3534              		.fpu fpv4-sp-d16
 3536              	osAbortDelay:
ARM GAS  C:\Users\tijsv\AppData\Local\Temp\cc6LJGIv.s 			page 98


 3537              	.LVL273:
 3538              	.LFB78:
1560:../../../core/ST/Middlewares/Third_Party/FreeRTOS/Source/CMSIS_RTOS/cmsis_os.c **** 
1561:../../../core/ST/Middlewares/Third_Party/FreeRTOS/Source/CMSIS_RTOS/cmsis_os.c **** /**
1562:../../../core/ST/Middlewares/Third_Party/FreeRTOS/Source/CMSIS_RTOS/cmsis_os.c **** * @brief   Abort the delay for a specific thread
1563:../../../core/ST/Middlewares/Third_Party/FreeRTOS/Source/CMSIS_RTOS/cmsis_os.c **** * @param   thread_id   thread ID obtained by \ref osThreadCreate or \ref osThreadGetId   
1564:../../../core/ST/Middlewares/Third_Party/FreeRTOS/Source/CMSIS_RTOS/cmsis_os.c **** * @retval  status code that indicates the execution status of the function.
1565:../../../core/ST/Middlewares/Third_Party/FreeRTOS/Source/CMSIS_RTOS/cmsis_os.c **** */
1566:../../../core/ST/Middlewares/Third_Party/FreeRTOS/Source/CMSIS_RTOS/cmsis_os.c **** osStatus osAbortDelay(osThreadId thread_id)
1567:../../../core/ST/Middlewares/Third_Party/FreeRTOS/Source/CMSIS_RTOS/cmsis_os.c **** {
 3539              		.loc 1 1567 1 is_stmt 1 view -0
 3540              		.cfi_startproc
 3541              		@ args = 0, pretend = 0, frame = 0
 3542              		@ frame_needed = 0, uses_anonymous_args = 0
 3543              		@ link register save eliminated.
1568:../../../core/ST/Middlewares/Third_Party/FreeRTOS/Source/CMSIS_RTOS/cmsis_os.c **** #if INCLUDE_xTaskAbortDelay
1569:../../../core/ST/Middlewares/Third_Party/FreeRTOS/Source/CMSIS_RTOS/cmsis_os.c ****   
1570:../../../core/ST/Middlewares/Third_Party/FreeRTOS/Source/CMSIS_RTOS/cmsis_os.c ****   xTaskAbortDelay(thread_id);
1571:../../../core/ST/Middlewares/Third_Party/FreeRTOS/Source/CMSIS_RTOS/cmsis_os.c ****   
1572:../../../core/ST/Middlewares/Third_Party/FreeRTOS/Source/CMSIS_RTOS/cmsis_os.c ****   return osOK;
1573:../../../core/ST/Middlewares/Third_Party/FreeRTOS/Source/CMSIS_RTOS/cmsis_os.c **** #else
1574:../../../core/ST/Middlewares/Third_Party/FreeRTOS/Source/CMSIS_RTOS/cmsis_os.c ****   (void) thread_id;
 3544              		.loc 1 1574 3 view .LVU856
1575:../../../core/ST/Middlewares/Third_Party/FreeRTOS/Source/CMSIS_RTOS/cmsis_os.c ****   
1576:../../../core/ST/Middlewares/Third_Party/FreeRTOS/Source/CMSIS_RTOS/cmsis_os.c ****   return osErrorResource;
 3545              		.loc 1 1576 3 view .LVU857
1577:../../../core/ST/Middlewares/Third_Party/FreeRTOS/Source/CMSIS_RTOS/cmsis_os.c **** #endif
1578:../../../core/ST/Middlewares/Third_Party/FreeRTOS/Source/CMSIS_RTOS/cmsis_os.c **** }
 3546              		.loc 1 1578 1 is_stmt 0 view .LVU858
 3547 0000 8120     		movs	r0, #129
 3548              	.LVL274:
 3549              		.loc 1 1578 1 view .LVU859
 3550 0002 7047     		bx	lr
 3551              		.cfi_endproc
 3552              	.LFE78:
 3554              		.section	.text.osThreadList,"ax",%progbits
 3555              		.align	1
 3556              		.global	osThreadList
 3557              		.syntax unified
 3558              		.thumb
 3559              		.thumb_func
 3560              		.fpu fpv4-sp-d16
 3562              	osThreadList:
 3563              	.LVL275:
 3564              	.LFB79:
1579:../../../core/ST/Middlewares/Third_Party/FreeRTOS/Source/CMSIS_RTOS/cmsis_os.c **** 
1580:../../../core/ST/Middlewares/Third_Party/FreeRTOS/Source/CMSIS_RTOS/cmsis_os.c **** /**
1581:../../../core/ST/Middlewares/Third_Party/FreeRTOS/Source/CMSIS_RTOS/cmsis_os.c **** * @brief   Lists all the current threads, along with their current state 
1582:../../../core/ST/Middlewares/Third_Party/FreeRTOS/Source/CMSIS_RTOS/cmsis_os.c **** *          and stack usage high water mark.
1583:../../../core/ST/Middlewares/Third_Party/FreeRTOS/Source/CMSIS_RTOS/cmsis_os.c **** * @param   buffer   A buffer into which the above mentioned details
1584:../../../core/ST/Middlewares/Third_Party/FreeRTOS/Source/CMSIS_RTOS/cmsis_os.c **** *          will be written
1585:../../../core/ST/Middlewares/Third_Party/FreeRTOS/Source/CMSIS_RTOS/cmsis_os.c **** * @retval  status code that indicates the execution status of the function.
1586:../../../core/ST/Middlewares/Third_Party/FreeRTOS/Source/CMSIS_RTOS/cmsis_os.c **** */
1587:../../../core/ST/Middlewares/Third_Party/FreeRTOS/Source/CMSIS_RTOS/cmsis_os.c **** osStatus osThreadList (uint8_t *buffer)
1588:../../../core/ST/Middlewares/Third_Party/FreeRTOS/Source/CMSIS_RTOS/cmsis_os.c **** {
 3565              		.loc 1 1588 1 is_stmt 1 view -0
 3566              		.cfi_startproc
ARM GAS  C:\Users\tijsv\AppData\Local\Temp\cc6LJGIv.s 			page 99


 3567              		@ args = 0, pretend = 0, frame = 0
 3568              		@ frame_needed = 0, uses_anonymous_args = 0
 3569              		@ link register save eliminated.
1589:../../../core/ST/Middlewares/Third_Party/FreeRTOS/Source/CMSIS_RTOS/cmsis_os.c **** #if ( ( configUSE_TRACE_FACILITY == 1 ) && ( configUSE_STATS_FORMATTING_FUNCTIONS == 1 ) )
1590:../../../core/ST/Middlewares/Third_Party/FreeRTOS/Source/CMSIS_RTOS/cmsis_os.c ****   vTaskList((char *)buffer);
1591:../../../core/ST/Middlewares/Third_Party/FreeRTOS/Source/CMSIS_RTOS/cmsis_os.c **** #endif
1592:../../../core/ST/Middlewares/Third_Party/FreeRTOS/Source/CMSIS_RTOS/cmsis_os.c ****   return osOK;
 3570              		.loc 1 1592 3 view .LVU861
1593:../../../core/ST/Middlewares/Third_Party/FreeRTOS/Source/CMSIS_RTOS/cmsis_os.c **** }
 3571              		.loc 1 1593 1 is_stmt 0 view .LVU862
 3572 0000 0020     		movs	r0, #0
 3573              	.LVL276:
 3574              		.loc 1 1593 1 view .LVU863
 3575 0002 7047     		bx	lr
 3576              		.cfi_endproc
 3577              	.LFE79:
 3579              		.section	.text.osMessagePeek,"ax",%progbits
 3580              		.align	1
 3581              		.global	osMessagePeek
 3582              		.syntax unified
 3583              		.thumb
 3584              		.thumb_func
 3585              		.fpu fpv4-sp-d16
 3587              	osMessagePeek:
 3588              	.LVL277:
 3589              	.LFB80:
1594:../../../core/ST/Middlewares/Third_Party/FreeRTOS/Source/CMSIS_RTOS/cmsis_os.c **** 
1595:../../../core/ST/Middlewares/Third_Party/FreeRTOS/Source/CMSIS_RTOS/cmsis_os.c **** /**
1596:../../../core/ST/Middlewares/Third_Party/FreeRTOS/Source/CMSIS_RTOS/cmsis_os.c **** * @brief  Receive an item from a queue without removing the item from the queue.
1597:../../../core/ST/Middlewares/Third_Party/FreeRTOS/Source/CMSIS_RTOS/cmsis_os.c **** * @param  queue_id  message queue ID obtained with \ref osMessageCreate.
1598:../../../core/ST/Middlewares/Third_Party/FreeRTOS/Source/CMSIS_RTOS/cmsis_os.c **** * @param  millisec  timeout value or 0 in case of no time-out.
1599:../../../core/ST/Middlewares/Third_Party/FreeRTOS/Source/CMSIS_RTOS/cmsis_os.c **** * @retval event information that includes status code.
1600:../../../core/ST/Middlewares/Third_Party/FreeRTOS/Source/CMSIS_RTOS/cmsis_os.c **** */
1601:../../../core/ST/Middlewares/Third_Party/FreeRTOS/Source/CMSIS_RTOS/cmsis_os.c **** osEvent osMessagePeek (osMessageQId queue_id, uint32_t millisec)
1602:../../../core/ST/Middlewares/Third_Party/FreeRTOS/Source/CMSIS_RTOS/cmsis_os.c **** {
 3590              		.loc 1 1602 1 is_stmt 1 view -0
 3591              		.cfi_startproc
 3592              		@ args = 0, pretend = 0, frame = 16
 3593              		@ frame_needed = 0, uses_anonymous_args = 0
 3594              		.loc 1 1602 1 is_stmt 0 view .LVU865
 3595 0000 30B5     		push	{r4, r5, lr}
 3596              	.LCFI90:
 3597              		.cfi_def_cfa_offset 12
 3598              		.cfi_offset 4, -12
 3599              		.cfi_offset 5, -8
 3600              		.cfi_offset 14, -4
 3601 0002 85B0     		sub	sp, sp, #20
 3602              	.LCFI91:
 3603              		.cfi_def_cfa_offset 32
 3604 0004 0446     		mov	r4, r0
1603:../../../core/ST/Middlewares/Third_Party/FreeRTOS/Source/CMSIS_RTOS/cmsis_os.c ****   TickType_t ticks;
 3605              		.loc 1 1603 3 is_stmt 1 view .LVU866
1604:../../../core/ST/Middlewares/Third_Party/FreeRTOS/Source/CMSIS_RTOS/cmsis_os.c ****   osEvent event;
 3606              		.loc 1 1604 3 view .LVU867
1605:../../../core/ST/Middlewares/Third_Party/FreeRTOS/Source/CMSIS_RTOS/cmsis_os.c ****   
1606:../../../core/ST/Middlewares/Third_Party/FreeRTOS/Source/CMSIS_RTOS/cmsis_os.c ****   event.def.message_id = queue_id;
 3607              		.loc 1 1606 3 view .LVU868
ARM GAS  C:\Users\tijsv\AppData\Local\Temp\cc6LJGIv.s 			page 100


 3608              		.loc 1 1606 24 is_stmt 0 view .LVU869
 3609 0006 0391     		str	r1, [sp, #12]
1607:../../../core/ST/Middlewares/Third_Party/FreeRTOS/Source/CMSIS_RTOS/cmsis_os.c ****   
1608:../../../core/ST/Middlewares/Third_Party/FreeRTOS/Source/CMSIS_RTOS/cmsis_os.c ****   if (queue_id == NULL) {
 3610              		.loc 1 1608 3 is_stmt 1 view .LVU870
 3611              		.loc 1 1608 6 is_stmt 0 view .LVU871
 3612 0008 89B1     		cbz	r1, .L306
 3613 000a 0846     		mov	r0, r1
 3614              	.LVL278:
 3615              		.loc 1 1608 6 view .LVU872
 3616 000c 1546     		mov	r5, r2
1609:../../../core/ST/Middlewares/Third_Party/FreeRTOS/Source/CMSIS_RTOS/cmsis_os.c ****     event.status = osErrorParameter;
1610:../../../core/ST/Middlewares/Third_Party/FreeRTOS/Source/CMSIS_RTOS/cmsis_os.c ****     return event;
1611:../../../core/ST/Middlewares/Third_Party/FreeRTOS/Source/CMSIS_RTOS/cmsis_os.c ****   }
1612:../../../core/ST/Middlewares/Third_Party/FreeRTOS/Source/CMSIS_RTOS/cmsis_os.c ****   
1613:../../../core/ST/Middlewares/Third_Party/FreeRTOS/Source/CMSIS_RTOS/cmsis_os.c ****   ticks = 0;
 3617              		.loc 1 1613 3 is_stmt 1 view .LVU873
 3618              	.LVL279:
1614:../../../core/ST/Middlewares/Third_Party/FreeRTOS/Source/CMSIS_RTOS/cmsis_os.c ****   if (millisec == osWaitForever) {
 3619              		.loc 1 1614 3 view .LVU874
1615:../../../core/ST/Middlewares/Third_Party/FreeRTOS/Source/CMSIS_RTOS/cmsis_os.c ****     ticks = portMAX_DELAY;
1616:../../../core/ST/Middlewares/Third_Party/FreeRTOS/Source/CMSIS_RTOS/cmsis_os.c ****   }
1617:../../../core/ST/Middlewares/Third_Party/FreeRTOS/Source/CMSIS_RTOS/cmsis_os.c ****   else if (millisec != 0) {
1618:../../../core/ST/Middlewares/Third_Party/FreeRTOS/Source/CMSIS_RTOS/cmsis_os.c ****     ticks = millisec / portTICK_PERIOD_MS;
1619:../../../core/ST/Middlewares/Third_Party/FreeRTOS/Source/CMSIS_RTOS/cmsis_os.c ****     if (ticks == 0) {
1620:../../../core/ST/Middlewares/Third_Party/FreeRTOS/Source/CMSIS_RTOS/cmsis_os.c ****       ticks = 1;
1621:../../../core/ST/Middlewares/Third_Party/FreeRTOS/Source/CMSIS_RTOS/cmsis_os.c ****     }
1622:../../../core/ST/Middlewares/Third_Party/FreeRTOS/Source/CMSIS_RTOS/cmsis_os.c ****   }
1623:../../../core/ST/Middlewares/Third_Party/FreeRTOS/Source/CMSIS_RTOS/cmsis_os.c ****   
1624:../../../core/ST/Middlewares/Third_Party/FreeRTOS/Source/CMSIS_RTOS/cmsis_os.c ****   if (xQueuePeek(queue_id, &event.value.v, ticks) == pdTRUE) 
 3620              		.loc 1 1624 3 view .LVU875
 3621              		.loc 1 1624 7 is_stmt 0 view .LVU876
 3622 000e 02A9     		add	r1, sp, #8
 3623              	.LVL280:
 3624              		.loc 1 1624 7 view .LVU877
 3625 0010 FFF7FEFF 		bl	xQueuePeek
 3626              	.LVL281:
 3627              		.loc 1 1624 6 view .LVU878
 3628 0014 0128     		cmp	r0, #1
 3629 0016 12D0     		beq	.L307
1625:../../../core/ST/Middlewares/Third_Party/FreeRTOS/Source/CMSIS_RTOS/cmsis_os.c ****   {
1626:../../../core/ST/Middlewares/Third_Party/FreeRTOS/Source/CMSIS_RTOS/cmsis_os.c ****     /* We have mail */
1627:../../../core/ST/Middlewares/Third_Party/FreeRTOS/Source/CMSIS_RTOS/cmsis_os.c ****     event.status = osEventMessage;
1628:../../../core/ST/Middlewares/Third_Party/FreeRTOS/Source/CMSIS_RTOS/cmsis_os.c ****   }
1629:../../../core/ST/Middlewares/Third_Party/FreeRTOS/Source/CMSIS_RTOS/cmsis_os.c ****   else 
1630:../../../core/ST/Middlewares/Third_Party/FreeRTOS/Source/CMSIS_RTOS/cmsis_os.c ****   {
1631:../../../core/ST/Middlewares/Third_Party/FreeRTOS/Source/CMSIS_RTOS/cmsis_os.c ****     event.status = (ticks == 0) ? osOK : osEventTimeout;
 3630              		.loc 1 1631 5 is_stmt 1 view .LVU879
 3631              		.loc 1 1631 40 is_stmt 0 view .LVU880
 3632 0018 05B1     		cbz	r5, .L303
 3633 001a 4025     		movs	r5, #64
 3634              	.LVL282:
 3635              	.L303:
 3636              		.loc 1 1631 18 discriminator 4 view .LVU881
 3637 001c 0195     		str	r5, [sp, #4]
 3638              	.L302:
1632:../../../core/ST/Middlewares/Third_Party/FreeRTOS/Source/CMSIS_RTOS/cmsis_os.c ****   }
ARM GAS  C:\Users\tijsv\AppData\Local\Temp\cc6LJGIv.s 			page 101


1633:../../../core/ST/Middlewares/Third_Party/FreeRTOS/Source/CMSIS_RTOS/cmsis_os.c ****   
1634:../../../core/ST/Middlewares/Third_Party/FreeRTOS/Source/CMSIS_RTOS/cmsis_os.c ****   return event;
 3639              		.loc 1 1634 3 is_stmt 1 view .LVU882
 3640              		.loc 1 1634 10 is_stmt 0 view .LVU883
 3641 001e 04AB     		add	r3, sp, #16
 3642 0020 13E90700 		ldmdb	r3, {r0, r1, r2}
 3643 0024 84E80700 		stm	r4, {r0, r1, r2}
 3644              	.LVL283:
 3645              	.L298:
1635:../../../core/ST/Middlewares/Third_Party/FreeRTOS/Source/CMSIS_RTOS/cmsis_os.c **** }
 3646              		.loc 1 1635 1 view .LVU884
 3647 0028 2046     		mov	r0, r4
 3648 002a 05B0     		add	sp, sp, #20
 3649              	.LCFI92:
 3650              		.cfi_remember_state
 3651              		.cfi_def_cfa_offset 12
 3652              		@ sp needed
 3653 002c 30BD     		pop	{r4, r5, pc}
 3654              	.LVL284:
 3655              	.L306:
 3656              	.LCFI93:
 3657              		.cfi_restore_state
1609:../../../core/ST/Middlewares/Third_Party/FreeRTOS/Source/CMSIS_RTOS/cmsis_os.c ****     return event;
 3658              		.loc 1 1609 5 is_stmt 1 view .LVU885
1609:../../../core/ST/Middlewares/Third_Party/FreeRTOS/Source/CMSIS_RTOS/cmsis_os.c ****     return event;
 3659              		.loc 1 1609 18 is_stmt 0 view .LVU886
 3660 002e 8023     		movs	r3, #128
 3661 0030 0193     		str	r3, [sp, #4]
1610:../../../core/ST/Middlewares/Third_Party/FreeRTOS/Source/CMSIS_RTOS/cmsis_os.c ****   }
 3662              		.loc 1 1610 5 is_stmt 1 view .LVU887
1610:../../../core/ST/Middlewares/Third_Party/FreeRTOS/Source/CMSIS_RTOS/cmsis_os.c ****   }
 3663              		.loc 1 1610 12 is_stmt 0 view .LVU888
 3664 0032 04AB     		add	r3, sp, #16
 3665 0034 13E90700 		ldmdb	r3, {r0, r1, r2}
 3666              	.LVL285:
1610:../../../core/ST/Middlewares/Third_Party/FreeRTOS/Source/CMSIS_RTOS/cmsis_os.c ****   }
 3667              		.loc 1 1610 12 view .LVU889
 3668 0038 84E80700 		stm	r4, {r0, r1, r2}
 3669 003c F4E7     		b	.L298
 3670              	.LVL286:
 3671              	.L307:
1627:../../../core/ST/Middlewares/Third_Party/FreeRTOS/Source/CMSIS_RTOS/cmsis_os.c ****   }
 3672              		.loc 1 1627 5 is_stmt 1 view .LVU890
1627:../../../core/ST/Middlewares/Third_Party/FreeRTOS/Source/CMSIS_RTOS/cmsis_os.c ****   }
 3673              		.loc 1 1627 18 is_stmt 0 view .LVU891
 3674 003e 1023     		movs	r3, #16
 3675 0040 0193     		str	r3, [sp, #4]
 3676 0042 ECE7     		b	.L302
 3677              		.cfi_endproc
 3678              	.LFE80:
 3680              		.section	.text.osMessageWaiting,"ax",%progbits
 3681              		.align	1
 3682              		.global	osMessageWaiting
 3683              		.syntax unified
 3684              		.thumb
 3685              		.thumb_func
 3686              		.fpu fpv4-sp-d16
ARM GAS  C:\Users\tijsv\AppData\Local\Temp\cc6LJGIv.s 			page 102


 3688              	osMessageWaiting:
 3689              	.LVL287:
 3690              	.LFB81:
1636:../../../core/ST/Middlewares/Third_Party/FreeRTOS/Source/CMSIS_RTOS/cmsis_os.c **** 
1637:../../../core/ST/Middlewares/Third_Party/FreeRTOS/Source/CMSIS_RTOS/cmsis_os.c **** /**
1638:../../../core/ST/Middlewares/Third_Party/FreeRTOS/Source/CMSIS_RTOS/cmsis_os.c **** * @brief  Get the number of messaged stored in a queue.
1639:../../../core/ST/Middlewares/Third_Party/FreeRTOS/Source/CMSIS_RTOS/cmsis_os.c **** * @param  queue_id  message queue ID obtained with \ref osMessageCreate.
1640:../../../core/ST/Middlewares/Third_Party/FreeRTOS/Source/CMSIS_RTOS/cmsis_os.c **** * @retval number of messages stored in a queue.
1641:../../../core/ST/Middlewares/Third_Party/FreeRTOS/Source/CMSIS_RTOS/cmsis_os.c **** */
1642:../../../core/ST/Middlewares/Third_Party/FreeRTOS/Source/CMSIS_RTOS/cmsis_os.c **** uint32_t osMessageWaiting(osMessageQId queue_id)
1643:../../../core/ST/Middlewares/Third_Party/FreeRTOS/Source/CMSIS_RTOS/cmsis_os.c **** {
 3691              		.loc 1 1643 1 is_stmt 1 view -0
 3692              		.cfi_startproc
 3693              		@ args = 0, pretend = 0, frame = 0
 3694              		@ frame_needed = 0, uses_anonymous_args = 0
 3695              		.loc 1 1643 1 is_stmt 0 view .LVU893
 3696 0000 10B5     		push	{r4, lr}
 3697              	.LCFI94:
 3698              		.cfi_def_cfa_offset 8
 3699              		.cfi_offset 4, -8
 3700              		.cfi_offset 14, -4
 3701 0002 0446     		mov	r4, r0
1644:../../../core/ST/Middlewares/Third_Party/FreeRTOS/Source/CMSIS_RTOS/cmsis_os.c ****   if (inHandlerMode()) {
 3702              		.loc 1 1644 3 is_stmt 1 view .LVU894
 3703              		.loc 1 1644 7 is_stmt 0 view .LVU895
 3704 0004 FFF7FEFF 		bl	inHandlerMode
 3705              	.LVL288:
 3706              		.loc 1 1644 6 view .LVU896
 3707 0008 18B1     		cbz	r0, .L309
1645:../../../core/ST/Middlewares/Third_Party/FreeRTOS/Source/CMSIS_RTOS/cmsis_os.c ****     return uxQueueMessagesWaitingFromISR(queue_id);
 3708              		.loc 1 1645 5 is_stmt 1 view .LVU897
 3709              		.loc 1 1645 12 is_stmt 0 view .LVU898
 3710 000a 2046     		mov	r0, r4
 3711 000c FFF7FEFF 		bl	uxQueueMessagesWaitingFromISR
 3712              	.LVL289:
 3713              	.L308:
1646:../../../core/ST/Middlewares/Third_Party/FreeRTOS/Source/CMSIS_RTOS/cmsis_os.c ****   }
1647:../../../core/ST/Middlewares/Third_Party/FreeRTOS/Source/CMSIS_RTOS/cmsis_os.c ****   else
1648:../../../core/ST/Middlewares/Third_Party/FreeRTOS/Source/CMSIS_RTOS/cmsis_os.c ****   {
1649:../../../core/ST/Middlewares/Third_Party/FreeRTOS/Source/CMSIS_RTOS/cmsis_os.c ****     return uxQueueMessagesWaiting(queue_id);
1650:../../../core/ST/Middlewares/Third_Party/FreeRTOS/Source/CMSIS_RTOS/cmsis_os.c ****   }
1651:../../../core/ST/Middlewares/Third_Party/FreeRTOS/Source/CMSIS_RTOS/cmsis_os.c **** }
 3714              		.loc 1 1651 1 view .LVU899
 3715 0010 10BD     		pop	{r4, pc}
 3716              	.LVL290:
 3717              	.L309:
1649:../../../core/ST/Middlewares/Third_Party/FreeRTOS/Source/CMSIS_RTOS/cmsis_os.c ****   }
 3718              		.loc 1 1649 5 is_stmt 1 view .LVU900
1649:../../../core/ST/Middlewares/Third_Party/FreeRTOS/Source/CMSIS_RTOS/cmsis_os.c ****   }
 3719              		.loc 1 1649 12 is_stmt 0 view .LVU901
 3720 0012 2046     		mov	r0, r4
 3721 0014 FFF7FEFF 		bl	uxQueueMessagesWaiting
 3722              	.LVL291:
 3723 0018 FAE7     		b	.L308
 3724              		.cfi_endproc
 3725              	.LFE81:
 3727              		.section	.text.osMessageAvailableSpace,"ax",%progbits
ARM GAS  C:\Users\tijsv\AppData\Local\Temp\cc6LJGIv.s 			page 103


 3728              		.align	1
 3729              		.global	osMessageAvailableSpace
 3730              		.syntax unified
 3731              		.thumb
 3732              		.thumb_func
 3733              		.fpu fpv4-sp-d16
 3735              	osMessageAvailableSpace:
 3736              	.LVL292:
 3737              	.LFB82:
1652:../../../core/ST/Middlewares/Third_Party/FreeRTOS/Source/CMSIS_RTOS/cmsis_os.c **** 
1653:../../../core/ST/Middlewares/Third_Party/FreeRTOS/Source/CMSIS_RTOS/cmsis_os.c **** /**
1654:../../../core/ST/Middlewares/Third_Party/FreeRTOS/Source/CMSIS_RTOS/cmsis_os.c **** * @brief  Get the available space in a message queue.
1655:../../../core/ST/Middlewares/Third_Party/FreeRTOS/Source/CMSIS_RTOS/cmsis_os.c **** * @param  queue_id  message queue ID obtained with \ref osMessageCreate.
1656:../../../core/ST/Middlewares/Third_Party/FreeRTOS/Source/CMSIS_RTOS/cmsis_os.c **** * @retval available space in a message queue.
1657:../../../core/ST/Middlewares/Third_Party/FreeRTOS/Source/CMSIS_RTOS/cmsis_os.c **** */
1658:../../../core/ST/Middlewares/Third_Party/FreeRTOS/Source/CMSIS_RTOS/cmsis_os.c **** uint32_t osMessageAvailableSpace(osMessageQId queue_id)  
1659:../../../core/ST/Middlewares/Third_Party/FreeRTOS/Source/CMSIS_RTOS/cmsis_os.c **** {
 3738              		.loc 1 1659 1 is_stmt 1 view -0
 3739              		.cfi_startproc
 3740              		@ args = 0, pretend = 0, frame = 0
 3741              		@ frame_needed = 0, uses_anonymous_args = 0
 3742              		.loc 1 1659 1 is_stmt 0 view .LVU903
 3743 0000 08B5     		push	{r3, lr}
 3744              	.LCFI95:
 3745              		.cfi_def_cfa_offset 8
 3746              		.cfi_offset 3, -8
 3747              		.cfi_offset 14, -4
1660:../../../core/ST/Middlewares/Third_Party/FreeRTOS/Source/CMSIS_RTOS/cmsis_os.c ****   return uxQueueSpacesAvailable(queue_id);
 3748              		.loc 1 1660 3 is_stmt 1 view .LVU904
 3749              		.loc 1 1660 10 is_stmt 0 view .LVU905
 3750 0002 FFF7FEFF 		bl	uxQueueSpacesAvailable
 3751              	.LVL293:
1661:../../../core/ST/Middlewares/Third_Party/FreeRTOS/Source/CMSIS_RTOS/cmsis_os.c **** }
 3752              		.loc 1 1661 1 view .LVU906
 3753 0006 08BD     		pop	{r3, pc}
 3754              		.cfi_endproc
 3755              	.LFE82:
 3757              		.section	.text.osMessageDelete,"ax",%progbits
 3758              		.align	1
 3759              		.global	osMessageDelete
 3760              		.syntax unified
 3761              		.thumb
 3762              		.thumb_func
 3763              		.fpu fpv4-sp-d16
 3765              	osMessageDelete:
 3766              	.LVL294:
 3767              	.LFB83:
1662:../../../core/ST/Middlewares/Third_Party/FreeRTOS/Source/CMSIS_RTOS/cmsis_os.c **** 
1663:../../../core/ST/Middlewares/Third_Party/FreeRTOS/Source/CMSIS_RTOS/cmsis_os.c **** /**
1664:../../../core/ST/Middlewares/Third_Party/FreeRTOS/Source/CMSIS_RTOS/cmsis_os.c **** * @brief Delete a Message Queue
1665:../../../core/ST/Middlewares/Third_Party/FreeRTOS/Source/CMSIS_RTOS/cmsis_os.c **** * @param  queue_id  message queue ID obtained with \ref osMessageCreate.
1666:../../../core/ST/Middlewares/Third_Party/FreeRTOS/Source/CMSIS_RTOS/cmsis_os.c **** * @retval  status code that indicates the execution status of the function.
1667:../../../core/ST/Middlewares/Third_Party/FreeRTOS/Source/CMSIS_RTOS/cmsis_os.c **** */
1668:../../../core/ST/Middlewares/Third_Party/FreeRTOS/Source/CMSIS_RTOS/cmsis_os.c **** osStatus osMessageDelete (osMessageQId queue_id)
1669:../../../core/ST/Middlewares/Third_Party/FreeRTOS/Source/CMSIS_RTOS/cmsis_os.c **** {
 3768              		.loc 1 1669 1 is_stmt 1 view -0
 3769              		.cfi_startproc
ARM GAS  C:\Users\tijsv\AppData\Local\Temp\cc6LJGIv.s 			page 104


 3770              		@ args = 0, pretend = 0, frame = 0
 3771              		@ frame_needed = 0, uses_anonymous_args = 0
 3772              		.loc 1 1669 1 is_stmt 0 view .LVU908
 3773 0000 10B5     		push	{r4, lr}
 3774              	.LCFI96:
 3775              		.cfi_def_cfa_offset 8
 3776              		.cfi_offset 4, -8
 3777              		.cfi_offset 14, -4
 3778 0002 0446     		mov	r4, r0
1670:../../../core/ST/Middlewares/Third_Party/FreeRTOS/Source/CMSIS_RTOS/cmsis_os.c ****   if (inHandlerMode()) {
 3779              		.loc 1 1670 3 is_stmt 1 view .LVU909
 3780              		.loc 1 1670 7 is_stmt 0 view .LVU910
 3781 0004 FFF7FEFF 		bl	inHandlerMode
 3782              	.LVL295:
 3783              		.loc 1 1670 6 view .LVU911
 3784 0008 20B9     		cbnz	r0, .L316
1671:../../../core/ST/Middlewares/Third_Party/FreeRTOS/Source/CMSIS_RTOS/cmsis_os.c ****     return osErrorISR;
1672:../../../core/ST/Middlewares/Third_Party/FreeRTOS/Source/CMSIS_RTOS/cmsis_os.c ****   }
1673:../../../core/ST/Middlewares/Third_Party/FreeRTOS/Source/CMSIS_RTOS/cmsis_os.c **** 
1674:../../../core/ST/Middlewares/Third_Party/FreeRTOS/Source/CMSIS_RTOS/cmsis_os.c ****   vQueueDelete(queue_id);
 3785              		.loc 1 1674 3 is_stmt 1 view .LVU912
 3786 000a 2046     		mov	r0, r4
 3787 000c FFF7FEFF 		bl	vQueueDelete
 3788              	.LVL296:
1675:../../../core/ST/Middlewares/Third_Party/FreeRTOS/Source/CMSIS_RTOS/cmsis_os.c **** 
1676:../../../core/ST/Middlewares/Third_Party/FreeRTOS/Source/CMSIS_RTOS/cmsis_os.c ****   return osOK; 
 3789              		.loc 1 1676 3 view .LVU913
 3790              		.loc 1 1676 10 is_stmt 0 view .LVU914
 3791 0010 0020     		movs	r0, #0
 3792              	.L314:
1677:../../../core/ST/Middlewares/Third_Party/FreeRTOS/Source/CMSIS_RTOS/cmsis_os.c **** }
 3793              		.loc 1 1677 1 view .LVU915
 3794 0012 10BD     		pop	{r4, pc}
 3795              	.LVL297:
 3796              	.L316:
1671:../../../core/ST/Middlewares/Third_Party/FreeRTOS/Source/CMSIS_RTOS/cmsis_os.c ****     return osErrorISR;
 3797              		.loc 1 1671 12 view .LVU916
 3798 0014 8220     		movs	r0, #130
 3799 0016 FCE7     		b	.L314
 3800              		.cfi_endproc
 3801              	.LFE83:
 3803              		.section	.text.osRecursiveMutexCreate,"ax",%progbits
 3804              		.align	1
 3805              		.global	osRecursiveMutexCreate
 3806              		.syntax unified
 3807              		.thumb
 3808              		.thumb_func
 3809              		.fpu fpv4-sp-d16
 3811              	osRecursiveMutexCreate:
 3812              	.LVL298:
 3813              	.LFB84:
1678:../../../core/ST/Middlewares/Third_Party/FreeRTOS/Source/CMSIS_RTOS/cmsis_os.c **** 
1679:../../../core/ST/Middlewares/Third_Party/FreeRTOS/Source/CMSIS_RTOS/cmsis_os.c **** /**
1680:../../../core/ST/Middlewares/Third_Party/FreeRTOS/Source/CMSIS_RTOS/cmsis_os.c **** * @brief  Create and Initialize a Recursive Mutex
1681:../../../core/ST/Middlewares/Third_Party/FreeRTOS/Source/CMSIS_RTOS/cmsis_os.c **** * @param  mutex_def     mutex definition referenced with \ref osMutex.
1682:../../../core/ST/Middlewares/Third_Party/FreeRTOS/Source/CMSIS_RTOS/cmsis_os.c **** * @retval  mutex ID for reference by other functions or NULL in case of error..
1683:../../../core/ST/Middlewares/Third_Party/FreeRTOS/Source/CMSIS_RTOS/cmsis_os.c **** */
ARM GAS  C:\Users\tijsv\AppData\Local\Temp\cc6LJGIv.s 			page 105


1684:../../../core/ST/Middlewares/Third_Party/FreeRTOS/Source/CMSIS_RTOS/cmsis_os.c **** osMutexId osRecursiveMutexCreate (const osMutexDef_t *mutex_def)
1685:../../../core/ST/Middlewares/Third_Party/FreeRTOS/Source/CMSIS_RTOS/cmsis_os.c **** {
 3814              		.loc 1 1685 1 is_stmt 1 view -0
 3815              		.cfi_startproc
 3816              		@ args = 0, pretend = 0, frame = 0
 3817              		@ frame_needed = 0, uses_anonymous_args = 0
 3818              		@ link register save eliminated.
1686:../../../core/ST/Middlewares/Third_Party/FreeRTOS/Source/CMSIS_RTOS/cmsis_os.c **** #if (configUSE_RECURSIVE_MUTEXES == 1)
1687:../../../core/ST/Middlewares/Third_Party/FreeRTOS/Source/CMSIS_RTOS/cmsis_os.c **** #if( configSUPPORT_STATIC_ALLOCATION == 1 ) && ( configSUPPORT_DYNAMIC_ALLOCATION == 1 )
1688:../../../core/ST/Middlewares/Third_Party/FreeRTOS/Source/CMSIS_RTOS/cmsis_os.c **** 
1689:../../../core/ST/Middlewares/Third_Party/FreeRTOS/Source/CMSIS_RTOS/cmsis_os.c ****   if (mutex_def->controlblock != NULL){
1690:../../../core/ST/Middlewares/Third_Party/FreeRTOS/Source/CMSIS_RTOS/cmsis_os.c ****     return xSemaphoreCreateRecursiveMutexStatic( mutex_def->controlblock );
1691:../../../core/ST/Middlewares/Third_Party/FreeRTOS/Source/CMSIS_RTOS/cmsis_os.c ****   }
1692:../../../core/ST/Middlewares/Third_Party/FreeRTOS/Source/CMSIS_RTOS/cmsis_os.c ****   else {
1693:../../../core/ST/Middlewares/Third_Party/FreeRTOS/Source/CMSIS_RTOS/cmsis_os.c ****     return xSemaphoreCreateRecursiveMutex();
1694:../../../core/ST/Middlewares/Third_Party/FreeRTOS/Source/CMSIS_RTOS/cmsis_os.c ****   }
1695:../../../core/ST/Middlewares/Third_Party/FreeRTOS/Source/CMSIS_RTOS/cmsis_os.c **** #elif ( configSUPPORT_STATIC_ALLOCATION == 1 )
1696:../../../core/ST/Middlewares/Third_Party/FreeRTOS/Source/CMSIS_RTOS/cmsis_os.c ****   return xSemaphoreCreateRecursiveMutexStatic( mutex_def->controlblock );
1697:../../../core/ST/Middlewares/Third_Party/FreeRTOS/Source/CMSIS_RTOS/cmsis_os.c **** #else 
1698:../../../core/ST/Middlewares/Third_Party/FreeRTOS/Source/CMSIS_RTOS/cmsis_os.c ****   return xSemaphoreCreateRecursiveMutex();
1699:../../../core/ST/Middlewares/Third_Party/FreeRTOS/Source/CMSIS_RTOS/cmsis_os.c **** #endif
1700:../../../core/ST/Middlewares/Third_Party/FreeRTOS/Source/CMSIS_RTOS/cmsis_os.c **** #else
1701:../../../core/ST/Middlewares/Third_Party/FreeRTOS/Source/CMSIS_RTOS/cmsis_os.c ****   return NULL;
 3819              		.loc 1 1701 3 view .LVU918
1702:../../../core/ST/Middlewares/Third_Party/FreeRTOS/Source/CMSIS_RTOS/cmsis_os.c **** #endif	
1703:../../../core/ST/Middlewares/Third_Party/FreeRTOS/Source/CMSIS_RTOS/cmsis_os.c **** }
 3820              		.loc 1 1703 1 is_stmt 0 view .LVU919
 3821 0000 0020     		movs	r0, #0
 3822              	.LVL299:
 3823              		.loc 1 1703 1 view .LVU920
 3824 0002 7047     		bx	lr
 3825              		.cfi_endproc
 3826              	.LFE84:
 3828              		.section	.text.osRecursiveMutexRelease,"ax",%progbits
 3829              		.align	1
 3830              		.global	osRecursiveMutexRelease
 3831              		.syntax unified
 3832              		.thumb
 3833              		.thumb_func
 3834              		.fpu fpv4-sp-d16
 3836              	osRecursiveMutexRelease:
 3837              	.LVL300:
 3838              	.LFB85:
1704:../../../core/ST/Middlewares/Third_Party/FreeRTOS/Source/CMSIS_RTOS/cmsis_os.c **** 
1705:../../../core/ST/Middlewares/Third_Party/FreeRTOS/Source/CMSIS_RTOS/cmsis_os.c **** /**
1706:../../../core/ST/Middlewares/Third_Party/FreeRTOS/Source/CMSIS_RTOS/cmsis_os.c **** * @brief  Release a Recursive Mutex
1707:../../../core/ST/Middlewares/Third_Party/FreeRTOS/Source/CMSIS_RTOS/cmsis_os.c **** * @param   mutex_id      mutex ID obtained by \ref osRecursiveMutexCreate.
1708:../../../core/ST/Middlewares/Third_Party/FreeRTOS/Source/CMSIS_RTOS/cmsis_os.c **** * @retval  status code that indicates the execution status of the function.
1709:../../../core/ST/Middlewares/Third_Party/FreeRTOS/Source/CMSIS_RTOS/cmsis_os.c **** */
1710:../../../core/ST/Middlewares/Third_Party/FreeRTOS/Source/CMSIS_RTOS/cmsis_os.c **** osStatus osRecursiveMutexRelease (osMutexId mutex_id)
1711:../../../core/ST/Middlewares/Third_Party/FreeRTOS/Source/CMSIS_RTOS/cmsis_os.c **** {
 3839              		.loc 1 1711 1 is_stmt 1 view -0
 3840              		.cfi_startproc
 3841              		@ args = 0, pretend = 0, frame = 0
 3842              		@ frame_needed = 0, uses_anonymous_args = 0
 3843              		@ link register save eliminated.
1712:../../../core/ST/Middlewares/Third_Party/FreeRTOS/Source/CMSIS_RTOS/cmsis_os.c **** #if (configUSE_RECURSIVE_MUTEXES == 1)
ARM GAS  C:\Users\tijsv\AppData\Local\Temp\cc6LJGIv.s 			page 106


1713:../../../core/ST/Middlewares/Third_Party/FreeRTOS/Source/CMSIS_RTOS/cmsis_os.c ****   osStatus result = osOK;
1714:../../../core/ST/Middlewares/Third_Party/FreeRTOS/Source/CMSIS_RTOS/cmsis_os.c ****  
1715:../../../core/ST/Middlewares/Third_Party/FreeRTOS/Source/CMSIS_RTOS/cmsis_os.c ****   if (xSemaphoreGiveRecursive(mutex_id) != pdTRUE) 
1716:../../../core/ST/Middlewares/Third_Party/FreeRTOS/Source/CMSIS_RTOS/cmsis_os.c ****   {
1717:../../../core/ST/Middlewares/Third_Party/FreeRTOS/Source/CMSIS_RTOS/cmsis_os.c ****     result = osErrorOS;
1718:../../../core/ST/Middlewares/Third_Party/FreeRTOS/Source/CMSIS_RTOS/cmsis_os.c ****   }
1719:../../../core/ST/Middlewares/Third_Party/FreeRTOS/Source/CMSIS_RTOS/cmsis_os.c ****   return result;
1720:../../../core/ST/Middlewares/Third_Party/FreeRTOS/Source/CMSIS_RTOS/cmsis_os.c **** #else
1721:../../../core/ST/Middlewares/Third_Party/FreeRTOS/Source/CMSIS_RTOS/cmsis_os.c **** 	return osErrorResource;
 3844              		.loc 1 1721 2 view .LVU922
1722:../../../core/ST/Middlewares/Third_Party/FreeRTOS/Source/CMSIS_RTOS/cmsis_os.c **** #endif
1723:../../../core/ST/Middlewares/Third_Party/FreeRTOS/Source/CMSIS_RTOS/cmsis_os.c **** }
 3845              		.loc 1 1723 1 is_stmt 0 view .LVU923
 3846 0000 8120     		movs	r0, #129
 3847              	.LVL301:
 3848              		.loc 1 1723 1 view .LVU924
 3849 0002 7047     		bx	lr
 3850              		.cfi_endproc
 3851              	.LFE85:
 3853              		.section	.text.osRecursiveMutexWait,"ax",%progbits
 3854              		.align	1
 3855              		.global	osRecursiveMutexWait
 3856              		.syntax unified
 3857              		.thumb
 3858              		.thumb_func
 3859              		.fpu fpv4-sp-d16
 3861              	osRecursiveMutexWait:
 3862              	.LVL302:
 3863              	.LFB86:
1724:../../../core/ST/Middlewares/Third_Party/FreeRTOS/Source/CMSIS_RTOS/cmsis_os.c **** 
1725:../../../core/ST/Middlewares/Third_Party/FreeRTOS/Source/CMSIS_RTOS/cmsis_os.c **** /**
1726:../../../core/ST/Middlewares/Third_Party/FreeRTOS/Source/CMSIS_RTOS/cmsis_os.c **** * @brief  Release a Recursive Mutex
1727:../../../core/ST/Middlewares/Third_Party/FreeRTOS/Source/CMSIS_RTOS/cmsis_os.c **** * @param   mutex_id    mutex ID obtained by \ref osRecursiveMutexCreate.
1728:../../../core/ST/Middlewares/Third_Party/FreeRTOS/Source/CMSIS_RTOS/cmsis_os.c **** * @param millisec      timeout value or 0 in case of no time-out.
1729:../../../core/ST/Middlewares/Third_Party/FreeRTOS/Source/CMSIS_RTOS/cmsis_os.c **** * @retval  status code that indicates the execution status of the function.
1730:../../../core/ST/Middlewares/Third_Party/FreeRTOS/Source/CMSIS_RTOS/cmsis_os.c **** */
1731:../../../core/ST/Middlewares/Third_Party/FreeRTOS/Source/CMSIS_RTOS/cmsis_os.c **** osStatus osRecursiveMutexWait (osMutexId mutex_id, uint32_t millisec)
1732:../../../core/ST/Middlewares/Third_Party/FreeRTOS/Source/CMSIS_RTOS/cmsis_os.c **** {
 3864              		.loc 1 1732 1 is_stmt 1 view -0
 3865              		.cfi_startproc
 3866              		@ args = 0, pretend = 0, frame = 0
 3867              		@ frame_needed = 0, uses_anonymous_args = 0
 3868              		@ link register save eliminated.
1733:../../../core/ST/Middlewares/Third_Party/FreeRTOS/Source/CMSIS_RTOS/cmsis_os.c **** #if (configUSE_RECURSIVE_MUTEXES == 1)
1734:../../../core/ST/Middlewares/Third_Party/FreeRTOS/Source/CMSIS_RTOS/cmsis_os.c ****   TickType_t ticks;
1735:../../../core/ST/Middlewares/Third_Party/FreeRTOS/Source/CMSIS_RTOS/cmsis_os.c ****   
1736:../../../core/ST/Middlewares/Third_Party/FreeRTOS/Source/CMSIS_RTOS/cmsis_os.c ****   if (mutex_id == NULL)
1737:../../../core/ST/Middlewares/Third_Party/FreeRTOS/Source/CMSIS_RTOS/cmsis_os.c ****   {
1738:../../../core/ST/Middlewares/Third_Party/FreeRTOS/Source/CMSIS_RTOS/cmsis_os.c ****     return osErrorParameter;
1739:../../../core/ST/Middlewares/Third_Party/FreeRTOS/Source/CMSIS_RTOS/cmsis_os.c ****   }
1740:../../../core/ST/Middlewares/Third_Party/FreeRTOS/Source/CMSIS_RTOS/cmsis_os.c ****   
1741:../../../core/ST/Middlewares/Third_Party/FreeRTOS/Source/CMSIS_RTOS/cmsis_os.c ****   ticks = 0;
1742:../../../core/ST/Middlewares/Third_Party/FreeRTOS/Source/CMSIS_RTOS/cmsis_os.c ****   if (millisec == osWaitForever) 
1743:../../../core/ST/Middlewares/Third_Party/FreeRTOS/Source/CMSIS_RTOS/cmsis_os.c ****   {
1744:../../../core/ST/Middlewares/Third_Party/FreeRTOS/Source/CMSIS_RTOS/cmsis_os.c ****     ticks = portMAX_DELAY;
1745:../../../core/ST/Middlewares/Third_Party/FreeRTOS/Source/CMSIS_RTOS/cmsis_os.c ****   }
1746:../../../core/ST/Middlewares/Third_Party/FreeRTOS/Source/CMSIS_RTOS/cmsis_os.c ****   else if (millisec != 0) 
ARM GAS  C:\Users\tijsv\AppData\Local\Temp\cc6LJGIv.s 			page 107


1747:../../../core/ST/Middlewares/Third_Party/FreeRTOS/Source/CMSIS_RTOS/cmsis_os.c ****   {
1748:../../../core/ST/Middlewares/Third_Party/FreeRTOS/Source/CMSIS_RTOS/cmsis_os.c ****     ticks = millisec / portTICK_PERIOD_MS;
1749:../../../core/ST/Middlewares/Third_Party/FreeRTOS/Source/CMSIS_RTOS/cmsis_os.c ****     if (ticks == 0) 
1750:../../../core/ST/Middlewares/Third_Party/FreeRTOS/Source/CMSIS_RTOS/cmsis_os.c ****     {
1751:../../../core/ST/Middlewares/Third_Party/FreeRTOS/Source/CMSIS_RTOS/cmsis_os.c ****       ticks = 1;
1752:../../../core/ST/Middlewares/Third_Party/FreeRTOS/Source/CMSIS_RTOS/cmsis_os.c ****     }
1753:../../../core/ST/Middlewares/Third_Party/FreeRTOS/Source/CMSIS_RTOS/cmsis_os.c ****   }
1754:../../../core/ST/Middlewares/Third_Party/FreeRTOS/Source/CMSIS_RTOS/cmsis_os.c ****   
1755:../../../core/ST/Middlewares/Third_Party/FreeRTOS/Source/CMSIS_RTOS/cmsis_os.c ****   if (xSemaphoreTakeRecursive(mutex_id, ticks) != pdTRUE) 
1756:../../../core/ST/Middlewares/Third_Party/FreeRTOS/Source/CMSIS_RTOS/cmsis_os.c ****   {
1757:../../../core/ST/Middlewares/Third_Party/FreeRTOS/Source/CMSIS_RTOS/cmsis_os.c ****     return osErrorOS;
1758:../../../core/ST/Middlewares/Third_Party/FreeRTOS/Source/CMSIS_RTOS/cmsis_os.c ****   }
1759:../../../core/ST/Middlewares/Third_Party/FreeRTOS/Source/CMSIS_RTOS/cmsis_os.c ****   return osOK;
1760:../../../core/ST/Middlewares/Third_Party/FreeRTOS/Source/CMSIS_RTOS/cmsis_os.c **** #else
1761:../../../core/ST/Middlewares/Third_Party/FreeRTOS/Source/CMSIS_RTOS/cmsis_os.c **** 	return osErrorResource;
 3869              		.loc 1 1761 2 view .LVU926
1762:../../../core/ST/Middlewares/Third_Party/FreeRTOS/Source/CMSIS_RTOS/cmsis_os.c **** #endif
1763:../../../core/ST/Middlewares/Third_Party/FreeRTOS/Source/CMSIS_RTOS/cmsis_os.c **** }
 3870              		.loc 1 1763 1 is_stmt 0 view .LVU927
 3871 0000 8120     		movs	r0, #129
 3872              	.LVL303:
 3873              		.loc 1 1763 1 view .LVU928
 3874 0002 7047     		bx	lr
 3875              		.cfi_endproc
 3876              	.LFE86:
 3878              		.section	.text.osSemaphoreGetCount,"ax",%progbits
 3879              		.align	1
 3880              		.global	osSemaphoreGetCount
 3881              		.syntax unified
 3882              		.thumb
 3883              		.thumb_func
 3884              		.fpu fpv4-sp-d16
 3886              	osSemaphoreGetCount:
 3887              	.LVL304:
 3888              	.LFB87:
1764:../../../core/ST/Middlewares/Third_Party/FreeRTOS/Source/CMSIS_RTOS/cmsis_os.c **** 
1765:../../../core/ST/Middlewares/Third_Party/FreeRTOS/Source/CMSIS_RTOS/cmsis_os.c **** /**
1766:../../../core/ST/Middlewares/Third_Party/FreeRTOS/Source/CMSIS_RTOS/cmsis_os.c **** * @brief  Returns the current count value of a counting semaphore
1767:../../../core/ST/Middlewares/Third_Party/FreeRTOS/Source/CMSIS_RTOS/cmsis_os.c **** * @param  semaphore_id  semaphore_id ID obtained by \ref osSemaphoreCreate.
1768:../../../core/ST/Middlewares/Third_Party/FreeRTOS/Source/CMSIS_RTOS/cmsis_os.c **** * @retval  count value
1769:../../../core/ST/Middlewares/Third_Party/FreeRTOS/Source/CMSIS_RTOS/cmsis_os.c **** */
1770:../../../core/ST/Middlewares/Third_Party/FreeRTOS/Source/CMSIS_RTOS/cmsis_os.c **** uint32_t osSemaphoreGetCount(osSemaphoreId semaphore_id)
1771:../../../core/ST/Middlewares/Third_Party/FreeRTOS/Source/CMSIS_RTOS/cmsis_os.c **** {
 3889              		.loc 1 1771 1 is_stmt 1 view -0
 3890              		.cfi_startproc
 3891              		@ args = 0, pretend = 0, frame = 0
 3892              		@ frame_needed = 0, uses_anonymous_args = 0
 3893              		.loc 1 1771 1 is_stmt 0 view .LVU930
 3894 0000 08B5     		push	{r3, lr}
 3895              	.LCFI97:
 3896              		.cfi_def_cfa_offset 8
 3897              		.cfi_offset 3, -8
 3898              		.cfi_offset 14, -4
1772:../../../core/ST/Middlewares/Third_Party/FreeRTOS/Source/CMSIS_RTOS/cmsis_os.c ****   return uxSemaphoreGetCount(semaphore_id);
 3899              		.loc 1 1772 3 is_stmt 1 view .LVU931
 3900              		.loc 1 1772 10 is_stmt 0 view .LVU932
 3901 0002 FFF7FEFF 		bl	uxQueueMessagesWaiting
ARM GAS  C:\Users\tijsv\AppData\Local\Temp\cc6LJGIv.s 			page 108


 3902              	.LVL305:
1773:../../../core/ST/Middlewares/Third_Party/FreeRTOS/Source/CMSIS_RTOS/cmsis_os.c **** }
 3903              		.loc 1 1773 1 view .LVU933
 3904 0006 08BD     		pop	{r3, pc}
 3905              		.cfi_endproc
 3906              	.LFE87:
 3908              		.text
 3909              	.Letext0:
 3910              		.file 4 "c:\\program files (x86)\\gnu tools arm embedded\\9 2019-q4-major\\arm-none-eabi\\include\
 3911              		.file 5 "c:\\program files (x86)\\gnu tools arm embedded\\9 2019-q4-major\\arm-none-eabi\\include\
 3912              		.file 6 "c:\\program files (x86)\\gnu tools arm embedded\\9 2019-q4-major\\arm-none-eabi\\include\
 3913              		.file 7 "c:\\program files (x86)\\gnu tools arm embedded\\9 2019-q4-major\\lib\\gcc\\arm-none-eabi
 3914              		.file 8 "c:\\program files (x86)\\gnu tools arm embedded\\9 2019-q4-major\\arm-none-eabi\\include\
 3915              		.file 9 "c:\\program files (x86)\\gnu tools arm embedded\\9 2019-q4-major\\arm-none-eabi\\include\
 3916              		.file 10 "../../../core/platform/octa/inc/FreeRTOSConfig.h"
 3917              		.file 11 "../../../core/ST/Middlewares/Third_Party/FreeRTOS/Source/include/projdefs.h"
 3918              		.file 12 "../../../core/ST/Middlewares/Third_Party/FreeRTOS/Source/include/task.h"
 3919              		.file 13 "../../../core/ST/Middlewares/Third_Party/FreeRTOS/Source/include/timers.h"
 3920              		.file 14 "../../../core/ST/Middlewares/Third_Party/FreeRTOS/Source/include/queue.h"
 3921              		.file 15 "../../../core/ST/Middlewares/Third_Party/FreeRTOS/Source/include/semphr.h"
 3922              		.file 16 "../../../core/ST/Middlewares/Third_Party/FreeRTOS/Source/CMSIS_RTOS/cmsis_os.h"
 3923              		.file 17 "../../../core/ST/Middlewares/Third_Party/FreeRTOS/Source/include/portable.h"
ARM GAS  C:\Users\tijsv\AppData\Local\Temp\cc6LJGIv.s 			page 109


DEFINED SYMBOLS
                            *ABS*:00000000 cmsis_os.c
C:\Users\tijsv\AppData\Local\Temp\cc6LJGIv.s:18     .text.makeFreeRtosPriority:00000000 $t
C:\Users\tijsv\AppData\Local\Temp\cc6LJGIv.s:25     .text.makeFreeRtosPriority:00000000 makeFreeRtosPriority
C:\Users\tijsv\AppData\Local\Temp\cc6LJGIv.s:57     .text.makeCmsisPriority:00000000 $t
C:\Users\tijsv\AppData\Local\Temp\cc6LJGIv.s:63     .text.makeCmsisPriority:00000000 makeCmsisPriority
C:\Users\tijsv\AppData\Local\Temp\cc6LJGIv.s:97     .text.inHandlerMode:00000000 $t
C:\Users\tijsv\AppData\Local\Temp\cc6LJGIv.s:103    .text.inHandlerMode:00000000 inHandlerMode
C:\Users\tijsv\AppData\Local\Temp\cc6LJGIv.s:138    .text.osKernelStart:00000000 $t
C:\Users\tijsv\AppData\Local\Temp\cc6LJGIv.s:145    .text.osKernelStart:00000000 osKernelStart
C:\Users\tijsv\AppData\Local\Temp\cc6LJGIv.s:167    .text.osKernelRunning:00000000 $t
C:\Users\tijsv\AppData\Local\Temp\cc6LJGIv.s:174    .text.osKernelRunning:00000000 osKernelRunning
C:\Users\tijsv\AppData\Local\Temp\cc6LJGIv.s:205    .text.osKernelSysTick:00000000 $t
C:\Users\tijsv\AppData\Local\Temp\cc6LJGIv.s:212    .text.osKernelSysTick:00000000 osKernelSysTick
C:\Users\tijsv\AppData\Local\Temp\cc6LJGIv.s:246    .text.osThreadCreate:00000000 $t
C:\Users\tijsv\AppData\Local\Temp\cc6LJGIv.s:253    .text.osThreadCreate:00000000 osThreadCreate
C:\Users\tijsv\AppData\Local\Temp\cc6LJGIv.s:322    .text.osThreadGetId:00000000 $t
C:\Users\tijsv\AppData\Local\Temp\cc6LJGIv.s:329    .text.osThreadGetId:00000000 osThreadGetId
C:\Users\tijsv\AppData\Local\Temp\cc6LJGIv.s:350    .text.osThreadTerminate:00000000 $t
C:\Users\tijsv\AppData\Local\Temp\cc6LJGIv.s:357    .text.osThreadTerminate:00000000 osThreadTerminate
C:\Users\tijsv\AppData\Local\Temp\cc6LJGIv.s:381    .text.osThreadYield:00000000 $t
C:\Users\tijsv\AppData\Local\Temp\cc6LJGIv.s:388    .text.osThreadYield:00000000 osThreadYield
C:\Users\tijsv\AppData\Local\Temp\cc6LJGIv.s:418    .text.osThreadYield:00000014 $d
C:\Users\tijsv\AppData\Local\Temp\cc6LJGIv.s:423    .text.osThreadSetPriority:00000000 $t
C:\Users\tijsv\AppData\Local\Temp\cc6LJGIv.s:430    .text.osThreadSetPriority:00000000 osThreadSetPriority
C:\Users\tijsv\AppData\Local\Temp\cc6LJGIv.s:464    .text.osThreadGetPriority:00000000 $t
C:\Users\tijsv\AppData\Local\Temp\cc6LJGIv.s:471    .text.osThreadGetPriority:00000000 osThreadGetPriority
C:\Users\tijsv\AppData\Local\Temp\cc6LJGIv.s:515    .text.osDelay:00000000 $t
C:\Users\tijsv\AppData\Local\Temp\cc6LJGIv.s:522    .text.osDelay:00000000 osDelay
C:\Users\tijsv\AppData\Local\Temp\cc6LJGIv.s:553    .rodata.osTimerCreate.str1.4:00000000 $d
C:\Users\tijsv\AppData\Local\Temp\cc6LJGIv.s:557    .text.osTimerCreate:00000000 $t
C:\Users\tijsv\AppData\Local\Temp\cc6LJGIv.s:564    .text.osTimerCreate:00000000 osTimerCreate
C:\Users\tijsv\AppData\Local\Temp\cc6LJGIv.s:617    .text.osTimerCreate:00000024 $d
C:\Users\tijsv\AppData\Local\Temp\cc6LJGIv.s:622    .text.osTimerStart:00000000 $t
C:\Users\tijsv\AppData\Local\Temp\cc6LJGIv.s:629    .text.osTimerStart:00000000 osTimerStart
C:\Users\tijsv\AppData\Local\Temp\cc6LJGIv.s:749    .text.osTimerStart:00000068 $d
C:\Users\tijsv\AppData\Local\Temp\cc6LJGIv.s:754    .text.osTimerStop:00000000 $t
C:\Users\tijsv\AppData\Local\Temp\cc6LJGIv.s:761    .text.osTimerStop:00000000 osTimerStop
C:\Users\tijsv\AppData\Local\Temp\cc6LJGIv.s:865    .text.osTimerStop:00000060 $d
C:\Users\tijsv\AppData\Local\Temp\cc6LJGIv.s:870    .text.osTimerDelete:00000000 $t
C:\Users\tijsv\AppData\Local\Temp\cc6LJGIv.s:877    .text.osTimerDelete:00000000 osTimerDelete
C:\Users\tijsv\AppData\Local\Temp\cc6LJGIv.s:941    .text.osSignalSet:00000000 $t
C:\Users\tijsv\AppData\Local\Temp\cc6LJGIv.s:948    .text.osSignalSet:00000000 osSignalSet
C:\Users\tijsv\AppData\Local\Temp\cc6LJGIv.s:1050   .text.osSignalSet:00000060 $d
C:\Users\tijsv\AppData\Local\Temp\cc6LJGIv.s:1055   .text.osSignalWait:00000000 $t
C:\Users\tijsv\AppData\Local\Temp\cc6LJGIv.s:1062   .text.osSignalWait:00000000 osSignalWait
C:\Users\tijsv\AppData\Local\Temp\cc6LJGIv.s:1167   .text.osMutexCreate:00000000 $t
C:\Users\tijsv\AppData\Local\Temp\cc6LJGIv.s:1174   .text.osMutexCreate:00000000 osMutexCreate
C:\Users\tijsv\AppData\Local\Temp\cc6LJGIv.s:1200   .text.osMutexWait:00000000 $t
C:\Users\tijsv\AppData\Local\Temp\cc6LJGIv.s:1207   .text.osMutexWait:00000000 osMutexWait
C:\Users\tijsv\AppData\Local\Temp\cc6LJGIv.s:1320   .text.osMutexWait:0000005c $d
C:\Users\tijsv\AppData\Local\Temp\cc6LJGIv.s:1325   .text.osMutexRelease:00000000 $t
C:\Users\tijsv\AppData\Local\Temp\cc6LJGIv.s:1332   .text.osMutexRelease:00000000 osMutexRelease
C:\Users\tijsv\AppData\Local\Temp\cc6LJGIv.s:1432   .text.osMutexRelease:00000058 $d
C:\Users\tijsv\AppData\Local\Temp\cc6LJGIv.s:1437   .text.osMutexDelete:00000000 $t
C:\Users\tijsv\AppData\Local\Temp\cc6LJGIv.s:1444   .text.osMutexDelete:00000000 osMutexDelete
C:\Users\tijsv\AppData\Local\Temp\cc6LJGIv.s:1483   .text.osSemaphoreCreate:00000000 $t
ARM GAS  C:\Users\tijsv\AppData\Local\Temp\cc6LJGIv.s 			page 110


C:\Users\tijsv\AppData\Local\Temp\cc6LJGIv.s:1490   .text.osSemaphoreCreate:00000000 osSemaphoreCreate
C:\Users\tijsv\AppData\Local\Temp\cc6LJGIv.s:1545   .text.osSemaphoreWait:00000000 $t
C:\Users\tijsv\AppData\Local\Temp\cc6LJGIv.s:1552   .text.osSemaphoreWait:00000000 osSemaphoreWait
C:\Users\tijsv\AppData\Local\Temp\cc6LJGIv.s:1660   .text.osSemaphoreWait:0000005c $d
C:\Users\tijsv\AppData\Local\Temp\cc6LJGIv.s:1665   .text.osSemaphoreRelease:00000000 $t
C:\Users\tijsv\AppData\Local\Temp\cc6LJGIv.s:1672   .text.osSemaphoreRelease:00000000 osSemaphoreRelease
C:\Users\tijsv\AppData\Local\Temp\cc6LJGIv.s:1772   .text.osSemaphoreRelease:00000058 $d
C:\Users\tijsv\AppData\Local\Temp\cc6LJGIv.s:1777   .text.osSemaphoreDelete:00000000 $t
C:\Users\tijsv\AppData\Local\Temp\cc6LJGIv.s:1784   .text.osSemaphoreDelete:00000000 osSemaphoreDelete
C:\Users\tijsv\AppData\Local\Temp\cc6LJGIv.s:1823   .text.osPoolCreate:00000000 $t
C:\Users\tijsv\AppData\Local\Temp\cc6LJGIv.s:1830   .text.osPoolCreate:00000000 osPoolCreate
C:\Users\tijsv\AppData\Local\Temp\cc6LJGIv.s:1966   .text.osPoolAlloc:00000000 $t
C:\Users\tijsv\AppData\Local\Temp\cc6LJGIv.s:1973   .text.osPoolAlloc:00000000 osPoolAlloc
C:\Users\tijsv\AppData\Local\Temp\cc6LJGIv.s:2140   .text.osPoolCAlloc:00000000 $t
C:\Users\tijsv\AppData\Local\Temp\cc6LJGIv.s:2147   .text.osPoolCAlloc:00000000 osPoolCAlloc
C:\Users\tijsv\AppData\Local\Temp\cc6LJGIv.s:2178   .text.osPoolFree:00000000 $t
C:\Users\tijsv\AppData\Local\Temp\cc6LJGIv.s:2185   .text.osPoolFree:00000000 osPoolFree
C:\Users\tijsv\AppData\Local\Temp\cc6LJGIv.s:2276   .text.osMessageCreate:00000000 $t
C:\Users\tijsv\AppData\Local\Temp\cc6LJGIv.s:2283   .text.osMessageCreate:00000000 osMessageCreate
C:\Users\tijsv\AppData\Local\Temp\cc6LJGIv.s:2314   .text.osMessagePut:00000000 $t
C:\Users\tijsv\AppData\Local\Temp\cc6LJGIv.s:2321   .text.osMessagePut:00000000 osMessagePut
C:\Users\tijsv\AppData\Local\Temp\cc6LJGIv.s:2433   .text.osMessagePut:00000064 $d
C:\Users\tijsv\AppData\Local\Temp\cc6LJGIv.s:2438   .text.osMessageGet:00000000 $t
C:\Users\tijsv\AppData\Local\Temp\cc6LJGIv.s:2445   .text.osMessageGet:00000000 osMessageGet
C:\Users\tijsv\AppData\Local\Temp\cc6LJGIv.s:2594   .text.osMessageGet:00000084 $d
C:\Users\tijsv\AppData\Local\Temp\cc6LJGIv.s:2599   .text.osMailCreate:00000000 $t
C:\Users\tijsv\AppData\Local\Temp\cc6LJGIv.s:2606   .text.osMailCreate:00000000 osMailCreate
C:\Users\tijsv\AppData\Local\Temp\cc6LJGIv.s:2731   .text.osMailAlloc:00000000 $t
C:\Users\tijsv\AppData\Local\Temp\cc6LJGIv.s:2738   .text.osMailAlloc:00000000 osMailAlloc
C:\Users\tijsv\AppData\Local\Temp\cc6LJGIv.s:2771   .text.osMailCAlloc:00000000 $t
C:\Users\tijsv\AppData\Local\Temp\cc6LJGIv.s:2778   .text.osMailCAlloc:00000000 osMailCAlloc
C:\Users\tijsv\AppData\Local\Temp\cc6LJGIv.s:2835   .text.osMailPut:00000000 $t
C:\Users\tijsv\AppData\Local\Temp\cc6LJGIv.s:2842   .text.osMailPut:00000000 osMailPut
C:\Users\tijsv\AppData\Local\Temp\cc6LJGIv.s:2954   .text.osMailPut:00000064 $d
C:\Users\tijsv\AppData\Local\Temp\cc6LJGIv.s:2959   .text.osMailGet:00000000 $t
C:\Users\tijsv\AppData\Local\Temp\cc6LJGIv.s:2966   .text.osMailGet:00000000 osMailGet
C:\Users\tijsv\AppData\Local\Temp\cc6LJGIv.s:3111   .text.osMailGet:00000080 $d
C:\Users\tijsv\AppData\Local\Temp\cc6LJGIv.s:3116   .text.osMailFree:00000000 $t
C:\Users\tijsv\AppData\Local\Temp\cc6LJGIv.s:3123   .text.osMailFree:00000000 osMailFree
C:\Users\tijsv\AppData\Local\Temp\cc6LJGIv.s:3163   .text.osSystickHandler:00000000 $t
C:\Users\tijsv\AppData\Local\Temp\cc6LJGIv.s:3170   .text.osSystickHandler:00000000 osSystickHandler
C:\Users\tijsv\AppData\Local\Temp\cc6LJGIv.s:3201   .text.osThreadGetState:00000000 $t
C:\Users\tijsv\AppData\Local\Temp\cc6LJGIv.s:3208   .text.osThreadGetState:00000000 osThreadGetState
C:\Users\tijsv\AppData\Local\Temp\cc6LJGIv.s:3232   .text.osThreadGetState:0000000e $d
C:\Users\tijsv\AppData\Local\Temp\cc6LJGIv.s:3292   .text.osThreadIsSuspended:00000000 $t
C:\Users\tijsv\AppData\Local\Temp\cc6LJGIv.s:3299   .text.osThreadIsSuspended:00000000 osThreadIsSuspended
C:\Users\tijsv\AppData\Local\Temp\cc6LJGIv.s:3332   .text.osThreadSuspend:00000000 $t
C:\Users\tijsv\AppData\Local\Temp\cc6LJGIv.s:3339   .text.osThreadSuspend:00000000 osThreadSuspend
C:\Users\tijsv\AppData\Local\Temp\cc6LJGIv.s:3363   .text.osThreadResume:00000000 $t
C:\Users\tijsv\AppData\Local\Temp\cc6LJGIv.s:3370   .text.osThreadResume:00000000 osThreadResume
C:\Users\tijsv\AppData\Local\Temp\cc6LJGIv.s:3430   .text.osThreadResume:00000030 $d
C:\Users\tijsv\AppData\Local\Temp\cc6LJGIv.s:3435   .text.osThreadSuspendAll:00000000 $t
C:\Users\tijsv\AppData\Local\Temp\cc6LJGIv.s:3442   .text.osThreadSuspendAll:00000000 osThreadSuspendAll
C:\Users\tijsv\AppData\Local\Temp\cc6LJGIv.s:3464   .text.osThreadResumeAll:00000000 $t
C:\Users\tijsv\AppData\Local\Temp\cc6LJGIv.s:3471   .text.osThreadResumeAll:00000000 osThreadResumeAll
C:\Users\tijsv\AppData\Local\Temp\cc6LJGIv.s:3502   .text.osDelayUntil:00000000 $t
C:\Users\tijsv\AppData\Local\Temp\cc6LJGIv.s:3509   .text.osDelayUntil:00000000 osDelayUntil
ARM GAS  C:\Users\tijsv\AppData\Local\Temp\cc6LJGIv.s 			page 111


C:\Users\tijsv\AppData\Local\Temp\cc6LJGIv.s:3529   .text.osAbortDelay:00000000 $t
C:\Users\tijsv\AppData\Local\Temp\cc6LJGIv.s:3536   .text.osAbortDelay:00000000 osAbortDelay
C:\Users\tijsv\AppData\Local\Temp\cc6LJGIv.s:3555   .text.osThreadList:00000000 $t
C:\Users\tijsv\AppData\Local\Temp\cc6LJGIv.s:3562   .text.osThreadList:00000000 osThreadList
C:\Users\tijsv\AppData\Local\Temp\cc6LJGIv.s:3580   .text.osMessagePeek:00000000 $t
C:\Users\tijsv\AppData\Local\Temp\cc6LJGIv.s:3587   .text.osMessagePeek:00000000 osMessagePeek
C:\Users\tijsv\AppData\Local\Temp\cc6LJGIv.s:3681   .text.osMessageWaiting:00000000 $t
C:\Users\tijsv\AppData\Local\Temp\cc6LJGIv.s:3688   .text.osMessageWaiting:00000000 osMessageWaiting
C:\Users\tijsv\AppData\Local\Temp\cc6LJGIv.s:3728   .text.osMessageAvailableSpace:00000000 $t
C:\Users\tijsv\AppData\Local\Temp\cc6LJGIv.s:3735   .text.osMessageAvailableSpace:00000000 osMessageAvailableSpace
C:\Users\tijsv\AppData\Local\Temp\cc6LJGIv.s:3758   .text.osMessageDelete:00000000 $t
C:\Users\tijsv\AppData\Local\Temp\cc6LJGIv.s:3765   .text.osMessageDelete:00000000 osMessageDelete
C:\Users\tijsv\AppData\Local\Temp\cc6LJGIv.s:3804   .text.osRecursiveMutexCreate:00000000 $t
C:\Users\tijsv\AppData\Local\Temp\cc6LJGIv.s:3811   .text.osRecursiveMutexCreate:00000000 osRecursiveMutexCreate
C:\Users\tijsv\AppData\Local\Temp\cc6LJGIv.s:3829   .text.osRecursiveMutexRelease:00000000 $t
C:\Users\tijsv\AppData\Local\Temp\cc6LJGIv.s:3836   .text.osRecursiveMutexRelease:00000000 osRecursiveMutexRelease
C:\Users\tijsv\AppData\Local\Temp\cc6LJGIv.s:3854   .text.osRecursiveMutexWait:00000000 $t
C:\Users\tijsv\AppData\Local\Temp\cc6LJGIv.s:3861   .text.osRecursiveMutexWait:00000000 osRecursiveMutexWait
C:\Users\tijsv\AppData\Local\Temp\cc6LJGIv.s:3879   .text.osSemaphoreGetCount:00000000 $t
C:\Users\tijsv\AppData\Local\Temp\cc6LJGIv.s:3886   .text.osSemaphoreGetCount:00000000 osSemaphoreGetCount
C:\Users\tijsv\AppData\Local\Temp\cc6LJGIv.s:3237   .text.osThreadGetState:00000013 $d
C:\Users\tijsv\AppData\Local\Temp\cc6LJGIv.s:3237   .text.osThreadGetState:00000014 $t

UNDEFINED SYMBOLS
vTaskStartScheduler
xTaskGetSchedulerState
xTaskGetTickCountFromISR
xTaskGetTickCount
xTaskCreate
xTaskGetCurrentTaskHandle
vTaskDelete
vTaskPrioritySet
uxTaskPriorityGetFromISR
uxTaskPriorityGet
vTaskDelay
xTimerCreate
xTimerGenericCommand
xTaskGenericNotifyFromISR
xTaskGenericNotify
xTaskNotifyWait
xQueueCreateMutex
xQueueReceiveFromISR
xQueueSemaphoreTake
xQueueGiveFromISR
xQueueGenericSend
vQueueDelete
xQueueGenericCreate
pvPortMalloc
vPortFree
vPortEnterCritical
vPortExitCritical
xQueueGenericSendFromISR
xQueueReceive
SysTick_Handler
eTaskGetState
vTaskSuspend
xTaskResumeFromISR
ARM GAS  C:\Users\tijsv\AppData\Local\Temp\cc6LJGIv.s 			page 112


vTaskResume
vTaskSuspendAll
xTaskResumeAll
xQueuePeek
uxQueueMessagesWaitingFromISR
uxQueueMessagesWaiting
uxQueueSpacesAvailable
