ARM GAS  C:\Users\tijsv\AppData\Local\Temp\ccxP5pih.s 			page 1


   1              		.cpu cortex-m4
   2              		.eabi_attribute 27, 1
   3              		.eabi_attribute 28, 1
   4              		.eabi_attribute 20, 1
   5              		.eabi_attribute 21, 1
   6              		.eabi_attribute 23, 3
   7              		.eabi_attribute 24, 1
   8              		.eabi_attribute 25, 1
   9              		.eabi_attribute 26, 1
  10              		.eabi_attribute 30, 1
  11              		.eabi_attribute 34, 1
  12              		.eabi_attribute 18, 4
  13              		.file	"lora-gps-example.c"
  14              		.section	.rodata.str1.4,"aMS",%progbits,1
  15              		.align	2
  16              	.LC0:
  17 0000 6D757261 		.ascii	"murata_rx_processing\000"
  17      74615F72 
  17      785F7072 
  17      6F636573 
  17      73696E67 
  18 0015 000000   		.align	2
  19              	.LC2:
  20 0018 6F66666C 		.ascii	"offloadFlash\000"
  20      6F616446 
  20      6C617368 
  20      00
  21 0025 000000   		.align	2
  22              	.LC4:
  23 0028 65726173 		.ascii	"eraseFlash\000"
  23      65466C61 
  23      736800
  24              		.text
  25              	.Ltext0:
  26              		.cfi_sections	.debug_frame
  27              		.section	.text.Dualstack_ApplicationCallback,"ax",%progbits
  28              		.align	1
  29              		.global	Dualstack_ApplicationCallback
  30              		.arch armv7e-m
  31              		.syntax unified
  32              		.thumb
  33              		.thumb_func
  34              		.fpu fpv4-sp-d16
  36              	Dualstack_ApplicationCallback:
  37              	.LFB146:
  38              		.file 1 "../../../applications/examples/lora-gps-example/src/lora-gps-example.c"
   1:../../../applications/examples/lora-gps-example/src/lora-gps-example.c **** #include "lora-gps-example.h"
   2:../../../applications/examples/lora-gps-example/src/lora-gps-example.c **** #include "fireflyx1.h"
   3:../../../applications/examples/lora-gps-example/src/lora-gps-example.c **** #include "lorawan_stack.h"
   4:../../../applications/examples/lora-gps-example/src/lora-gps-example.c **** #include "octa-flash.h"
   5:../../../applications/examples/lora-gps-example/src/lora-gps-example.c **** #include "FreeRTOS.h"
   6:../../../applications/examples/lora-gps-example/src/lora-gps-example.c **** #include "payloadparser.h"
   7:../../../applications/examples/lora-gps-example/src/lora-gps-example.c **** #include "murata.h" // Change data rate and ADR in file shields/Murata-dualstack/inc/murata.h
   8:../../../applications/examples/lora-gps-example/src/lora-gps-example.c **** 
   9:../../../applications/examples/lora-gps-example/src/lora-gps-example.c **** #define IWDG_INTERVAL           5    //seconds
  10:../../../applications/examples/lora-gps-example/src/lora-gps-example.c **** #define LORAWAN_INTERVAL        30   //seconds
  11:../../../applications/examples/lora-gps-example/src/lora-gps-example.c **** #define MODULE_CHECK_INTERVAL   3600 //seconds
ARM GAS  C:\Users\tijsv\AppData\Local\Temp\ccxP5pih.s 			page 2


  12:../../../applications/examples/lora-gps-example/src/lora-gps-example.c **** 
  13:../../../applications/examples/lora-gps-example/src/lora-gps-example.c **** uint16_t LoRaWAN_Counter = 0;
  14:../../../applications/examples/lora-gps-example/src/lora-gps-example.c **** uint8_t murata_init = 0;
  15:../../../applications/examples/lora-gps-example/src/lora-gps-example.c **** uint64_t short_UID;
  16:../../../applications/examples/lora-gps-example/src/lora-gps-example.c **** uint8_t murata_data_ready = 0;
  17:../../../applications/examples/lora-gps-example/src/lora-gps-example.c **** float locationArray[3];
  18:../../../applications/examples/lora-gps-example/src/lora-gps-example.c **** uint8_t locationArrayHex[32];
  19:../../../applications/examples/lora-gps-example/src/lora-gps-example.c **** uint8_t hasGPSFix = 0;
  20:../../../applications/examples/lora-gps-example/src/lora-gps-example.c **** gps_position_dd_t currentLocation={0,0,0};
  21:../../../applications/examples/lora-gps-example/src/lora-gps-example.c **** 
  22:../../../applications/examples/lora-gps-example/src/lora-gps-example.c **** uint8_t measurement_ongoing = 0;
  23:../../../applications/examples/lora-gps-example/src/lora-gps-example.c **** uint8_t test_mode_active = 0;
  24:../../../applications/examples/lora-gps-example/src/lora-gps-example.c **** uint8_t erase_ongoing = 0;
  25:../../../applications/examples/lora-gps-example/src/lora-gps-example.c **** uint8_t BTN2presses = 0;
  26:../../../applications/examples/lora-gps-example/src/lora-gps-example.c **** uint8_t NucleoBTN1presses = 0;
  27:../../../applications/examples/lora-gps-example/src/lora-gps-example.c **** uint8_t rx[OCTA_FLASH_PAGE_SIZE];
  28:../../../applications/examples/lora-gps-example/src/lora-gps-example.c **** uint8_t data[OCTA_FLASH_PAGE_SIZE];
  29:../../../applications/examples/lora-gps-example/src/lora-gps-example.c **** uint8_t coordinate = 1;
  30:../../../applications/examples/lora-gps-example/src/lora-gps-example.c **** uint8_t count = 0;
  31:../../../applications/examples/lora-gps-example/src/lora-gps-example.c **** 
  32:../../../applications/examples/lora-gps-example/src/lora-gps-example.c **** // The current configuration is stored here
  33:../../../applications/examples/lora-gps-example/src/lora-gps-example.c **** struct octa_configuration current_octa_configuration = {0};
  34:../../../applications/examples/lora-gps-example/src/lora-gps-example.c **** 
  35:../../../applications/examples/lora-gps-example/src/lora-gps-example.c **** // Fallback configuration
  36:../../../applications/examples/lora-gps-example/src/lora-gps-example.c **** struct octa_configuration default_octa_configuration = {.flash_index = 0, 
  37:../../../applications/examples/lora-gps-example/src/lora-gps-example.c ****                                                         .dns_id = 0, 
  38:../../../applications/examples/lora-gps-example/src/lora-gps-example.c ****                                                         .last_msg_acked = 0, 
  39:../../../applications/examples/lora-gps-example/src/lora-gps-example.c ****                                                         .interval = 0, 
  40:../../../applications/examples/lora-gps-example/src/lora-gps-example.c ****                                                         .multiplier = 0};
  41:../../../applications/examples/lora-gps-example/src/lora-gps-example.c **** 
  42:../../../applications/examples/lora-gps-example/src/lora-gps-example.c **** int main(void)
  43:../../../applications/examples/lora-gps-example/src/lora-gps-example.c **** {
  44:../../../applications/examples/lora-gps-example/src/lora-gps-example.c ****   Initialize_Platform();
  45:../../../applications/examples/lora-gps-example/src/lora-gps-example.c ****   OCTA_FLASH_Initialize(&FLASH_SPI);
  46:../../../applications/examples/lora-gps-example/src/lora-gps-example.c **** 
  47:../../../applications/examples/lora-gps-example/src/lora-gps-example.c ****   //UNCOMMENT TO USE NEW DEFAULT OCTA CONFIG
  48:../../../applications/examples/lora-gps-example/src/lora-gps-example.c ****   //OCTA_FLASH_eraseConfigSector();
  49:../../../applications/examples/lora-gps-example/src/lora-gps-example.c **** 
  50:../../../applications/examples/lora-gps-example/src/lora-gps-example.c ****   Get_Current_Config_From_Flash();
  51:../../../applications/examples/lora-gps-example/src/lora-gps-example.c **** 
  52:../../../applications/examples/lora-gps-example/src/lora-gps-example.c ****   // initial sensor interval & multiplier
  53:../../../applications/examples/lora-gps-example/src/lora-gps-example.c ****   printINF("Sensor measurement interval: %d minutes\r\n", current_octa_configuration.interval);
  54:../../../applications/examples/lora-gps-example/src/lora-gps-example.c ****   printINF("Amount of measurements per tx = %d \r\n\r\n", current_octa_configuration.multiplier);
  55:../../../applications/examples/lora-gps-example/src/lora-gps-example.c **** 
  56:../../../applications/examples/lora-gps-example/src/lora-gps-example.c ****   // LORAWAN
  57:../../../applications/examples/lora-gps-example/src/lora-gps-example.c ****   murata_init = Murata_Initialize(short_UID);
  58:../../../applications/examples/lora-gps-example/src/lora-gps-example.c ****   UART_SetApplicationCallback(&Dualstack_ApplicationCallback, (uint8_t)MURATA_CONNECTOR);
  59:../../../applications/examples/lora-gps-example/src/lora-gps-example.c **** 
  60:../../../applications/examples/lora-gps-example/src/lora-gps-example.c ****   if (murata_init)
  61:../../../applications/examples/lora-gps-example/src/lora-gps-example.c ****   {
  62:../../../applications/examples/lora-gps-example/src/lora-gps-example.c ****     printINF("Murata dualstack module init OK\r\n\r\n");
  63:../../../applications/examples/lora-gps-example/src/lora-gps-example.c ****   }  
  64:../../../applications/examples/lora-gps-example/src/lora-gps-example.c ****   // Firefly-GPS
  65:../../../applications/examples/lora-gps-example/src/lora-gps-example.c ****   Firefly_Initialize();
  66:../../../applications/examples/lora-gps-example/src/lora-gps-example.c ****   memset(locationArrayHex, 1, 32); // init location array to 0
  67:../../../applications/examples/lora-gps-example/src/lora-gps-example.c ****  
  68:../../../applications/examples/lora-gps-example/src/lora-gps-example.c ****   // TX MUTEX ensuring no transmits are happening at the same time
ARM GAS  C:\Users\tijsv\AppData\Local\Temp\ccxP5pih.s 			page 3


  69:../../../applications/examples/lora-gps-example/src/lora-gps-example.c ****   osMutexDef(txMutex);
  70:../../../applications/examples/lora-gps-example/src/lora-gps-example.c ****   txMutexId = osMutexCreate(osMutex(txMutex));
  71:../../../applications/examples/lora-gps-example/src/lora-gps-example.c ****   
  72:../../../applications/examples/lora-gps-example/src/lora-gps-example.c ****   osThreadDef(murata_rx_processing, murata_process_rx_response, osPriorityNormal, 0, 512);
  73:../../../applications/examples/lora-gps-example/src/lora-gps-example.c ****   murata_rx_processing_handle = osThreadCreate(osThread(murata_rx_processing), NULL);
  74:../../../applications/examples/lora-gps-example/src/lora-gps-example.c **** 
  75:../../../applications/examples/lora-gps-example/src/lora-gps-example.c ****   // pass processing thread handle to murata driver
  76:../../../applications/examples/lora-gps-example/src/lora-gps-example.c ****   Murata_SetProcessingThread(murata_rx_processing_handle);
  77:../../../applications/examples/lora-gps-example/src/lora-gps-example.c **** 
  78:../../../applications/examples/lora-gps-example/src/lora-gps-example.c ****   //feed IWDG every 5 seconds
  79:../../../applications/examples/lora-gps-example/src/lora-gps-example.c ****   IWDG_feed(NULL);
  80:../../../applications/examples/lora-gps-example/src/lora-gps-example.c ****   osTimerDef(iwdgTim, IWDG_feed);
  81:../../../applications/examples/lora-gps-example/src/lora-gps-example.c ****   iwdgTimId = osTimerCreate(osTimer(iwdgTim), osTimerPeriodic, NULL);
  82:../../../applications/examples/lora-gps-example/src/lora-gps-example.c ****   osTimerStart(iwdgTimId, IWDG_INTERVAL * 1000);
  83:../../../applications/examples/lora-gps-example/src/lora-gps-example.c **** 
  84:../../../applications/examples/lora-gps-example/src/lora-gps-example.c ****   osTimerDef(loraWANTim, LoRaWAN_send);
  85:../../../applications/examples/lora-gps-example/src/lora-gps-example.c ****   loraWANTimId = osTimerCreate(osTimer(loraWANTim), osTimerPeriodic, NULL);
  86:../../../applications/examples/lora-gps-example/src/lora-gps-example.c ****   osTimerStart(loraWANTimId, LORAWAN_INTERVAL * 1000);
  87:../../../applications/examples/lora-gps-example/src/lora-gps-example.c **** 
  88:../../../applications/examples/lora-gps-example/src/lora-gps-example.c ****   osTimerDef(moduleCheckTim, check_modules);
  89:../../../applications/examples/lora-gps-example/src/lora-gps-example.c ****   moduleCheckTimId = osTimerCreate(osTimer(moduleCheckTim), osTimerPeriodic, NULL);
  90:../../../applications/examples/lora-gps-example/src/lora-gps-example.c ****   osTimerStart(moduleCheckTimId, MODULE_CHECK_INTERVAL * 1000);
  91:../../../applications/examples/lora-gps-example/src/lora-gps-example.c **** 
  92:../../../applications/examples/lora-gps-example/src/lora-gps-example.c ****   osThreadDef(offloadFlash, Offload_Flash, osPriorityNormal, 0, 512);
  93:../../../applications/examples/lora-gps-example/src/lora-gps-example.c ****   offloadFlashTaskHandle = osThreadCreate(osThread(offloadFlash), NULL);
  94:../../../applications/examples/lora-gps-example/src/lora-gps-example.c **** 
  95:../../../applications/examples/lora-gps-example/src/lora-gps-example.c ****   osThreadDef(eraseFlash, Erase_Flash, osPriorityNormal, 0, 512);
  96:../../../applications/examples/lora-gps-example/src/lora-gps-example.c ****   eraseFlashTaskHandle = osThreadCreate(osThread(eraseFlash), NULL);
  97:../../../applications/examples/lora-gps-example/src/lora-gps-example.c **** 
  98:../../../applications/examples/lora-gps-example/src/lora-gps-example.c ****   // Enable button interrupt for flash offloading
  99:../../../applications/examples/lora-gps-example/src/lora-gps-example.c ****   B2_enable_interrupt();
 100:../../../applications/examples/lora-gps-example/src/lora-gps-example.c ****   GPIO_SetApplicationCallback(&BTN2_Appcallback, (uint16_t)OCTA_BTN2_Pin);
 101:../../../applications/examples/lora-gps-example/src/lora-gps-example.c **** 
 102:../../../applications/examples/lora-gps-example/src/lora-gps-example.c ****   // Enable button interrupt for flash erasing
 103:../../../applications/examples/lora-gps-example/src/lora-gps-example.c ****   Nucleo_BTN1_enable_interrupt();
 104:../../../applications/examples/lora-gps-example/src/lora-gps-example.c ****   GPIO_SetApplicationCallback(&Nucleo_BTN1_Appcallback, (uint16_t)B1_Pin);
 105:../../../applications/examples/lora-gps-example/src/lora-gps-example.c **** 
 106:../../../applications/examples/lora-gps-example/src/lora-gps-example.c ****   //Join before starting the kernel
 107:../../../applications/examples/lora-gps-example/src/lora-gps-example.c ****   Murata_LoRaWAN_Join();
 108:../../../applications/examples/lora-gps-example/src/lora-gps-example.c **** 
 109:../../../applications/examples/lora-gps-example/src/lora-gps-example.c ****   osKernelStart();
 110:../../../applications/examples/lora-gps-example/src/lora-gps-example.c **** 
 111:../../../applications/examples/lora-gps-example/src/lora-gps-example.c ****   while (1)
 112:../../../applications/examples/lora-gps-example/src/lora-gps-example.c ****   { 
 113:../../../applications/examples/lora-gps-example/src/lora-gps-example.c ****   }
 114:../../../applications/examples/lora-gps-example/src/lora-gps-example.c **** }
 115:../../../applications/examples/lora-gps-example/src/lora-gps-example.c **** 
 116:../../../applications/examples/lora-gps-example/src/lora-gps-example.c **** void LoRaWAN_send(void const *argument)
 117:../../../applications/examples/lora-gps-example/src/lora-gps-example.c **** {
 118:../../../applications/examples/lora-gps-example/src/lora-gps-example.c ****   GPS_Read();
 119:../../../applications/examples/lora-gps-example/src/lora-gps-example.c **** 
 120:../../../applications/examples/lora-gps-example/src/lora-gps-example.c ****   if (murata_init)
 121:../../../applications/examples/lora-gps-example/src/lora-gps-example.c ****   {
 122:../../../applications/examples/lora-gps-example/src/lora-gps-example.c ****     uint8_t loraMessage[256];
 123:../../../applications/examples/lora-gps-example/src/lora-gps-example.c ****     uint8_t i = 0;
 124:../../../applications/examples/lora-gps-example/src/lora-gps-example.c ****     //uint16 counter to uint8 array (little endian)
 125:../../../applications/examples/lora-gps-example/src/lora-gps-example.c ****     //counter (large) type byte
ARM GAS  C:\Users\tijsv\AppData\Local\Temp\ccxP5pih.s 			page 4


 126:../../../applications/examples/lora-gps-example/src/lora-gps-example.c ****     loraMessage[i++] = TYPE_MESSAGE_COUNTER_LARGE;
 127:../../../applications/examples/lora-gps-example/src/lora-gps-example.c ****     loraMessage[i++] = LoRaWAN_Counter;
 128:../../../applications/examples/lora-gps-example/src/lora-gps-example.c ****     loraMessage[i++] = LoRaWAN_Counter >> 8;
 129:../../../applications/examples/lora-gps-example/src/lora-gps-example.c **** 
 130:../../../applications/examples/lora-gps-example/src/lora-gps-example.c ****     if(hasGPSFix == 1)
 131:../../../applications/examples/lora-gps-example/src/lora-gps-example.c ****     {
 132:../../../applications/examples/lora-gps-example/src/lora-gps-example.c ****       // add GPS coordinates
 133:../../../applications/examples/lora-gps-example/src/lora-gps-example.c ****       printINF("GPS FIX, adding to payload\r\n");
 134:../../../applications/examples/lora-gps-example/src/lora-gps-example.c ****       loraMessage[i++] = TYPE_GPS_LONG;
 135:../../../applications/examples/lora-gps-example/src/lora-gps-example.c ****       float_union.fl = locationArray[0];  // LAT
 136:../../../applications/examples/lora-gps-example/src/lora-gps-example.c ****       loraMessage[i++] = float_union.bytes.b1;
 137:../../../applications/examples/lora-gps-example/src/lora-gps-example.c ****       loraMessage[i++] = float_union.bytes.b2;
 138:../../../applications/examples/lora-gps-example/src/lora-gps-example.c ****       loraMessage[i++] = float_union.bytes.b3;
 139:../../../applications/examples/lora-gps-example/src/lora-gps-example.c ****       loraMessage[i++] = float_union.bytes.b4;  
 140:../../../applications/examples/lora-gps-example/src/lora-gps-example.c ****      
 141:../../../applications/examples/lora-gps-example/src/lora-gps-example.c ****       float_union.fl = locationArray[1];  // LONG
 142:../../../applications/examples/lora-gps-example/src/lora-gps-example.c ****       loraMessage[i++] = float_union.bytes.b1;
 143:../../../applications/examples/lora-gps-example/src/lora-gps-example.c ****       loraMessage[i++] = float_union.bytes.b2;
 144:../../../applications/examples/lora-gps-example/src/lora-gps-example.c ****       loraMessage[i++] = float_union.bytes.b3;
 145:../../../applications/examples/lora-gps-example/src/lora-gps-example.c ****       loraMessage[i++] = float_union.bytes.b4;
 146:../../../applications/examples/lora-gps-example/src/lora-gps-example.c **** 
 147:../../../applications/examples/lora-gps-example/src/lora-gps-example.c ****       float_union.fl = locationArray[2];  // HDOP
 148:../../../applications/examples/lora-gps-example/src/lora-gps-example.c ****       loraMessage[i++] = float_union.bytes.b1;
 149:../../../applications/examples/lora-gps-example/src/lora-gps-example.c ****       loraMessage[i++] = float_union.bytes.b2;
 150:../../../applications/examples/lora-gps-example/src/lora-gps-example.c ****       loraMessage[i++] = float_union.bytes.b3;
 151:../../../applications/examples/lora-gps-example/src/lora-gps-example.c ****       loraMessage[i++] = float_union.bytes.b4;
 152:../../../applications/examples/lora-gps-example/src/lora-gps-example.c ****     }
 153:../../../applications/examples/lora-gps-example/src/lora-gps-example.c **** 
 154:../../../applications/examples/lora-gps-example/src/lora-gps-example.c ****     //check if index is start of new sector (sector has 16 pages), if yes erase this sector
 155:../../../applications/examples/lora-gps-example/src/lora-gps-example.c ****     if(current_octa_configuration.flash_index % 16 == 0)
 156:../../../applications/examples/lora-gps-example/src/lora-gps-example.c ****     {
 157:../../../applications/examples/lora-gps-example/src/lora-gps-example.c ****         printINF("Flash page %d is the start of sector %d, erasing this sector.\r\n", current_octa_
 158:../../../applications/examples/lora-gps-example/src/lora-gps-example.c ****         OCTA_FLASH_erase4KBSectorFromPage(current_octa_configuration.flash_index);
 159:../../../applications/examples/lora-gps-example/src/lora-gps-example.c ****         while(OCTA_FLASH_isWriteInProgress())
 160:../../../applications/examples/lora-gps-example/src/lora-gps-example.c ****         {
 161:../../../applications/examples/lora-gps-example/src/lora-gps-example.c ****             printDBG("Write in progress\r\n");
 162:../../../applications/examples/lora-gps-example/src/lora-gps-example.c ****             HAL_Delay(50);
 163:../../../applications/examples/lora-gps-example/src/lora-gps-example.c ****         }
 164:../../../applications/examples/lora-gps-example/src/lora-gps-example.c ****     }
 165:../../../applications/examples/lora-gps-example/src/lora-gps-example.c ****     //open current flash index
 166:../../../applications/examples/lora-gps-example/src/lora-gps-example.c ****     OCTA_FLASH_open(current_octa_configuration.flash_index);
 167:../../../applications/examples/lora-gps-example/src/lora-gps-example.c ****     printINF("Writing payload (%d databytes) to flash page %d\r\n", i, current_octa_configuration.f
 168:../../../applications/examples/lora-gps-example/src/lora-gps-example.c ****     OCTA_FLASH_write(loraMessage, OCTA_FLASH_PAGE_SIZE);
 169:../../../applications/examples/lora-gps-example/src/lora-gps-example.c ****     while(OCTA_FLASH_isWriteInProgress())
 170:../../../applications/examples/lora-gps-example/src/lora-gps-example.c ****     {
 171:../../../applications/examples/lora-gps-example/src/lora-gps-example.c ****         printDBG("Write in progress\r\n");
 172:../../../applications/examples/lora-gps-example/src/lora-gps-example.c ****         HAL_Delay(50);
 173:../../../applications/examples/lora-gps-example/src/lora-gps-example.c ****     }
 174:../../../applications/examples/lora-gps-example/src/lora-gps-example.c ****     //index++
 175:../../../applications/examples/lora-gps-example/src/lora-gps-example.c ****     current_octa_configuration.flash_index++;
 176:../../../applications/examples/lora-gps-example/src/lora-gps-example.c ****     printDBG("New Flash Index: %d, updating config in flash\r\n", current_octa_configuration.flash_
 177:../../../applications/examples/lora-gps-example/src/lora-gps-example.c ****     //update index in flash
 178:../../../applications/examples/lora-gps-example/src/lora-gps-example.c ****     update_flash_configuration(&current_octa_configuration);
 179:../../../applications/examples/lora-gps-example/src/lora-gps-example.c **** 
 180:../../../applications/examples/lora-gps-example/src/lora-gps-example.c ****     osMutexWait(txMutexId, osWaitForever);
 181:../../../applications/examples/lora-gps-example/src/lora-gps-example.c ****     if(!Murata_LoRaWAN_Send((uint8_t *)loraMessage, i)) 
 182:../../../applications/examples/lora-gps-example/src/lora-gps-example.c ****     {  
ARM GAS  C:\Users\tijsv\AppData\Local\Temp\ccxP5pih.s 			page 5


 183:../../../applications/examples/lora-gps-example/src/lora-gps-example.c ****       HAL_GPIO_TogglePin(OCTA_GLED_GPIO_Port, OCTA_BLED_Pin);
 184:../../../applications/examples/lora-gps-example/src/lora-gps-example.c ****       HAL_Delay(100);
 185:../../../applications/examples/lora-gps-example/src/lora-gps-example.c ****       HAL_GPIO_TogglePin(OCTA_GLED_GPIO_Port, OCTA_BLED_Pin);
 186:../../../applications/examples/lora-gps-example/src/lora-gps-example.c ****       HAL_Delay(100);
 187:../../../applications/examples/lora-gps-example/src/lora-gps-example.c ****       murata_init++;
 188:../../../applications/examples/lora-gps-example/src/lora-gps-example.c ****       if(murata_init == 10)
 189:../../../applications/examples/lora-gps-example/src/lora-gps-example.c ****         murata_init == 0;
 190:../../../applications/examples/lora-gps-example/src/lora-gps-example.c ****     }
 191:../../../applications/examples/lora-gps-example/src/lora-gps-example.c ****     else {
 192:../../../applications/examples/lora-gps-example/src/lora-gps-example.c ****       murata_init = 1;
 193:../../../applications/examples/lora-gps-example/src/lora-gps-example.c ****     }
 194:../../../applications/examples/lora-gps-example/src/lora-gps-example.c **** 
 195:../../../applications/examples/lora-gps-example/src/lora-gps-example.c ****     osDelay(3000);  //BLOCK TX MUTEX FOR 3s
 196:../../../applications/examples/lora-gps-example/src/lora-gps-example.c ****     osMutexRelease(txMutexId);
 197:../../../applications/examples/lora-gps-example/src/lora-gps-example.c ****     LoRaWAN_Counter++;
 198:../../../applications/examples/lora-gps-example/src/lora-gps-example.c ****   }
 199:../../../applications/examples/lora-gps-example/src/lora-gps-example.c ****   else {
 200:../../../applications/examples/lora-gps-example/src/lora-gps-example.c ****     printINF("murata not initialized, not sending\r\n");
 201:../../../applications/examples/lora-gps-example/src/lora-gps-example.c ****   }
 202:../../../applications/examples/lora-gps-example/src/lora-gps-example.c **** }
 203:../../../applications/examples/lora-gps-example/src/lora-gps-example.c **** 
 204:../../../applications/examples/lora-gps-example/src/lora-gps-example.c **** void GPS_Read()
 205:../../../applications/examples/lora-gps-example/src/lora-gps-example.c **** {
 206:../../../applications/examples/lora-gps-example/src/lora-gps-example.c ****   uint8_t response[GPS_BUFFER_SIZE];
 207:../../../applications/examples/lora-gps-example/src/lora-gps-example.c ****   uint8_t quality = Firefly_receive(response);
 208:../../../applications/examples/lora-gps-example/src/lora-gps-example.c ****   if(quality==1)
 209:../../../applications/examples/lora-gps-example/src/lora-gps-example.c ****   {   
 210:../../../applications/examples/lora-gps-example/src/lora-gps-example.c ****       printINF("GPS FIX\r\n");
 211:../../../applications/examples/lora-gps-example/src/lora-gps-example.c ****       HAL_GPIO_TogglePin(OCTA_GLED_GPIO_Port, OCTA_GLED_Pin);
 212:../../../applications/examples/lora-gps-example/src/lora-gps-example.c ****       HAL_Delay(100);
 213:../../../applications/examples/lora-gps-example/src/lora-gps-example.c ****       HAL_GPIO_TogglePin(OCTA_GLED_GPIO_Port, OCTA_GLED_Pin);
 214:../../../applications/examples/lora-gps-example/src/lora-gps-example.c ****       HAL_Delay(100);
 215:../../../applications/examples/lora-gps-example/src/lora-gps-example.c ****       setGPSCoordinates();
 216:../../../applications/examples/lora-gps-example/src/lora-gps-example.c ****   }
 217:../../../applications/examples/lora-gps-example/src/lora-gps-example.c ****   else
 218:../../../applications/examples/lora-gps-example/src/lora-gps-example.c ****   {
 219:../../../applications/examples/lora-gps-example/src/lora-gps-example.c ****       HAL_GPIO_TogglePin(OCTA_GLED_GPIO_Port, OCTA_RLED_Pin);
 220:../../../applications/examples/lora-gps-example/src/lora-gps-example.c ****       HAL_Delay(100);
 221:../../../applications/examples/lora-gps-example/src/lora-gps-example.c ****       HAL_GPIO_TogglePin(OCTA_GLED_GPIO_Port, OCTA_RLED_Pin);
 222:../../../applications/examples/lora-gps-example/src/lora-gps-example.c ****       HAL_Delay(100);
 223:../../../applications/examples/lora-gps-example/src/lora-gps-example.c ****       hasGPSFix=0;
 224:../../../applications/examples/lora-gps-example/src/lora-gps-example.c ****       printINF("NO GPS FIX\r\n");
 225:../../../applications/examples/lora-gps-example/src/lora-gps-example.c ****   }
 226:../../../applications/examples/lora-gps-example/src/lora-gps-example.c **** }
 227:../../../applications/examples/lora-gps-example/src/lora-gps-example.c **** 
 228:../../../applications/examples/lora-gps-example/src/lora-gps-example.c **** void setGPSCoordinates(void)
 229:../../../applications/examples/lora-gps-example/src/lora-gps-example.c **** {
 230:../../../applications/examples/lora-gps-example/src/lora-gps-example.c **** 	hasGPSFix=1;
 231:../../../applications/examples/lora-gps-example/src/lora-gps-example.c **** 	currentLocation=gps_get_position_dd();
 232:../../../applications/examples/lora-gps-example/src/lora-gps-example.c **** 	locationArray[0]=currentLocation.latitude;
 233:../../../applications/examples/lora-gps-example/src/lora-gps-example.c **** 	locationArray[1]=currentLocation.longitude;
 234:../../../applications/examples/lora-gps-example/src/lora-gps-example.c **** 	locationArray[2]=currentLocation.hdop;
 235:../../../applications/examples/lora-gps-example/src/lora-gps-example.c ****   printINF("LOCATION:  lat: %f, long: %f, hdop: %f \r\n", locationArray[0], locationArray[1], locat
 236:../../../applications/examples/lora-gps-example/src/lora-gps-example.c **** }
 237:../../../applications/examples/lora-gps-example/src/lora-gps-example.c **** 
 238:../../../applications/examples/lora-gps-example/src/lora-gps-example.c **** void Get_Current_Config_From_Flash(void)
 239:../../../applications/examples/lora-gps-example/src/lora-gps-example.c **** {
ARM GAS  C:\Users\tijsv\AppData\Local\Temp\ccxP5pih.s 			page 6


 240:../../../applications/examples/lora-gps-example/src/lora-gps-example.c ****   // GET CURRENT CONFIGURATION
 241:../../../applications/examples/lora-gps-example/src/lora-gps-example.c ****   printINF("Getting current configuration from flash\r\n");
 242:../../../applications/examples/lora-gps-example/src/lora-gps-example.c ****   if(OCTA_FLASH_openConfigSector()!= OCTA_FLASH_OK)
 243:../../../applications/examples/lora-gps-example/src/lora-gps-example.c ****   {
 244:../../../applications/examples/lora-gps-example/src/lora-gps-example.c ****     printERR("Flash open NOK, setting default config\r\n");
 245:../../../applications/examples/lora-gps-example/src/lora-gps-example.c ****     current_octa_configuration = default_octa_configuration;
 246:../../../applications/examples/lora-gps-example/src/lora-gps-example.c ****     return;
 247:../../../applications/examples/lora-gps-example/src/lora-gps-example.c ****   }
 248:../../../applications/examples/lora-gps-example/src/lora-gps-example.c ****   static uint8_t configurationbuffer[256] = {0xff};
 249:../../../applications/examples/lora-gps-example/src/lora-gps-example.c ****   uint32_t retval = 0;
 250:../../../applications/examples/lora-gps-example/src/lora-gps-example.c ****   retval = OCTA_FLASH_read(configurationbuffer, OCTA_FLASH_PAGE_SIZE);
 251:../../../applications/examples/lora-gps-example/src/lora-gps-example.c ****   if(retval != OCTA_FLASH_PAGE_SIZE)
 252:../../../applications/examples/lora-gps-example/src/lora-gps-example.c ****   {
 253:../../../applications/examples/lora-gps-example/src/lora-gps-example.c ****     printERR("Flash operation NOK: %d, setting default config\r\n", retval);
 254:../../../applications/examples/lora-gps-example/src/lora-gps-example.c ****     current_octa_configuration = default_octa_configuration;
 255:../../../applications/examples/lora-gps-example/src/lora-gps-example.c ****     return;
 256:../../../applications/examples/lora-gps-example/src/lora-gps-example.c ****   }
 257:../../../applications/examples/lora-gps-example/src/lora-gps-example.c ****   if(parse_octa_configuration(&current_octa_configuration, configurationbuffer, CONFIG_BUFFER_SIZE)
 258:../../../applications/examples/lora-gps-example/src/lora-gps-example.c ****   {
 259:../../../applications/examples/lora-gps-example/src/lora-gps-example.c ****     printINF("Parsing config from flash OK\r\n");
 260:../../../applications/examples/lora-gps-example/src/lora-gps-example.c ****     return;
 261:../../../applications/examples/lora-gps-example/src/lora-gps-example.c ****   }
 262:../../../applications/examples/lora-gps-example/src/lora-gps-example.c ****   else
 263:../../../applications/examples/lora-gps-example/src/lora-gps-example.c ****   {
 264:../../../applications/examples/lora-gps-example/src/lora-gps-example.c ****     printERR("UNABLE TO PARSE CONFIGURATION FROM FLASH, setting default config\r\n");
 265:../../../applications/examples/lora-gps-example/src/lora-gps-example.c ****     current_octa_configuration = default_octa_configuration;
 266:../../../applications/examples/lora-gps-example/src/lora-gps-example.c ****     return;
 267:../../../applications/examples/lora-gps-example/src/lora-gps-example.c ****   }
 268:../../../applications/examples/lora-gps-example/src/lora-gps-example.c **** }
 269:../../../applications/examples/lora-gps-example/src/lora-gps-example.c **** 
 270:../../../applications/examples/lora-gps-example/src/lora-gps-example.c **** void B1_enable_interrupt()
 271:../../../applications/examples/lora-gps-example/src/lora-gps-example.c **** {
 272:../../../applications/examples/lora-gps-example/src/lora-gps-example.c ****   GPIO_InitTypeDef GPIO_InitStruct = {0};
 273:../../../applications/examples/lora-gps-example/src/lora-gps-example.c ****   GPIO_InitStruct.Pin = OCTA_BTN1_Pin;
 274:../../../applications/examples/lora-gps-example/src/lora-gps-example.c ****   GPIO_InitStruct.Mode = GPIO_MODE_IT_RISING;
 275:../../../applications/examples/lora-gps-example/src/lora-gps-example.c ****   GPIO_InitStruct.Pull = GPIO_NOPULL;
 276:../../../applications/examples/lora-gps-example/src/lora-gps-example.c ****   HAL_GPIO_Init(OCTA_BTN1_GPIO_Port, &GPIO_InitStruct);
 277:../../../applications/examples/lora-gps-example/src/lora-gps-example.c **** 
 278:../../../applications/examples/lora-gps-example/src/lora-gps-example.c ****   //enable the interrupt
 279:../../../applications/examples/lora-gps-example/src/lora-gps-example.c ****   HAL_NVIC_SetPriority(EXTI0_IRQn, 8, 0);		
 280:../../../applications/examples/lora-gps-example/src/lora-gps-example.c ****   HAL_NVIC_EnableIRQ(EXTI0_IRQn);
 281:../../../applications/examples/lora-gps-example/src/lora-gps-example.c **** }
 282:../../../applications/examples/lora-gps-example/src/lora-gps-example.c **** 
 283:../../../applications/examples/lora-gps-example/src/lora-gps-example.c **** void B2_enable_interrupt()
 284:../../../applications/examples/lora-gps-example/src/lora-gps-example.c **** {
 285:../../../applications/examples/lora-gps-example/src/lora-gps-example.c ****     GPIO_InitTypeDef GPIO_InitStruct = {0};
 286:../../../applications/examples/lora-gps-example/src/lora-gps-example.c ****     GPIO_InitStruct.Pin = OCTA_BTN2_Pin;
 287:../../../applications/examples/lora-gps-example/src/lora-gps-example.c ****     GPIO_InitStruct.Mode = GPIO_MODE_IT_RISING;
 288:../../../applications/examples/lora-gps-example/src/lora-gps-example.c ****     GPIO_InitStruct.Pull = GPIO_NOPULL;
 289:../../../applications/examples/lora-gps-example/src/lora-gps-example.c ****     HAL_GPIO_Init(OCTA_BTN2_GPIO_Port, &GPIO_InitStruct);
 290:../../../applications/examples/lora-gps-example/src/lora-gps-example.c **** 
 291:../../../applications/examples/lora-gps-example/src/lora-gps-example.c ****     //enable the interrupt
 292:../../../applications/examples/lora-gps-example/src/lora-gps-example.c ****     HAL_NVIC_SetPriority(EXTI1_IRQn, 8, 0);		
 293:../../../applications/examples/lora-gps-example/src/lora-gps-example.c ****     HAL_NVIC_EnableIRQ(EXTI1_IRQn);
 294:../../../applications/examples/lora-gps-example/src/lora-gps-example.c **** }
 295:../../../applications/examples/lora-gps-example/src/lora-gps-example.c **** 
 296:../../../applications/examples/lora-gps-example/src/lora-gps-example.c **** void Nucleo_BTN1_enable_interrupt()
ARM GAS  C:\Users\tijsv\AppData\Local\Temp\ccxP5pih.s 			page 7


 297:../../../applications/examples/lora-gps-example/src/lora-gps-example.c **** {
 298:../../../applications/examples/lora-gps-example/src/lora-gps-example.c ****     GPIO_InitTypeDef GPIO_InitStruct = {0};
 299:../../../applications/examples/lora-gps-example/src/lora-gps-example.c ****     GPIO_InitStruct.Pin = B1_Pin;
 300:../../../applications/examples/lora-gps-example/src/lora-gps-example.c ****     GPIO_InitStruct.Mode = GPIO_MODE_IT_RISING;
 301:../../../applications/examples/lora-gps-example/src/lora-gps-example.c ****     GPIO_InitStruct.Pull = GPIO_NOPULL;
 302:../../../applications/examples/lora-gps-example/src/lora-gps-example.c ****     HAL_GPIO_Init(B1_GPIO_Port, &GPIO_InitStruct);
 303:../../../applications/examples/lora-gps-example/src/lora-gps-example.c **** 
 304:../../../applications/examples/lora-gps-example/src/lora-gps-example.c ****     //enable the interrupt
 305:../../../applications/examples/lora-gps-example/src/lora-gps-example.c ****     HAL_NVIC_SetPriority(EXTI15_10_IRQn, 8, 0);		
 306:../../../applications/examples/lora-gps-example/src/lora-gps-example.c ****     HAL_NVIC_EnableIRQ(EXTI15_10_IRQn);
 307:../../../applications/examples/lora-gps-example/src/lora-gps-example.c **** }
 308:../../../applications/examples/lora-gps-example/src/lora-gps-example.c **** 
 309:../../../applications/examples/lora-gps-example/src/lora-gps-example.c **** void BTN2_Appcallback(void)
 310:../../../applications/examples/lora-gps-example/src/lora-gps-example.c **** {
 311:../../../applications/examples/lora-gps-example/src/lora-gps-example.c ****   if(!measurement_ongoing && !erase_ongoing)
 312:../../../applications/examples/lora-gps-example/src/lora-gps-example.c ****   {
 313:../../../applications/examples/lora-gps-example/src/lora-gps-example.c ****     if(!BTN2presses)
 314:../../../applications/examples/lora-gps-example/src/lora-gps-example.c ****     {
 315:../../../applications/examples/lora-gps-example/src/lora-gps-example.c ****       BTN2presses++;
 316:../../../applications/examples/lora-gps-example/src/lora-gps-example.c ****       RTOS_Send_Notification(offloadFlashTaskHandle);
 317:../../../applications/examples/lora-gps-example/src/lora-gps-example.c ****     }  
 318:../../../applications/examples/lora-gps-example/src/lora-gps-example.c ****     else if(BTN2presses == 1)
 319:../../../applications/examples/lora-gps-example/src/lora-gps-example.c ****     {
 320:../../../applications/examples/lora-gps-example/src/lora-gps-example.c ****       BTN2presses++;
 321:../../../applications/examples/lora-gps-example/src/lora-gps-example.c ****       printINF("BTN2 pressed twice\r\n");  
 322:../../../applications/examples/lora-gps-example/src/lora-gps-example.c ****     }
 323:../../../applications/examples/lora-gps-example/src/lora-gps-example.c ****     else
 324:../../../applications/examples/lora-gps-example/src/lora-gps-example.c ****       BTN2presses = 0;
 325:../../../applications/examples/lora-gps-example/src/lora-gps-example.c ****   } 
 326:../../../applications/examples/lora-gps-example/src/lora-gps-example.c **** }
 327:../../../applications/examples/lora-gps-example/src/lora-gps-example.c **** 
 328:../../../applications/examples/lora-gps-example/src/lora-gps-example.c **** void Nucleo_BTN1_Appcallback(void)
 329:../../../applications/examples/lora-gps-example/src/lora-gps-example.c **** {
 330:../../../applications/examples/lora-gps-example/src/lora-gps-example.c ****   if(!measurement_ongoing && !erase_ongoing)
 331:../../../applications/examples/lora-gps-example/src/lora-gps-example.c ****   {
 332:../../../applications/examples/lora-gps-example/src/lora-gps-example.c ****     if(!NucleoBTN1presses)
 333:../../../applications/examples/lora-gps-example/src/lora-gps-example.c ****     {
 334:../../../applications/examples/lora-gps-example/src/lora-gps-example.c ****       NucleoBTN1presses++;
 335:../../../applications/examples/lora-gps-example/src/lora-gps-example.c ****       RTOS_Send_Notification(eraseFlashTaskHandle);
 336:../../../applications/examples/lora-gps-example/src/lora-gps-example.c ****     }  
 337:../../../applications/examples/lora-gps-example/src/lora-gps-example.c ****     else if(NucleoBTN1presses == 4)
 338:../../../applications/examples/lora-gps-example/src/lora-gps-example.c ****     {
 339:../../../applications/examples/lora-gps-example/src/lora-gps-example.c ****       NucleoBTN1presses++;
 340:../../../applications/examples/lora-gps-example/src/lora-gps-example.c ****       printINF("Nucleo BTN pressed 5 times\r\n");
 341:../../../applications/examples/lora-gps-example/src/lora-gps-example.c ****     }
 342:../../../applications/examples/lora-gps-example/src/lora-gps-example.c ****     else
 343:../../../applications/examples/lora-gps-example/src/lora-gps-example.c ****     {
 344:../../../applications/examples/lora-gps-example/src/lora-gps-example.c ****       NucleoBTN1presses++;
 345:../../../applications/examples/lora-gps-example/src/lora-gps-example.c ****     } 
 346:../../../applications/examples/lora-gps-example/src/lora-gps-example.c ****   } 
 347:../../../applications/examples/lora-gps-example/src/lora-gps-example.c **** }
 348:../../../applications/examples/lora-gps-example/src/lora-gps-example.c **** 
 349:../../../applications/examples/lora-gps-example/src/lora-gps-example.c **** void Offload_Flash()
 350:../../../applications/examples/lora-gps-example/src/lora-gps-example.c **** {
 351:../../../applications/examples/lora-gps-example/src/lora-gps-example.c ****   uint32_t startProcessing;
 352:../../../applications/examples/lora-gps-example/src/lora-gps-example.c ****   while (1)
 353:../../../applications/examples/lora-gps-example/src/lora-gps-example.c ****   {
ARM GAS  C:\Users\tijsv\AppData\Local\Temp\ccxP5pih.s 			page 8


 354:../../../applications/examples/lora-gps-example/src/lora-gps-example.c ****     // Wait to be notified that the transmission is complete.  Note the first
 355:../../../applications/examples/lora-gps-example/src/lora-gps-example.c ****     //parameter is pdTRUE, which has the effect of clearing the task's notification
 356:../../../applications/examples/lora-gps-example/src/lora-gps-example.c ****     //value back to 0, making the notification value act like a binary (rather than
 357:../../../applications/examples/lora-gps-example/src/lora-gps-example.c ****     //a counting) semaphore.
 358:../../../applications/examples/lora-gps-example/src/lora-gps-example.c ****     startProcessing = ulTaskNotifyTake(pdTRUE, osWaitForever);
 359:../../../applications/examples/lora-gps-example/src/lora-gps-example.c ****     if (startProcessing == 1)
 360:../../../applications/examples/lora-gps-example/src/lora-gps-example.c ****     {
 361:../../../applications/examples/lora-gps-example/src/lora-gps-example.c ****       // The transmission ended as expected.
 362:../../../applications/examples/lora-gps-example/src/lora-gps-example.c ****       printDBG("Press BTN2 again within 5 sec to offload flash\r\n");
 363:../../../applications/examples/lora-gps-example/src/lora-gps-example.c ****       uint8_t i = 0;
 364:../../../applications/examples/lora-gps-example/src/lora-gps-example.c **** 
 365:../../../applications/examples/lora-gps-example/src/lora-gps-example.c ****       for (i=0; i<5; i++)
 366:../../../applications/examples/lora-gps-example/src/lora-gps-example.c ****       {
 367:../../../applications/examples/lora-gps-example/src/lora-gps-example.c ****         if(BTN2presses == 2)
 368:../../../applications/examples/lora-gps-example/src/lora-gps-example.c ****         { 
 369:../../../applications/examples/lora-gps-example/src/lora-gps-example.c ****           printINF("*****OFFLOADING FLASH*****\r\n");
 370:../../../applications/examples/lora-gps-example/src/lora-gps-example.c ****           
 371:../../../applications/examples/lora-gps-example/src/lora-gps-example.c ****          printINF("Stopping lorawan timer\r\n");
 372:../../../applications/examples/lora-gps-example/src/lora-gps-example.c ****          osTimerStop(loraWANTimId);
 373:../../../applications/examples/lora-gps-example/src/lora-gps-example.c **** 
 374:../../../applications/examples/lora-gps-example/src/lora-gps-example.c ****           uint32_t index;
 375:../../../applications/examples/lora-gps-example/src/lora-gps-example.c ****           printINF("Offloading a total of %d pages\r\n", current_octa_configuration.flash_index);
 376:../../../applications/examples/lora-gps-example/src/lora-gps-example.c ****           for(index=0; index<current_octa_configuration.flash_index; index++)
 377:../../../applications/examples/lora-gps-example/src/lora-gps-example.c ****           {
 378:../../../applications/examples/lora-gps-example/src/lora-gps-example.c ****             OCTA_FLASH_open(index);
 379:../../../applications/examples/lora-gps-example/src/lora-gps-example.c ****             uint8_t buffer[OCTA_FLASH_PAGE_SIZE];
 380:../../../applications/examples/lora-gps-example/src/lora-gps-example.c ****             OCTA_FLASH_read(buffer, OCTA_FLASH_PAGE_SIZE);
 381:../../../applications/examples/lora-gps-example/src/lora-gps-example.c ****             uint16_t byteindex;
 382:../../../applications/examples/lora-gps-example/src/lora-gps-example.c ****             unsigned char* result;
 383:../../../applications/examples/lora-gps-example/src/lora-gps-example.c ****             result = bin_to_strhex((unsigned char *)buffer, OCTA_FLASH_PAGE_SIZE, &result);
 384:../../../applications/examples/lora-gps-example/src/lora-gps-example.c ****             printINF("Flash page %d: %s\r\n", index, result);
 385:../../../applications/examples/lora-gps-example/src/lora-gps-example.c ****             free(result); 
 386:../../../applications/examples/lora-gps-example/src/lora-gps-example.c ****           }
 387:../../../applications/examples/lora-gps-example/src/lora-gps-example.c ****           printINF("Flash offloaded\r\n");
 388:../../../applications/examples/lora-gps-example/src/lora-gps-example.c ****           
 389:../../../applications/examples/lora-gps-example/src/lora-gps-example.c ****           printINF("Restarting lorawan Timer\r\n");
 390:../../../applications/examples/lora-gps-example/src/lora-gps-example.c ****           osTimerStart(loraWANTimId, 30 * 1000);
 391:../../../applications/examples/lora-gps-example/src/lora-gps-example.c ****           break;
 392:../../../applications/examples/lora-gps-example/src/lora-gps-example.c ****         }
 393:../../../applications/examples/lora-gps-example/src/lora-gps-example.c ****         else
 394:../../../applications/examples/lora-gps-example/src/lora-gps-example.c ****         {
 395:../../../applications/examples/lora-gps-example/src/lora-gps-example.c ****           printDBG("...\r\n");
 396:../../../applications/examples/lora-gps-example/src/lora-gps-example.c ****           osDelay(1000);
 397:../../../applications/examples/lora-gps-example/src/lora-gps-example.c ****         }
 398:../../../applications/examples/lora-gps-example/src/lora-gps-example.c ****         
 399:../../../applications/examples/lora-gps-example/src/lora-gps-example.c ****       }
 400:../../../applications/examples/lora-gps-example/src/lora-gps-example.c ****       BTN2presses = 0;
 401:../../../applications/examples/lora-gps-example/src/lora-gps-example.c ****     }
 402:../../../applications/examples/lora-gps-example/src/lora-gps-example.c ****     else
 403:../../../applications/examples/lora-gps-example/src/lora-gps-example.c ****     {
 404:../../../applications/examples/lora-gps-example/src/lora-gps-example.c ****       printERR("Notification NOK\r\n");
 405:../../../applications/examples/lora-gps-example/src/lora-gps-example.c ****     }
 406:../../../applications/examples/lora-gps-example/src/lora-gps-example.c ****     osDelay(1);
 407:../../../applications/examples/lora-gps-example/src/lora-gps-example.c ****   }
 408:../../../applications/examples/lora-gps-example/src/lora-gps-example.c ****   osThreadTerminate(NULL);
 409:../../../applications/examples/lora-gps-example/src/lora-gps-example.c **** }
 410:../../../applications/examples/lora-gps-example/src/lora-gps-example.c **** 
ARM GAS  C:\Users\tijsv\AppData\Local\Temp\ccxP5pih.s 			page 9


 411:../../../applications/examples/lora-gps-example/src/lora-gps-example.c **** void Erase_Flash()
 412:../../../applications/examples/lora-gps-example/src/lora-gps-example.c **** {
 413:../../../applications/examples/lora-gps-example/src/lora-gps-example.c ****   uint32_t startProcessing;
 414:../../../applications/examples/lora-gps-example/src/lora-gps-example.c ****   while (1)
 415:../../../applications/examples/lora-gps-example/src/lora-gps-example.c ****   {
 416:../../../applications/examples/lora-gps-example/src/lora-gps-example.c ****     // Wait to be notified that the transmission is complete.  Note the first
 417:../../../applications/examples/lora-gps-example/src/lora-gps-example.c ****     //parameter is pdTRUE, which has the effect of clearing the task's notification
 418:../../../applications/examples/lora-gps-example/src/lora-gps-example.c ****     //value back to 0, making the notification value act like a binary (rather than
 419:../../../applications/examples/lora-gps-example/src/lora-gps-example.c ****     //a counting) semaphore.
 420:../../../applications/examples/lora-gps-example/src/lora-gps-example.c ****     startProcessing = ulTaskNotifyTake(pdTRUE, osWaitForever);
 421:../../../applications/examples/lora-gps-example/src/lora-gps-example.c ****     if (startProcessing == 1)
 422:../../../applications/examples/lora-gps-example/src/lora-gps-example.c ****     {
 423:../../../applications/examples/lora-gps-example/src/lora-gps-example.c ****       // The transmission ended as expected.
 424:../../../applications/examples/lora-gps-example/src/lora-gps-example.c ****       printDBG("Press Nucleo BTN1 5 times within 5 sec to erase flash\r\n");
 425:../../../applications/examples/lora-gps-example/src/lora-gps-example.c ****       uint8_t i = 0;
 426:../../../applications/examples/lora-gps-example/src/lora-gps-example.c **** 
 427:../../../applications/examples/lora-gps-example/src/lora-gps-example.c ****       for (i=0; i<5; i++)
 428:../../../applications/examples/lora-gps-example/src/lora-gps-example.c ****       {
 429:../../../applications/examples/lora-gps-example/src/lora-gps-example.c ****         if(NucleoBTN1presses > 4)
 430:../../../applications/examples/lora-gps-example/src/lora-gps-example.c ****         { 
 431:../../../applications/examples/lora-gps-example/src/lora-gps-example.c ****           printINF("*****ERASING FLASH*****\r\n");
 432:../../../applications/examples/lora-gps-example/src/lora-gps-example.c ****           erase_ongoing = 1;
 433:../../../applications/examples/lora-gps-example/src/lora-gps-example.c ****           printINF("Stopping lorawan timer\r\n");
 434:../../../applications/examples/lora-gps-example/src/lora-gps-example.c ****           osTimerStop(loraWANTimId);
 435:../../../applications/examples/lora-gps-example/src/lora-gps-example.c **** 
 436:../../../applications/examples/lora-gps-example/src/lora-gps-example.c ****           if(OCTA_FLASH_eraseFullFlash()==OCTA_FLASH_OK)
 437:../../../applications/examples/lora-gps-example/src/lora-gps-example.c ****             printINF("Flash Erase CMD OK, actual erase takes a few minutes. Red LED will blink duri
 438:../../../applications/examples/lora-gps-example/src/lora-gps-example.c ****           else
 439:../../../applications/examples/lora-gps-example/src/lora-gps-example.c ****             printERR("Flash Erase CMD NOK\r\n");
 440:../../../applications/examples/lora-gps-example/src/lora-gps-example.c ****           
 441:../../../applications/examples/lora-gps-example/src/lora-gps-example.c ****           while(OCTA_FLASH_isWriteInProgress())
 442:../../../applications/examples/lora-gps-example/src/lora-gps-example.c ****           {
 443:../../../applications/examples/lora-gps-example/src/lora-gps-example.c ****             IWDG_feed(NULL);
 444:../../../applications/examples/lora-gps-example/src/lora-gps-example.c ****             HAL_GPIO_TogglePin(OCTA_RLED_GPIO_Port, OCTA_RLED_Pin);
 445:../../../applications/examples/lora-gps-example/src/lora-gps-example.c ****             HAL_Delay(500);
 446:../../../applications/examples/lora-gps-example/src/lora-gps-example.c ****           }
 447:../../../applications/examples/lora-gps-example/src/lora-gps-example.c ****           HAL_GPIO_WritePin(OCTA_RLED_GPIO_Port, OCTA_RLED_Pin, GPIO_PIN_SET);
 448:../../../applications/examples/lora-gps-example/src/lora-gps-example.c ****           printINF("Erase finished\r\n");
 449:../../../applications/examples/lora-gps-example/src/lora-gps-example.c **** 
 450:../../../applications/examples/lora-gps-example/src/lora-gps-example.c ****           Get_Current_Config_From_Flash();
 451:../../../applications/examples/lora-gps-example/src/lora-gps-example.c ****           
 452:../../../applications/examples/lora-gps-example/src/lora-gps-example.c ****           erase_ongoing = 0;
 453:../../../applications/examples/lora-gps-example/src/lora-gps-example.c ****           printINF("Restarting lorawan Timer\r\n");
 454:../../../applications/examples/lora-gps-example/src/lora-gps-example.c ****           osTimerStart(loraWANTimId, 30 * 1000);
 455:../../../applications/examples/lora-gps-example/src/lora-gps-example.c ****           break;
 456:../../../applications/examples/lora-gps-example/src/lora-gps-example.c ****         }
 457:../../../applications/examples/lora-gps-example/src/lora-gps-example.c ****         else
 458:../../../applications/examples/lora-gps-example/src/lora-gps-example.c ****         {
 459:../../../applications/examples/lora-gps-example/src/lora-gps-example.c ****           printDBG("...\r\n");
 460:../../../applications/examples/lora-gps-example/src/lora-gps-example.c ****           osDelay(1000);
 461:../../../applications/examples/lora-gps-example/src/lora-gps-example.c ****         }
 462:../../../applications/examples/lora-gps-example/src/lora-gps-example.c ****       }
 463:../../../applications/examples/lora-gps-example/src/lora-gps-example.c ****       printINF("Resetting Nucleo BTN1 presses\r\n");
 464:../../../applications/examples/lora-gps-example/src/lora-gps-example.c ****       NucleoBTN1presses = 0;
 465:../../../applications/examples/lora-gps-example/src/lora-gps-example.c ****     }
 466:../../../applications/examples/lora-gps-example/src/lora-gps-example.c ****     else
 467:../../../applications/examples/lora-gps-example/src/lora-gps-example.c ****     {
ARM GAS  C:\Users\tijsv\AppData\Local\Temp\ccxP5pih.s 			page 10


 468:../../../applications/examples/lora-gps-example/src/lora-gps-example.c ****       printERR("Notification NOK\r\n");
 469:../../../applications/examples/lora-gps-example/src/lora-gps-example.c ****     }
 470:../../../applications/examples/lora-gps-example/src/lora-gps-example.c ****     osDelay(1);
 471:../../../applications/examples/lora-gps-example/src/lora-gps-example.c ****   }
 472:../../../applications/examples/lora-gps-example/src/lora-gps-example.c ****   osThreadTerminate(NULL);
 473:../../../applications/examples/lora-gps-example/src/lora-gps-example.c **** }
 474:../../../applications/examples/lora-gps-example/src/lora-gps-example.c **** 
 475:../../../applications/examples/lora-gps-example/src/lora-gps-example.c **** void check_modules(void const *argument)
 476:../../../applications/examples/lora-gps-example/src/lora-gps-example.c **** {
 477:../../../applications/examples/lora-gps-example/src/lora-gps-example.c ****   printINF("checking the status of the modules\r\n");
 478:../../../applications/examples/lora-gps-example/src/lora-gps-example.c ****   if (!murata_init)
 479:../../../applications/examples/lora-gps-example/src/lora-gps-example.c ****   {
 480:../../../applications/examples/lora-gps-example/src/lora-gps-example.c ****     // LORAWAN
 481:../../../applications/examples/lora-gps-example/src/lora-gps-example.c ****     murata_init = Murata_Initialize(short_UID);
 482:../../../applications/examples/lora-gps-example/src/lora-gps-example.c ****     Murata_toggleResetPin();
 483:../../../applications/examples/lora-gps-example/src/lora-gps-example.c ****   }
 484:../../../applications/examples/lora-gps-example/src/lora-gps-example.c **** }
 485:../../../applications/examples/lora-gps-example/src/lora-gps-example.c **** 
 486:../../../applications/examples/lora-gps-example/src/lora-gps-example.c **** void murata_process_rx_response(void const *argument)
 487:../../../applications/examples/lora-gps-example/src/lora-gps-example.c **** {
 488:../../../applications/examples/lora-gps-example/src/lora-gps-example.c ****   uint32_t startProcessing;
 489:../../../applications/examples/lora-gps-example/src/lora-gps-example.c ****   while (1)
 490:../../../applications/examples/lora-gps-example/src/lora-gps-example.c ****   {
 491:../../../applications/examples/lora-gps-example/src/lora-gps-example.c ****     // Wait to be notified that the transmission is complete.  Note the first
 492:../../../applications/examples/lora-gps-example/src/lora-gps-example.c ****     //parameter is pdTRUE, which has the effect of clearing the task's notification
 493:../../../applications/examples/lora-gps-example/src/lora-gps-example.c ****     //value back to 0, making the notification value act like a binary (rather than
 494:../../../applications/examples/lora-gps-example/src/lora-gps-example.c ****     //a counting) semaphore.
 495:../../../applications/examples/lora-gps-example/src/lora-gps-example.c ****     startProcessing = ulTaskNotifyTake(pdTRUE, osWaitForever);
 496:../../../applications/examples/lora-gps-example/src/lora-gps-example.c ****     if (startProcessing == 1)
 497:../../../applications/examples/lora-gps-example/src/lora-gps-example.c ****     {
 498:../../../applications/examples/lora-gps-example/src/lora-gps-example.c ****       // The transmission ended as expected.
 499:../../../applications/examples/lora-gps-example/src/lora-gps-example.c ****       while(murata_data_ready)
 500:../../../applications/examples/lora-gps-example/src/lora-gps-example.c ****       {
 501:../../../applications/examples/lora-gps-example/src/lora-gps-example.c ****         printDBG("processing murata fifo\r\n");
 502:../../../applications/examples/lora-gps-example/src/lora-gps-example.c ****         murata_data_ready = !Murata_process_fifo();
 503:../../../applications/examples/lora-gps-example/src/lora-gps-example.c ****         osDelay(50);
 504:../../../applications/examples/lora-gps-example/src/lora-gps-example.c ****       }
 505:../../../applications/examples/lora-gps-example/src/lora-gps-example.c ****     }
 506:../../../applications/examples/lora-gps-example/src/lora-gps-example.c ****     else
 507:../../../applications/examples/lora-gps-example/src/lora-gps-example.c ****     {
 508:../../../applications/examples/lora-gps-example/src/lora-gps-example.c ****     }
 509:../../../applications/examples/lora-gps-example/src/lora-gps-example.c ****     osDelay(1);
 510:../../../applications/examples/lora-gps-example/src/lora-gps-example.c ****   }
 511:../../../applications/examples/lora-gps-example/src/lora-gps-example.c ****   osThreadTerminate(NULL);
 512:../../../applications/examples/lora-gps-example/src/lora-gps-example.c **** }
 513:../../../applications/examples/lora-gps-example/src/lora-gps-example.c **** 
 514:../../../applications/examples/lora-gps-example/src/lora-gps-example.c **** void Dualstack_ApplicationCallback(void)
 515:../../../applications/examples/lora-gps-example/src/lora-gps-example.c **** {
  39              		.loc 1 515 1 view -0
  40              		.cfi_startproc
  41              		@ args = 0, pretend = 0, frame = 0
  42              		@ frame_needed = 0, uses_anonymous_args = 0
  43              		@ link register save eliminated.
 516:../../../applications/examples/lora-gps-example/src/lora-gps-example.c ****   murata_data_ready = 1;
  44              		.loc 1 516 3 view .LVU1
  45              		.loc 1 516 21 is_stmt 0 view .LVU2
  46 0000 014B     		ldr	r3, .L2
ARM GAS  C:\Users\tijsv\AppData\Local\Temp\ccxP5pih.s 			page 11


  47 0002 0122     		movs	r2, #1
  48 0004 1A70     		strb	r2, [r3]
 517:../../../applications/examples/lora-gps-example/src/lora-gps-example.c **** }
  49              		.loc 1 517 1 view .LVU3
  50 0006 7047     		bx	lr
  51              	.L3:
  52              		.align	2
  53              	.L2:
  54 0008 00000000 		.word	.LANCHOR0
  55              		.cfi_endproc
  56              	.LFE146:
  58              		.section	.rodata.BTN2_Appcallback.str1.4,"aMS",%progbits,1
  59              		.align	2
  60              	.LC6:
  61 0000 42544E32 		.ascii	"BTN2 pressed twice\015\012\000"
  61      20707265 
  61      73736564 
  61      20747769 
  61      63650D0A 
  62              		.section	.text.BTN2_Appcallback,"ax",%progbits
  63              		.align	1
  64              		.global	BTN2_Appcallback
  65              		.syntax unified
  66              		.thumb
  67              		.thumb_func
  68              		.fpu fpv4-sp-d16
  70              	BTN2_Appcallback:
  71              	.LFB140:
 310:../../../applications/examples/lora-gps-example/src/lora-gps-example.c ****   if(!measurement_ongoing && !erase_ongoing)
  72              		.loc 1 310 1 is_stmt 1 view -0
  73              		.cfi_startproc
  74              		@ args = 0, pretend = 0, frame = 0
  75              		@ frame_needed = 0, uses_anonymous_args = 0
  76 0000 08B5     		push	{r3, lr}
  77              	.LCFI0:
  78              		.cfi_def_cfa_offset 8
  79              		.cfi_offset 3, -8
  80              		.cfi_offset 14, -4
 311:../../../applications/examples/lora-gps-example/src/lora-gps-example.c ****   {
  81              		.loc 1 311 3 view .LVU5
 311:../../../applications/examples/lora-gps-example/src/lora-gps-example.c ****   {
  82              		.loc 1 311 6 is_stmt 0 view .LVU6
  83 0002 0F4B     		ldr	r3, .L11
  84 0004 1B78     		ldrb	r3, [r3]	@ zero_extendqisi2
 311:../../../applications/examples/lora-gps-example/src/lora-gps-example.c ****   {
  85              		.loc 1 311 5 view .LVU7
  86 0006 53B9     		cbnz	r3, .L4
 311:../../../applications/examples/lora-gps-example/src/lora-gps-example.c ****   {
  87              		.loc 1 311 30 discriminator 1 view .LVU8
  88 0008 0E4B     		ldr	r3, .L11+4
  89 000a 1B78     		ldrb	r3, [r3]	@ zero_extendqisi2
 311:../../../applications/examples/lora-gps-example/src/lora-gps-example.c ****   {
  90              		.loc 1 311 27 discriminator 1 view .LVU9
  91 000c 3BB9     		cbnz	r3, .L4
 313:../../../applications/examples/lora-gps-example/src/lora-gps-example.c ****     {
  92              		.loc 1 313 5 is_stmt 1 view .LVU10
 313:../../../applications/examples/lora-gps-example/src/lora-gps-example.c ****     {
ARM GAS  C:\Users\tijsv\AppData\Local\Temp\ccxP5pih.s 			page 12


  93              		.loc 1 313 8 is_stmt 0 view .LVU11
  94 000e 0E4B     		ldr	r3, .L11+8
  95 0010 1B78     		ldrb	r3, [r3]	@ zero_extendqisi2
 313:../../../applications/examples/lora-gps-example/src/lora-gps-example.c ****     {
  96              		.loc 1 313 7 view .LVU12
  97 0012 2BB1     		cbz	r3, .L9
 318:../../../applications/examples/lora-gps-example/src/lora-gps-example.c ****     {
  98              		.loc 1 318 10 is_stmt 1 view .LVU13
 318:../../../applications/examples/lora-gps-example/src/lora-gps-example.c ****     {
  99              		.loc 1 318 12 is_stmt 0 view .LVU14
 100 0014 012B     		cmp	r3, #1
 101 0016 0BD0     		beq	.L10
 324:../../../applications/examples/lora-gps-example/src/lora-gps-example.c ****   } 
 102              		.loc 1 324 7 is_stmt 1 view .LVU15
 324:../../../applications/examples/lora-gps-example/src/lora-gps-example.c ****   } 
 103              		.loc 1 324 19 is_stmt 0 view .LVU16
 104 0018 0B4B     		ldr	r3, .L11+8
 105 001a 0022     		movs	r2, #0
 106 001c 1A70     		strb	r2, [r3]
 107              	.L4:
 326:../../../applications/examples/lora-gps-example/src/lora-gps-example.c **** 
 108              		.loc 1 326 1 view .LVU17
 109 001e 08BD     		pop	{r3, pc}
 110              	.L9:
 315:../../../applications/examples/lora-gps-example/src/lora-gps-example.c ****       RTOS_Send_Notification(offloadFlashTaskHandle);
 111              		.loc 1 315 7 is_stmt 1 view .LVU18
 315:../../../applications/examples/lora-gps-example/src/lora-gps-example.c ****       RTOS_Send_Notification(offloadFlashTaskHandle);
 112              		.loc 1 315 18 is_stmt 0 view .LVU19
 113 0020 0133     		adds	r3, r3, #1
 114 0022 094A     		ldr	r2, .L11+8
 115 0024 1370     		strb	r3, [r2]
 316:../../../applications/examples/lora-gps-example/src/lora-gps-example.c ****     }  
 116              		.loc 1 316 7 is_stmt 1 view .LVU20
 117 0026 094B     		ldr	r3, .L11+12
 118 0028 1868     		ldr	r0, [r3]
 119 002a FFF7FEFF 		bl	RTOS_Send_Notification
 120              	.LVL0:
 121 002e F6E7     		b	.L4
 122              	.L10:
 320:../../../applications/examples/lora-gps-example/src/lora-gps-example.c ****       printINF("BTN2 pressed twice\r\n");  
 123              		.loc 1 320 7 view .LVU21
 320:../../../applications/examples/lora-gps-example/src/lora-gps-example.c ****       printINF("BTN2 pressed twice\r\n");  
 124              		.loc 1 320 18 is_stmt 0 view .LVU22
 125 0030 0133     		adds	r3, r3, #1
 126 0032 054A     		ldr	r2, .L11+8
 127 0034 1370     		strb	r3, [r2]
 321:../../../applications/examples/lora-gps-example/src/lora-gps-example.c ****     }
 128              		.loc 1 321 7 is_stmt 1 view .LVU23
 129 0036 0648     		ldr	r0, .L11+16
 130 0038 FFF7FEFF 		bl	printINF
 131              	.LVL1:
 132 003c EFE7     		b	.L4
 133              	.L12:
 134 003e 00BF     		.align	2
 135              	.L11:
 136 0040 00000000 		.word	.LANCHOR1
 137 0044 00000000 		.word	.LANCHOR2
ARM GAS  C:\Users\tijsv\AppData\Local\Temp\ccxP5pih.s 			page 13


 138 0048 00000000 		.word	.LANCHOR3
 139 004c 00000000 		.word	offloadFlashTaskHandle
 140 0050 00000000 		.word	.LC6
 141              		.cfi_endproc
 142              	.LFE140:
 144              		.section	.rodata.Nucleo_BTN1_Appcallback.str1.4,"aMS",%progbits,1
 145              		.align	2
 146              	.LC7:
 147 0000 4E75636C 		.ascii	"Nucleo BTN pressed 5 times\015\012\000"
 147      656F2042 
 147      544E2070 
 147      72657373 
 147      65642035 
 148              		.section	.text.Nucleo_BTN1_Appcallback,"ax",%progbits
 149              		.align	1
 150              		.global	Nucleo_BTN1_Appcallback
 151              		.syntax unified
 152              		.thumb
 153              		.thumb_func
 154              		.fpu fpv4-sp-d16
 156              	Nucleo_BTN1_Appcallback:
 157              	.LFB141:
 329:../../../applications/examples/lora-gps-example/src/lora-gps-example.c ****   if(!measurement_ongoing && !erase_ongoing)
 158              		.loc 1 329 1 view -0
 159              		.cfi_startproc
 160              		@ args = 0, pretend = 0, frame = 0
 161              		@ frame_needed = 0, uses_anonymous_args = 0
 162 0000 08B5     		push	{r3, lr}
 163              	.LCFI1:
 164              		.cfi_def_cfa_offset 8
 165              		.cfi_offset 3, -8
 166              		.cfi_offset 14, -4
 330:../../../applications/examples/lora-gps-example/src/lora-gps-example.c ****   {
 167              		.loc 1 330 3 view .LVU25
 330:../../../applications/examples/lora-gps-example/src/lora-gps-example.c ****   {
 168              		.loc 1 330 6 is_stmt 0 view .LVU26
 169 0002 0F4B     		ldr	r3, .L20
 170 0004 1B78     		ldrb	r3, [r3]	@ zero_extendqisi2
 330:../../../applications/examples/lora-gps-example/src/lora-gps-example.c ****   {
 171              		.loc 1 330 5 view .LVU27
 172 0006 53B9     		cbnz	r3, .L13
 330:../../../applications/examples/lora-gps-example/src/lora-gps-example.c ****   {
 173              		.loc 1 330 30 discriminator 1 view .LVU28
 174 0008 0E4B     		ldr	r3, .L20+4
 175 000a 1B78     		ldrb	r3, [r3]	@ zero_extendqisi2
 330:../../../applications/examples/lora-gps-example/src/lora-gps-example.c ****   {
 176              		.loc 1 330 27 discriminator 1 view .LVU29
 177 000c 3BB9     		cbnz	r3, .L13
 332:../../../applications/examples/lora-gps-example/src/lora-gps-example.c ****     {
 178              		.loc 1 332 5 is_stmt 1 view .LVU30
 332:../../../applications/examples/lora-gps-example/src/lora-gps-example.c ****     {
 179              		.loc 1 332 8 is_stmt 0 view .LVU31
 180 000e 0E4B     		ldr	r3, .L20+8
 181 0010 1B78     		ldrb	r3, [r3]	@ zero_extendqisi2
 332:../../../applications/examples/lora-gps-example/src/lora-gps-example.c ****     {
 182              		.loc 1 332 7 view .LVU32
 183 0012 2BB1     		cbz	r3, .L18
ARM GAS  C:\Users\tijsv\AppData\Local\Temp\ccxP5pih.s 			page 14


 337:../../../applications/examples/lora-gps-example/src/lora-gps-example.c ****     {
 184              		.loc 1 337 10 is_stmt 1 view .LVU33
 337:../../../applications/examples/lora-gps-example/src/lora-gps-example.c ****     {
 185              		.loc 1 337 12 is_stmt 0 view .LVU34
 186 0014 042B     		cmp	r3, #4
 187 0016 0BD0     		beq	.L19
 344:../../../applications/examples/lora-gps-example/src/lora-gps-example.c ****     } 
 188              		.loc 1 344 7 is_stmt 1 view .LVU35
 344:../../../applications/examples/lora-gps-example/src/lora-gps-example.c ****     } 
 189              		.loc 1 344 24 is_stmt 0 view .LVU36
 190 0018 0133     		adds	r3, r3, #1
 191 001a 0B4A     		ldr	r2, .L20+8
 192 001c 1370     		strb	r3, [r2]
 193              	.L13:
 347:../../../applications/examples/lora-gps-example/src/lora-gps-example.c **** 
 194              		.loc 1 347 1 view .LVU37
 195 001e 08BD     		pop	{r3, pc}
 196              	.L18:
 334:../../../applications/examples/lora-gps-example/src/lora-gps-example.c ****       RTOS_Send_Notification(eraseFlashTaskHandle);
 197              		.loc 1 334 7 is_stmt 1 view .LVU38
 334:../../../applications/examples/lora-gps-example/src/lora-gps-example.c ****       RTOS_Send_Notification(eraseFlashTaskHandle);
 198              		.loc 1 334 24 is_stmt 0 view .LVU39
 199 0020 0133     		adds	r3, r3, #1
 200 0022 094A     		ldr	r2, .L20+8
 201 0024 1370     		strb	r3, [r2]
 335:../../../applications/examples/lora-gps-example/src/lora-gps-example.c ****     }  
 202              		.loc 1 335 7 is_stmt 1 view .LVU40
 203 0026 094B     		ldr	r3, .L20+12
 204 0028 1868     		ldr	r0, [r3]
 205 002a FFF7FEFF 		bl	RTOS_Send_Notification
 206              	.LVL2:
 207 002e F6E7     		b	.L13
 208              	.L19:
 339:../../../applications/examples/lora-gps-example/src/lora-gps-example.c ****       printINF("Nucleo BTN pressed 5 times\r\n");
 209              		.loc 1 339 7 view .LVU41
 339:../../../applications/examples/lora-gps-example/src/lora-gps-example.c ****       printINF("Nucleo BTN pressed 5 times\r\n");
 210              		.loc 1 339 24 is_stmt 0 view .LVU42
 211 0030 0133     		adds	r3, r3, #1
 212 0032 054A     		ldr	r2, .L20+8
 213 0034 1370     		strb	r3, [r2]
 340:../../../applications/examples/lora-gps-example/src/lora-gps-example.c ****     }
 214              		.loc 1 340 7 is_stmt 1 view .LVU43
 215 0036 0648     		ldr	r0, .L20+16
 216 0038 FFF7FEFF 		bl	printINF
 217              	.LVL3:
 218 003c EFE7     		b	.L13
 219              	.L21:
 220 003e 00BF     		.align	2
 221              	.L20:
 222 0040 00000000 		.word	.LANCHOR1
 223 0044 00000000 		.word	.LANCHOR2
 224 0048 00000000 		.word	.LANCHOR4
 225 004c 00000000 		.word	eraseFlashTaskHandle
 226 0050 00000000 		.word	.LC7
 227              		.cfi_endproc
 228              	.LFE141:
 230              		.section	.rodata.check_modules.str1.4,"aMS",%progbits,1
ARM GAS  C:\Users\tijsv\AppData\Local\Temp\ccxP5pih.s 			page 15


 231              		.align	2
 232              	.LC8:
 233 0000 63686563 		.ascii	"checking the status of the modules\015\012\000"
 233      6B696E67 
 233      20746865 
 233      20737461 
 233      74757320 
 234              		.section	.text.check_modules,"ax",%progbits
 235              		.align	1
 236              		.global	check_modules
 237              		.syntax unified
 238              		.thumb
 239              		.thumb_func
 240              		.fpu fpv4-sp-d16
 242              	check_modules:
 243              	.LVL4:
 244              	.LFB144:
 476:../../../applications/examples/lora-gps-example/src/lora-gps-example.c ****   printINF("checking the status of the modules\r\n");
 245              		.loc 1 476 1 view -0
 246              		.cfi_startproc
 247              		@ args = 0, pretend = 0, frame = 0
 248              		@ frame_needed = 0, uses_anonymous_args = 0
 476:../../../applications/examples/lora-gps-example/src/lora-gps-example.c ****   printINF("checking the status of the modules\r\n");
 249              		.loc 1 476 1 is_stmt 0 view .LVU45
 250 0000 08B5     		push	{r3, lr}
 251              	.LCFI2:
 252              		.cfi_def_cfa_offset 8
 253              		.cfi_offset 3, -8
 254              		.cfi_offset 14, -4
 477:../../../applications/examples/lora-gps-example/src/lora-gps-example.c ****   if (!murata_init)
 255              		.loc 1 477 3 is_stmt 1 view .LVU46
 256 0002 0848     		ldr	r0, .L26
 257              	.LVL5:
 477:../../../applications/examples/lora-gps-example/src/lora-gps-example.c ****   if (!murata_init)
 258              		.loc 1 477 3 is_stmt 0 view .LVU47
 259 0004 FFF7FEFF 		bl	printINF
 260              	.LVL6:
 478:../../../applications/examples/lora-gps-example/src/lora-gps-example.c ****   {
 261              		.loc 1 478 3 is_stmt 1 view .LVU48
 478:../../../applications/examples/lora-gps-example/src/lora-gps-example.c ****   {
 262              		.loc 1 478 7 is_stmt 0 view .LVU49
 263 0008 074B     		ldr	r3, .L26+4
 264 000a 1B78     		ldrb	r3, [r3]	@ zero_extendqisi2
 478:../../../applications/examples/lora-gps-example/src/lora-gps-example.c ****   {
 265              		.loc 1 478 6 view .LVU50
 266 000c 03B1     		cbz	r3, .L25
 267              	.L22:
 484:../../../applications/examples/lora-gps-example/src/lora-gps-example.c **** 
 268              		.loc 1 484 1 view .LVU51
 269 000e 08BD     		pop	{r3, pc}
 270              	.L25:
 481:../../../applications/examples/lora-gps-example/src/lora-gps-example.c ****     Murata_toggleResetPin();
 271              		.loc 1 481 5 is_stmt 1 view .LVU52
 481:../../../applications/examples/lora-gps-example/src/lora-gps-example.c ****     Murata_toggleResetPin();
 272              		.loc 1 481 19 is_stmt 0 view .LVU53
 273 0010 064B     		ldr	r3, .L26+8
 274 0012 D3E90001 		ldrd	r0, [r3]
ARM GAS  C:\Users\tijsv\AppData\Local\Temp\ccxP5pih.s 			page 16


 275 0016 FFF7FEFF 		bl	Murata_Initialize
 276              	.LVL7:
 481:../../../applications/examples/lora-gps-example/src/lora-gps-example.c ****     Murata_toggleResetPin();
 277              		.loc 1 481 17 view .LVU54
 278 001a 034B     		ldr	r3, .L26+4
 279 001c 1870     		strb	r0, [r3]
 482:../../../applications/examples/lora-gps-example/src/lora-gps-example.c ****   }
 280              		.loc 1 482 5 is_stmt 1 view .LVU55
 281 001e FFF7FEFF 		bl	Murata_toggleResetPin
 282              	.LVL8:
 484:../../../applications/examples/lora-gps-example/src/lora-gps-example.c **** 
 283              		.loc 1 484 1 is_stmt 0 view .LVU56
 284 0022 F4E7     		b	.L22
 285              	.L27:
 286              		.align	2
 287              	.L26:
 288 0024 00000000 		.word	.LC8
 289 0028 00000000 		.word	.LANCHOR5
 290 002c 00000000 		.word	short_UID
 291              		.cfi_endproc
 292              	.LFE144:
 294              		.section	.rodata.murata_process_rx_response.str1.4,"aMS",%progbits,1
 295              		.align	2
 296              	.LC9:
 297 0000 70726F63 		.ascii	"processing murata fifo\015\012\000"
 297      65737369 
 297      6E67206D 
 297      75726174 
 297      61206669 
 298              		.section	.text.murata_process_rx_response,"ax",%progbits
 299              		.align	1
 300              		.global	murata_process_rx_response
 301              		.syntax unified
 302              		.thumb
 303              		.thumb_func
 304              		.fpu fpv4-sp-d16
 306              	murata_process_rx_response:
 307              	.LFB145:
 487:../../../applications/examples/lora-gps-example/src/lora-gps-example.c ****   uint32_t startProcessing;
 308              		.loc 1 487 1 is_stmt 1 view -0
 309              		.cfi_startproc
 310              		@ args = 0, pretend = 0, frame = 0
 311              		@ frame_needed = 0, uses_anonymous_args = 0
 312              	.LVL9:
 487:../../../applications/examples/lora-gps-example/src/lora-gps-example.c ****   uint32_t startProcessing;
 313              		.loc 1 487 1 is_stmt 0 view .LVU58
 314 0000 08B5     		push	{r3, lr}
 315              	.LCFI3:
 316              		.cfi_def_cfa_offset 8
 317              		.cfi_offset 3, -8
 318              		.cfi_offset 14, -4
 319 0002 02E0     		b	.L32
 320              	.LVL10:
 321              	.L30:
 508:../../../applications/examples/lora-gps-example/src/lora-gps-example.c ****     osDelay(1);
 322              		.loc 1 508 5 is_stmt 1 view .LVU59
 509:../../../applications/examples/lora-gps-example/src/lora-gps-example.c ****   }
ARM GAS  C:\Users\tijsv\AppData\Local\Temp\ccxP5pih.s 			page 17


 323              		.loc 1 509 5 view .LVU60
 324 0004 0120     		movs	r0, #1
 325 0006 FFF7FEFF 		bl	osDelay
 326              	.LVL11:
 489:../../../applications/examples/lora-gps-example/src/lora-gps-example.c ****   {
 327              		.loc 1 489 9 view .LVU61
 328              	.L32:
 488:../../../applications/examples/lora-gps-example/src/lora-gps-example.c ****   while (1)
 329              		.loc 1 488 3 view .LVU62
 489:../../../applications/examples/lora-gps-example/src/lora-gps-example.c ****   {
 330              		.loc 1 489 3 view .LVU63
 495:../../../applications/examples/lora-gps-example/src/lora-gps-example.c ****     if (startProcessing == 1)
 331              		.loc 1 495 5 view .LVU64
 495:../../../applications/examples/lora-gps-example/src/lora-gps-example.c ****     if (startProcessing == 1)
 332              		.loc 1 495 23 is_stmt 0 view .LVU65
 333 000a 4FF0FF31 		mov	r1, #-1
 334 000e 0120     		movs	r0, #1
 335 0010 FFF7FEFF 		bl	ulTaskNotifyTake
 336              	.LVL12:
 496:../../../applications/examples/lora-gps-example/src/lora-gps-example.c ****     {
 337              		.loc 1 496 5 is_stmt 1 view .LVU66
 496:../../../applications/examples/lora-gps-example/src/lora-gps-example.c ****     {
 338              		.loc 1 496 8 is_stmt 0 view .LVU67
 339 0014 0128     		cmp	r0, #1
 340 0016 F5D1     		bne	.L30
 341              	.LVL13:
 342              	.L29:
 499:../../../applications/examples/lora-gps-example/src/lora-gps-example.c ****       {
 343              		.loc 1 499 12 is_stmt 1 view .LVU68
 499:../../../applications/examples/lora-gps-example/src/lora-gps-example.c ****       {
 344              		.loc 1 499 13 is_stmt 0 view .LVU69
 345 0018 084B     		ldr	r3, .L34
 346 001a 1B78     		ldrb	r3, [r3]	@ zero_extendqisi2
 499:../../../applications/examples/lora-gps-example/src/lora-gps-example.c ****       {
 347              		.loc 1 499 12 view .LVU70
 348 001c 002B     		cmp	r3, #0
 349 001e F1D0     		beq	.L30
 501:../../../applications/examples/lora-gps-example/src/lora-gps-example.c ****         murata_data_ready = !Murata_process_fifo();
 350              		.loc 1 501 9 is_stmt 1 view .LVU71
 351 0020 0748     		ldr	r0, .L34+4
 352 0022 FFF7FEFF 		bl	printDBG
 353              	.LVL14:
 502:../../../applications/examples/lora-gps-example/src/lora-gps-example.c ****         osDelay(50);
 354              		.loc 1 502 9 view .LVU72
 502:../../../applications/examples/lora-gps-example/src/lora-gps-example.c ****         osDelay(50);
 355              		.loc 1 502 30 is_stmt 0 view .LVU73
 356 0026 FFF7FEFF 		bl	Murata_process_fifo
 357              	.LVL15:
 502:../../../applications/examples/lora-gps-example/src/lora-gps-example.c ****         osDelay(50);
 358              		.loc 1 502 29 view .LVU74
 359 002a B0FA80F0 		clz	r0, r0
 360 002e 4009     		lsrs	r0, r0, #5
 502:../../../applications/examples/lora-gps-example/src/lora-gps-example.c ****         osDelay(50);
 361              		.loc 1 502 27 view .LVU75
 362 0030 024B     		ldr	r3, .L34
 363 0032 1870     		strb	r0, [r3]
 503:../../../applications/examples/lora-gps-example/src/lora-gps-example.c ****       }
ARM GAS  C:\Users\tijsv\AppData\Local\Temp\ccxP5pih.s 			page 18


 364              		.loc 1 503 9 is_stmt 1 view .LVU76
 365 0034 3220     		movs	r0, #50
 366 0036 FFF7FEFF 		bl	osDelay
 367              	.LVL16:
 368 003a EDE7     		b	.L29
 369              	.L35:
 370              		.align	2
 371              	.L34:
 372 003c 00000000 		.word	.LANCHOR0
 373 0040 00000000 		.word	.LC9
 374              		.cfi_endproc
 375              	.LFE145:
 377              		.global	__aeabi_f2d
 378              		.section	.rodata.setGPSCoordinates.str1.4,"aMS",%progbits,1
 379              		.align	2
 380              	.LC10:
 381 0000 4C4F4341 		.ascii	"LOCATION:  lat: %f, long: %f, hdop: %f \015\012\000"
 381      54494F4E 
 381      3A20206C 
 381      61743A20 
 381      25662C20 
 382              		.section	.text.setGPSCoordinates,"ax",%progbits
 383              		.align	1
 384              		.global	setGPSCoordinates
 385              		.syntax unified
 386              		.thumb
 387              		.thumb_func
 388              		.fpu fpv4-sp-d16
 390              	setGPSCoordinates:
 391              	.LFB135:
 229:../../../applications/examples/lora-gps-example/src/lora-gps-example.c **** 	hasGPSFix=1;
 392              		.loc 1 229 1 view -0
 393              		.cfi_startproc
 394              		@ args = 0, pretend = 0, frame = 0
 395              		@ frame_needed = 0, uses_anonymous_args = 0
 396 0000 F0B5     		push	{r4, r5, r6, r7, lr}
 397              	.LCFI4:
 398              		.cfi_def_cfa_offset 20
 399              		.cfi_offset 4, -20
 400              		.cfi_offset 5, -16
 401              		.cfi_offset 6, -12
 402              		.cfi_offset 7, -8
 403              		.cfi_offset 14, -4
 404 0002 85B0     		sub	sp, sp, #20
 405              	.LCFI5:
 406              		.cfi_def_cfa_offset 40
 230:../../../applications/examples/lora-gps-example/src/lora-gps-example.c **** 	currentLocation=gps_get_position_dd();
 407              		.loc 1 230 2 view .LVU78
 230:../../../applications/examples/lora-gps-example/src/lora-gps-example.c **** 	currentLocation=gps_get_position_dd();
 408              		.loc 1 230 11 is_stmt 0 view .LVU79
 409 0004 164B     		ldr	r3, .L38
 410 0006 0122     		movs	r2, #1
 411 0008 1A70     		strb	r2, [r3]
 231:../../../applications/examples/lora-gps-example/src/lora-gps-example.c **** 	locationArray[0]=currentLocation.latitude;
 412              		.loc 1 231 2 is_stmt 1 view .LVU80
 231:../../../applications/examples/lora-gps-example/src/lora-gps-example.c **** 	locationArray[0]=currentLocation.latitude;
 413              		.loc 1 231 18 is_stmt 0 view .LVU81
ARM GAS  C:\Users\tijsv\AppData\Local\Temp\ccxP5pih.s 			page 19


 414 000a FFF7FEFF 		bl	gps_get_position_dd
 415              	.LVL17:
 416 000e 10EE100A 		vmov	r0, s0
 417 0012 10EE904A 		vmov	r4, s1
 418 0016 11EE105A 		vmov	r5, s2
 419 001a 124B     		ldr	r3, .L38+4
 420 001c 83ED000A 		vstr.32	s0, [r3]
 421 0020 C3ED010A 		vstr.32	s1, [r3, #4]
 422 0024 83ED021A 		vstr.32	s2, [r3, #8]
 232:../../../applications/examples/lora-gps-example/src/lora-gps-example.c **** 	locationArray[1]=currentLocation.longitude;
 423              		.loc 1 232 2 is_stmt 1 view .LVU82
 232:../../../applications/examples/lora-gps-example/src/lora-gps-example.c **** 	locationArray[1]=currentLocation.longitude;
 424              		.loc 1 232 18 is_stmt 0 view .LVU83
 425 0028 0F4B     		ldr	r3, .L38+8
 426 002a 83ED000A 		vstr.32	s0, [r3]
 233:../../../applications/examples/lora-gps-example/src/lora-gps-example.c **** 	locationArray[2]=currentLocation.hdop;
 427              		.loc 1 233 2 is_stmt 1 view .LVU84
 233:../../../applications/examples/lora-gps-example/src/lora-gps-example.c **** 	locationArray[2]=currentLocation.hdop;
 428              		.loc 1 233 18 is_stmt 0 view .LVU85
 429 002e C3ED010A 		vstr.32	s1, [r3, #4]
 234:../../../applications/examples/lora-gps-example/src/lora-gps-example.c ****   printINF("LOCATION:  lat: %f, long: %f, hdop: %f \r\n", locationArray[0], locationArray[1], locat
 430              		.loc 1 234 2 is_stmt 1 view .LVU86
 234:../../../applications/examples/lora-gps-example/src/lora-gps-example.c ****   printINF("LOCATION:  lat: %f, long: %f, hdop: %f \r\n", locationArray[0], locationArray[1], locat
 431              		.loc 1 234 18 is_stmt 0 view .LVU87
 432 0032 83ED021A 		vstr.32	s2, [r3, #8]
 235:../../../applications/examples/lora-gps-example/src/lora-gps-example.c **** }
 433              		.loc 1 235 3 is_stmt 1 view .LVU88
 434 0036 FFF7FEFF 		bl	__aeabi_f2d
 435              	.LVL18:
 436 003a 0646     		mov	r6, r0
 437 003c 0F46     		mov	r7, r1
 438 003e 2846     		mov	r0, r5	@ float
 439 0040 FFF7FEFF 		bl	__aeabi_f2d
 440              	.LVL19:
 441 0044 CDE90201 		strd	r0, [sp, #8]
 442 0048 2046     		mov	r0, r4	@ float
 443 004a FFF7FEFF 		bl	__aeabi_f2d
 444              	.LVL20:
 445 004e CDE90001 		strd	r0, [sp]
 446 0052 3246     		mov	r2, r6
 447 0054 3B46     		mov	r3, r7
 448 0056 0548     		ldr	r0, .L38+12
 449 0058 FFF7FEFF 		bl	printINF
 450              	.LVL21:
 236:../../../applications/examples/lora-gps-example/src/lora-gps-example.c **** 
 451              		.loc 1 236 1 is_stmt 0 view .LVU89
 452 005c 05B0     		add	sp, sp, #20
 453              	.LCFI6:
 454              		.cfi_def_cfa_offset 20
 455              		@ sp needed
 456 005e F0BD     		pop	{r4, r5, r6, r7, pc}
 457              	.L39:
 458              		.align	2
 459              	.L38:
 460 0060 00000000 		.word	.LANCHOR6
 461 0064 00000000 		.word	.LANCHOR7
 462 0068 00000000 		.word	locationArray
ARM GAS  C:\Users\tijsv\AppData\Local\Temp\ccxP5pih.s 			page 20


 463 006c 00000000 		.word	.LC10
 464              		.cfi_endproc
 465              	.LFE135:
 467              		.section	.rodata.GPS_Read.str1.4,"aMS",%progbits,1
 468              		.align	2
 469              	.LC11:
 470 0000 47505320 		.ascii	"GPS FIX\015\012\000"
 470      4649580D 
 470      0A00
 471 000a 0000     		.align	2
 472              	.LC12:
 473 000c 4E4F2047 		.ascii	"NO GPS FIX\015\012\000"
 473      50532046 
 473      49580D0A 
 473      00
 474              		.section	.text.GPS_Read,"ax",%progbits
 475              		.align	1
 476              		.global	GPS_Read
 477              		.syntax unified
 478              		.thumb
 479              		.thumb_func
 480              		.fpu fpv4-sp-d16
 482              	GPS_Read:
 483              	.LFB134:
 205:../../../applications/examples/lora-gps-example/src/lora-gps-example.c ****   uint8_t response[GPS_BUFFER_SIZE];
 484              		.loc 1 205 1 is_stmt 1 view -0
 485              		.cfi_startproc
 486              		@ args = 0, pretend = 0, frame = 256
 487              		@ frame_needed = 0, uses_anonymous_args = 0
 488 0000 10B5     		push	{r4, lr}
 489              	.LCFI7:
 490              		.cfi_def_cfa_offset 8
 491              		.cfi_offset 4, -8
 492              		.cfi_offset 14, -4
 493 0002 C0B0     		sub	sp, sp, #256
 494              	.LCFI8:
 495              		.cfi_def_cfa_offset 264
 206:../../../applications/examples/lora-gps-example/src/lora-gps-example.c ****   uint8_t quality = Firefly_receive(response);
 496              		.loc 1 206 3 view .LVU91
 207:../../../applications/examples/lora-gps-example/src/lora-gps-example.c ****   if(quality==1)
 497              		.loc 1 207 3 view .LVU92
 207:../../../applications/examples/lora-gps-example/src/lora-gps-example.c ****   if(quality==1)
 498              		.loc 1 207 21 is_stmt 0 view .LVU93
 499 0004 6846     		mov	r0, sp
 500 0006 FFF7FEFF 		bl	Firefly_receive
 501              	.LVL22:
 208:../../../applications/examples/lora-gps-example/src/lora-gps-example.c ****   {   
 502              		.loc 1 208 3 is_stmt 1 view .LVU94
 208:../../../applications/examples/lora-gps-example/src/lora-gps-example.c ****   {   
 503              		.loc 1 208 5 is_stmt 0 view .LVU95
 504 000a 0128     		cmp	r0, #1
 505 000c 18D0     		beq	.L44
 219:../../../applications/examples/lora-gps-example/src/lora-gps-example.c ****       HAL_Delay(100);
 506              		.loc 1 219 7 is_stmt 1 view .LVU96
 507 000e 174C     		ldr	r4, .L45
 508 0010 4FF48041 		mov	r1, #16384
 509 0014 2046     		mov	r0, r4
ARM GAS  C:\Users\tijsv\AppData\Local\Temp\ccxP5pih.s 			page 21


 510              	.LVL23:
 219:../../../applications/examples/lora-gps-example/src/lora-gps-example.c ****       HAL_Delay(100);
 511              		.loc 1 219 7 is_stmt 0 view .LVU97
 512 0016 FFF7FEFF 		bl	HAL_GPIO_TogglePin
 513              	.LVL24:
 220:../../../applications/examples/lora-gps-example/src/lora-gps-example.c ****       HAL_GPIO_TogglePin(OCTA_GLED_GPIO_Port, OCTA_RLED_Pin);
 514              		.loc 1 220 7 is_stmt 1 view .LVU98
 515 001a 6420     		movs	r0, #100
 516 001c FFF7FEFF 		bl	HAL_Delay
 517              	.LVL25:
 221:../../../applications/examples/lora-gps-example/src/lora-gps-example.c ****       HAL_Delay(100);
 518              		.loc 1 221 7 view .LVU99
 519 0020 4FF48041 		mov	r1, #16384
 520 0024 2046     		mov	r0, r4
 521 0026 FFF7FEFF 		bl	HAL_GPIO_TogglePin
 522              	.LVL26:
 222:../../../applications/examples/lora-gps-example/src/lora-gps-example.c ****       hasGPSFix=0;
 523              		.loc 1 222 7 view .LVU100
 524 002a 6420     		movs	r0, #100
 525 002c FFF7FEFF 		bl	HAL_Delay
 526              	.LVL27:
 223:../../../applications/examples/lora-gps-example/src/lora-gps-example.c ****       printINF("NO GPS FIX\r\n");
 527              		.loc 1 223 7 view .LVU101
 223:../../../applications/examples/lora-gps-example/src/lora-gps-example.c ****       printINF("NO GPS FIX\r\n");
 528              		.loc 1 223 16 is_stmt 0 view .LVU102
 529 0030 0F4B     		ldr	r3, .L45+4
 530 0032 0022     		movs	r2, #0
 531 0034 1A70     		strb	r2, [r3]
 224:../../../applications/examples/lora-gps-example/src/lora-gps-example.c ****   }
 532              		.loc 1 224 7 is_stmt 1 view .LVU103
 533 0036 0F48     		ldr	r0, .L45+8
 534 0038 FFF7FEFF 		bl	printINF
 535              	.LVL28:
 536              	.L40:
 226:../../../applications/examples/lora-gps-example/src/lora-gps-example.c **** 
 537              		.loc 1 226 1 is_stmt 0 view .LVU104
 538 003c 40B0     		add	sp, sp, #256
 539              	.LCFI9:
 540              		.cfi_remember_state
 541              		.cfi_def_cfa_offset 8
 542              		@ sp needed
 543 003e 10BD     		pop	{r4, pc}
 544              	.LVL29:
 545              	.L44:
 546              	.LCFI10:
 547              		.cfi_restore_state
 210:../../../applications/examples/lora-gps-example/src/lora-gps-example.c ****       HAL_GPIO_TogglePin(OCTA_GLED_GPIO_Port, OCTA_GLED_Pin);
 548              		.loc 1 210 7 is_stmt 1 view .LVU105
 549 0040 0D48     		ldr	r0, .L45+12
 550              	.LVL30:
 210:../../../applications/examples/lora-gps-example/src/lora-gps-example.c ****       HAL_GPIO_TogglePin(OCTA_GLED_GPIO_Port, OCTA_GLED_Pin);
 551              		.loc 1 210 7 is_stmt 0 view .LVU106
 552 0042 FFF7FEFF 		bl	printINF
 553              	.LVL31:
 211:../../../applications/examples/lora-gps-example/src/lora-gps-example.c ****       HAL_Delay(100);
 554              		.loc 1 211 7 is_stmt 1 view .LVU107
 555 0046 094C     		ldr	r4, .L45
ARM GAS  C:\Users\tijsv\AppData\Local\Temp\ccxP5pih.s 			page 22


 556 0048 0121     		movs	r1, #1
 557 004a 2046     		mov	r0, r4
 558 004c FFF7FEFF 		bl	HAL_GPIO_TogglePin
 559              	.LVL32:
 212:../../../applications/examples/lora-gps-example/src/lora-gps-example.c ****       HAL_GPIO_TogglePin(OCTA_GLED_GPIO_Port, OCTA_GLED_Pin);
 560              		.loc 1 212 7 view .LVU108
 561 0050 6420     		movs	r0, #100
 562 0052 FFF7FEFF 		bl	HAL_Delay
 563              	.LVL33:
 213:../../../applications/examples/lora-gps-example/src/lora-gps-example.c ****       HAL_Delay(100);
 564              		.loc 1 213 7 view .LVU109
 565 0056 0121     		movs	r1, #1
 566 0058 2046     		mov	r0, r4
 567 005a FFF7FEFF 		bl	HAL_GPIO_TogglePin
 568              	.LVL34:
 214:../../../applications/examples/lora-gps-example/src/lora-gps-example.c ****       setGPSCoordinates();
 569              		.loc 1 214 7 view .LVU110
 570 005e 6420     		movs	r0, #100
 571 0060 FFF7FEFF 		bl	HAL_Delay
 572              	.LVL35:
 215:../../../applications/examples/lora-gps-example/src/lora-gps-example.c ****   }
 573              		.loc 1 215 7 view .LVU111
 574 0064 FFF7FEFF 		bl	setGPSCoordinates
 575              	.LVL36:
 576 0068 E8E7     		b	.L40
 577              	.L46:
 578 006a 00BF     		.align	2
 579              	.L45:
 580 006c 00040048 		.word	1207960576
 581 0070 00000000 		.word	.LANCHOR6
 582 0074 0C000000 		.word	.LC12
 583 0078 00000000 		.word	.LC11
 584              		.cfi_endproc
 585              	.LFE134:
 587              		.section	.rodata.LoRaWAN_send.str1.4,"aMS",%progbits,1
 588              		.align	2
 589              	.LC13:
 590 0000 47505320 		.ascii	"GPS FIX, adding to payload\015\012\000"
 590      4649582C 
 590      20616464 
 590      696E6720 
 590      746F2070 
 591 001d 000000   		.align	2
 592              	.LC14:
 593 0020 466C6173 		.ascii	"Flash page %d is the start of sector %d, erasing th"
 593      68207061 
 593      67652025 
 593      64206973 
 593      20746865 
 594 0053 69732073 		.ascii	"is sector.\015\012\000"
 594      6563746F 
 594      722E0D0A 
 594      00
 595              		.align	2
 596              	.LC15:
 597 0060 57726974 		.ascii	"Write in progress\015\012\000"
 597      6520696E 
ARM GAS  C:\Users\tijsv\AppData\Local\Temp\ccxP5pih.s 			page 23


 597      2070726F 
 597      67726573 
 597      730D0A00 
 598              		.align	2
 599              	.LC16:
 600 0074 57726974 		.ascii	"Writing payload (%d databytes) to flash page %d\015"
 600      696E6720 
 600      7061796C 
 600      6F616420 
 600      28256420 
 601 00a4 0A00     		.ascii	"\012\000"
 602 00a6 0000     		.align	2
 603              	.LC17:
 604 00a8 4E657720 		.ascii	"New Flash Index: %d, updating config in flash\015\012"
 604      466C6173 
 604      6820496E 
 604      6465783A 
 604      2025642C 
 605 00d7 00       		.ascii	"\000"
 606              		.align	2
 607              	.LC18:
 608 00d8 6D757261 		.ascii	"murata not initialized, not sending\015\012\000"
 608      7461206E 
 608      6F742069 
 608      6E697469 
 608      616C697A 
 609              		.section	.text.LoRaWAN_send,"ax",%progbits
 610              		.align	1
 611              		.global	LoRaWAN_send
 612              		.syntax unified
 613              		.thumb
 614              		.thumb_func
 615              		.fpu fpv4-sp-d16
 617              	LoRaWAN_send:
 618              	.LVL37:
 619              	.LFB133:
 117:../../../applications/examples/lora-gps-example/src/lora-gps-example.c ****   GPS_Read();
 620              		.loc 1 117 1 view -0
 621              		.cfi_startproc
 622              		@ args = 0, pretend = 0, frame = 256
 623              		@ frame_needed = 0, uses_anonymous_args = 0
 117:../../../applications/examples/lora-gps-example/src/lora-gps-example.c ****   GPS_Read();
 624              		.loc 1 117 1 is_stmt 0 view .LVU113
 625 0000 30B5     		push	{r4, r5, lr}
 626              	.LCFI11:
 627              		.cfi_def_cfa_offset 12
 628              		.cfi_offset 4, -12
 629              		.cfi_offset 5, -8
 630              		.cfi_offset 14, -4
 631 0002 C1B0     		sub	sp, sp, #260
 632              	.LCFI12:
 633              		.cfi_def_cfa_offset 272
 118:../../../applications/examples/lora-gps-example/src/lora-gps-example.c **** 
 634              		.loc 1 118 3 is_stmt 1 view .LVU114
 635 0004 FFF7FEFF 		bl	GPS_Read
 636              	.LVL38:
 120:../../../applications/examples/lora-gps-example/src/lora-gps-example.c ****   {
ARM GAS  C:\Users\tijsv\AppData\Local\Temp\ccxP5pih.s 			page 24


 637              		.loc 1 120 3 view .LVU115
 120:../../../applications/examples/lora-gps-example/src/lora-gps-example.c ****   {
 638              		.loc 1 120 7 is_stmt 0 view .LVU116
 639 0008 5E4B     		ldr	r3, .L63
 640 000a 1B78     		ldrb	r3, [r3]	@ zero_extendqisi2
 120:../../../applications/examples/lora-gps-example/src/lora-gps-example.c ****   {
 641              		.loc 1 120 6 view .LVU117
 642 000c 002B     		cmp	r3, #0
 643 000e 00F0B580 		beq	.L48
 644              	.LBB2:
 122:../../../applications/examples/lora-gps-example/src/lora-gps-example.c ****     uint8_t i = 0;
 645              		.loc 1 122 5 is_stmt 1 view .LVU118
 123:../../../applications/examples/lora-gps-example/src/lora-gps-example.c ****     //uint16 counter to uint8 array (little endian)
 646              		.loc 1 123 5 view .LVU119
 647              	.LVL39:
 126:../../../applications/examples/lora-gps-example/src/lora-gps-example.c ****     loraMessage[i++] = LoRaWAN_Counter;
 648              		.loc 1 126 5 view .LVU120
 126:../../../applications/examples/lora-gps-example/src/lora-gps-example.c ****     loraMessage[i++] = LoRaWAN_Counter;
 649              		.loc 1 126 22 is_stmt 0 view .LVU121
 650 0012 1423     		movs	r3, #20
 651 0014 8DF80030 		strb	r3, [sp]
 127:../../../applications/examples/lora-gps-example/src/lora-gps-example.c ****     loraMessage[i++] = LoRaWAN_Counter >> 8;
 652              		.loc 1 127 5 is_stmt 1 view .LVU122
 127:../../../applications/examples/lora-gps-example/src/lora-gps-example.c ****     loraMessage[i++] = LoRaWAN_Counter >> 8;
 653              		.loc 1 127 22 is_stmt 0 view .LVU123
 654 0018 5B4B     		ldr	r3, .L63+4
 655 001a 1B88     		ldrh	r3, [r3]
 656              	.LVL40:
 127:../../../applications/examples/lora-gps-example/src/lora-gps-example.c ****     loraMessage[i++] = LoRaWAN_Counter >> 8;
 657              		.loc 1 127 22 view .LVU124
 658 001c 8DF80130 		strb	r3, [sp, #1]
 128:../../../applications/examples/lora-gps-example/src/lora-gps-example.c **** 
 659              		.loc 1 128 5 is_stmt 1 view .LVU125
 660              	.LVL41:
 128:../../../applications/examples/lora-gps-example/src/lora-gps-example.c **** 
 661              		.loc 1 128 22 is_stmt 0 view .LVU126
 662 0020 1B0A     		lsrs	r3, r3, #8
 663 0022 8DF80230 		strb	r3, [sp, #2]
 130:../../../applications/examples/lora-gps-example/src/lora-gps-example.c ****     {
 664              		.loc 1 130 5 is_stmt 1 view .LVU127
 130:../../../applications/examples/lora-gps-example/src/lora-gps-example.c ****     {
 665              		.loc 1 130 18 is_stmt 0 view .LVU128
 666 0026 594B     		ldr	r3, .L63+8
 667 0028 1B78     		ldrb	r3, [r3]	@ zero_extendqisi2
 130:../../../applications/examples/lora-gps-example/src/lora-gps-example.c ****     {
 668              		.loc 1 130 7 view .LVU129
 669 002a 012B     		cmp	r3, #1
 670 002c 14D0     		beq	.L60
 128:../../../applications/examples/lora-gps-example/src/lora-gps-example.c **** 
 671              		.loc 1 128 18 view .LVU130
 672 002e 0325     		movs	r5, #3
 673              	.LVL42:
 674              	.L49:
 155:../../../applications/examples/lora-gps-example/src/lora-gps-example.c ****     {
 675              		.loc 1 155 5 is_stmt 1 view .LVU131
 155:../../../applications/examples/lora-gps-example/src/lora-gps-example.c ****     {
 676              		.loc 1 155 34 is_stmt 0 view .LVU132
ARM GAS  C:\Users\tijsv\AppData\Local\Temp\ccxP5pih.s 			page 25


 677 0030 574B     		ldr	r3, .L63+12
 678 0032 1968     		ldr	r1, [r3]
 155:../../../applications/examples/lora-gps-example/src/lora-gps-example.c ****     {
 679              		.loc 1 155 7 view .LVU133
 680 0034 11F00F0F 		tst	r1, #15
 681 0038 46D0     		beq	.L61
 682              	.L50:
 166:../../../applications/examples/lora-gps-example/src/lora-gps-example.c ****     printINF("Writing payload (%d databytes) to flash page %d\r\n", i, current_octa_configuration.f
 683              		.loc 1 166 5 is_stmt 1 view .LVU134
 684 003a 554C     		ldr	r4, .L63+12
 685 003c 2068     		ldr	r0, [r4]
 686 003e FFF7FEFF 		bl	OCTA_FLASH_open
 687              	.LVL43:
 167:../../../applications/examples/lora-gps-example/src/lora-gps-example.c ****     OCTA_FLASH_write(loraMessage, OCTA_FLASH_PAGE_SIZE);
 688              		.loc 1 167 5 view .LVU135
 689 0042 2268     		ldr	r2, [r4]
 690 0044 2946     		mov	r1, r5
 691 0046 5348     		ldr	r0, .L63+16
 692 0048 FFF7FEFF 		bl	printINF
 693              	.LVL44:
 168:../../../applications/examples/lora-gps-example/src/lora-gps-example.c ****     while(OCTA_FLASH_isWriteInProgress())
 694              		.loc 1 168 5 view .LVU136
 695 004c 4FF48071 		mov	r1, #256
 696 0050 6846     		mov	r0, sp
 697 0052 FFF7FEFF 		bl	OCTA_FLASH_write
 698              	.LVL45:
 169:../../../applications/examples/lora-gps-example/src/lora-gps-example.c ****     {
 699              		.loc 1 169 5 view .LVU137
 169:../../../applications/examples/lora-gps-example/src/lora-gps-example.c ****     {
 700              		.loc 1 169 10 is_stmt 0 view .LVU138
 701 0056 51E0     		b	.L53
 702              	.LVL46:
 703              	.L60:
 133:../../../applications/examples/lora-gps-example/src/lora-gps-example.c ****       loraMessage[i++] = TYPE_GPS_LONG;
 704              		.loc 1 133 7 is_stmt 1 view .LVU139
 705 0058 4F48     		ldr	r0, .L63+20
 706 005a FFF7FEFF 		bl	printINF
 707              	.LVL47:
 134:../../../applications/examples/lora-gps-example/src/lora-gps-example.c ****       float_union.fl = locationArray[0];  // LAT
 708              		.loc 1 134 7 view .LVU140
 134:../../../applications/examples/lora-gps-example/src/lora-gps-example.c ****       float_union.fl = locationArray[0];  // LAT
 709              		.loc 1 134 24 is_stmt 0 view .LVU141
 710 005e 0323     		movs	r3, #3
 711 0060 8DF80330 		strb	r3, [sp, #3]
 135:../../../applications/examples/lora-gps-example/src/lora-gps-example.c ****       loraMessage[i++] = float_union.bytes.b1;
 712              		.loc 1 135 7 is_stmt 1 view .LVU142
 135:../../../applications/examples/lora-gps-example/src/lora-gps-example.c ****       loraMessage[i++] = float_union.bytes.b1;
 713              		.loc 1 135 37 is_stmt 0 view .LVU143
 714 0064 4D4A     		ldr	r2, .L63+24
 136:../../../applications/examples/lora-gps-example/src/lora-gps-example.c ****       loraMessage[i++] = float_union.bytes.b2;
 715              		.loc 1 136 7 is_stmt 1 view .LVU144
 716              	.LVL48:
 136:../../../applications/examples/lora-gps-example/src/lora-gps-example.c ****       loraMessage[i++] = float_union.bytes.b2;
 717              		.loc 1 136 24 is_stmt 0 view .LVU145
 718 0066 1368     		ldr	r3, [r2]
 719 0068 8DF80430 		strb	r3, [sp, #4]
 137:../../../applications/examples/lora-gps-example/src/lora-gps-example.c ****       loraMessage[i++] = float_union.bytes.b3;
ARM GAS  C:\Users\tijsv\AppData\Local\Temp\ccxP5pih.s 			page 26


 720              		.loc 1 137 7 is_stmt 1 view .LVU146
 721              	.LVL49:
 137:../../../applications/examples/lora-gps-example/src/lora-gps-example.c ****       loraMessage[i++] = float_union.bytes.b3;
 722              		.loc 1 137 24 is_stmt 0 view .LVU147
 723 006c C3F30721 		ubfx	r1, r3, #8, #8
 724 0070 8DF80510 		strb	r1, [sp, #5]
 138:../../../applications/examples/lora-gps-example/src/lora-gps-example.c ****       loraMessage[i++] = float_union.bytes.b4;  
 725              		.loc 1 138 7 is_stmt 1 view .LVU148
 726              	.LVL50:
 138:../../../applications/examples/lora-gps-example/src/lora-gps-example.c ****       loraMessage[i++] = float_union.bytes.b4;  
 727              		.loc 1 138 24 is_stmt 0 view .LVU149
 728 0074 C3F30741 		ubfx	r1, r3, #16, #8
 729 0078 8DF80610 		strb	r1, [sp, #6]
 139:../../../applications/examples/lora-gps-example/src/lora-gps-example.c ****      
 730              		.loc 1 139 7 is_stmt 1 view .LVU150
 731              	.LVL51:
 139:../../../applications/examples/lora-gps-example/src/lora-gps-example.c ****      
 732              		.loc 1 139 24 is_stmt 0 view .LVU151
 733 007c C3F30763 		ubfx	r3, r3, #24, #8
 734 0080 8DF80730 		strb	r3, [sp, #7]
 141:../../../applications/examples/lora-gps-example/src/lora-gps-example.c ****       loraMessage[i++] = float_union.bytes.b1;
 735              		.loc 1 141 7 is_stmt 1 view .LVU152
 142:../../../applications/examples/lora-gps-example/src/lora-gps-example.c ****       loraMessage[i++] = float_union.bytes.b2;
 736              		.loc 1 142 7 view .LVU153
 737              	.LVL52:
 142:../../../applications/examples/lora-gps-example/src/lora-gps-example.c ****       loraMessage[i++] = float_union.bytes.b2;
 738              		.loc 1 142 24 is_stmt 0 view .LVU154
 739 0084 5368     		ldr	r3, [r2, #4]
 740 0086 8DF80830 		strb	r3, [sp, #8]
 143:../../../applications/examples/lora-gps-example/src/lora-gps-example.c ****       loraMessage[i++] = float_union.bytes.b3;
 741              		.loc 1 143 7 is_stmt 1 view .LVU155
 742              	.LVL53:
 143:../../../applications/examples/lora-gps-example/src/lora-gps-example.c ****       loraMessage[i++] = float_union.bytes.b3;
 743              		.loc 1 143 24 is_stmt 0 view .LVU156
 744 008a C3F30721 		ubfx	r1, r3, #8, #8
 745 008e 8DF80910 		strb	r1, [sp, #9]
 144:../../../applications/examples/lora-gps-example/src/lora-gps-example.c ****       loraMessage[i++] = float_union.bytes.b4;
 746              		.loc 1 144 7 is_stmt 1 view .LVU157
 747              	.LVL54:
 144:../../../applications/examples/lora-gps-example/src/lora-gps-example.c ****       loraMessage[i++] = float_union.bytes.b4;
 748              		.loc 1 144 24 is_stmt 0 view .LVU158
 749 0092 C3F30741 		ubfx	r1, r3, #16, #8
 750 0096 8DF80A10 		strb	r1, [sp, #10]
 145:../../../applications/examples/lora-gps-example/src/lora-gps-example.c **** 
 751              		.loc 1 145 7 is_stmt 1 view .LVU159
 752              	.LVL55:
 145:../../../applications/examples/lora-gps-example/src/lora-gps-example.c **** 
 753              		.loc 1 145 24 is_stmt 0 view .LVU160
 754 009a C3F30763 		ubfx	r3, r3, #24, #8
 755 009e 8DF80B30 		strb	r3, [sp, #11]
 147:../../../applications/examples/lora-gps-example/src/lora-gps-example.c ****       loraMessage[i++] = float_union.bytes.b1;
 756              		.loc 1 147 7 is_stmt 1 view .LVU161
 147:../../../applications/examples/lora-gps-example/src/lora-gps-example.c ****       loraMessage[i++] = float_union.bytes.b1;
 757              		.loc 1 147 37 is_stmt 0 view .LVU162
 758 00a2 9368     		ldr	r3, [r2, #8]	@ float
 147:../../../applications/examples/lora-gps-example/src/lora-gps-example.c ****       loraMessage[i++] = float_union.bytes.b1;
 759              		.loc 1 147 22 view .LVU163
ARM GAS  C:\Users\tijsv\AppData\Local\Temp\ccxP5pih.s 			page 27


 760 00a4 3E4A     		ldr	r2, .L63+28
 761 00a6 1360     		str	r3, [r2]	@ float
 148:../../../applications/examples/lora-gps-example/src/lora-gps-example.c ****       loraMessage[i++] = float_union.bytes.b2;
 762              		.loc 1 148 7 is_stmt 1 view .LVU164
 763              	.LVL56:
 148:../../../applications/examples/lora-gps-example/src/lora-gps-example.c ****       loraMessage[i++] = float_union.bytes.b2;
 764              		.loc 1 148 24 is_stmt 0 view .LVU165
 765 00a8 8DF80C30 		strb	r3, [sp, #12]
 149:../../../applications/examples/lora-gps-example/src/lora-gps-example.c ****       loraMessage[i++] = float_union.bytes.b3;
 766              		.loc 1 149 7 is_stmt 1 view .LVU166
 767              	.LVL57:
 149:../../../applications/examples/lora-gps-example/src/lora-gps-example.c ****       loraMessage[i++] = float_union.bytes.b3;
 768              		.loc 1 149 24 is_stmt 0 view .LVU167
 769 00ac C3F30722 		ubfx	r2, r3, #8, #8
 770 00b0 8DF80D20 		strb	r2, [sp, #13]
 150:../../../applications/examples/lora-gps-example/src/lora-gps-example.c ****       loraMessage[i++] = float_union.bytes.b4;
 771              		.loc 1 150 7 is_stmt 1 view .LVU168
 772              	.LVL58:
 150:../../../applications/examples/lora-gps-example/src/lora-gps-example.c ****       loraMessage[i++] = float_union.bytes.b4;
 773              		.loc 1 150 24 is_stmt 0 view .LVU169
 774 00b4 C3F30742 		ubfx	r2, r3, #16, #8
 775 00b8 8DF80E20 		strb	r2, [sp, #14]
 151:../../../applications/examples/lora-gps-example/src/lora-gps-example.c ****     }
 776              		.loc 1 151 7 is_stmt 1 view .LVU170
 777              	.LVL59:
 151:../../../applications/examples/lora-gps-example/src/lora-gps-example.c ****     }
 778              		.loc 1 151 24 is_stmt 0 view .LVU171
 779 00bc C3F30763 		ubfx	r3, r3, #24, #8
 780 00c0 8DF80F30 		strb	r3, [sp, #15]
 151:../../../applications/examples/lora-gps-example/src/lora-gps-example.c ****     }
 781              		.loc 1 151 20 view .LVU172
 782 00c4 1025     		movs	r5, #16
 783 00c6 B3E7     		b	.L49
 784              	.LVL60:
 785              	.L61:
 157:../../../applications/examples/lora-gps-example/src/lora-gps-example.c ****         OCTA_FLASH_erase4KBSectorFromPage(current_octa_configuration.flash_index);
 786              		.loc 1 157 9 is_stmt 1 view .LVU173
 787 00c8 0A0D     		lsrs	r2, r1, #20
 788 00ca 3648     		ldr	r0, .L63+32
 789 00cc FFF7FEFF 		bl	printINF
 790              	.LVL61:
 158:../../../applications/examples/lora-gps-example/src/lora-gps-example.c ****         while(OCTA_FLASH_isWriteInProgress())
 791              		.loc 1 158 9 view .LVU174
 792 00d0 2F4B     		ldr	r3, .L63+12
 793 00d2 1868     		ldr	r0, [r3]
 794 00d4 FFF7FEFF 		bl	OCTA_FLASH_erase4KBSectorFromPage
 795              	.LVL62:
 159:../../../applications/examples/lora-gps-example/src/lora-gps-example.c ****         {
 796              		.loc 1 159 9 view .LVU175
 159:../../../applications/examples/lora-gps-example/src/lora-gps-example.c ****         {
 797              		.loc 1 159 14 is_stmt 0 view .LVU176
 798 00d8 05E0     		b	.L51
 799              	.L52:
 161:../../../applications/examples/lora-gps-example/src/lora-gps-example.c ****             HAL_Delay(50);
 800              		.loc 1 161 13 is_stmt 1 view .LVU177
 801 00da 3348     		ldr	r0, .L63+36
 802 00dc FFF7FEFF 		bl	printDBG
ARM GAS  C:\Users\tijsv\AppData\Local\Temp\ccxP5pih.s 			page 28


 803              	.LVL63:
 162:../../../applications/examples/lora-gps-example/src/lora-gps-example.c ****         }
 804              		.loc 1 162 13 view .LVU178
 805 00e0 3220     		movs	r0, #50
 806 00e2 FFF7FEFF 		bl	HAL_Delay
 807              	.LVL64:
 808              	.L51:
 159:../../../applications/examples/lora-gps-example/src/lora-gps-example.c ****         {
 809              		.loc 1 159 14 view .LVU179
 159:../../../applications/examples/lora-gps-example/src/lora-gps-example.c ****         {
 810              		.loc 1 159 15 is_stmt 0 view .LVU180
 811 00e6 FFF7FEFF 		bl	OCTA_FLASH_isWriteInProgress
 812              	.LVL65:
 159:../../../applications/examples/lora-gps-example/src/lora-gps-example.c ****         {
 813              		.loc 1 159 14 view .LVU181
 814 00ea 0028     		cmp	r0, #0
 815 00ec F5D1     		bne	.L52
 816 00ee A4E7     		b	.L50
 817              	.L54:
 171:../../../applications/examples/lora-gps-example/src/lora-gps-example.c ****         HAL_Delay(50);
 818              		.loc 1 171 9 is_stmt 1 view .LVU182
 819 00f0 2D48     		ldr	r0, .L63+36
 820 00f2 FFF7FEFF 		bl	printDBG
 821              	.LVL66:
 172:../../../applications/examples/lora-gps-example/src/lora-gps-example.c ****     }
 822              		.loc 1 172 9 view .LVU183
 823 00f6 3220     		movs	r0, #50
 824 00f8 FFF7FEFF 		bl	HAL_Delay
 825              	.LVL67:
 826              	.L53:
 169:../../../applications/examples/lora-gps-example/src/lora-gps-example.c ****     {
 827              		.loc 1 169 10 view .LVU184
 169:../../../applications/examples/lora-gps-example/src/lora-gps-example.c ****     {
 828              		.loc 1 169 11 is_stmt 0 view .LVU185
 829 00fc FFF7FEFF 		bl	OCTA_FLASH_isWriteInProgress
 830              	.LVL68:
 169:../../../applications/examples/lora-gps-example/src/lora-gps-example.c ****     {
 831              		.loc 1 169 10 view .LVU186
 832 0100 0028     		cmp	r0, #0
 833 0102 F5D1     		bne	.L54
 175:../../../applications/examples/lora-gps-example/src/lora-gps-example.c ****     printDBG("New Flash Index: %d, updating config in flash\r\n", current_octa_configuration.flash_
 834              		.loc 1 175 5 is_stmt 1 view .LVU187
 175:../../../applications/examples/lora-gps-example/src/lora-gps-example.c ****     printDBG("New Flash Index: %d, updating config in flash\r\n", current_octa_configuration.flash_
 835              		.loc 1 175 31 is_stmt 0 view .LVU188
 836 0104 224C     		ldr	r4, .L63+12
 837 0106 2168     		ldr	r1, [r4]
 175:../../../applications/examples/lora-gps-example/src/lora-gps-example.c ****     printDBG("New Flash Index: %d, updating config in flash\r\n", current_octa_configuration.flash_
 838              		.loc 1 175 43 view .LVU189
 839 0108 0131     		adds	r1, r1, #1
 840 010a 2160     		str	r1, [r4]
 176:../../../applications/examples/lora-gps-example/src/lora-gps-example.c ****     //update index in flash
 841              		.loc 1 176 5 is_stmt 1 view .LVU190
 842 010c 2748     		ldr	r0, .L63+40
 843 010e FFF7FEFF 		bl	printDBG
 844              	.LVL69:
 178:../../../applications/examples/lora-gps-example/src/lora-gps-example.c **** 
 845              		.loc 1 178 5 view .LVU191
ARM GAS  C:\Users\tijsv\AppData\Local\Temp\ccxP5pih.s 			page 29


 846 0112 2046     		mov	r0, r4
 847 0114 FFF7FEFF 		bl	update_flash_configuration
 848              	.LVL70:
 180:../../../applications/examples/lora-gps-example/src/lora-gps-example.c ****     if(!Murata_LoRaWAN_Send((uint8_t *)loraMessage, i)) 
 849              		.loc 1 180 5 view .LVU192
 850 0118 4FF0FF31 		mov	r1, #-1
 851 011c 244B     		ldr	r3, .L63+44
 852 011e 1868     		ldr	r0, [r3]
 853 0120 FFF7FEFF 		bl	osMutexWait
 854              	.LVL71:
 181:../../../applications/examples/lora-gps-example/src/lora-gps-example.c ****     {  
 855              		.loc 1 181 5 view .LVU193
 181:../../../applications/examples/lora-gps-example/src/lora-gps-example.c ****     {  
 856              		.loc 1 181 9 is_stmt 0 view .LVU194
 857 0124 2946     		mov	r1, r5
 858 0126 6846     		mov	r0, sp
 859 0128 FFF7FEFF 		bl	Murata_LoRaWAN_Send
 860              	.LVL72:
 181:../../../applications/examples/lora-gps-example/src/lora-gps-example.c ****     {  
 861              		.loc 1 181 7 view .LVU195
 862 012c 80B1     		cbz	r0, .L62
 192:../../../applications/examples/lora-gps-example/src/lora-gps-example.c ****     }
 863              		.loc 1 192 7 is_stmt 1 view .LVU196
 192:../../../applications/examples/lora-gps-example/src/lora-gps-example.c ****     }
 864              		.loc 1 192 19 is_stmt 0 view .LVU197
 865 012e 154B     		ldr	r3, .L63
 866 0130 0122     		movs	r2, #1
 867 0132 1A70     		strb	r2, [r3]
 868              	.L56:
 195:../../../applications/examples/lora-gps-example/src/lora-gps-example.c ****     osMutexRelease(txMutexId);
 869              		.loc 1 195 5 is_stmt 1 discriminator 1 view .LVU198
 870 0134 40F6B830 		movw	r0, #3000
 871 0138 FFF7FEFF 		bl	osDelay
 872              	.LVL73:
 196:../../../applications/examples/lora-gps-example/src/lora-gps-example.c ****     LoRaWAN_Counter++;
 873              		.loc 1 196 5 discriminator 1 view .LVU199
 874 013c 1C4B     		ldr	r3, .L63+44
 875 013e 1868     		ldr	r0, [r3]
 876 0140 FFF7FEFF 		bl	osMutexRelease
 877              	.LVL74:
 197:../../../applications/examples/lora-gps-example/src/lora-gps-example.c ****   }
 878              		.loc 1 197 5 discriminator 1 view .LVU200
 197:../../../applications/examples/lora-gps-example/src/lora-gps-example.c ****   }
 879              		.loc 1 197 20 is_stmt 0 discriminator 1 view .LVU201
 880 0144 104A     		ldr	r2, .L63+4
 881 0146 1388     		ldrh	r3, [r2]
 882 0148 0133     		adds	r3, r3, #1
 883 014a 1380     		strh	r3, [r2]	@ movhi
 884              	.LVL75:
 885              	.L47:
 197:../../../applications/examples/lora-gps-example/src/lora-gps-example.c ****   }
 886              		.loc 1 197 20 discriminator 1 view .LVU202
 887              	.LBE2:
 202:../../../applications/examples/lora-gps-example/src/lora-gps-example.c **** 
 888              		.loc 1 202 1 view .LVU203
 889 014c 41B0     		add	sp, sp, #260
 890              	.LCFI13:
ARM GAS  C:\Users\tijsv\AppData\Local\Temp\ccxP5pih.s 			page 30


 891              		.cfi_remember_state
 892              		.cfi_def_cfa_offset 12
 893              		@ sp needed
 894 014e 30BD     		pop	{r4, r5, pc}
 895              	.LVL76:
 896              	.L62:
 897              	.LCFI14:
 898              		.cfi_restore_state
 899              	.LBB3:
 183:../../../applications/examples/lora-gps-example/src/lora-gps-example.c ****       HAL_Delay(100);
 900              		.loc 1 183 7 is_stmt 1 view .LVU204
 901 0150 184C     		ldr	r4, .L63+48
 902 0152 4FF40041 		mov	r1, #32768
 903 0156 2046     		mov	r0, r4
 904 0158 FFF7FEFF 		bl	HAL_GPIO_TogglePin
 905              	.LVL77:
 184:../../../applications/examples/lora-gps-example/src/lora-gps-example.c ****       HAL_GPIO_TogglePin(OCTA_GLED_GPIO_Port, OCTA_BLED_Pin);
 906              		.loc 1 184 7 view .LVU205
 907 015c 6420     		movs	r0, #100
 908 015e FFF7FEFF 		bl	HAL_Delay
 909              	.LVL78:
 185:../../../applications/examples/lora-gps-example/src/lora-gps-example.c ****       HAL_Delay(100);
 910              		.loc 1 185 7 view .LVU206
 911 0162 4FF40041 		mov	r1, #32768
 912 0166 2046     		mov	r0, r4
 913 0168 FFF7FEFF 		bl	HAL_GPIO_TogglePin
 914              	.LVL79:
 186:../../../applications/examples/lora-gps-example/src/lora-gps-example.c ****       murata_init++;
 915              		.loc 1 186 7 view .LVU207
 916 016c 6420     		movs	r0, #100
 917 016e FFF7FEFF 		bl	HAL_Delay
 918              	.LVL80:
 187:../../../applications/examples/lora-gps-example/src/lora-gps-example.c ****       if(murata_init == 10)
 919              		.loc 1 187 7 view .LVU208
 187:../../../applications/examples/lora-gps-example/src/lora-gps-example.c ****       if(murata_init == 10)
 920              		.loc 1 187 18 is_stmt 0 view .LVU209
 921 0172 044A     		ldr	r2, .L63
 922 0174 1378     		ldrb	r3, [r2]	@ zero_extendqisi2
 923 0176 0133     		adds	r3, r3, #1
 924 0178 1370     		strb	r3, [r2]
 188:../../../applications/examples/lora-gps-example/src/lora-gps-example.c ****         murata_init == 0;
 925              		.loc 1 188 7 is_stmt 1 view .LVU210
 926 017a DBE7     		b	.L56
 927              	.LVL81:
 928              	.L48:
 188:../../../applications/examples/lora-gps-example/src/lora-gps-example.c ****         murata_init == 0;
 929              		.loc 1 188 7 is_stmt 0 view .LVU211
 930              	.LBE3:
 200:../../../applications/examples/lora-gps-example/src/lora-gps-example.c ****   }
 931              		.loc 1 200 5 is_stmt 1 view .LVU212
 932 017c 0E48     		ldr	r0, .L63+52
 933 017e FFF7FEFF 		bl	printINF
 934              	.LVL82:
 202:../../../applications/examples/lora-gps-example/src/lora-gps-example.c **** 
 935              		.loc 1 202 1 is_stmt 0 view .LVU213
 936 0182 E3E7     		b	.L47
 937              	.L64:
ARM GAS  C:\Users\tijsv\AppData\Local\Temp\ccxP5pih.s 			page 31


 938              		.align	2
 939              	.L63:
 940 0184 00000000 		.word	.LANCHOR5
 941 0188 00000000 		.word	.LANCHOR8
 942 018c 00000000 		.word	.LANCHOR6
 943 0190 00000000 		.word	.LANCHOR9
 944 0194 74000000 		.word	.LC16
 945 0198 00000000 		.word	.LC13
 946 019c 00000000 		.word	locationArray
 947 01a0 00000000 		.word	float_union
 948 01a4 20000000 		.word	.LC14
 949 01a8 60000000 		.word	.LC15
 950 01ac A8000000 		.word	.LC17
 951 01b0 00000000 		.word	txMutexId
 952 01b4 00040048 		.word	1207960576
 953 01b8 D8000000 		.word	.LC18
 954              		.cfi_endproc
 955              	.LFE133:
 957              		.section	.rodata.Get_Current_Config_From_Flash.str1.4,"aMS",%progbits,1
 958              		.align	2
 959              	.LC19:
 960 0000 47657474 		.ascii	"Getting current configuration from flash\015\012\000"
 960      696E6720 
 960      63757272 
 960      656E7420 
 960      636F6E66 
 961 002b 00       		.align	2
 962              	.LC20:
 963 002c 466C6173 		.ascii	"Flash open NOK, setting default config\015\012\000"
 963      68206F70 
 963      656E204E 
 963      4F4B2C20 
 963      73657474 
 964 0055 000000   		.align	2
 965              	.LC21:
 966 0058 466C6173 		.ascii	"Flash operation NOK: %d, setting default config\015"
 966      68206F70 
 966      65726174 
 966      696F6E20 
 966      4E4F4B3A 
 967 0088 0A00     		.ascii	"\012\000"
 968 008a 0000     		.align	2
 969              	.LC22:
 970 008c 50617273 		.ascii	"Parsing config from flash OK\015\012\000"
 970      696E6720 
 970      636F6E66 
 970      69672066 
 970      726F6D20 
 971 00ab 00       		.align	2
 972              	.LC23:
 973 00ac 554E4142 		.ascii	"UNABLE TO PARSE CONFIGURATION FROM FLASH, setting d"
 973      4C452054 
 973      4F205041 
 973      52534520 
 973      434F4E46 
 974 00df 65666175 		.ascii	"efault config\015\012\000"
 974      6C742063 
ARM GAS  C:\Users\tijsv\AppData\Local\Temp\ccxP5pih.s 			page 32


 974      6F6E6669 
 974      670D0A00 
 975              		.section	.text.Get_Current_Config_From_Flash,"ax",%progbits
 976              		.align	1
 977              		.global	Get_Current_Config_From_Flash
 978              		.syntax unified
 979              		.thumb
 980              		.thumb_func
 981              		.fpu fpv4-sp-d16
 983              	Get_Current_Config_From_Flash:
 984              	.LFB136:
 239:../../../applications/examples/lora-gps-example/src/lora-gps-example.c ****   // GET CURRENT CONFIGURATION
 985              		.loc 1 239 1 is_stmt 1 view -0
 986              		.cfi_startproc
 987              		@ args = 0, pretend = 0, frame = 0
 988              		@ frame_needed = 0, uses_anonymous_args = 0
 989 0000 38B5     		push	{r3, r4, r5, lr}
 990              	.LCFI15:
 991              		.cfi_def_cfa_offset 16
 992              		.cfi_offset 3, -16
 993              		.cfi_offset 4, -12
 994              		.cfi_offset 5, -8
 995              		.cfi_offset 14, -4
 241:../../../applications/examples/lora-gps-example/src/lora-gps-example.c ****   if(OCTA_FLASH_openConfigSector()!= OCTA_FLASH_OK)
 996              		.loc 1 241 3 view .LVU215
 997 0002 1B48     		ldr	r0, .L72
 998 0004 FFF7FEFF 		bl	printINF
 999              	.LVL83:
 242:../../../applications/examples/lora-gps-example/src/lora-gps-example.c ****   {
 1000              		.loc 1 242 3 view .LVU216
 242:../../../applications/examples/lora-gps-example/src/lora-gps-example.c ****   {
 1001              		.loc 1 242 6 is_stmt 0 view .LVU217
 1002 0008 FFF7FEFF 		bl	OCTA_FLASH_openConfigSector
 1003              	.LVL84:
 242:../../../applications/examples/lora-gps-example/src/lora-gps-example.c ****   {
 1004              		.loc 1 242 5 view .LVU218
 1005 000c 90B9     		cbnz	r0, .L71
 248:../../../applications/examples/lora-gps-example/src/lora-gps-example.c ****   uint32_t retval = 0;
 1006              		.loc 1 248 3 is_stmt 1 view .LVU219
 249:../../../applications/examples/lora-gps-example/src/lora-gps-example.c ****   retval = OCTA_FLASH_read(configurationbuffer, OCTA_FLASH_PAGE_SIZE);
 1007              		.loc 1 249 3 view .LVU220
 1008              	.LVL85:
 250:../../../applications/examples/lora-gps-example/src/lora-gps-example.c ****   if(retval != OCTA_FLASH_PAGE_SIZE)
 1009              		.loc 1 250 3 view .LVU221
 250:../../../applications/examples/lora-gps-example/src/lora-gps-example.c ****   if(retval != OCTA_FLASH_PAGE_SIZE)
 1010              		.loc 1 250 12 is_stmt 0 view .LVU222
 1011 000e 4FF48071 		mov	r1, #256
 1012 0012 1848     		ldr	r0, .L72+4
 1013 0014 FFF7FEFF 		bl	OCTA_FLASH_read
 1014              	.LVL86:
 1015 0018 0146     		mov	r1, r0
 1016              	.LVL87:
 251:../../../applications/examples/lora-gps-example/src/lora-gps-example.c ****   {
 1017              		.loc 1 251 3 is_stmt 1 view .LVU223
 251:../../../applications/examples/lora-gps-example/src/lora-gps-example.c ****   {
 1018              		.loc 1 251 5 is_stmt 0 view .LVU224
 1019 001a B0F5807F 		cmp	r0, #256
ARM GAS  C:\Users\tijsv\AppData\Local\Temp\ccxP5pih.s 			page 33


 1020 001e 13D0     		beq	.L68
 253:../../../applications/examples/lora-gps-example/src/lora-gps-example.c ****     current_octa_configuration = default_octa_configuration;
 1021              		.loc 1 253 5 is_stmt 1 view .LVU225
 1022 0020 1548     		ldr	r0, .L72+8
 1023              	.LVL88:
 253:../../../applications/examples/lora-gps-example/src/lora-gps-example.c ****     current_octa_configuration = default_octa_configuration;
 1024              		.loc 1 253 5 is_stmt 0 view .LVU226
 1025 0022 FFF7FEFF 		bl	printERR
 1026              	.LVL89:
 254:../../../applications/examples/lora-gps-example/src/lora-gps-example.c ****     return;
 1027              		.loc 1 254 5 is_stmt 1 view .LVU227
 254:../../../applications/examples/lora-gps-example/src/lora-gps-example.c ****     return;
 1028              		.loc 1 254 32 is_stmt 0 view .LVU228
 1029 0026 154C     		ldr	r4, .L72+12
 1030 0028 154D     		ldr	r5, .L72+16
 1031 002a 0FCD     		ldmia	r5!, {r0, r1, r2, r3}
 1032 002c 0FC4     		stmia	r4!, {r0, r1, r2, r3}
 1033 002e 2B68     		ldr	r3, [r5]
 1034 0030 2360     		str	r3, [r4]
 255:../../../applications/examples/lora-gps-example/src/lora-gps-example.c ****   }
 1035              		.loc 1 255 5 is_stmt 1 view .LVU229
 1036 0032 08E0     		b	.L65
 1037              	.L71:
 244:../../../applications/examples/lora-gps-example/src/lora-gps-example.c ****     current_octa_configuration = default_octa_configuration;
 1038              		.loc 1 244 5 view .LVU230
 1039 0034 1348     		ldr	r0, .L72+20
 1040 0036 FFF7FEFF 		bl	printERR
 1041              	.LVL90:
 245:../../../applications/examples/lora-gps-example/src/lora-gps-example.c ****     return;
 1042              		.loc 1 245 5 view .LVU231
 245:../../../applications/examples/lora-gps-example/src/lora-gps-example.c ****     return;
 1043              		.loc 1 245 32 is_stmt 0 view .LVU232
 1044 003a 104C     		ldr	r4, .L72+12
 1045 003c 104D     		ldr	r5, .L72+16
 1046 003e 0FCD     		ldmia	r5!, {r0, r1, r2, r3}
 1047 0040 0FC4     		stmia	r4!, {r0, r1, r2, r3}
 1048 0042 2B68     		ldr	r3, [r5]
 1049 0044 2360     		str	r3, [r4]
 246:../../../applications/examples/lora-gps-example/src/lora-gps-example.c ****   }
 1050              		.loc 1 246 5 is_stmt 1 view .LVU233
 1051              	.L65:
 268:../../../applications/examples/lora-gps-example/src/lora-gps-example.c **** 
 1052              		.loc 1 268 1 is_stmt 0 view .LVU234
 1053 0046 38BD     		pop	{r3, r4, r5, pc}
 1054              	.LVL91:
 1055              	.L68:
 257:../../../applications/examples/lora-gps-example/src/lora-gps-example.c ****   {
 1056              		.loc 1 257 3 is_stmt 1 view .LVU235
 257:../../../applications/examples/lora-gps-example/src/lora-gps-example.c ****   {
 1057              		.loc 1 257 6 is_stmt 0 view .LVU236
 1058 0048 1422     		movs	r2, #20
 1059 004a 0A49     		ldr	r1, .L72+4
 1060 004c 0B48     		ldr	r0, .L72+12
 1061              	.LVL92:
 257:../../../applications/examples/lora-gps-example/src/lora-gps-example.c ****   {
 1062              		.loc 1 257 6 view .LVU237
 1063 004e FFF7FEFF 		bl	parse_octa_configuration
ARM GAS  C:\Users\tijsv\AppData\Local\Temp\ccxP5pih.s 			page 34


 1064              	.LVL93:
 257:../../../applications/examples/lora-gps-example/src/lora-gps-example.c ****   {
 1065              		.loc 1 257 5 view .LVU238
 1066 0052 18B9     		cbnz	r0, .L69
 259:../../../applications/examples/lora-gps-example/src/lora-gps-example.c ****     return;
 1067              		.loc 1 259 5 is_stmt 1 view .LVU239
 1068 0054 0C48     		ldr	r0, .L72+24
 1069 0056 FFF7FEFF 		bl	printINF
 1070              	.LVL94:
 260:../../../applications/examples/lora-gps-example/src/lora-gps-example.c ****   }
 1071              		.loc 1 260 5 view .LVU240
 1072 005a F4E7     		b	.L65
 1073              	.L69:
 264:../../../applications/examples/lora-gps-example/src/lora-gps-example.c ****     current_octa_configuration = default_octa_configuration;
 1074              		.loc 1 264 5 view .LVU241
 1075 005c 0B48     		ldr	r0, .L72+28
 1076 005e FFF7FEFF 		bl	printERR
 1077              	.LVL95:
 265:../../../applications/examples/lora-gps-example/src/lora-gps-example.c ****     return;
 1078              		.loc 1 265 5 view .LVU242
 265:../../../applications/examples/lora-gps-example/src/lora-gps-example.c ****     return;
 1079              		.loc 1 265 32 is_stmt 0 view .LVU243
 1080 0062 064C     		ldr	r4, .L72+12
 1081 0064 064D     		ldr	r5, .L72+16
 1082 0066 0FCD     		ldmia	r5!, {r0, r1, r2, r3}
 1083 0068 0FC4     		stmia	r4!, {r0, r1, r2, r3}
 1084 006a 2B68     		ldr	r3, [r5]
 1085 006c 2360     		str	r3, [r4]
 266:../../../applications/examples/lora-gps-example/src/lora-gps-example.c ****   }
 1086              		.loc 1 266 5 is_stmt 1 view .LVU244
 1087 006e EAE7     		b	.L65
 1088              	.L73:
 1089              		.align	2
 1090              	.L72:
 1091 0070 00000000 		.word	.LC19
 1092 0074 00000000 		.word	.LANCHOR11
 1093 0078 58000000 		.word	.LC21
 1094 007c 00000000 		.word	.LANCHOR9
 1095 0080 00000000 		.word	.LANCHOR10
 1096 0084 2C000000 		.word	.LC20
 1097 0088 8C000000 		.word	.LC22
 1098 008c AC000000 		.word	.LC23
 1099              		.cfi_endproc
 1100              	.LFE136:
 1102              		.section	.rodata.Erase_Flash.str1.4,"aMS",%progbits,1
 1103              		.align	2
 1104              	.LC24:
 1105 0000 50726573 		.ascii	"Press Nucleo BTN1 5 times within 5 sec to erase fla"
 1105      73204E75 
 1105      636C656F 
 1105      2042544E 
 1105      31203520 
 1106 0033 73680D0A 		.ascii	"sh\015\012\000"
 1106      00
 1107              		.align	2
 1108              	.LC25:
 1109 0038 2A2A2A2A 		.ascii	"*****ERASING FLASH*****\015\012\000"
ARM GAS  C:\Users\tijsv\AppData\Local\Temp\ccxP5pih.s 			page 35


 1109      2A455241 
 1109      53494E47 
 1109      20464C41 
 1109      53482A2A 
 1110 0052 0000     		.align	2
 1111              	.LC26:
 1112 0054 53746F70 		.ascii	"Stopping lorawan timer\015\012\000"
 1112      70696E67 
 1112      206C6F72 
 1112      6177616E 
 1112      2074696D 
 1113 006d 000000   		.align	2
 1114              	.LC27:
 1115 0070 466C6173 		.ascii	"Flash Erase CMD OK, actual erase takes a few minute"
 1115      68204572 
 1115      61736520 
 1115      434D4420 
 1115      4F4B2C20 
 1116 00a3 732E2052 		.ascii	"s. Red LED will blink during erase\015\012\000"
 1116      6564204C 
 1116      45442077 
 1116      696C6C20 
 1116      626C696E 
 1117              		.align	2
 1118              	.LC28:
 1119 00c8 466C6173 		.ascii	"Flash Erase CMD NOK\015\012\000"
 1119      68204572 
 1119      61736520 
 1119      434D4420 
 1119      4E4F4B0D 
 1120 00de 0000     		.align	2
 1121              	.LC29:
 1122 00e0 45726173 		.ascii	"Erase finished\015\012\000"
 1122      65206669 
 1122      6E697368 
 1122      65640D0A 
 1122      00
 1123 00f1 000000   		.align	2
 1124              	.LC30:
 1125 00f4 52657374 		.ascii	"Restarting lorawan Timer\015\012\000"
 1125      61727469 
 1125      6E67206C 
 1125      6F726177 
 1125      616E2054 
 1126 010f 00       		.align	2
 1127              	.LC31:
 1128 0110 2E2E2E0D 		.ascii	"...\015\012\000"
 1128      0A00
 1129 0116 0000     		.align	2
 1130              	.LC32:
 1131 0118 52657365 		.ascii	"Resetting Nucleo BTN1 presses\015\012\000"
 1131      7474696E 
 1131      67204E75 
 1131      636C656F 
 1131      2042544E 
 1132              		.align	2
 1133              	.LC33:
ARM GAS  C:\Users\tijsv\AppData\Local\Temp\ccxP5pih.s 			page 36


 1134 0138 4E6F7469 		.ascii	"Notification NOK\015\012\000"
 1134      66696361 
 1134      74696F6E 
 1134      204E4F4B 
 1134      0D0A00
 1135              		.section	.text.Erase_Flash,"ax",%progbits
 1136              		.align	1
 1137              		.global	Erase_Flash
 1138              		.syntax unified
 1139              		.thumb
 1140              		.thumb_func
 1141              		.fpu fpv4-sp-d16
 1143              	Erase_Flash:
 1144              	.LFB143:
 412:../../../applications/examples/lora-gps-example/src/lora-gps-example.c ****   uint32_t startProcessing;
 1145              		.loc 1 412 1 view -0
 1146              		.cfi_startproc
 1147              		@ args = 0, pretend = 0, frame = 0
 1148              		@ frame_needed = 0, uses_anonymous_args = 0
 1149 0000 10B5     		push	{r4, lr}
 1150              	.LCFI16:
 1151              		.cfi_def_cfa_offset 8
 1152              		.cfi_offset 4, -8
 1153              		.cfi_offset 14, -4
 1154 0002 47E0     		b	.L85
 1155              	.LVL96:
 1156              	.L87:
 1157              	.LBB4:
 431:../../../applications/examples/lora-gps-example/src/lora-gps-example.c ****           erase_ongoing = 1;
 1158              		.loc 1 431 11 view .LVU246
 1159 0004 3348     		ldr	r0, .L88
 1160 0006 FFF7FEFF 		bl	printINF
 1161              	.LVL97:
 432:../../../applications/examples/lora-gps-example/src/lora-gps-example.c ****           printINF("Stopping lorawan timer\r\n");
 1162              		.loc 1 432 11 view .LVU247
 432:../../../applications/examples/lora-gps-example/src/lora-gps-example.c ****           printINF("Stopping lorawan timer\r\n");
 1163              		.loc 1 432 25 is_stmt 0 view .LVU248
 1164 000a 334B     		ldr	r3, .L88+4
 1165 000c 0122     		movs	r2, #1
 1166 000e 1A70     		strb	r2, [r3]
 433:../../../applications/examples/lora-gps-example/src/lora-gps-example.c ****           osTimerStop(loraWANTimId);
 1167              		.loc 1 433 11 is_stmt 1 view .LVU249
 1168 0010 3248     		ldr	r0, .L88+8
 1169 0012 FFF7FEFF 		bl	printINF
 1170              	.LVL98:
 434:../../../applications/examples/lora-gps-example/src/lora-gps-example.c **** 
 1171              		.loc 1 434 11 view .LVU250
 1172 0016 324B     		ldr	r3, .L88+12
 1173 0018 1868     		ldr	r0, [r3]
 1174 001a FFF7FEFF 		bl	osTimerStop
 1175              	.LVL99:
 436:../../../applications/examples/lora-gps-example/src/lora-gps-example.c ****             printINF("Flash Erase CMD OK, actual erase takes a few minutes. Red LED will blink duri
 1176              		.loc 1 436 11 view .LVU251
 436:../../../applications/examples/lora-gps-example/src/lora-gps-example.c ****             printINF("Flash Erase CMD OK, actual erase takes a few minutes. Red LED will blink duri
 1177              		.loc 1 436 14 is_stmt 0 view .LVU252
 1178 001e FFF7FEFF 		bl	OCTA_FLASH_eraseFullFlash
 1179              	.LVL100:
ARM GAS  C:\Users\tijsv\AppData\Local\Temp\ccxP5pih.s 			page 37


 436:../../../applications/examples/lora-gps-example/src/lora-gps-example.c ****             printINF("Flash Erase CMD OK, actual erase takes a few minutes. Red LED will blink duri
 1180              		.loc 1 436 13 view .LVU253
 1181 0022 18B9     		cbnz	r0, .L78
 437:../../../applications/examples/lora-gps-example/src/lora-gps-example.c ****           else
 1182              		.loc 1 437 13 is_stmt 1 view .LVU254
 1183 0024 2F48     		ldr	r0, .L88+16
 1184 0026 FFF7FEFF 		bl	printINF
 1185              	.LVL101:
 1186 002a 0FE0     		b	.L80
 1187              	.L78:
 439:../../../applications/examples/lora-gps-example/src/lora-gps-example.c ****           
 1188              		.loc 1 439 13 view .LVU255
 1189 002c 2E48     		ldr	r0, .L88+20
 1190 002e FFF7FEFF 		bl	printERR
 1191              	.LVL102:
 1192 0032 0BE0     		b	.L80
 1193              	.L81:
 443:../../../applications/examples/lora-gps-example/src/lora-gps-example.c ****             HAL_GPIO_TogglePin(OCTA_RLED_GPIO_Port, OCTA_RLED_Pin);
 1194              		.loc 1 443 13 view .LVU256
 1195 0034 0020     		movs	r0, #0
 1196 0036 FFF7FEFF 		bl	IWDG_feed
 1197              	.LVL103:
 444:../../../applications/examples/lora-gps-example/src/lora-gps-example.c ****             HAL_Delay(500);
 1198              		.loc 1 444 13 view .LVU257
 1199 003a 4FF48041 		mov	r1, #16384
 1200 003e 2B48     		ldr	r0, .L88+24
 1201 0040 FFF7FEFF 		bl	HAL_GPIO_TogglePin
 1202              	.LVL104:
 445:../../../applications/examples/lora-gps-example/src/lora-gps-example.c ****           }
 1203              		.loc 1 445 13 view .LVU258
 1204 0044 4FF4FA70 		mov	r0, #500
 1205 0048 FFF7FEFF 		bl	HAL_Delay
 1206              	.LVL105:
 1207              	.L80:
 441:../../../applications/examples/lora-gps-example/src/lora-gps-example.c ****           {
 1208              		.loc 1 441 16 view .LVU259
 441:../../../applications/examples/lora-gps-example/src/lora-gps-example.c ****           {
 1209              		.loc 1 441 17 is_stmt 0 view .LVU260
 1210 004c FFF7FEFF 		bl	OCTA_FLASH_isWriteInProgress
 1211              	.LVL106:
 441:../../../applications/examples/lora-gps-example/src/lora-gps-example.c ****           {
 1212              		.loc 1 441 16 view .LVU261
 1213 0050 0028     		cmp	r0, #0
 1214 0052 EFD1     		bne	.L81
 447:../../../applications/examples/lora-gps-example/src/lora-gps-example.c ****           printINF("Erase finished\r\n");
 1215              		.loc 1 447 11 is_stmt 1 view .LVU262
 1216 0054 0122     		movs	r2, #1
 1217 0056 4FF48041 		mov	r1, #16384
 1218 005a 2448     		ldr	r0, .L88+24
 1219 005c FFF7FEFF 		bl	HAL_GPIO_WritePin
 1220              	.LVL107:
 448:../../../applications/examples/lora-gps-example/src/lora-gps-example.c **** 
 1221              		.loc 1 448 11 view .LVU263
 1222 0060 2348     		ldr	r0, .L88+28
 1223 0062 FFF7FEFF 		bl	printINF
 1224              	.LVL108:
 450:../../../applications/examples/lora-gps-example/src/lora-gps-example.c ****           
ARM GAS  C:\Users\tijsv\AppData\Local\Temp\ccxP5pih.s 			page 38


 1225              		.loc 1 450 11 view .LVU264
 1226 0066 FFF7FEFF 		bl	Get_Current_Config_From_Flash
 1227              	.LVL109:
 452:../../../applications/examples/lora-gps-example/src/lora-gps-example.c ****           printINF("Restarting lorawan Timer\r\n");
 1228              		.loc 1 452 11 view .LVU265
 452:../../../applications/examples/lora-gps-example/src/lora-gps-example.c ****           printINF("Restarting lorawan Timer\r\n");
 1229              		.loc 1 452 25 is_stmt 0 view .LVU266
 1230 006a 1B4B     		ldr	r3, .L88+4
 1231 006c 0022     		movs	r2, #0
 1232 006e 1A70     		strb	r2, [r3]
 453:../../../applications/examples/lora-gps-example/src/lora-gps-example.c ****           osTimerStart(loraWANTimId, 30 * 1000);
 1233              		.loc 1 453 11 is_stmt 1 view .LVU267
 1234 0070 2048     		ldr	r0, .L88+32
 1235 0072 FFF7FEFF 		bl	printINF
 1236              	.LVL110:
 454:../../../applications/examples/lora-gps-example/src/lora-gps-example.c ****           break;
 1237              		.loc 1 454 11 view .LVU268
 1238 0076 47F23051 		movw	r1, #30000
 1239 007a 194B     		ldr	r3, .L88+12
 1240 007c 1868     		ldr	r0, [r3]
 1241 007e FFF7FEFF 		bl	osTimerStart
 1242              	.LVL111:
 455:../../../applications/examples/lora-gps-example/src/lora-gps-example.c ****         }
 1243              		.loc 1 455 11 view .LVU269
 1244              	.L82:
 463:../../../applications/examples/lora-gps-example/src/lora-gps-example.c ****       NucleoBTN1presses = 0;
 1245              		.loc 1 463 7 view .LVU270
 1246 0082 1D48     		ldr	r0, .L88+36
 1247 0084 FFF7FEFF 		bl	printINF
 1248              	.LVL112:
 464:../../../applications/examples/lora-gps-example/src/lora-gps-example.c ****     }
 1249              		.loc 1 464 7 view .LVU271
 464:../../../applications/examples/lora-gps-example/src/lora-gps-example.c ****     }
 1250              		.loc 1 464 25 is_stmt 0 view .LVU272
 1251 0088 1C4B     		ldr	r3, .L88+40
 1252 008a 0022     		movs	r2, #0
 1253 008c 1A70     		strb	r2, [r3]
 1254              	.LVL113:
 1255              	.L84:
 464:../../../applications/examples/lora-gps-example/src/lora-gps-example.c ****     }
 1256              		.loc 1 464 25 view .LVU273
 1257              	.LBE4:
 470:../../../applications/examples/lora-gps-example/src/lora-gps-example.c ****   }
 1258              		.loc 1 470 5 is_stmt 1 view .LVU274
 1259 008e 0120     		movs	r0, #1
 1260 0090 FFF7FEFF 		bl	osDelay
 1261              	.LVL114:
 414:../../../applications/examples/lora-gps-example/src/lora-gps-example.c ****   {
 1262              		.loc 1 414 9 view .LVU275
 1263              	.L85:
 413:../../../applications/examples/lora-gps-example/src/lora-gps-example.c ****   while (1)
 1264              		.loc 1 413 3 view .LVU276
 414:../../../applications/examples/lora-gps-example/src/lora-gps-example.c ****   {
 1265              		.loc 1 414 3 view .LVU277
 420:../../../applications/examples/lora-gps-example/src/lora-gps-example.c ****     if (startProcessing == 1)
 1266              		.loc 1 420 5 view .LVU278
 420:../../../applications/examples/lora-gps-example/src/lora-gps-example.c ****     if (startProcessing == 1)
ARM GAS  C:\Users\tijsv\AppData\Local\Temp\ccxP5pih.s 			page 39


 1267              		.loc 1 420 23 is_stmt 0 view .LVU279
 1268 0094 4FF0FF31 		mov	r1, #-1
 1269 0098 0120     		movs	r0, #1
 1270 009a FFF7FEFF 		bl	ulTaskNotifyTake
 1271              	.LVL115:
 421:../../../applications/examples/lora-gps-example/src/lora-gps-example.c ****     {
 1272              		.loc 1 421 5 is_stmt 1 view .LVU280
 421:../../../applications/examples/lora-gps-example/src/lora-gps-example.c ****     {
 1273              		.loc 1 421 8 is_stmt 0 view .LVU281
 1274 009e 0128     		cmp	r0, #1
 1275 00a0 13D1     		bne	.L75
 1276              	.LBB5:
 424:../../../applications/examples/lora-gps-example/src/lora-gps-example.c ****       uint8_t i = 0;
 1277              		.loc 1 424 7 is_stmt 1 view .LVU282
 1278 00a2 1748     		ldr	r0, .L88+44
 1279              	.LVL116:
 424:../../../applications/examples/lora-gps-example/src/lora-gps-example.c ****       uint8_t i = 0;
 1280              		.loc 1 424 7 is_stmt 0 view .LVU283
 1281 00a4 FFF7FEFF 		bl	printDBG
 1282              	.LVL117:
 425:../../../applications/examples/lora-gps-example/src/lora-gps-example.c **** 
 1283              		.loc 1 425 7 is_stmt 1 view .LVU284
 427:../../../applications/examples/lora-gps-example/src/lora-gps-example.c ****       {
 1284              		.loc 1 427 7 view .LVU285
 427:../../../applications/examples/lora-gps-example/src/lora-gps-example.c ****       {
 1285              		.loc 1 427 13 is_stmt 0 view .LVU286
 1286 00a8 0024     		movs	r4, #0
 1287              	.LVL118:
 1288              	.L76:
 427:../../../applications/examples/lora-gps-example/src/lora-gps-example.c ****       {
 1289              		.loc 1 427 17 is_stmt 1 discriminator 1 view .LVU287
 427:../../../applications/examples/lora-gps-example/src/lora-gps-example.c ****       {
 1290              		.loc 1 427 7 is_stmt 0 discriminator 1 view .LVU288
 1291 00aa 042C     		cmp	r4, #4
 1292 00ac E9D8     		bhi	.L82
 429:../../../applications/examples/lora-gps-example/src/lora-gps-example.c ****         { 
 1293              		.loc 1 429 9 is_stmt 1 view .LVU289
 429:../../../applications/examples/lora-gps-example/src/lora-gps-example.c ****         { 
 1294              		.loc 1 429 30 is_stmt 0 view .LVU290
 1295 00ae 134B     		ldr	r3, .L88+40
 1296 00b0 1B78     		ldrb	r3, [r3]	@ zero_extendqisi2
 429:../../../applications/examples/lora-gps-example/src/lora-gps-example.c ****         { 
 1297              		.loc 1 429 11 view .LVU291
 1298 00b2 042B     		cmp	r3, #4
 1299 00b4 A6D8     		bhi	.L87
 459:../../../applications/examples/lora-gps-example/src/lora-gps-example.c ****           osDelay(1000);
 1300              		.loc 1 459 11 is_stmt 1 discriminator 2 view .LVU292
 1301 00b6 1348     		ldr	r0, .L88+48
 1302 00b8 FFF7FEFF 		bl	printDBG
 1303              	.LVL119:
 460:../../../applications/examples/lora-gps-example/src/lora-gps-example.c ****         }
 1304              		.loc 1 460 11 discriminator 2 view .LVU293
 1305 00bc 4FF47A70 		mov	r0, #1000
 1306 00c0 FFF7FEFF 		bl	osDelay
 1307              	.LVL120:
 427:../../../applications/examples/lora-gps-example/src/lora-gps-example.c ****       {
 1308              		.loc 1 427 22 discriminator 2 view .LVU294
ARM GAS  C:\Users\tijsv\AppData\Local\Temp\ccxP5pih.s 			page 40


 427:../../../applications/examples/lora-gps-example/src/lora-gps-example.c ****       {
 1309              		.loc 1 427 23 is_stmt 0 discriminator 2 view .LVU295
 1310 00c4 0134     		adds	r4, r4, #1
 1311              	.LVL121:
 427:../../../applications/examples/lora-gps-example/src/lora-gps-example.c ****       {
 1312              		.loc 1 427 23 discriminator 2 view .LVU296
 1313 00c6 E4B2     		uxtb	r4, r4
 1314              	.LVL122:
 427:../../../applications/examples/lora-gps-example/src/lora-gps-example.c ****       {
 1315              		.loc 1 427 23 discriminator 2 view .LVU297
 1316 00c8 EFE7     		b	.L76
 1317              	.LVL123:
 1318              	.L75:
 427:../../../applications/examples/lora-gps-example/src/lora-gps-example.c ****       {
 1319              		.loc 1 427 23 discriminator 2 view .LVU298
 1320              	.LBE5:
 468:../../../applications/examples/lora-gps-example/src/lora-gps-example.c ****     }
 1321              		.loc 1 468 7 is_stmt 1 view .LVU299
 1322 00ca 0F48     		ldr	r0, .L88+52
 1323              	.LVL124:
 468:../../../applications/examples/lora-gps-example/src/lora-gps-example.c ****     }
 1324              		.loc 1 468 7 is_stmt 0 view .LVU300
 1325 00cc FFF7FEFF 		bl	printERR
 1326              	.LVL125:
 1327 00d0 DDE7     		b	.L84
 1328              	.L89:
 1329 00d2 00BF     		.align	2
 1330              	.L88:
 1331 00d4 38000000 		.word	.LC25
 1332 00d8 00000000 		.word	.LANCHOR2
 1333 00dc 54000000 		.word	.LC26
 1334 00e0 00000000 		.word	loraWANTimId
 1335 00e4 70000000 		.word	.LC27
 1336 00e8 C8000000 		.word	.LC28
 1337 00ec 000C0048 		.word	1207962624
 1338 00f0 E0000000 		.word	.LC29
 1339 00f4 F4000000 		.word	.LC30
 1340 00f8 18010000 		.word	.LC32
 1341 00fc 00000000 		.word	.LANCHOR4
 1342 0100 00000000 		.word	.LC24
 1343 0104 10010000 		.word	.LC31
 1344 0108 38010000 		.word	.LC33
 1345              		.cfi_endproc
 1346              	.LFE143:
 1348              		.section	.text.B1_enable_interrupt,"ax",%progbits
 1349              		.align	1
 1350              		.global	B1_enable_interrupt
 1351              		.syntax unified
 1352              		.thumb
 1353              		.thumb_func
 1354              		.fpu fpv4-sp-d16
 1356              	B1_enable_interrupt:
 1357              	.LFB137:
 271:../../../applications/examples/lora-gps-example/src/lora-gps-example.c ****   GPIO_InitTypeDef GPIO_InitStruct = {0};
 1358              		.loc 1 271 1 is_stmt 1 view -0
 1359              		.cfi_startproc
 1360              		@ args = 0, pretend = 0, frame = 24
ARM GAS  C:\Users\tijsv\AppData\Local\Temp\ccxP5pih.s 			page 41


 1361              		@ frame_needed = 0, uses_anonymous_args = 0
 1362 0000 10B5     		push	{r4, lr}
 1363              	.LCFI17:
 1364              		.cfi_def_cfa_offset 8
 1365              		.cfi_offset 4, -8
 1366              		.cfi_offset 14, -4
 1367 0002 86B0     		sub	sp, sp, #24
 1368              	.LCFI18:
 1369              		.cfi_def_cfa_offset 32
 272:../../../applications/examples/lora-gps-example/src/lora-gps-example.c ****   GPIO_InitStruct.Pin = OCTA_BTN1_Pin;
 1370              		.loc 1 272 3 view .LVU302
 272:../../../applications/examples/lora-gps-example/src/lora-gps-example.c ****   GPIO_InitStruct.Pin = OCTA_BTN1_Pin;
 1371              		.loc 1 272 20 is_stmt 0 view .LVU303
 1372 0004 0024     		movs	r4, #0
 1373 0006 0494     		str	r4, [sp, #16]
 1374 0008 0594     		str	r4, [sp, #20]
 273:../../../applications/examples/lora-gps-example/src/lora-gps-example.c ****   GPIO_InitStruct.Mode = GPIO_MODE_IT_RISING;
 1375              		.loc 1 273 3 is_stmt 1 view .LVU304
 273:../../../applications/examples/lora-gps-example/src/lora-gps-example.c ****   GPIO_InitStruct.Mode = GPIO_MODE_IT_RISING;
 1376              		.loc 1 273 23 is_stmt 0 view .LVU305
 1377 000a 0123     		movs	r3, #1
 1378 000c 0193     		str	r3, [sp, #4]
 274:../../../applications/examples/lora-gps-example/src/lora-gps-example.c ****   GPIO_InitStruct.Pull = GPIO_NOPULL;
 1379              		.loc 1 274 3 is_stmt 1 view .LVU306
 274:../../../applications/examples/lora-gps-example/src/lora-gps-example.c ****   GPIO_InitStruct.Pull = GPIO_NOPULL;
 1380              		.loc 1 274 24 is_stmt 0 view .LVU307
 1381 000e 084B     		ldr	r3, .L92
 1382 0010 0293     		str	r3, [sp, #8]
 275:../../../applications/examples/lora-gps-example/src/lora-gps-example.c ****   HAL_GPIO_Init(OCTA_BTN1_GPIO_Port, &GPIO_InitStruct);
 1383              		.loc 1 275 3 is_stmt 1 view .LVU308
 275:../../../applications/examples/lora-gps-example/src/lora-gps-example.c ****   HAL_GPIO_Init(OCTA_BTN1_GPIO_Port, &GPIO_InitStruct);
 1384              		.loc 1 275 24 is_stmt 0 view .LVU309
 1385 0012 0394     		str	r4, [sp, #12]
 276:../../../applications/examples/lora-gps-example/src/lora-gps-example.c **** 
 1386              		.loc 1 276 3 is_stmt 1 view .LVU310
 1387 0014 01A9     		add	r1, sp, #4
 1388 0016 0748     		ldr	r0, .L92+4
 1389 0018 FFF7FEFF 		bl	HAL_GPIO_Init
 1390              	.LVL126:
 279:../../../applications/examples/lora-gps-example/src/lora-gps-example.c ****   HAL_NVIC_EnableIRQ(EXTI0_IRQn);
 1391              		.loc 1 279 3 view .LVU311
 1392 001c 2246     		mov	r2, r4
 1393 001e 0821     		movs	r1, #8
 1394 0020 0620     		movs	r0, #6
 1395 0022 FFF7FEFF 		bl	HAL_NVIC_SetPriority
 1396              	.LVL127:
 280:../../../applications/examples/lora-gps-example/src/lora-gps-example.c **** }
 1397              		.loc 1 280 3 view .LVU312
 1398 0026 0620     		movs	r0, #6
 1399 0028 FFF7FEFF 		bl	HAL_NVIC_EnableIRQ
 1400              	.LVL128:
 281:../../../applications/examples/lora-gps-example/src/lora-gps-example.c **** 
 1401              		.loc 1 281 1 is_stmt 0 view .LVU313
 1402 002c 06B0     		add	sp, sp, #24
 1403              	.LCFI19:
 1404              		.cfi_def_cfa_offset 8
 1405              		@ sp needed
ARM GAS  C:\Users\tijsv\AppData\Local\Temp\ccxP5pih.s 			page 42


 1406 002e 10BD     		pop	{r4, pc}
 1407              	.L93:
 1408              		.align	2
 1409              	.L92:
 1410 0030 00001110 		.word	269549568
 1411 0034 00180048 		.word	1207965696
 1412              		.cfi_endproc
 1413              	.LFE137:
 1415              		.section	.text.B2_enable_interrupt,"ax",%progbits
 1416              		.align	1
 1417              		.global	B2_enable_interrupt
 1418              		.syntax unified
 1419              		.thumb
 1420              		.thumb_func
 1421              		.fpu fpv4-sp-d16
 1423              	B2_enable_interrupt:
 1424              	.LFB138:
 284:../../../applications/examples/lora-gps-example/src/lora-gps-example.c ****     GPIO_InitTypeDef GPIO_InitStruct = {0};
 1425              		.loc 1 284 1 is_stmt 1 view -0
 1426              		.cfi_startproc
 1427              		@ args = 0, pretend = 0, frame = 24
 1428              		@ frame_needed = 0, uses_anonymous_args = 0
 1429 0000 10B5     		push	{r4, lr}
 1430              	.LCFI20:
 1431              		.cfi_def_cfa_offset 8
 1432              		.cfi_offset 4, -8
 1433              		.cfi_offset 14, -4
 1434 0002 86B0     		sub	sp, sp, #24
 1435              	.LCFI21:
 1436              		.cfi_def_cfa_offset 32
 285:../../../applications/examples/lora-gps-example/src/lora-gps-example.c ****     GPIO_InitStruct.Pin = OCTA_BTN2_Pin;
 1437              		.loc 1 285 5 view .LVU315
 285:../../../applications/examples/lora-gps-example/src/lora-gps-example.c ****     GPIO_InitStruct.Pin = OCTA_BTN2_Pin;
 1438              		.loc 1 285 22 is_stmt 0 view .LVU316
 1439 0004 0024     		movs	r4, #0
 1440 0006 0494     		str	r4, [sp, #16]
 1441 0008 0594     		str	r4, [sp, #20]
 286:../../../applications/examples/lora-gps-example/src/lora-gps-example.c ****     GPIO_InitStruct.Mode = GPIO_MODE_IT_RISING;
 1442              		.loc 1 286 5 is_stmt 1 view .LVU317
 286:../../../applications/examples/lora-gps-example/src/lora-gps-example.c ****     GPIO_InitStruct.Mode = GPIO_MODE_IT_RISING;
 1443              		.loc 1 286 25 is_stmt 0 view .LVU318
 1444 000a 0223     		movs	r3, #2
 1445 000c 0193     		str	r3, [sp, #4]
 287:../../../applications/examples/lora-gps-example/src/lora-gps-example.c ****     GPIO_InitStruct.Pull = GPIO_NOPULL;
 1446              		.loc 1 287 5 is_stmt 1 view .LVU319
 287:../../../applications/examples/lora-gps-example/src/lora-gps-example.c ****     GPIO_InitStruct.Pull = GPIO_NOPULL;
 1447              		.loc 1 287 26 is_stmt 0 view .LVU320
 1448 000e 084B     		ldr	r3, .L96
 1449 0010 0293     		str	r3, [sp, #8]
 288:../../../applications/examples/lora-gps-example/src/lora-gps-example.c ****     HAL_GPIO_Init(OCTA_BTN2_GPIO_Port, &GPIO_InitStruct);
 1450              		.loc 1 288 5 is_stmt 1 view .LVU321
 288:../../../applications/examples/lora-gps-example/src/lora-gps-example.c ****     HAL_GPIO_Init(OCTA_BTN2_GPIO_Port, &GPIO_InitStruct);
 1451              		.loc 1 288 26 is_stmt 0 view .LVU322
 1452 0012 0394     		str	r4, [sp, #12]
 289:../../../applications/examples/lora-gps-example/src/lora-gps-example.c **** 
 1453              		.loc 1 289 5 is_stmt 1 view .LVU323
 1454 0014 01A9     		add	r1, sp, #4
ARM GAS  C:\Users\tijsv\AppData\Local\Temp\ccxP5pih.s 			page 43


 1455 0016 0748     		ldr	r0, .L96+4
 1456 0018 FFF7FEFF 		bl	HAL_GPIO_Init
 1457              	.LVL129:
 292:../../../applications/examples/lora-gps-example/src/lora-gps-example.c ****     HAL_NVIC_EnableIRQ(EXTI1_IRQn);
 1458              		.loc 1 292 5 view .LVU324
 1459 001c 2246     		mov	r2, r4
 1460 001e 0821     		movs	r1, #8
 1461 0020 0720     		movs	r0, #7
 1462 0022 FFF7FEFF 		bl	HAL_NVIC_SetPriority
 1463              	.LVL130:
 293:../../../applications/examples/lora-gps-example/src/lora-gps-example.c **** }
 1464              		.loc 1 293 5 view .LVU325
 1465 0026 0720     		movs	r0, #7
 1466 0028 FFF7FEFF 		bl	HAL_NVIC_EnableIRQ
 1467              	.LVL131:
 294:../../../applications/examples/lora-gps-example/src/lora-gps-example.c **** 
 1468              		.loc 1 294 1 is_stmt 0 view .LVU326
 1469 002c 06B0     		add	sp, sp, #24
 1470              	.LCFI22:
 1471              		.cfi_def_cfa_offset 8
 1472              		@ sp needed
 1473 002e 10BD     		pop	{r4, pc}
 1474              	.L97:
 1475              		.align	2
 1476              	.L96:
 1477 0030 00001110 		.word	269549568
 1478 0034 00180048 		.word	1207965696
 1479              		.cfi_endproc
 1480              	.LFE138:
 1482              		.section	.text.Nucleo_BTN1_enable_interrupt,"ax",%progbits
 1483              		.align	1
 1484              		.global	Nucleo_BTN1_enable_interrupt
 1485              		.syntax unified
 1486              		.thumb
 1487              		.thumb_func
 1488              		.fpu fpv4-sp-d16
 1490              	Nucleo_BTN1_enable_interrupt:
 1491              	.LFB139:
 297:../../../applications/examples/lora-gps-example/src/lora-gps-example.c ****     GPIO_InitTypeDef GPIO_InitStruct = {0};
 1492              		.loc 1 297 1 is_stmt 1 view -0
 1493              		.cfi_startproc
 1494              		@ args = 0, pretend = 0, frame = 24
 1495              		@ frame_needed = 0, uses_anonymous_args = 0
 1496 0000 10B5     		push	{r4, lr}
 1497              	.LCFI23:
 1498              		.cfi_def_cfa_offset 8
 1499              		.cfi_offset 4, -8
 1500              		.cfi_offset 14, -4
 1501 0002 86B0     		sub	sp, sp, #24
 1502              	.LCFI24:
 1503              		.cfi_def_cfa_offset 32
 298:../../../applications/examples/lora-gps-example/src/lora-gps-example.c ****     GPIO_InitStruct.Pin = B1_Pin;
 1504              		.loc 1 298 5 view .LVU328
 298:../../../applications/examples/lora-gps-example/src/lora-gps-example.c ****     GPIO_InitStruct.Pin = B1_Pin;
 1505              		.loc 1 298 22 is_stmt 0 view .LVU329
 1506 0004 0024     		movs	r4, #0
 1507 0006 0494     		str	r4, [sp, #16]
ARM GAS  C:\Users\tijsv\AppData\Local\Temp\ccxP5pih.s 			page 44


 1508 0008 0594     		str	r4, [sp, #20]
 299:../../../applications/examples/lora-gps-example/src/lora-gps-example.c ****     GPIO_InitStruct.Mode = GPIO_MODE_IT_RISING;
 1509              		.loc 1 299 5 is_stmt 1 view .LVU330
 299:../../../applications/examples/lora-gps-example/src/lora-gps-example.c ****     GPIO_InitStruct.Mode = GPIO_MODE_IT_RISING;
 1510              		.loc 1 299 25 is_stmt 0 view .LVU331
 1511 000a 4FF40053 		mov	r3, #8192
 1512 000e 0193     		str	r3, [sp, #4]
 300:../../../applications/examples/lora-gps-example/src/lora-gps-example.c ****     GPIO_InitStruct.Pull = GPIO_NOPULL;
 1513              		.loc 1 300 5 is_stmt 1 view .LVU332
 300:../../../applications/examples/lora-gps-example/src/lora-gps-example.c ****     GPIO_InitStruct.Pull = GPIO_NOPULL;
 1514              		.loc 1 300 26 is_stmt 0 view .LVU333
 1515 0010 084B     		ldr	r3, .L100
 1516 0012 0293     		str	r3, [sp, #8]
 301:../../../applications/examples/lora-gps-example/src/lora-gps-example.c ****     HAL_GPIO_Init(B1_GPIO_Port, &GPIO_InitStruct);
 1517              		.loc 1 301 5 is_stmt 1 view .LVU334
 301:../../../applications/examples/lora-gps-example/src/lora-gps-example.c ****     HAL_GPIO_Init(B1_GPIO_Port, &GPIO_InitStruct);
 1518              		.loc 1 301 26 is_stmt 0 view .LVU335
 1519 0014 0394     		str	r4, [sp, #12]
 302:../../../applications/examples/lora-gps-example/src/lora-gps-example.c **** 
 1520              		.loc 1 302 5 is_stmt 1 view .LVU336
 1521 0016 01A9     		add	r1, sp, #4
 1522 0018 0748     		ldr	r0, .L100+4
 1523 001a FFF7FEFF 		bl	HAL_GPIO_Init
 1524              	.LVL132:
 305:../../../applications/examples/lora-gps-example/src/lora-gps-example.c ****     HAL_NVIC_EnableIRQ(EXTI15_10_IRQn);
 1525              		.loc 1 305 5 view .LVU337
 1526 001e 2246     		mov	r2, r4
 1527 0020 0821     		movs	r1, #8
 1528 0022 2820     		movs	r0, #40
 1529 0024 FFF7FEFF 		bl	HAL_NVIC_SetPriority
 1530              	.LVL133:
 306:../../../applications/examples/lora-gps-example/src/lora-gps-example.c **** }
 1531              		.loc 1 306 5 view .LVU338
 1532 0028 2820     		movs	r0, #40
 1533 002a FFF7FEFF 		bl	HAL_NVIC_EnableIRQ
 1534              	.LVL134:
 307:../../../applications/examples/lora-gps-example/src/lora-gps-example.c **** 
 1535              		.loc 1 307 1 is_stmt 0 view .LVU339
 1536 002e 06B0     		add	sp, sp, #24
 1537              	.LCFI25:
 1538              		.cfi_def_cfa_offset 8
 1539              		@ sp needed
 1540 0030 10BD     		pop	{r4, pc}
 1541              	.L101:
 1542 0032 00BF     		.align	2
 1543              	.L100:
 1544 0034 00001110 		.word	269549568
 1545 0038 00080048 		.word	1207961600
 1546              		.cfi_endproc
 1547              	.LFE139:
 1549              		.section	.rodata.main.str1.4,"aMS",%progbits,1
 1550              		.align	2
 1551              	.LC34:
 1552 0000 53656E73 		.ascii	"Sensor measurement interval: %d minutes\015\012\000"
 1552      6F72206D 
 1552      65617375 
 1552      72656D65 
ARM GAS  C:\Users\tijsv\AppData\Local\Temp\ccxP5pih.s 			page 45


 1552      6E742069 
 1553 002a 0000     		.align	2
 1554              	.LC35:
 1555 002c 416D6F75 		.ascii	"Amount of measurements per tx = %d \015\012\015\012"
 1555      6E74206F 
 1555      66206D65 
 1555      61737572 
 1555      656D656E 
 1556 0053 00       		.ascii	"\000"
 1557              		.align	2
 1558              	.LC36:
 1559 0054 4D757261 		.ascii	"Murata dualstack module init OK\015\012\015\012\000"
 1559      74612064 
 1559      75616C73 
 1559      7461636B 
 1559      206D6F64 
 1560              		.section	.text.main,"ax",%progbits
 1561              		.align	1
 1562              		.global	main
 1563              		.syntax unified
 1564              		.thumb
 1565              		.thumb_func
 1566              		.fpu fpv4-sp-d16
 1568              	main:
 1569              	.LFB132:
  43:../../../applications/examples/lora-gps-example/src/lora-gps-example.c ****   Initialize_Platform();
 1570              		.loc 1 43 1 is_stmt 1 view -0
 1571              		.cfi_startproc
 1572              		@ Volatile: function does not return.
 1573              		@ args = 0, pretend = 0, frame = 80
 1574              		@ frame_needed = 0, uses_anonymous_args = 0
 1575 0000 80B5     		push	{r7, lr}
 1576              	.LCFI26:
 1577              		.cfi_def_cfa_offset 8
 1578              		.cfi_offset 7, -8
 1579              		.cfi_offset 14, -4
 1580 0002 94B0     		sub	sp, sp, #80
 1581              	.LCFI27:
 1582              		.cfi_def_cfa_offset 88
  44:../../../applications/examples/lora-gps-example/src/lora-gps-example.c ****   OCTA_FLASH_Initialize(&FLASH_SPI);
 1583              		.loc 1 44 3 view .LVU341
 1584 0004 FFF7FEFF 		bl	Initialize_Platform
 1585              	.LVL135:
  45:../../../applications/examples/lora-gps-example/src/lora-gps-example.c **** 
 1586              		.loc 1 45 3 view .LVU342
 1587 0008 4848     		ldr	r0, .L107
 1588 000a FFF7FEFF 		bl	OCTA_FLASH_Initialize
 1589              	.LVL136:
  50:../../../applications/examples/lora-gps-example/src/lora-gps-example.c **** 
 1590              		.loc 1 50 3 view .LVU343
 1591 000e FFF7FEFF 		bl	Get_Current_Config_From_Flash
 1592              	.LVL137:
  53:../../../applications/examples/lora-gps-example/src/lora-gps-example.c ****   printINF("Amount of measurements per tx = %d \r\n\r\n", current_octa_configuration.multiplier);
 1593              		.loc 1 53 3 view .LVU344
  53:../../../applications/examples/lora-gps-example/src/lora-gps-example.c ****   printINF("Amount of measurements per tx = %d \r\n\r\n", current_octa_configuration.multiplier);
 1594              		.loc 1 53 85 is_stmt 0 view .LVU345
 1595 0012 474C     		ldr	r4, .L107+4
ARM GAS  C:\Users\tijsv\AppData\Local\Temp\ccxP5pih.s 			page 46


  53:../../../applications/examples/lora-gps-example/src/lora-gps-example.c ****   printINF("Amount of measurements per tx = %d \r\n\r\n", current_octa_configuration.multiplier);
 1596              		.loc 1 53 3 view .LVU346
 1597 0014 217B     		ldrb	r1, [r4, #12]	@ zero_extendqisi2
 1598 0016 4748     		ldr	r0, .L107+8
 1599 0018 FFF7FEFF 		bl	printINF
 1600              	.LVL138:
  54:../../../applications/examples/lora-gps-example/src/lora-gps-example.c **** 
 1601              		.loc 1 54 3 is_stmt 1 view .LVU347
 1602 001c 617B     		ldrb	r1, [r4, #13]	@ zero_extendqisi2
 1603 001e 4648     		ldr	r0, .L107+12
 1604 0020 FFF7FEFF 		bl	printINF
 1605              	.LVL139:
  57:../../../applications/examples/lora-gps-example/src/lora-gps-example.c ****   UART_SetApplicationCallback(&Dualstack_ApplicationCallback, (uint8_t)MURATA_CONNECTOR);
 1606              		.loc 1 57 3 view .LVU348
  57:../../../applications/examples/lora-gps-example/src/lora-gps-example.c ****   UART_SetApplicationCallback(&Dualstack_ApplicationCallback, (uint8_t)MURATA_CONNECTOR);
 1607              		.loc 1 57 17 is_stmt 0 view .LVU349
 1608 0024 454B     		ldr	r3, .L107+16
 1609 0026 D3E90001 		ldrd	r0, [r3]
 1610 002a FFF7FEFF 		bl	Murata_Initialize
 1611              	.LVL140:
  57:../../../applications/examples/lora-gps-example/src/lora-gps-example.c ****   UART_SetApplicationCallback(&Dualstack_ApplicationCallback, (uint8_t)MURATA_CONNECTOR);
 1612              		.loc 1 57 15 view .LVU350
 1613 002e 444C     		ldr	r4, .L107+20
 1614 0030 2070     		strb	r0, [r4]
  58:../../../applications/examples/lora-gps-example/src/lora-gps-example.c **** 
 1615              		.loc 1 58 3 is_stmt 1 view .LVU351
 1616 0032 0321     		movs	r1, #3
 1617 0034 4348     		ldr	r0, .L107+24
 1618 0036 FFF7FEFF 		bl	UART_SetApplicationCallback
 1619              	.LVL141:
  60:../../../applications/examples/lora-gps-example/src/lora-gps-example.c ****   {
 1620              		.loc 1 60 3 view .LVU352
  60:../../../applications/examples/lora-gps-example/src/lora-gps-example.c ****   {
 1621              		.loc 1 60 7 is_stmt 0 view .LVU353
 1622 003a 2378     		ldrb	r3, [r4]	@ zero_extendqisi2
  60:../../../applications/examples/lora-gps-example/src/lora-gps-example.c ****   {
 1623              		.loc 1 60 6 view .LVU354
 1624 003c 002B     		cmp	r3, #0
 1625 003e 70D1     		bne	.L106
 1626              	.L103:
  65:../../../applications/examples/lora-gps-example/src/lora-gps-example.c ****   memset(locationArrayHex, 1, 32); // init location array to 0
 1627              		.loc 1 65 3 is_stmt 1 view .LVU355
 1628 0040 FFF7FEFF 		bl	Firefly_Initialize
 1629              	.LVL142:
  66:../../../applications/examples/lora-gps-example/src/lora-gps-example.c ****  
 1630              		.loc 1 66 3 view .LVU356
 1631 0044 2022     		movs	r2, #32
 1632 0046 0121     		movs	r1, #1
 1633 0048 3F48     		ldr	r0, .L107+28
 1634 004a FFF7FEFF 		bl	memset
 1635              	.LVL143:
  69:../../../applications/examples/lora-gps-example/src/lora-gps-example.c ****   txMutexId = osMutexCreate(osMutex(txMutex));
 1636              		.loc 1 69 3 view .LVU357
 1637 004e 0025     		movs	r5, #0
 1638 0050 1395     		str	r5, [sp, #76]
  70:../../../applications/examples/lora-gps-example/src/lora-gps-example.c ****   
 1639              		.loc 1 70 3 view .LVU358
ARM GAS  C:\Users\tijsv\AppData\Local\Temp\ccxP5pih.s 			page 47


  70:../../../applications/examples/lora-gps-example/src/lora-gps-example.c ****   
 1640              		.loc 1 70 15 is_stmt 0 view .LVU359
 1641 0052 13A8     		add	r0, sp, #76
 1642 0054 FFF7FEFF 		bl	osMutexCreate
 1643              	.LVL144:
  70:../../../applications/examples/lora-gps-example/src/lora-gps-example.c ****   
 1644              		.loc 1 70 13 view .LVU360
 1645 0058 3C4B     		ldr	r3, .L107+32
 1646 005a 1860     		str	r0, [r3]
  72:../../../applications/examples/lora-gps-example/src/lora-gps-example.c ****   murata_rx_processing_handle = osThreadCreate(osThread(murata_rx_processing), NULL);
 1647              		.loc 1 72 3 is_stmt 1 view .LVU361
 1648 005c 3C4C     		ldr	r4, .L107+36
 1649 005e 0EAE     		add	r6, sp, #56
 1650 0060 2746     		mov	r7, r4
 1651 0062 0FCF     		ldmia	r7!, {r0, r1, r2, r3}
 1652 0064 0FC6     		stmia	r6!, {r0, r1, r2, r3}
 1653 0066 3B68     		ldr	r3, [r7]
 1654 0068 3360     		str	r3, [r6]
  73:../../../applications/examples/lora-gps-example/src/lora-gps-example.c **** 
 1655              		.loc 1 73 3 view .LVU362
  73:../../../applications/examples/lora-gps-example/src/lora-gps-example.c **** 
 1656              		.loc 1 73 33 is_stmt 0 view .LVU363
 1657 006a 2946     		mov	r1, r5
 1658 006c 0EA8     		add	r0, sp, #56
 1659 006e FFF7FEFF 		bl	osThreadCreate
 1660              	.LVL145:
  73:../../../applications/examples/lora-gps-example/src/lora-gps-example.c **** 
 1661              		.loc 1 73 31 view .LVU364
 1662 0072 384B     		ldr	r3, .L107+40
 1663 0074 1860     		str	r0, [r3]
  76:../../../applications/examples/lora-gps-example/src/lora-gps-example.c **** 
 1664              		.loc 1 76 3 is_stmt 1 view .LVU365
 1665 0076 FFF7FEFF 		bl	Murata_SetProcessingThread
 1666              	.LVL146:
  79:../../../applications/examples/lora-gps-example/src/lora-gps-example.c ****   osTimerDef(iwdgTim, IWDG_feed);
 1667              		.loc 1 79 3 view .LVU366
 1668 007a 2846     		mov	r0, r5
 1669 007c FFF7FEFF 		bl	IWDG_feed
 1670              	.LVL147:
  80:../../../applications/examples/lora-gps-example/src/lora-gps-example.c ****   iwdgTimId = osTimerCreate(osTimer(iwdgTim), osTimerPeriodic, NULL);
 1671              		.loc 1 80 3 view .LVU367
 1672 0080 354B     		ldr	r3, .L107+44
 1673 0082 0D93     		str	r3, [sp, #52]
  81:../../../applications/examples/lora-gps-example/src/lora-gps-example.c ****   osTimerStart(iwdgTimId, IWDG_INTERVAL * 1000);
 1674              		.loc 1 81 3 view .LVU368
  81:../../../applications/examples/lora-gps-example/src/lora-gps-example.c ****   osTimerStart(iwdgTimId, IWDG_INTERVAL * 1000);
 1675              		.loc 1 81 15 is_stmt 0 view .LVU369
 1676 0084 2A46     		mov	r2, r5
 1677 0086 0121     		movs	r1, #1
 1678 0088 0DA8     		add	r0, sp, #52
 1679 008a FFF7FEFF 		bl	osTimerCreate
 1680              	.LVL148:
  81:../../../applications/examples/lora-gps-example/src/lora-gps-example.c ****   osTimerStart(iwdgTimId, IWDG_INTERVAL * 1000);
 1681              		.loc 1 81 13 view .LVU370
 1682 008e 334B     		ldr	r3, .L107+48
 1683 0090 1860     		str	r0, [r3]
  82:../../../applications/examples/lora-gps-example/src/lora-gps-example.c **** 
ARM GAS  C:\Users\tijsv\AppData\Local\Temp\ccxP5pih.s 			page 48


 1684              		.loc 1 82 3 is_stmt 1 view .LVU371
 1685 0092 41F28831 		movw	r1, #5000
 1686 0096 FFF7FEFF 		bl	osTimerStart
 1687              	.LVL149:
  84:../../../applications/examples/lora-gps-example/src/lora-gps-example.c ****   loraWANTimId = osTimerCreate(osTimer(loraWANTim), osTimerPeriodic, NULL);
 1688              		.loc 1 84 3 view .LVU372
 1689 009a 314B     		ldr	r3, .L107+52
 1690 009c 0C93     		str	r3, [sp, #48]
  85:../../../applications/examples/lora-gps-example/src/lora-gps-example.c ****   osTimerStart(loraWANTimId, LORAWAN_INTERVAL * 1000);
 1691              		.loc 1 85 3 view .LVU373
  85:../../../applications/examples/lora-gps-example/src/lora-gps-example.c ****   osTimerStart(loraWANTimId, LORAWAN_INTERVAL * 1000);
 1692              		.loc 1 85 18 is_stmt 0 view .LVU374
 1693 009e 2A46     		mov	r2, r5
 1694 00a0 0121     		movs	r1, #1
 1695 00a2 0CA8     		add	r0, sp, #48
 1696 00a4 FFF7FEFF 		bl	osTimerCreate
 1697              	.LVL150:
  85:../../../applications/examples/lora-gps-example/src/lora-gps-example.c ****   osTimerStart(loraWANTimId, LORAWAN_INTERVAL * 1000);
 1698              		.loc 1 85 16 view .LVU375
 1699 00a8 2E4B     		ldr	r3, .L107+56
 1700 00aa 1860     		str	r0, [r3]
  86:../../../applications/examples/lora-gps-example/src/lora-gps-example.c **** 
 1701              		.loc 1 86 3 is_stmt 1 view .LVU376
 1702 00ac 47F23051 		movw	r1, #30000
 1703 00b0 FFF7FEFF 		bl	osTimerStart
 1704              	.LVL151:
  88:../../../applications/examples/lora-gps-example/src/lora-gps-example.c ****   moduleCheckTimId = osTimerCreate(osTimer(moduleCheckTim), osTimerPeriodic, NULL);
 1705              		.loc 1 88 3 view .LVU377
 1706 00b4 2C4B     		ldr	r3, .L107+60
 1707 00b6 0B93     		str	r3, [sp, #44]
  89:../../../applications/examples/lora-gps-example/src/lora-gps-example.c ****   osTimerStart(moduleCheckTimId, MODULE_CHECK_INTERVAL * 1000);
 1708              		.loc 1 89 3 view .LVU378
  89:../../../applications/examples/lora-gps-example/src/lora-gps-example.c ****   osTimerStart(moduleCheckTimId, MODULE_CHECK_INTERVAL * 1000);
 1709              		.loc 1 89 22 is_stmt 0 view .LVU379
 1710 00b8 2A46     		mov	r2, r5
 1711 00ba 0121     		movs	r1, #1
 1712 00bc 0BA8     		add	r0, sp, #44
 1713 00be FFF7FEFF 		bl	osTimerCreate
 1714              	.LVL152:
  89:../../../applications/examples/lora-gps-example/src/lora-gps-example.c ****   osTimerStart(moduleCheckTimId, MODULE_CHECK_INTERVAL * 1000);
 1715              		.loc 1 89 20 view .LVU380
 1716 00c2 2A4B     		ldr	r3, .L107+64
 1717 00c4 1860     		str	r0, [r3]
  90:../../../applications/examples/lora-gps-example/src/lora-gps-example.c **** 
 1718              		.loc 1 90 3 is_stmt 1 view .LVU381
 1719 00c6 2A49     		ldr	r1, .L107+68
 1720 00c8 FFF7FEFF 		bl	osTimerStart
 1721              	.LVL153:
  92:../../../applications/examples/lora-gps-example/src/lora-gps-example.c ****   offloadFlashTaskHandle = osThreadCreate(osThread(offloadFlash), NULL);
 1722              		.loc 1 92 3 view .LVU382
 1723 00cc 06AE     		add	r6, sp, #24
 1724 00ce 04F11407 		add	r7, r4, #20
 1725 00d2 0FCF     		ldmia	r7!, {r0, r1, r2, r3}
 1726 00d4 0FC6     		stmia	r6!, {r0, r1, r2, r3}
 1727 00d6 3B68     		ldr	r3, [r7]
 1728 00d8 3360     		str	r3, [r6]
  93:../../../applications/examples/lora-gps-example/src/lora-gps-example.c **** 
ARM GAS  C:\Users\tijsv\AppData\Local\Temp\ccxP5pih.s 			page 49


 1729              		.loc 1 93 3 view .LVU383
  93:../../../applications/examples/lora-gps-example/src/lora-gps-example.c **** 
 1730              		.loc 1 93 28 is_stmt 0 view .LVU384
 1731 00da 2946     		mov	r1, r5
 1732 00dc 06A8     		add	r0, sp, #24
 1733 00de FFF7FEFF 		bl	osThreadCreate
 1734              	.LVL154:
  93:../../../applications/examples/lora-gps-example/src/lora-gps-example.c **** 
 1735              		.loc 1 93 26 view .LVU385
 1736 00e2 244B     		ldr	r3, .L107+72
 1737 00e4 1860     		str	r0, [r3]
  95:../../../applications/examples/lora-gps-example/src/lora-gps-example.c ****   eraseFlashTaskHandle = osThreadCreate(osThread(eraseFlash), NULL);
 1738              		.loc 1 95 3 is_stmt 1 view .LVU386
 1739 00e6 01AE     		add	r6, sp, #4
 1740 00e8 2834     		adds	r4, r4, #40
 1741 00ea 0FCC     		ldmia	r4!, {r0, r1, r2, r3}
 1742 00ec 0FC6     		stmia	r6!, {r0, r1, r2, r3}
 1743 00ee 2368     		ldr	r3, [r4]
 1744 00f0 3360     		str	r3, [r6]
  96:../../../applications/examples/lora-gps-example/src/lora-gps-example.c **** 
 1745              		.loc 1 96 3 view .LVU387
  96:../../../applications/examples/lora-gps-example/src/lora-gps-example.c **** 
 1746              		.loc 1 96 26 is_stmt 0 view .LVU388
 1747 00f2 2946     		mov	r1, r5
 1748 00f4 01A8     		add	r0, sp, #4
 1749 00f6 FFF7FEFF 		bl	osThreadCreate
 1750              	.LVL155:
  96:../../../applications/examples/lora-gps-example/src/lora-gps-example.c **** 
 1751              		.loc 1 96 24 view .LVU389
 1752 00fa 1F4B     		ldr	r3, .L107+76
 1753 00fc 1860     		str	r0, [r3]
  99:../../../applications/examples/lora-gps-example/src/lora-gps-example.c ****   GPIO_SetApplicationCallback(&BTN2_Appcallback, (uint16_t)OCTA_BTN2_Pin);
 1754              		.loc 1 99 3 is_stmt 1 view .LVU390
 1755 00fe FFF7FEFF 		bl	B2_enable_interrupt
 1756              	.LVL156:
 100:../../../applications/examples/lora-gps-example/src/lora-gps-example.c **** 
 1757              		.loc 1 100 3 view .LVU391
 1758 0102 0221     		movs	r1, #2
 1759 0104 1D48     		ldr	r0, .L107+80
 1760 0106 FFF7FEFF 		bl	GPIO_SetApplicationCallback
 1761              	.LVL157:
 103:../../../applications/examples/lora-gps-example/src/lora-gps-example.c ****   GPIO_SetApplicationCallback(&Nucleo_BTN1_Appcallback, (uint16_t)B1_Pin);
 1762              		.loc 1 103 3 view .LVU392
 1763 010a FFF7FEFF 		bl	Nucleo_BTN1_enable_interrupt
 1764              	.LVL158:
 104:../../../applications/examples/lora-gps-example/src/lora-gps-example.c **** 
 1765              		.loc 1 104 3 view .LVU393
 1766 010e 4FF40051 		mov	r1, #8192
 1767 0112 1B48     		ldr	r0, .L107+84
 1768 0114 FFF7FEFF 		bl	GPIO_SetApplicationCallback
 1769              	.LVL159:
 107:../../../applications/examples/lora-gps-example/src/lora-gps-example.c **** 
 1770              		.loc 1 107 3 view .LVU394
 1771 0118 FFF7FEFF 		bl	Murata_LoRaWAN_Join
 1772              	.LVL160:
 109:../../../applications/examples/lora-gps-example/src/lora-gps-example.c **** 
 1773              		.loc 1 109 3 view .LVU395
ARM GAS  C:\Users\tijsv\AppData\Local\Temp\ccxP5pih.s 			page 50


 1774 011c FFF7FEFF 		bl	osKernelStart
 1775              	.LVL161:
 1776              	.L104:
 111:../../../applications/examples/lora-gps-example/src/lora-gps-example.c ****   { 
 1777              		.loc 1 111 3 discriminator 1 view .LVU396
 113:../../../applications/examples/lora-gps-example/src/lora-gps-example.c **** }
 1778              		.loc 1 113 3 discriminator 1 view .LVU397
 111:../../../applications/examples/lora-gps-example/src/lora-gps-example.c ****   { 
 1779              		.loc 1 111 9 discriminator 1 view .LVU398
 1780 0120 FEE7     		b	.L104
 1781              	.L106:
  62:../../../applications/examples/lora-gps-example/src/lora-gps-example.c ****   }  
 1782              		.loc 1 62 5 view .LVU399
 1783 0122 1848     		ldr	r0, .L107+88
 1784 0124 FFF7FEFF 		bl	printINF
 1785              	.LVL162:
 1786 0128 8AE7     		b	.L103
 1787              	.L108:
 1788 012a 00BF     		.align	2
 1789              	.L107:
 1790 012c 00000000 		.word	FLASH_SPI
 1791 0130 00000000 		.word	.LANCHOR9
 1792 0134 00000000 		.word	.LC34
 1793 0138 2C000000 		.word	.LC35
 1794 013c 00000000 		.word	short_UID
 1795 0140 00000000 		.word	.LANCHOR5
 1796 0144 00000000 		.word	Dualstack_ApplicationCallback
 1797 0148 00000000 		.word	locationArrayHex
 1798 014c 00000000 		.word	txMutexId
 1799 0150 00000000 		.word	.LANCHOR12
 1800 0154 00000000 		.word	murata_rx_processing_handle
 1801 0158 00000000 		.word	IWDG_feed
 1802 015c 00000000 		.word	iwdgTimId
 1803 0160 00000000 		.word	LoRaWAN_send
 1804 0164 00000000 		.word	loraWANTimId
 1805 0168 00000000 		.word	check_modules
 1806 016c 00000000 		.word	moduleCheckTimId
 1807 0170 80EE3600 		.word	3600000
 1808 0174 00000000 		.word	offloadFlashTaskHandle
 1809 0178 00000000 		.word	eraseFlashTaskHandle
 1810 017c 00000000 		.word	BTN2_Appcallback
 1811 0180 00000000 		.word	Nucleo_BTN1_Appcallback
 1812 0184 54000000 		.word	.LC36
 1813              		.cfi_endproc
 1814              	.LFE132:
 1816              		.section	.rodata.bin_to_strhex.str1.4,"aMS",%progbits,1
 1817              		.align	2
 1818              	.LC40:
 1819 0000 30313233 		.ascii	"0123456789abcdef\000"
 1819      34353637 
 1819      38396162 
 1819      63646566 
 1819      00
 1820              		.section	.text.bin_to_strhex,"ax",%progbits
 1821              		.align	1
 1822              		.global	bin_to_strhex
 1823              		.syntax unified
ARM GAS  C:\Users\tijsv\AppData\Local\Temp\ccxP5pih.s 			page 51


 1824              		.thumb
 1825              		.thumb_func
 1826              		.fpu fpv4-sp-d16
 1828              	bin_to_strhex:
 1829              	.LVL163:
 1830              	.LFB147:
 518:../../../applications/examples/lora-gps-example/src/lora-gps-example.c **** 
 519:../../../applications/examples/lora-gps-example/src/lora-gps-example.c **** unsigned char * bin_to_strhex(const unsigned char *bin, unsigned int binsz, unsigned char **result)
 520:../../../applications/examples/lora-gps-example/src/lora-gps-example.c **** {
 1831              		.loc 1 520 1 view -0
 1832              		.cfi_startproc
 1833              		@ args = 0, pretend = 0, frame = 24
 1834              		@ frame_needed = 0, uses_anonymous_args = 0
 1835              		.loc 1 520 1 is_stmt 0 view .LVU401
 1836 0000 2DE9F041 		push	{r4, r5, r6, r7, r8, lr}
 1837              	.LCFI28:
 1838              		.cfi_def_cfa_offset 24
 1839              		.cfi_offset 4, -24
 1840              		.cfi_offset 5, -20
 1841              		.cfi_offset 6, -16
 1842              		.cfi_offset 7, -12
 1843              		.cfi_offset 8, -8
 1844              		.cfi_offset 14, -4
 1845 0004 86B0     		sub	sp, sp, #24
 1846              	.LCFI29:
 1847              		.cfi_def_cfa_offset 48
 1848 0006 0746     		mov	r7, r0
 1849 0008 8846     		mov	r8, r1
 1850 000a 1646     		mov	r6, r2
 521:../../../applications/examples/lora-gps-example/src/lora-gps-example.c ****   unsigned char     hex_str[]= "0123456789abcdef";
 1851              		.loc 1 521 3 is_stmt 1 view .LVU402
 1852              		.loc 1 521 21 is_stmt 0 view .LVU403
 1853 000c 01AC     		add	r4, sp, #4
 1854 000e 174D     		ldr	r5, .L115
 1855 0010 0FCD     		ldmia	r5!, {r0, r1, r2, r3}
 1856              	.LVL164:
 1857              		.loc 1 521 21 view .LVU404
 1858 0012 0FC4     		stmia	r4!, {r0, r1, r2, r3}
 1859 0014 2B68     		ldr	r3, [r5]
 1860 0016 2370     		strb	r3, [r4]
 522:../../../applications/examples/lora-gps-example/src/lora-gps-example.c ****   unsigned int      i;
 1861              		.loc 1 522 3 is_stmt 1 view .LVU405
 523:../../../applications/examples/lora-gps-example/src/lora-gps-example.c **** 
 524:../../../applications/examples/lora-gps-example/src/lora-gps-example.c ****   if (!(*result = (unsigned char *)malloc(binsz * 2 + 1)))
 1862              		.loc 1 524 3 view .LVU406
 1863              	.LBB6:
 1864              		.loc 1 524 49 is_stmt 0 view .LVU407
 1865 0018 4FEA4800 		lsl	r0, r8, #1
 1866              		.loc 1 524 36 view .LVU408
 1867 001c 0130     		adds	r0, r0, #1
 1868 001e FFF7FEFF 		bl	malloc
 1869              	.LVL165:
 1870              		.loc 1 524 17 view .LVU409
 1871 0022 3060     		str	r0, [r6]
 1872              		.loc 1 524 6 view .LVU410
 1873 0024 F0B1     		cbz	r0, .L109
 1874              	.LBE6:
ARM GAS  C:\Users\tijsv\AppData\Local\Temp\ccxP5pih.s 			page 52


 525:../../../applications/examples/lora-gps-example/src/lora-gps-example.c ****     return (NULL);
 526:../../../applications/examples/lora-gps-example/src/lora-gps-example.c **** 
 527:../../../applications/examples/lora-gps-example/src/lora-gps-example.c ****   (*result)[binsz * 2] = 0;
 1875              		.loc 1 527 3 is_stmt 1 view .LVU411
 1876              		.loc 1 527 24 is_stmt 0 view .LVU412
 1877 0026 0023     		movs	r3, #0
 1878 0028 00F81830 		strb	r3, [r0, r8, lsl #1]
 528:../../../applications/examples/lora-gps-example/src/lora-gps-example.c **** 
 529:../../../applications/examples/lora-gps-example/src/lora-gps-example.c ****   if (!binsz)
 1879              		.loc 1 529 3 is_stmt 1 view .LVU413
 1880              		.loc 1 529 6 is_stmt 0 view .LVU414
 1881 002c B8F1000F 		cmp	r8, #0
 1882 0030 15D1     		bne	.L111
 530:../../../applications/examples/lora-gps-example/src/lora-gps-example.c ****     return (NULL);
 1883              		.loc 1 530 12 view .LVU415
 1884 0032 0020     		movs	r0, #0
 1885 0034 16E0     		b	.L109
 1886              	.LVL166:
 1887              	.L112:
 531:../../../applications/examples/lora-gps-example/src/lora-gps-example.c **** 
 532:../../../applications/examples/lora-gps-example/src/lora-gps-example.c ****   for (i = 0; i < binsz; i++)
 533:../../../applications/examples/lora-gps-example/src/lora-gps-example.c ****     {
 534:../../../applications/examples/lora-gps-example/src/lora-gps-example.c ****       (*result)[i * 2 + 0] = hex_str[(bin[i] >> 4) & 0x0F];
 1888              		.loc 1 534 7 is_stmt 1 discriminator 3 view .LVU416
 1889              		.loc 1 534 42 is_stmt 0 discriminator 3 view .LVU417
 1890 0036 FA5C     		ldrb	r2, [r7, r3]	@ zero_extendqisi2
 1891              		.loc 1 534 7 discriminator 3 view .LVU418
 1892 0038 3168     		ldr	r1, [r6]
 1893              		.loc 1 534 19 discriminator 3 view .LVU419
 1894 003a 5D00     		lsls	r5, r3, #1
 1895              		.loc 1 534 37 discriminator 3 view .LVU420
 1896 003c 06A8     		add	r0, sp, #24
 1897 003e 00EB1212 		add	r2, r0, r2, lsr #4
 1898 0042 12F8142C 		ldrb	r2, [r2, #-20]	@ zero_extendqisi2
 1899              		.loc 1 534 28 discriminator 3 view .LVU421
 1900 0046 01F81320 		strb	r2, [r1, r3, lsl #1]
 535:../../../applications/examples/lora-gps-example/src/lora-gps-example.c ****       (*result)[i * 2 + 1] = hex_str[(bin[i]     ) & 0x0F];
 1901              		.loc 1 535 7 is_stmt 1 discriminator 3 view .LVU422
 1902              		.loc 1 535 42 is_stmt 0 discriminator 3 view .LVU423
 1903 004a FC5C     		ldrb	r4, [r7, r3]	@ zero_extendqisi2
 1904              		.loc 1 535 52 discriminator 3 view .LVU424
 1905 004c 04F00F04 		and	r4, r4, #15
 1906              		.loc 1 535 8 discriminator 3 view .LVU425
 1907 0050 3268     		ldr	r2, [r6]
 1908              		.loc 1 535 16 discriminator 3 view .LVU426
 1909 0052 0135     		adds	r5, r5, #1
 1910              		.loc 1 535 37 discriminator 3 view .LVU427
 1911 0054 0444     		add	r4, r4, r0
 1912 0056 14F8141C 		ldrb	r1, [r4, #-20]	@ zero_extendqisi2
 1913              		.loc 1 535 28 discriminator 3 view .LVU428
 1914 005a 5155     		strb	r1, [r2, r5]
 532:../../../applications/examples/lora-gps-example/src/lora-gps-example.c ****     {
 1915              		.loc 1 532 26 is_stmt 1 discriminator 3 view .LVU429
 532:../../../applications/examples/lora-gps-example/src/lora-gps-example.c ****     {
 1916              		.loc 1 532 27 is_stmt 0 discriminator 3 view .LVU430
 1917 005c 0133     		adds	r3, r3, #1
 1918              	.LVL167:
ARM GAS  C:\Users\tijsv\AppData\Local\Temp\ccxP5pih.s 			page 53


 1919              	.L111:
 532:../../../applications/examples/lora-gps-example/src/lora-gps-example.c ****     {
 1920              		.loc 1 532 15 is_stmt 1 discriminator 1 view .LVU431
 532:../../../applications/examples/lora-gps-example/src/lora-gps-example.c ****     {
 1921              		.loc 1 532 3 is_stmt 0 discriminator 1 view .LVU432
 1922 005e 4345     		cmp	r3, r8
 1923 0060 E9D3     		bcc	.L112
 536:../../../applications/examples/lora-gps-example/src/lora-gps-example.c ****     }
 537:../../../applications/examples/lora-gps-example/src/lora-gps-example.c ****   return (*result);
 1924              		.loc 1 537 3 is_stmt 1 view .LVU433
 1925              		.loc 1 537 11 is_stmt 0 view .LVU434
 1926 0062 3068     		ldr	r0, [r6]
 1927              	.LVL168:
 1928              	.L109:
 538:../../../applications/examples/lora-gps-example/src/lora-gps-example.c **** }
 1929              		.loc 1 538 1 view .LVU435
 1930 0064 06B0     		add	sp, sp, #24
 1931              	.LCFI30:
 1932              		.cfi_def_cfa_offset 24
 1933              		@ sp needed
 1934 0066 BDE8F081 		pop	{r4, r5, r6, r7, r8, pc}
 1935              	.LVL169:
 1936              	.L116:
 1937              		.loc 1 538 1 view .LVU436
 1938 006a 00BF     		.align	2
 1939              	.L115:
 1940 006c 00000000 		.word	.LC40
 1941              		.cfi_endproc
 1942              	.LFE147:
 1944              		.section	.rodata.Offload_Flash.str1.4,"aMS",%progbits,1
 1945              		.align	2
 1946              	.LC41:
 1947 0000 50726573 		.ascii	"Press BTN2 again within 5 sec to offload flash\015\012"
 1947      73204254 
 1947      4E322061 
 1947      6761696E 
 1947      20776974 
 1948 0030 00       		.ascii	"\000"
 1949 0031 000000   		.align	2
 1950              	.LC42:
 1951 0034 2A2A2A2A 		.ascii	"*****OFFLOADING FLASH*****\015\012\000"
 1951      2A4F4646 
 1951      4C4F4144 
 1951      494E4720 
 1951      464C4153 
 1952 0051 000000   		.align	2
 1953              	.LC43:
 1954 0054 4F66666C 		.ascii	"Offloading a total of %d pages\015\012\000"
 1954      6F616469 
 1954      6E672061 
 1954      20746F74 
 1954      616C206F 
 1955 0075 000000   		.align	2
 1956              	.LC44:
 1957 0078 466C6173 		.ascii	"Flash page %d: %s\015\012\000"
 1957      68207061 
 1957      67652025 
ARM GAS  C:\Users\tijsv\AppData\Local\Temp\ccxP5pih.s 			page 54


 1957      643A2025 
 1957      730D0A00 
 1958              		.align	2
 1959              	.LC45:
 1960 008c 466C6173 		.ascii	"Flash offloaded\015\012\000"
 1960      68206F66 
 1960      666C6F61 
 1960      6465640D 
 1960      0A00
 1961              		.section	.text.Offload_Flash,"ax",%progbits
 1962              		.align	1
 1963              		.global	Offload_Flash
 1964              		.syntax unified
 1965              		.thumb
 1966              		.thumb_func
 1967              		.fpu fpv4-sp-d16
 1969              	Offload_Flash:
 1970              	.LFB142:
 350:../../../applications/examples/lora-gps-example/src/lora-gps-example.c ****   uint32_t startProcessing;
 1971              		.loc 1 350 1 is_stmt 1 view -0
 1972              		.cfi_startproc
 1973              		@ args = 0, pretend = 0, frame = 264
 1974              		@ frame_needed = 0, uses_anonymous_args = 0
 1975 0000 10B5     		push	{r4, lr}
 1976              	.LCFI31:
 1977              		.cfi_def_cfa_offset 8
 1978              		.cfi_offset 4, -8
 1979              		.cfi_offset 14, -4
 1980 0002 C2B0     		sub	sp, sp, #264
 1981              	.LCFI32:
 1982              		.cfi_def_cfa_offset 272
 1983 0004 3EE0     		b	.L126
 1984              	.LVL170:
 1985              	.L128:
 1986              	.LBB7:
 1987              	.LBB8:
 369:../../../applications/examples/lora-gps-example/src/lora-gps-example.c ****           
 1988              		.loc 1 369 11 view .LVU438
 1989 0006 2F48     		ldr	r0, .L129
 1990 0008 FFF7FEFF 		bl	printINF
 1991              	.LVL171:
 371:../../../applications/examples/lora-gps-example/src/lora-gps-example.c ****          osTimerStop(loraWANTimId);
 1992              		.loc 1 371 10 view .LVU439
 1993 000c 2E48     		ldr	r0, .L129+4
 1994 000e FFF7FEFF 		bl	printINF
 1995              	.LVL172:
 372:../../../applications/examples/lora-gps-example/src/lora-gps-example.c **** 
 1996              		.loc 1 372 10 view .LVU440
 1997 0012 2E4B     		ldr	r3, .L129+8
 1998 0014 1868     		ldr	r0, [r3]
 1999 0016 FFF7FEFF 		bl	osTimerStop
 2000              	.LVL173:
 374:../../../applications/examples/lora-gps-example/src/lora-gps-example.c ****           printINF("Offloading a total of %d pages\r\n", current_octa_configuration.flash_index);
 2001              		.loc 1 374 11 view .LVU441
 375:../../../applications/examples/lora-gps-example/src/lora-gps-example.c ****           for(index=0; index<current_octa_configuration.flash_index; index++)
 2002              		.loc 1 375 11 view .LVU442
 2003 001a 2D4B     		ldr	r3, .L129+12
ARM GAS  C:\Users\tijsv\AppData\Local\Temp\ccxP5pih.s 			page 55


 2004 001c 1968     		ldr	r1, [r3]
 2005 001e 2D48     		ldr	r0, .L129+16
 2006 0020 FFF7FEFF 		bl	printINF
 2007              	.LVL174:
 376:../../../applications/examples/lora-gps-example/src/lora-gps-example.c ****           {
 2008              		.loc 1 376 11 view .LVU443
 376:../../../applications/examples/lora-gps-example/src/lora-gps-example.c ****           {
 2009              		.loc 1 376 20 is_stmt 0 view .LVU444
 2010 0024 0024     		movs	r4, #0
 2011              	.LVL175:
 376:../../../applications/examples/lora-gps-example/src/lora-gps-example.c ****           {
 2012              		.loc 1 376 11 view .LVU445
 2013 0026 17E0     		b	.L121
 2014              	.LVL176:
 2015              	.L122:
 2016              	.LBB9:
 378:../../../applications/examples/lora-gps-example/src/lora-gps-example.c ****             uint8_t buffer[OCTA_FLASH_PAGE_SIZE];
 2017              		.loc 1 378 13 is_stmt 1 discriminator 3 view .LVU446
 2018 0028 2046     		mov	r0, r4
 2019 002a FFF7FEFF 		bl	OCTA_FLASH_open
 2020              	.LVL177:
 379:../../../applications/examples/lora-gps-example/src/lora-gps-example.c ****             OCTA_FLASH_read(buffer, OCTA_FLASH_PAGE_SIZE);
 2021              		.loc 1 379 13 discriminator 3 view .LVU447
 380:../../../applications/examples/lora-gps-example/src/lora-gps-example.c ****             uint16_t byteindex;
 2022              		.loc 1 380 13 discriminator 3 view .LVU448
 2023 002e 4FF48071 		mov	r1, #256
 2024 0032 02A8     		add	r0, sp, #8
 2025 0034 FFF7FEFF 		bl	OCTA_FLASH_read
 2026              	.LVL178:
 381:../../../applications/examples/lora-gps-example/src/lora-gps-example.c ****             unsigned char* result;
 2027              		.loc 1 381 13 discriminator 3 view .LVU449
 382:../../../applications/examples/lora-gps-example/src/lora-gps-example.c ****             result = bin_to_strhex((unsigned char *)buffer, OCTA_FLASH_PAGE_SIZE, &result);
 2028              		.loc 1 382 13 discriminator 3 view .LVU450
 383:../../../applications/examples/lora-gps-example/src/lora-gps-example.c ****             printINF("Flash page %d: %s\r\n", index, result);
 2029              		.loc 1 383 13 discriminator 3 view .LVU451
 383:../../../applications/examples/lora-gps-example/src/lora-gps-example.c ****             printINF("Flash page %d: %s\r\n", index, result);
 2030              		.loc 1 383 22 is_stmt 0 discriminator 3 view .LVU452
 2031 0038 01AA     		add	r2, sp, #4
 2032 003a 4FF48071 		mov	r1, #256
 2033 003e 02A8     		add	r0, sp, #8
 2034 0040 FFF7FEFF 		bl	bin_to_strhex
 2035              	.LVL179:
 2036 0044 0246     		mov	r2, r0
 383:../../../applications/examples/lora-gps-example/src/lora-gps-example.c ****             printINF("Flash page %d: %s\r\n", index, result);
 2037              		.loc 1 383 20 discriminator 3 view .LVU453
 2038 0046 0190     		str	r0, [sp, #4]
 384:../../../applications/examples/lora-gps-example/src/lora-gps-example.c ****             free(result); 
 2039              		.loc 1 384 13 is_stmt 1 discriminator 3 view .LVU454
 2040 0048 2146     		mov	r1, r4
 2041 004a 2348     		ldr	r0, .L129+20
 2042 004c FFF7FEFF 		bl	printINF
 2043              	.LVL180:
 385:../../../applications/examples/lora-gps-example/src/lora-gps-example.c ****           }
 2044              		.loc 1 385 13 discriminator 3 view .LVU455
 2045 0050 0198     		ldr	r0, [sp, #4]
 2046 0052 FFF7FEFF 		bl	free
 2047              	.LVL181:
ARM GAS  C:\Users\tijsv\AppData\Local\Temp\ccxP5pih.s 			page 56


 2048              	.LBE9:
 376:../../../applications/examples/lora-gps-example/src/lora-gps-example.c ****           {
 2049              		.loc 1 376 70 discriminator 3 view .LVU456
 376:../../../applications/examples/lora-gps-example/src/lora-gps-example.c ****           {
 2050              		.loc 1 376 75 is_stmt 0 discriminator 3 view .LVU457
 2051 0056 0134     		adds	r4, r4, #1
 2052              	.LVL182:
 2053              	.L121:
 376:../../../applications/examples/lora-gps-example/src/lora-gps-example.c ****           {
 2054              		.loc 1 376 24 is_stmt 1 discriminator 1 view .LVU458
 376:../../../applications/examples/lora-gps-example/src/lora-gps-example.c ****           {
 2055              		.loc 1 376 56 is_stmt 0 discriminator 1 view .LVU459
 2056 0058 1D4B     		ldr	r3, .L129+12
 2057 005a 1B68     		ldr	r3, [r3]
 376:../../../applications/examples/lora-gps-example/src/lora-gps-example.c ****           {
 2058              		.loc 1 376 11 discriminator 1 view .LVU460
 2059 005c A342     		cmp	r3, r4
 2060 005e E3D8     		bhi	.L122
 387:../../../applications/examples/lora-gps-example/src/lora-gps-example.c ****           
 2061              		.loc 1 387 11 is_stmt 1 view .LVU461
 2062 0060 1E48     		ldr	r0, .L129+24
 2063 0062 FFF7FEFF 		bl	printINF
 2064              	.LVL183:
 389:../../../applications/examples/lora-gps-example/src/lora-gps-example.c ****           osTimerStart(loraWANTimId, 30 * 1000);
 2065              		.loc 1 389 11 view .LVU462
 2066 0066 1E48     		ldr	r0, .L129+28
 2067 0068 FFF7FEFF 		bl	printINF
 2068              	.LVL184:
 390:../../../applications/examples/lora-gps-example/src/lora-gps-example.c ****           break;
 2069              		.loc 1 390 11 view .LVU463
 2070 006c 47F23051 		movw	r1, #30000
 2071 0070 164B     		ldr	r3, .L129+8
 2072 0072 1868     		ldr	r0, [r3]
 2073 0074 FFF7FEFF 		bl	osTimerStart
 2074              	.LVL185:
 391:../../../applications/examples/lora-gps-example/src/lora-gps-example.c ****         }
 2075              		.loc 1 391 11 view .LVU464
 2076              	.L123:
 391:../../../applications/examples/lora-gps-example/src/lora-gps-example.c ****         }
 2077              		.loc 1 391 11 is_stmt 0 view .LVU465
 2078              	.LBE8:
 400:../../../applications/examples/lora-gps-example/src/lora-gps-example.c ****     }
 2079              		.loc 1 400 7 is_stmt 1 view .LVU466
 400:../../../applications/examples/lora-gps-example/src/lora-gps-example.c ****     }
 2080              		.loc 1 400 19 is_stmt 0 view .LVU467
 2081 0078 1A4B     		ldr	r3, .L129+32
 2082 007a 0022     		movs	r2, #0
 2083 007c 1A70     		strb	r2, [r3]
 2084              	.L125:
 400:../../../applications/examples/lora-gps-example/src/lora-gps-example.c ****     }
 2085              		.loc 1 400 19 view .LVU468
 2086              	.LBE7:
 406:../../../applications/examples/lora-gps-example/src/lora-gps-example.c ****   }
 2087              		.loc 1 406 5 is_stmt 1 view .LVU469
 2088 007e 0120     		movs	r0, #1
 2089 0080 FFF7FEFF 		bl	osDelay
 2090              	.LVL186:
ARM GAS  C:\Users\tijsv\AppData\Local\Temp\ccxP5pih.s 			page 57


 352:../../../applications/examples/lora-gps-example/src/lora-gps-example.c ****   {
 2091              		.loc 1 352 9 view .LVU470
 2092              	.L126:
 351:../../../applications/examples/lora-gps-example/src/lora-gps-example.c ****   while (1)
 2093              		.loc 1 351 3 view .LVU471
 352:../../../applications/examples/lora-gps-example/src/lora-gps-example.c ****   {
 2094              		.loc 1 352 3 view .LVU472
 358:../../../applications/examples/lora-gps-example/src/lora-gps-example.c ****     if (startProcessing == 1)
 2095              		.loc 1 358 5 view .LVU473
 358:../../../applications/examples/lora-gps-example/src/lora-gps-example.c ****     if (startProcessing == 1)
 2096              		.loc 1 358 23 is_stmt 0 view .LVU474
 2097 0084 4FF0FF31 		mov	r1, #-1
 2098 0088 0120     		movs	r0, #1
 2099 008a FFF7FEFF 		bl	ulTaskNotifyTake
 2100              	.LVL187:
 359:../../../applications/examples/lora-gps-example/src/lora-gps-example.c ****     {
 2101              		.loc 1 359 5 is_stmt 1 view .LVU475
 359:../../../applications/examples/lora-gps-example/src/lora-gps-example.c ****     {
 2102              		.loc 1 359 8 is_stmt 0 view .LVU476
 2103 008e 0128     		cmp	r0, #1
 2104 0090 13D1     		bne	.L118
 2105              	.LBB10:
 362:../../../applications/examples/lora-gps-example/src/lora-gps-example.c ****       uint8_t i = 0;
 2106              		.loc 1 362 7 is_stmt 1 view .LVU477
 2107 0092 1548     		ldr	r0, .L129+36
 2108              	.LVL188:
 362:../../../applications/examples/lora-gps-example/src/lora-gps-example.c ****       uint8_t i = 0;
 2109              		.loc 1 362 7 is_stmt 0 view .LVU478
 2110 0094 FFF7FEFF 		bl	printDBG
 2111              	.LVL189:
 363:../../../applications/examples/lora-gps-example/src/lora-gps-example.c **** 
 2112              		.loc 1 363 7 is_stmt 1 view .LVU479
 365:../../../applications/examples/lora-gps-example/src/lora-gps-example.c ****       {
 2113              		.loc 1 365 7 view .LVU480
 365:../../../applications/examples/lora-gps-example/src/lora-gps-example.c ****       {
 2114              		.loc 1 365 13 is_stmt 0 view .LVU481
 2115 0098 0024     		movs	r4, #0
 2116              	.LVL190:
 2117              	.L119:
 365:../../../applications/examples/lora-gps-example/src/lora-gps-example.c ****       {
 2118              		.loc 1 365 17 is_stmt 1 discriminator 1 view .LVU482
 365:../../../applications/examples/lora-gps-example/src/lora-gps-example.c ****       {
 2119              		.loc 1 365 7 is_stmt 0 discriminator 1 view .LVU483
 2120 009a 042C     		cmp	r4, #4
 2121 009c ECD8     		bhi	.L123
 367:../../../applications/examples/lora-gps-example/src/lora-gps-example.c ****         { 
 2122              		.loc 1 367 9 is_stmt 1 view .LVU484
 367:../../../applications/examples/lora-gps-example/src/lora-gps-example.c ****         { 
 2123              		.loc 1 367 24 is_stmt 0 view .LVU485
 2124 009e 114B     		ldr	r3, .L129+32
 2125 00a0 1B78     		ldrb	r3, [r3]	@ zero_extendqisi2
 367:../../../applications/examples/lora-gps-example/src/lora-gps-example.c ****         { 
 2126              		.loc 1 367 11 view .LVU486
 2127 00a2 022B     		cmp	r3, #2
 2128 00a4 AFD0     		beq	.L128
 395:../../../applications/examples/lora-gps-example/src/lora-gps-example.c ****           osDelay(1000);
 2129              		.loc 1 395 11 is_stmt 1 discriminator 2 view .LVU487
ARM GAS  C:\Users\tijsv\AppData\Local\Temp\ccxP5pih.s 			page 58


 2130 00a6 1148     		ldr	r0, .L129+40
 2131 00a8 FFF7FEFF 		bl	printDBG
 2132              	.LVL191:
 396:../../../applications/examples/lora-gps-example/src/lora-gps-example.c ****         }
 2133              		.loc 1 396 11 discriminator 2 view .LVU488
 2134 00ac 4FF47A70 		mov	r0, #1000
 2135 00b0 FFF7FEFF 		bl	osDelay
 2136              	.LVL192:
 365:../../../applications/examples/lora-gps-example/src/lora-gps-example.c ****       {
 2137              		.loc 1 365 22 discriminator 2 view .LVU489
 365:../../../applications/examples/lora-gps-example/src/lora-gps-example.c ****       {
 2138              		.loc 1 365 23 is_stmt 0 discriminator 2 view .LVU490
 2139 00b4 0134     		adds	r4, r4, #1
 2140              	.LVL193:
 365:../../../applications/examples/lora-gps-example/src/lora-gps-example.c ****       {
 2141              		.loc 1 365 23 discriminator 2 view .LVU491
 2142 00b6 E4B2     		uxtb	r4, r4
 2143              	.LVL194:
 365:../../../applications/examples/lora-gps-example/src/lora-gps-example.c ****       {
 2144              		.loc 1 365 23 discriminator 2 view .LVU492
 2145 00b8 EFE7     		b	.L119
 2146              	.LVL195:
 2147              	.L118:
 365:../../../applications/examples/lora-gps-example/src/lora-gps-example.c ****       {
 2148              		.loc 1 365 23 discriminator 2 view .LVU493
 2149              	.LBE10:
 404:../../../applications/examples/lora-gps-example/src/lora-gps-example.c ****     }
 2150              		.loc 1 404 7 is_stmt 1 view .LVU494
 2151 00ba 0D48     		ldr	r0, .L129+44
 2152              	.LVL196:
 404:../../../applications/examples/lora-gps-example/src/lora-gps-example.c ****     }
 2153              		.loc 1 404 7 is_stmt 0 view .LVU495
 2154 00bc FFF7FEFF 		bl	printERR
 2155              	.LVL197:
 2156 00c0 DDE7     		b	.L125
 2157              	.L130:
 2158 00c2 00BF     		.align	2
 2159              	.L129:
 2160 00c4 34000000 		.word	.LC42
 2161 00c8 54000000 		.word	.LC26
 2162 00cc 00000000 		.word	loraWANTimId
 2163 00d0 00000000 		.word	.LANCHOR9
 2164 00d4 54000000 		.word	.LC43
 2165 00d8 78000000 		.word	.LC44
 2166 00dc 8C000000 		.word	.LC45
 2167 00e0 F4000000 		.word	.LC30
 2168 00e4 00000000 		.word	.LANCHOR3
 2169 00e8 00000000 		.word	.LC41
 2170 00ec 10010000 		.word	.LC31
 2171 00f0 38010000 		.word	.LC33
 2172              		.cfi_endproc
 2173              	.LFE142:
 2175              		.global	default_octa_configuration
 2176              		.global	current_octa_configuration
 2177              		.global	count
 2178              		.global	coordinate
 2179              		.comm	data,256,4
ARM GAS  C:\Users\tijsv\AppData\Local\Temp\ccxP5pih.s 			page 59


 2180              		.comm	rx,256,4
 2181              		.global	NucleoBTN1presses
 2182              		.global	BTN2presses
 2183              		.global	erase_ongoing
 2184              		.global	test_mode_active
 2185              		.global	measurement_ongoing
 2186              		.global	currentLocation
 2187              		.global	hasGPSFix
 2188              		.comm	locationArrayHex,32,4
 2189              		.comm	locationArray,12,4
 2190              		.global	murata_data_ready
 2191              		.global	murata_init
 2192              		.global	LoRaWAN_Counter
 2193              		.comm	threadToNotify,4,4
 2194              		.comm	murata_reset_pin,4,4
 2195              		.comm	murata_wakeup_pin,4,4
 2196              		.comm	currentHdop,4,4
 2197              		.comm	currentLongitude,4,4
 2198              		.comm	currentLatitude,4,4
 2199              		.comm	eraseFlashTaskHandle,4,4
 2200              		.comm	offloadFlashTaskHandle,4,4
 2201              		.comm	murata_rx_process_mutex_id,4,4
 2202              		.comm	txMutexId,4,4
 2203              		.comm	sensor_measurementTimId,4,4
 2204              		.comm	gpsTimId,4,4
 2205              		.comm	moduleCheckTimId,4,4
 2206              		.comm	dash7TimId,4,4
 2207              		.comm	loraWANTimId,4,4
 2208              		.comm	iwdgTimId,4,4
 2209              		.comm	murata_rx_processing_handle,4,4
 2210              		.comm	defaultTaskHandle,4,4
 2211              		.comm	P3_header,44,4
 2212              		.comm	P2_header,44,4
 2213              		.comm	P1_header,44,4
 2214              		.comm	stackversion_patch,1,1
 2215              		.comm	stackversion_minor,1,1
 2216              		.comm	stackversion_major,1,1
 2217              		.comm	appversion_patch,1,1
 2218              		.comm	appversion_minor,1,1
 2219              		.comm	appversion_major,1,1
 2220              		.comm	short_UID,8,8
 2221              		.comm	hard_reset,1,1
 2222              		.comm	wd_reset,1,1
 2223              		.comm	octa_uid,8,8
 2224              		.comm	float_union,4,4
 2225              		.comm	uint16LittleEndian,2,4
 2226              		.comm	int16LittleEndian,2,4
 2227              		.comm	uint32LittleEndian,4,4
 2228              		.comm	int32LittleEndian,4,4
 2229              		.comm	rtosprintHandle,4,4
 2230              		.comm	hrtc,36,4
 2231              		.comm	FLASH_SPI,100,4
 2232              		.comm	P3_SPI,100,4
 2233              		.comm	P2_SPI,100,4
 2234              		.comm	P1_SPI,100,4
 2235              		.comm	P3_I2C,76,4
 2236              		.comm	P2_I2C,76,4
ARM GAS  C:\Users\tijsv\AppData\Local\Temp\ccxP5pih.s 			page 60


 2237              		.comm	P1_I2C,76,4
 2238              		.comm	common_I2C,76,4
 2239              		.comm	P3_UART,120,4
 2240              		.comm	P2_UART,120,4
 2241              		.comm	P1_UART,120,4
 2242              		.comm	FTDI_UART,120,4
 2243              		.comm	BLE_UART,120,4
 2244              		.comm	USB_UART,120,4
 2245              		.comm	hiwdg,16,4
 2246              		.comm	P3_DIO6,8,4
 2247              		.comm	P3_DIO5,8,4
 2248              		.comm	P3_DIO4,8,4
 2249              		.comm	P3_DIO3,8,4
 2250              		.comm	P3_DIO2,8,4
 2251              		.comm	P3_DIO1,8,4
 2252              		.comm	P2_DIO6,8,4
 2253              		.comm	P2_DIO5,8,4
 2254              		.comm	P2_DIO4,8,4
 2255              		.comm	P2_DIO3,8,4
 2256              		.comm	P2_DIO2,8,4
 2257              		.comm	P2_DIO1,8,4
 2258              		.comm	P1_DIO6,8,4
 2259              		.comm	P1_DIO5,8,4
 2260              		.comm	P1_DIO4,8,4
 2261              		.comm	P1_DIO3,8,4
 2262              		.comm	P1_DIO2,8,4
 2263              		.comm	P1_DIO1,8,4
 2264              		.comm	htim6,64,4
 2265              		.comm	htim1,64,4
 2266              		.section	.rodata
 2267              		.align	2
 2268              		.set	.LANCHOR12,. + 0
 2269              	.LC37:
 2270 0000 00000000 		.word	.LC0
 2271 0004 00000000 		.word	murata_process_rx_response
 2272 0008 0000     		.short	0
 2273 000a 0000     		.space	2
 2274 000c 00000000 		.word	0
 2275 0010 00020000 		.word	512
 2276              	.LC38:
 2277 0014 18000000 		.word	.LC2
 2278 0018 00000000 		.word	Offload_Flash
 2279 001c 0000     		.short	0
 2280 001e 0000     		.space	2
 2281 0020 00000000 		.word	0
 2282 0024 00020000 		.word	512
 2283              	.LC39:
 2284 0028 28000000 		.word	.LC4
 2285 002c 00000000 		.word	Erase_Flash
 2286 0030 0000     		.short	0
 2287 0032 0000     		.space	2
 2288 0034 00000000 		.word	0
 2289 0038 00020000 		.word	512
 2290              		.section	.bss.BTN2presses,"aw",%nobits
 2291              		.set	.LANCHOR3,. + 0
 2294              	BTN2presses:
 2295 0000 00       		.space	1
ARM GAS  C:\Users\tijsv\AppData\Local\Temp\ccxP5pih.s 			page 61


 2296              		.section	.bss.LoRaWAN_Counter,"aw",%nobits
 2297              		.align	1
 2298              		.set	.LANCHOR8,. + 0
 2301              	LoRaWAN_Counter:
 2302 0000 0000     		.space	2
 2303              		.section	.bss.NucleoBTN1presses,"aw",%nobits
 2304              		.set	.LANCHOR4,. + 0
 2307              	NucleoBTN1presses:
 2308 0000 00       		.space	1
 2309              		.section	.bss.count,"aw",%nobits
 2312              	count:
 2313 0000 00       		.space	1
 2314              		.section	.bss.currentLocation,"aw",%nobits
 2315              		.align	2
 2316              		.set	.LANCHOR7,. + 0
 2319              	currentLocation:
 2320 0000 00000000 		.space	12
 2320      00000000 
 2320      00000000 
 2321              		.section	.bss.current_octa_configuration,"aw",%nobits
 2322              		.align	2
 2323              		.set	.LANCHOR9,. + 0
 2326              	current_octa_configuration:
 2327 0000 00000000 		.space	20
 2327      00000000 
 2327      00000000 
 2327      00000000 
 2327      00000000 
 2328              		.section	.bss.default_octa_configuration,"aw",%nobits
 2329              		.align	2
 2330              		.set	.LANCHOR10,. + 0
 2333              	default_octa_configuration:
 2334 0000 00000000 		.space	20
 2334      00000000 
 2334      00000000 
 2334      00000000 
 2334      00000000 
 2335              		.section	.bss.erase_ongoing,"aw",%nobits
 2336              		.set	.LANCHOR2,. + 0
 2339              	erase_ongoing:
 2340 0000 00       		.space	1
 2341              		.section	.bss.hasGPSFix,"aw",%nobits
 2342              		.set	.LANCHOR6,. + 0
 2345              	hasGPSFix:
 2346 0000 00       		.space	1
 2347              		.section	.bss.measurement_ongoing,"aw",%nobits
 2348              		.set	.LANCHOR1,. + 0
 2351              	measurement_ongoing:
 2352 0000 00       		.space	1
 2353              		.section	.bss.murata_data_ready,"aw",%nobits
 2354              		.set	.LANCHOR0,. + 0
 2357              	murata_data_ready:
 2358 0000 00       		.space	1
 2359              		.section	.bss.murata_init,"aw",%nobits
 2360              		.set	.LANCHOR5,. + 0
 2363              	murata_init:
 2364 0000 00       		.space	1
ARM GAS  C:\Users\tijsv\AppData\Local\Temp\ccxP5pih.s 			page 62


 2365              		.section	.bss.test_mode_active,"aw",%nobits
 2368              	test_mode_active:
 2369 0000 00       		.space	1
 2370              		.section	.data.configurationbuffer.12667,"aw"
 2371              		.align	2
 2372              		.set	.LANCHOR11,. + 0
 2375              	configurationbuffer.12667:
 2376 0000 FF00     		.ascii	"\377\000"
 2377 0002 00000000 		.space	254
 2377      00000000 
 2377      00000000 
 2377      00000000 
 2377      00000000 
 2378              		.section	.data.coordinate,"aw"
 2381              	coordinate:
 2382 0000 01       		.byte	1
 2383              		.text
 2384              	.Letext0:
 2385              		.file 2 "c:\\program files (x86)\\gnu tools arm embedded\\9 2019-q4-major\\arm-none-eabi\\include\
 2386              		.file 3 "c:\\program files (x86)\\gnu tools arm embedded\\9 2019-q4-major\\arm-none-eabi\\include\
 2387              		.file 4 "../../../core/ST/CMSIS/Include/core_cm4.h"
 2388              		.file 5 "../../../core/ST/CMSIS/Device/ST/STM32L4xx/Include/system_stm32l4xx.h"
 2389              		.file 6 "../../../core/ST/CMSIS/Device/ST/STM32L4xx/Include/stm32l496xx.h"
 2390              		.file 7 "../../../core/ST/STM32L4xx_HAL_Driver/Inc/stm32l4xx_hal_def.h"
 2391              		.file 8 "../../../core/ST/STM32L4xx_HAL_Driver/Inc/stm32l4xx_hal_gpio.h"
 2392              		.file 9 "../../../core/ST/STM32L4xx_HAL_Driver/Inc/stm32l4xx_hal_dma.h"
 2393              		.file 10 "../../../core/ST/STM32L4xx_HAL_Driver/Inc/stm32l4xx_hal_i2c.h"
 2394              		.file 11 "../../../core/ST/STM32L4xx_HAL_Driver/Inc/stm32l4xx_hal_iwdg.h"
 2395              		.file 12 "../../../core/ST/STM32L4xx_HAL_Driver/Inc/stm32l4xx_hal_rtc.h"
 2396              		.file 13 "../../../core/ST/STM32L4xx_HAL_Driver/Inc/stm32l4xx_hal_spi.h"
 2397              		.file 14 "../../../core/ST/STM32L4xx_HAL_Driver/Inc/stm32l4xx_hal_tim.h"
 2398              		.file 15 "../../../core/ST/STM32L4xx_HAL_Driver/Inc/stm32l4xx_hal_uart.h"
 2399              		.file 16 "../../../core/ST/STM32L4xx_HAL_Driver/Inc/stm32l4xx_hal.h"
 2400              		.file 17 "../../../core/ST/Middlewares/Third_Party/FreeRTOS/Source/portable/GCC/ARM_CM4F/portmacro
 2401              		.file 18 "../../../core/ST/Middlewares/Third_Party/FreeRTOS/Source/include/task.h"
 2402              		.file 19 "../../../core/ST/Middlewares/Third_Party/FreeRTOS/Source/include/timers.h"
 2403              		.file 20 "../../../core/ST/Middlewares/Third_Party/FreeRTOS/Source/include/queue.h"
 2404              		.file 21 "../../../core/ST/Middlewares/Third_Party/FreeRTOS/Source/include/semphr.h"
 2405              		.file 22 "../../../core/ST/Middlewares/Third_Party/FreeRTOS/Source/CMSIS_RTOS/cmsis_os.h"
 2406              		.file 23 "../../../core/platform/octa/inc/sysclock.h"
 2407              		.file 24 "../../../core/platform/octa/inc/gpio.h"
 2408              		.file 25 "../../../core/platform/octa/inc/iwdg.h"
 2409              		.file 26 "../../../core/platform/octa/inc/uart.h"
 2410              		.file 27 "../../../core/platform/octa/inc/i2c.h"
 2411              		.file 28 "../../../core/platform/octa/inc/spi.h"
 2412              		.file 29 "../../../core/platform/octa/inc/rtc.h"
 2413              		.file 30 "../../../core/platform/octa/inc/rtosincludes.h"
 2414              		.file 31 "c:\\program files (x86)\\gnu tools arm embedded\\9 2019-q4-major\\arm-none-eabi\\include
 2415              		.file 32 "c:\\program files (x86)\\gnu tools arm embedded\\9 2019-q4-major\\arm-none-eabi\\include
 2416              		.file 33 "c:\\program files (x86)\\gnu tools arm embedded\\9 2019-q4-major\\lib\\gcc\\arm-none-eab
 2417              		.file 34 "c:\\program files (x86)\\gnu tools arm embedded\\9 2019-q4-major\\arm-none-eabi\\include
 2418              		.file 35 "../../../core/platform/common/inc/datatypes.h"
 2419              		.file 36 "../../../core/platform/octa/inc/platform.h"
 2420              		.file 37 "../../../applications/examples/lora-gps-example/inc/lora-gps-example.h"
 2421              		.file 38 "../../../shields/gps-firefly/inc/fireflyx1.h"
 2422              		.file 39 "../../../shields/Murata-dualstack/inc/murata.h"
 2423              		.file 40 "<built-in>"
ARM GAS  C:\Users\tijsv\AppData\Local\Temp\ccxP5pih.s 			page 63


 2424              		.file 41 "../../../core/platform/common/inc/print.h"
 2425              		.file 42 "../../../core/drivers/octa-flash/inc/octa-flash.h"
 2426              		.file 43 "../../../core/ST/STM32L4xx_HAL_Driver/Inc/stm32l4xx_hal_cortex.h"
 2427              		.file 44 "../../../core/platform/common/inc/payloadparser.h"
 2428              		.file 45 "c:\\program files (x86)\\gnu tools arm embedded\\9 2019-q4-major\\arm-none-eabi\\include
ARM GAS  C:\Users\tijsv\AppData\Local\Temp\ccxP5pih.s 			page 64

