ARM GAS  C:\Users\tijsv\AppData\Local\Temp\ccstivEo.s 			page 1


   1              		.cpu cortex-m4
   2              		.eabi_attribute 27, 1
   3              		.eabi_attribute 28, 1
   4              		.eabi_attribute 20, 1
   5              		.eabi_attribute 21, 1
   6              		.eabi_attribute 23, 3
   7              		.eabi_attribute 24, 1
   8              		.eabi_attribute 25, 1
   9              		.eabi_attribute 26, 1
  10              		.eabi_attribute 30, 1
  11              		.eabi_attribute 34, 1
  12              		.eabi_attribute 18, 4
  13              		.file	"murata.c"
  14              		.text
  15              	.Ltext0:
  16              		.cfi_sections	.debug_frame
  17              		.section	.rodata.on_modem_command_completed_callback.str1.4,"aMS",%progbits,1
  18              		.align	2
  19              	.LC0:
  20 0000 4D757261 		.ascii	"Murata modem command with tag %i completed (success"
  20      7461206D 
  20      6F64656D 
  20      20636F6D 
  20      6D616E64 
  21 0033 203D2025 		.ascii	" = %i)\015\012\000"
  21      69290D0A 
  21      00
  22              		.section	.text.on_modem_command_completed_callback,"ax",%progbits
  23              		.align	1
  24              		.global	on_modem_command_completed_callback
  25              		.arch armv7e-m
  26              		.syntax unified
  27              		.thumb
  28              		.thumb_func
  29              		.fpu fpv4-sp-d16
  31              	on_modem_command_completed_callback:
  32              	.LVL0:
  33              	.LFB132:
  34              		.file 1 "../../../shields/Murata-dualstack/src/murata.c"
   1:../../../shields/Murata-dualstack/src/murata.c **** #include "platform.h"
   2:../../../shields/Murata-dualstack/src/murata.c **** #include "murata.h"
   3:../../../shields/Murata-dualstack/src/murata.c **** 
   4:../../../shields/Murata-dualstack/src/murata.c **** struct OCTA_header murataHeader;
   5:../../../shields/Murata-dualstack/src/murata.c **** 
   6:../../../shields/Murata-dualstack/src/murata.c **** session_config_t session_config_lora =
   7:../../../shields/Murata-dualstack/src/murata.c ****     {
   8:../../../shields/Murata-dualstack/src/murata.c ****         .interface_type = LORAWAN_OTAA,
   9:../../../shields/Murata-dualstack/src/murata.c ****         .lorawan_session_config_otaa = {
  10:../../../shields/Murata-dualstack/src/murata.c ****             .devEUI = { 0xFF, 0xFF, 0xFF, 0xFF, 0xFF, 0xFF, 0xFF, 0xFF },
  11:../../../shields/Murata-dualstack/src/murata.c ****             .appEUI = LORAWAN_APP_EUI,
  12:../../../shields/Murata-dualstack/src/murata.c ****             .appKey = LORAWAN_APP_KEY,
  13:../../../shields/Murata-dualstack/src/murata.c ****             .request_ack = false,
  14:../../../shields/Murata-dualstack/src/murata.c ****             .application_port = 1,
  15:../../../shields/Murata-dualstack/src/murata.c ****             .adr_enabled = true,
  16:../../../shields/Murata-dualstack/src/murata.c ****             .data_rate = 0}};
  17:../../../shields/Murata-dualstack/src/murata.c **** 
  18:../../../shields/Murata-dualstack/src/murata.c **** // change qos_resp_mode to SESSION_RESP_MODE_ALL if you want all gateways to receive your message
ARM GAS  C:\Users\tijsv\AppData\Local\Temp\ccstivEo.s 			page 2


  19:../../../shields/Murata-dualstack/src/murata.c **** // SESSION_RESP_MODE_PREFERRED to only communicate with one (the preferred) gateway
  20:../../../shields/Murata-dualstack/src/murata.c **** session_config_t session_config_d7 = {
  21:../../../shields/Murata-dualstack/src/murata.c ****   .interface_type = DASH7,
  22:../../../shields/Murata-dualstack/src/murata.c ****   .d7ap_session_config = {
  23:../../../shields/Murata-dualstack/src/murata.c ****     .qos = {
  24:../../../shields/Murata-dualstack/src/murata.c ****         .qos_resp_mode = SESSION_RESP_MODE_PREFERRED, //SESSION_RESP_MODE_ALL,
  25:../../../shields/Murata-dualstack/src/murata.c ****         .qos_retry_mode = SESSION_RETRY_MODE_NO
  26:../../../shields/Murata-dualstack/src/murata.c ****     },
  27:../../../shields/Murata-dualstack/src/murata.c ****     .dormant_timeout = 0,
  28:../../../shields/Murata-dualstack/src/murata.c ****     .addressee = {
  29:../../../shields/Murata-dualstack/src/murata.c ****         .ctrl = {
  30:../../../shields/Murata-dualstack/src/murata.c ****             .nls_method = AES_NONE,
  31:../../../shields/Murata-dualstack/src/murata.c ****             .id_type = ID_TYPE_NOID
  32:../../../shields/Murata-dualstack/src/murata.c ****         },
  33:../../../shields/Murata-dualstack/src/murata.c ****         .access_class = 0x01,
  34:../../../shields/Murata-dualstack/src/murata.c ****         .id = {0},
  35:../../../shields/Murata-dualstack/src/murata.c ****     },
  36:../../../shields/Murata-dualstack/src/murata.c ****   }
  37:../../../shields/Murata-dualstack/src/murata.c **** };
  38:../../../shields/Murata-dualstack/src/murata.c **** 
  39:../../../shields/Murata-dualstack/src/murata.c **** /* Init murata lorawan modem */
  40:../../../shields/Murata-dualstack/src/murata.c **** modem_callbacks_t modem_callbacks = {
  41:../../../shields/Murata-dualstack/src/murata.c ****     .command_completed_callback = &on_modem_command_completed_callback,
  42:../../../shields/Murata-dualstack/src/murata.c ****     .return_file_data_callback = &on_modem_return_file_data_callback,
  43:../../../shields/Murata-dualstack/src/murata.c ****     .write_file_data_callback = &on_modem_write_file_data_callback,
  44:../../../shields/Murata-dualstack/src/murata.c ****     .modem_interface_status_callback = &on_modem_interface_status_callback,
  45:../../../shields/Murata-dualstack/src/murata.c ****     .modem_rebooted_callback = &on_modem_reboot_callback,
  46:../../../shields/Murata-dualstack/src/murata.c **** };
  47:../../../shields/Murata-dualstack/src/murata.c **** 
  48:../../../shields/Murata-dualstack/src/murata.c **** void on_modem_command_completed_callback(bool with_error, uint8_t tag_id)
  49:../../../shields/Murata-dualstack/src/murata.c **** {
  35              		.loc 1 49 1 view -0
  36              		.cfi_startproc
  37              		@ args = 0, pretend = 0, frame = 0
  38              		@ frame_needed = 0, uses_anonymous_args = 0
  39              		.loc 1 49 1 is_stmt 0 view .LVU1
  40 0000 08B5     		push	{r3, lr}
  41              	.LCFI0:
  42              		.cfi_def_cfa_offset 8
  43              		.cfi_offset 3, -8
  44              		.cfi_offset 14, -4
  50:../../../shields/Murata-dualstack/src/murata.c ****     printINF("Murata modem command with tag %i completed (success = %i)\r\n", tag_id, !with_error);
  45              		.loc 1 50 5 is_stmt 1 view .LVU2
  46 0002 80F00102 		eor	r2, r0, #1
  47 0006 0248     		ldr	r0, .L3
  48              	.LVL1:
  49              		.loc 1 50 5 is_stmt 0 view .LVU3
  50 0008 FFF7FEFF 		bl	printINF
  51              	.LVL2:
  51:../../../shields/Murata-dualstack/src/murata.c **** }
  52              		.loc 1 51 1 view .LVU4
  53 000c 08BD     		pop	{r3, pc}
  54              	.L4:
  55 000e 00BF     		.align	2
  56              	.L3:
  57 0010 00000000 		.word	.LC0
  58              		.cfi_endproc
ARM GAS  C:\Users\tijsv\AppData\Local\Temp\ccstivEo.s 			page 3


  59              	.LFE132:
  61              		.section	.rodata.on_modem_return_file_data_callback.str1.4,"aMS",%progbits,1
  62              		.align	2
  63              	.LC1:
  64 0000 4D757261 		.ascii	"Murata modem return file data file %i offset %li si"
  64      7461206D 
  64      6F64656D 
  64      20726574 
  64      75726E20 
  65 0033 7A652025 		.ascii	"ze %li buffer %p\015\012\000"
  65      6C692062 
  65      75666665 
  65      72202570 
  65      0D0A00
  66              		.section	.text.on_modem_return_file_data_callback,"ax",%progbits
  67              		.align	1
  68              		.global	on_modem_return_file_data_callback
  69              		.syntax unified
  70              		.thumb
  71              		.thumb_func
  72              		.fpu fpv4-sp-d16
  74              	on_modem_return_file_data_callback:
  75              	.LVL3:
  76              	.LFB133:
  52:../../../shields/Murata-dualstack/src/murata.c **** 
  53:../../../shields/Murata-dualstack/src/murata.c **** void on_modem_return_file_data_callback(uint8_t file_id, uint32_t offset, uint32_t size, uint8_t *o
  54:../../../shields/Murata-dualstack/src/murata.c **** {
  77              		.loc 1 54 1 is_stmt 1 view -0
  78              		.cfi_startproc
  79              		@ args = 0, pretend = 0, frame = 0
  80              		@ frame_needed = 0, uses_anonymous_args = 0
  81              		.loc 1 54 1 is_stmt 0 view .LVU6
  82 0000 00B5     		push	{lr}
  83              	.LCFI1:
  84              		.cfi_def_cfa_offset 4
  85              		.cfi_offset 14, -4
  86 0002 83B0     		sub	sp, sp, #12
  87              	.LCFI2:
  88              		.cfi_def_cfa_offset 16
  55:../../../shields/Murata-dualstack/src/murata.c ****     printINF("Murata modem return file data file %i offset %li size %li buffer %p\r\n", file_id, of
  89              		.loc 1 55 5 is_stmt 1 view .LVU7
  90 0004 0093     		str	r3, [sp]
  91 0006 1346     		mov	r3, r2
  92              	.LVL4:
  93              		.loc 1 55 5 is_stmt 0 view .LVU8
  94 0008 0A46     		mov	r2, r1
  95              	.LVL5:
  96              		.loc 1 55 5 view .LVU9
  97 000a 0146     		mov	r1, r0
  98              	.LVL6:
  99              		.loc 1 55 5 view .LVU10
 100 000c 0248     		ldr	r0, .L7
 101              	.LVL7:
 102              		.loc 1 55 5 view .LVU11
 103 000e FFF7FEFF 		bl	printINF
 104              	.LVL8:
  56:../../../shields/Murata-dualstack/src/murata.c **** }
ARM GAS  C:\Users\tijsv\AppData\Local\Temp\ccstivEo.s 			page 4


 105              		.loc 1 56 1 view .LVU12
 106 0012 03B0     		add	sp, sp, #12
 107              	.LCFI3:
 108              		.cfi_def_cfa_offset 4
 109              		@ sp needed
 110 0014 5DF804FB 		ldr	pc, [sp], #4
 111              	.L8:
 112              		.align	2
 113              	.L7:
 114 0018 00000000 		.word	.LC1
 115              		.cfi_endproc
 116              	.LFE133:
 118              		.section	.rodata.on_modem_write_file_data_callback.str1.4,"aMS",%progbits,1
 119              		.align	2
 120              	.LC2:
 121 0000 4D757261 		.ascii	"Murata modem write file data file %i offset %li siz"
 121      7461206D 
 121      6F64656D 
 121      20777269 
 121      74652066 
 122 0033 6520256C 		.ascii	"e %li buffer %p\015\012\000"
 122      69206275 
 122      66666572 
 122      2025700D 
 122      0A00
 123              		.section	.text.on_modem_write_file_data_callback,"ax",%progbits
 124              		.align	1
 125              		.global	on_modem_write_file_data_callback
 126              		.syntax unified
 127              		.thumb
 128              		.thumb_func
 129              		.fpu fpv4-sp-d16
 131              	on_modem_write_file_data_callback:
 132              	.LVL9:
 133              	.LFB134:
  57:../../../shields/Murata-dualstack/src/murata.c **** 
  58:../../../shields/Murata-dualstack/src/murata.c **** void on_modem_write_file_data_callback(uint8_t file_id, uint32_t offset, uint32_t size, uint8_t *ou
  59:../../../shields/Murata-dualstack/src/murata.c **** {
 134              		.loc 1 59 1 is_stmt 1 view -0
 135              		.cfi_startproc
 136              		@ args = 0, pretend = 0, frame = 0
 137              		@ frame_needed = 0, uses_anonymous_args = 0
 138              		.loc 1 59 1 is_stmt 0 view .LVU14
 139 0000 00B5     		push	{lr}
 140              	.LCFI4:
 141              		.cfi_def_cfa_offset 4
 142              		.cfi_offset 14, -4
 143 0002 83B0     		sub	sp, sp, #12
 144              	.LCFI5:
 145              		.cfi_def_cfa_offset 16
  60:../../../shields/Murata-dualstack/src/murata.c ****     printINF("Murata modem write file data file %i offset %li size %li buffer %p\r\n", file_id, off
 146              		.loc 1 60 5 is_stmt 1 view .LVU15
 147 0004 0093     		str	r3, [sp]
 148 0006 1346     		mov	r3, r2
 149              	.LVL10:
 150              		.loc 1 60 5 is_stmt 0 view .LVU16
 151 0008 0A46     		mov	r2, r1
ARM GAS  C:\Users\tijsv\AppData\Local\Temp\ccstivEo.s 			page 5


 152              	.LVL11:
 153              		.loc 1 60 5 view .LVU17
 154 000a 0146     		mov	r1, r0
 155              	.LVL12:
 156              		.loc 1 60 5 view .LVU18
 157 000c 0248     		ldr	r0, .L11
 158              	.LVL13:
 159              		.loc 1 60 5 view .LVU19
 160 000e FFF7FEFF 		bl	printINF
 161              	.LVL14:
  61:../../../shields/Murata-dualstack/src/murata.c **** }
 162              		.loc 1 61 1 view .LVU20
 163 0012 03B0     		add	sp, sp, #12
 164              	.LCFI6:
 165              		.cfi_def_cfa_offset 4
 166              		@ sp needed
 167 0014 5DF804FB 		ldr	pc, [sp], #4
 168              	.L12:
 169              		.align	2
 170              	.L11:
 171 0018 00000000 		.word	.LC2
 172              		.cfi_endproc
 173              	.LFE134:
 175              		.section	.rodata.on_modem_interface_status_callback.str1.4,"aMS",%progbits,1
 176              		.align	2
 177              	.LC3:
 178 0000 4C6F5261 		.ascii	"LoRaWAN interface status: attemps = %d, error state"
 178      57414E20 
 178      696E7465 
 178      72666163 
 178      65207374 
 179 0033 203D2025 		.ascii	" = %d, duty cycle wait time = %d \015\012\000"
 179      642C2064 
 179      75747920 
 179      6379636C 
 179      65207761 
 180 0057 00       		.align	2
 181              	.LC4:
 182 0058 44617368 		.ascii	"Dash7 interface status: channel.header =  %d, chann"
 182      3720696E 
 182      74657266 
 182      61636520 
 182      73746174 
 183 008b 656C2E63 		.ascii	"el.center_freq_index = %d, rx_level = %d, link_budg"
 183      656E7465 
 183      725F6672 
 183      65715F69 
 183      6E646578 
 184 00be 6574203D 		.ascii	"et = %d, link_quality = %d, target_rx_level = %d, f"
 184      2025642C 
 184      206C696E 
 184      6B5F7175 
 184      616C6974 
 185 00f1 69666F5F 		.ascii	"ifo_token = %d, seqnr = %d, response_to = %d, respo"
 185      746F6B65 
 185      6E203D20 
 185      25642C20 
ARM GAS  C:\Users\tijsv\AppData\Local\Temp\ccstivEo.s 			page 6


 185      7365716E 
 186 0124 6E73655F 		.ascii	"nse_expected = %d \015\012\000"
 186      65787065 
 186      63746564 
 186      203D2025 
 186      64200D0A 
 187              		.section	.text.on_modem_interface_status_callback,"ax",%progbits
 188              		.align	1
 189              		.global	on_modem_interface_status_callback
 190              		.syntax unified
 191              		.thumb
 192              		.thumb_func
 193              		.fpu fpv4-sp-d16
 195              	on_modem_interface_status_callback:
 196              	.LVL15:
 197              	.LFB135:
  62:../../../shields/Murata-dualstack/src/murata.c **** 
  63:../../../shields/Murata-dualstack/src/murata.c **** void on_modem_interface_status_callback(alp_itf_id_t interface_type, uint8_t* data)
  64:../../../shields/Murata-dualstack/src/murata.c **** {
 198              		.loc 1 64 1 is_stmt 1 view -0
 199              		.cfi_startproc
 200              		@ args = 0, pretend = 0, frame = 24
 201              		@ frame_needed = 0, uses_anonymous_args = 0
 202              		.loc 1 64 1 is_stmt 0 view .LVU22
 203 0000 70B5     		push	{r4, r5, r6, lr}
 204              	.LCFI7:
 205              		.cfi_def_cfa_offset 16
 206              		.cfi_offset 4, -16
 207              		.cfi_offset 5, -12
 208              		.cfi_offset 6, -8
 209              		.cfi_offset 14, -4
 210 0002 8EB0     		sub	sp, sp, #56
 211              	.LCFI8:
 212              		.cfi_def_cfa_offset 72
 213 0004 0C46     		mov	r4, r1
  65:../../../shields/Murata-dualstack/src/murata.c ****     if((interface_type==ALP_ITF_ID_LORAWAN_ABP)||(interface_type==ALP_ITF_ID_LORAWAN_OTAA))
 214              		.loc 1 65 5 is_stmt 1 view .LVU23
 215              		.loc 1 65 48 is_stmt 0 view .LVU24
 216 0006 831E     		subs	r3, r0, #2
 217 0008 DBB2     		uxtb	r3, r3
 218              		.loc 1 65 7 view .LVU25
 219 000a 012B     		cmp	r3, #1
 220 000c 03D9     		bls	.L17
  66:../../../shields/Murata-dualstack/src/murata.c ****     {
  67:../../../shields/Murata-dualstack/src/murata.c ****         lorawan_session_result_t interface_status = *((lorawan_session_result_t*)data);
  68:../../../shields/Murata-dualstack/src/murata.c ****         printDBG("LoRaWAN interface status: attemps = %d, error state = %d, duty cycle wait time = 
  69:../../../shields/Murata-dualstack/src/murata.c ****                                                                                                    
  70:../../../shields/Murata-dualstack/src/murata.c ****                                                                                                    
  71:../../../shields/Murata-dualstack/src/murata.c ****     }
  72:../../../shields/Murata-dualstack/src/murata.c ****     else if(interface_type==ALP_ITF_ID_D7ASP)
 221              		.loc 1 72 10 is_stmt 1 view .LVU26
 222              		.loc 1 72 12 is_stmt 0 view .LVU27
 223 000e D728     		cmp	r0, #215
 224 0010 0AD0     		beq	.L18
 225              	.LVL16:
 226              	.L13:
  73:../../../shields/Murata-dualstack/src/murata.c ****     {
ARM GAS  C:\Users\tijsv\AppData\Local\Temp\ccstivEo.s 			page 7


  74:../../../shields/Murata-dualstack/src/murata.c ****         d7ap_session_result_t interface_status = *((d7ap_session_result_t*)data);
  75:../../../shields/Murata-dualstack/src/murata.c ****         printDBG("Dash7 interface status: channel.header =  %d, channel.center_freq_index = %d, rx_
  76:../../../shields/Murata-dualstack/src/murata.c ****                                 interface_status.channel.channel_header, 
  77:../../../shields/Murata-dualstack/src/murata.c ****                                 interface_status.channel.center_freq_index, 
  78:../../../shields/Murata-dualstack/src/murata.c ****                                 interface_status.rx_level,
  79:../../../shields/Murata-dualstack/src/murata.c ****                                 interface_status.link_budget,
  80:../../../shields/Murata-dualstack/src/murata.c ****                                 interface_status.link_quality,
  81:../../../shields/Murata-dualstack/src/murata.c ****                                 interface_status.target_rx_level,
  82:../../../shields/Murata-dualstack/src/murata.c ****                                 interface_status.fifo_token,
  83:../../../shields/Murata-dualstack/src/murata.c ****                                 interface_status.seqnr,
  84:../../../shields/Murata-dualstack/src/murata.c ****                                 interface_status.response_to,
  85:../../../shields/Murata-dualstack/src/murata.c ****                                 interface_status.response_expected);
  86:../../../shields/Murata-dualstack/src/murata.c ****     }
  87:../../../shields/Murata-dualstack/src/murata.c **** }
 227              		.loc 1 87 1 view .LVU28
 228 0012 0EB0     		add	sp, sp, #56
 229              	.LCFI9:
 230              		.cfi_remember_state
 231              		.cfi_def_cfa_offset 16
 232              		@ sp needed
 233 0014 70BD     		pop	{r4, r5, r6, pc}
 234              	.LVL17:
 235              	.L17:
 236              	.LCFI10:
 237              		.cfi_restore_state
 238              	.LBB2:
  67:../../../shields/Murata-dualstack/src/murata.c ****         printDBG("LoRaWAN interface status: attemps = %d, error state = %d, duty cycle wait time = 
 239              		.loc 1 67 9 is_stmt 1 view .LVU29
  67:../../../shields/Murata-dualstack/src/murata.c ****         printDBG("LoRaWAN interface status: attemps = %d, error state = %d, duty cycle wait time = 
 240              		.loc 1 67 34 is_stmt 0 view .LVU30
 241 0016 0868     		ldr	r0, [r1]	@ unaligned
 242              	.LVL18:
  68:../../../shields/Murata-dualstack/src/murata.c ****                                                                                                    
 243              		.loc 1 68 9 is_stmt 1 view .LVU31
 244 0018 030C     		lsrs	r3, r0, #16
 245 001a C0F30722 		ubfx	r2, r0, #8, #8
 246 001e C1B2     		uxtb	r1, r0
 247              	.LVL19:
  68:../../../shields/Murata-dualstack/src/murata.c ****                                                                                                    
 248              		.loc 1 68 9 is_stmt 0 view .LVU32
 249 0020 1648     		ldr	r0, .L19
 250 0022 FFF7FEFF 		bl	printDBG
 251              	.LVL20:
 252              	.LBE2:
 253 0026 F4E7     		b	.L13
 254              	.LVL21:
 255              	.L18:
 256              	.LBB3:
  74:../../../shields/Murata-dualstack/src/murata.c ****         printDBG("Dash7 interface status: channel.header =  %d, channel.center_freq_index = %d, rx_
 257              		.loc 1 74 9 is_stmt 1 view .LVU33
  74:../../../shields/Murata-dualstack/src/murata.c ****         printDBG("Dash7 interface status: channel.header =  %d, channel.center_freq_index = %d, rx_
 258              		.loc 1 74 31 is_stmt 0 view .LVU34
 259 0028 08AD     		add	r5, sp, #32
 260 002a 0868     		ldr	r0, [r1]	@ unaligned
 261              	.LVL22:
  74:../../../shields/Murata-dualstack/src/murata.c ****         printDBG("Dash7 interface status: channel.header =  %d, channel.center_freq_index = %d, rx_
 262              		.loc 1 74 31 view .LVU35
ARM GAS  C:\Users\tijsv\AppData\Local\Temp\ccstivEo.s 			page 8


 263 002c 4968     		ldr	r1, [r1, #4]	@ unaligned
 264              	.LVL23:
  74:../../../shields/Murata-dualstack/src/murata.c ****         printDBG("Dash7 interface status: channel.header =  %d, channel.center_freq_index = %d, rx_
 265              		.loc 1 74 31 view .LVU36
 266 002e A268     		ldr	r2, [r4, #8]	@ unaligned
 267 0030 E368     		ldr	r3, [r4, #12]	@ unaligned
 268 0032 0FC5     		stmia	r5!, {r0, r1, r2, r3}
 269 0034 A28A     		ldrh	r2, [r4, #20]	@ unaligned
 270 0036 A37D     		ldrb	r3, [r4, #22]	@ zero_extendqisi2
 271 0038 AA80     		strh	r2, [r5, #4]	@ unaligned
 272 003a AB71     		strb	r3, [r5, #6]
  75:../../../shields/Murata-dualstack/src/murata.c ****                                 interface_status.channel.channel_header, 
 273              		.loc 1 75 9 is_stmt 1 view .LVU37
  79:../../../shields/Murata-dualstack/src/murata.c ****                                 interface_status.link_quality,
 274              		.loc 1 79 49 is_stmt 0 view .LVU38
 275 003c 9DF82530 		ldrb	r3, [sp, #37]	@ zero_extendqisi2
  80:../../../shields/Murata-dualstack/src/murata.c ****                                 interface_status.target_rx_level,
 276              		.loc 1 80 49 view .LVU39
 277 0040 9DF82620 		ldrb	r2, [sp, #38]	@ zero_extendqisi2
  81:../../../shields/Murata-dualstack/src/murata.c ****                                 interface_status.fifo_token,
 278              		.loc 1 81 49 view .LVU40
 279 0044 9DF82710 		ldrb	r1, [sp, #39]	@ zero_extendqisi2
  82:../../../shields/Murata-dualstack/src/murata.c ****                                 interface_status.seqnr,
 280              		.loc 1 82 49 view .LVU41
 281 0048 9DF82900 		ldrb	r0, [sp, #41]	@ zero_extendqisi2
  83:../../../shields/Murata-dualstack/src/murata.c ****                                 interface_status.response_to,
 282              		.loc 1 83 49 view .LVU42
 283 004c 9DF82A40 		ldrb	r4, [sp, #42]	@ zero_extendqisi2
 284              	.LVL24:
  84:../../../shields/Murata-dualstack/src/murata.c ****                                 interface_status.response_expected);
 285              		.loc 1 84 49 view .LVU43
 286 0050 9DF82B50 		ldrb	r5, [sp, #43]	@ zero_extendqisi2
  85:../../../shields/Murata-dualstack/src/murata.c ****     }
 287              		.loc 1 85 49 view .LVU44
 288 0054 9DF82C60 		ldrb	r6, [sp, #44]	@ zero_extendqisi2
  75:../../../shields/Murata-dualstack/src/murata.c ****                                 interface_status.channel.channel_header, 
 289              		.loc 1 75 9 view .LVU45
 290 0058 0696     		str	r6, [sp, #24]
 291 005a 0595     		str	r5, [sp, #20]
 292 005c 0494     		str	r4, [sp, #16]
 293 005e 0390     		str	r0, [sp, #12]
 294 0060 0291     		str	r1, [sp, #8]
 295 0062 0192     		str	r2, [sp, #4]
 296 0064 0093     		str	r3, [sp]
 297 0066 9DF82430 		ldrb	r3, [sp, #36]	@ zero_extendqisi2
 298 006a BDF82220 		ldrh	r2, [sp, #34]
 299 006e 9DF82010 		ldrb	r1, [sp, #32]	@ zero_extendqisi2
 300 0072 0348     		ldr	r0, .L19+4
 301 0074 FFF7FEFF 		bl	printDBG
 302              	.LVL25:
 303              	.LBE3:
 304              		.loc 1 87 1 view .LVU46
 305 0078 CBE7     		b	.L13
 306              	.L20:
 307 007a 00BF     		.align	2
 308              	.L19:
 309 007c 00000000 		.word	.LC3
ARM GAS  C:\Users\tijsv\AppData\Local\Temp\ccstivEo.s 			page 9


 310 0080 58000000 		.word	.LC4
 311              		.cfi_endproc
 312              	.LFE135:
 314              		.section	.rodata.on_modem_reboot_callback.str1.4,"aMS",%progbits,1
 315              		.align	2
 316              	.LC5:
 317 0000 4D757261 		.ascii	"Murata murata-dual modem has rebooted \015\012\000"
 317      7461206D 
 317      75726174 
 317      612D6475 
 317      616C206D 
 318              		.section	.text.on_modem_reboot_callback,"ax",%progbits
 319              		.align	1
 320              		.global	on_modem_reboot_callback
 321              		.syntax unified
 322              		.thumb
 323              		.thumb_func
 324              		.fpu fpv4-sp-d16
 326              	on_modem_reboot_callback:
 327              	.LFB136:
  88:../../../shields/Murata-dualstack/src/murata.c **** 
  89:../../../shields/Murata-dualstack/src/murata.c **** void on_modem_reboot_callback(void)
  90:../../../shields/Murata-dualstack/src/murata.c **** {
 328              		.loc 1 90 1 is_stmt 1 view -0
 329              		.cfi_startproc
 330              		@ args = 0, pretend = 0, frame = 0
 331              		@ frame_needed = 0, uses_anonymous_args = 0
 332 0000 08B5     		push	{r3, lr}
 333              	.LCFI11:
 334              		.cfi_def_cfa_offset 8
 335              		.cfi_offset 3, -8
 336              		.cfi_offset 14, -4
  91:../../../shields/Murata-dualstack/src/murata.c ****     printINF("Murata murata-dual modem has rebooted \r\n");
 337              		.loc 1 91 5 view .LVU48
 338 0002 0348     		ldr	r0, .L23
 339 0004 FFF7FEFF 		bl	printINF
 340              	.LVL26:
  92:../../../shields/Murata-dualstack/src/murata.c ****     modem_reinit();
 341              		.loc 1 92 5 view .LVU49
 342 0008 FFF7FEFF 		bl	modem_reinit
 343              	.LVL27:
  93:../../../shields/Murata-dualstack/src/murata.c **** }
 344              		.loc 1 93 1 is_stmt 0 view .LVU50
 345 000c 08BD     		pop	{r3, pc}
 346              	.L24:
 347 000e 00BF     		.align	2
 348              	.L23:
 349 0010 00000000 		.word	.LC5
 350              		.cfi_endproc
 351              	.LFE136:
 353              		.section	.text.Murata_rxCallback,"ax",%progbits
 354              		.align	1
 355              		.global	Murata_rxCallback
 356              		.syntax unified
 357              		.thumb
 358              		.thumb_func
 359              		.fpu fpv4-sp-d16
ARM GAS  C:\Users\tijsv\AppData\Local\Temp\ccstivEo.s 			page 10


 361              	Murata_rxCallback:
 362              	.LFB146:
  94:../../../shields/Murata-dualstack/src/murata.c **** 
  95:../../../shields/Murata-dualstack/src/murata.c **** uint8_t Murata_Initialize(uint64_t octa_UID)
  96:../../../shields/Murata-dualstack/src/murata.c **** {    
  97:../../../shields/Murata-dualstack/src/murata.c ****     printINF("***Initializing murata dualstack modem driver***\r\n");
  98:../../../shields/Murata-dualstack/src/murata.c **** 
  99:../../../shields/Murata-dualstack/src/murata.c ****     #ifndef MURATA_CONNECTOR
 100:../../../shields/Murata-dualstack/src/murata.c ****         printERR("No MURATA_CONNECTOR provided in Makefile\r\n");
 101:../../../shields/Murata-dualstack/src/murata.c ****         return 0;
 102:../../../shields/Murata-dualstack/src/murata.c ****     #else
 103:../../../shields/Murata-dualstack/src/murata.c ****         murataHeader = platform_getHeader((uint8_t)MURATA_CONNECTOR);
 104:../../../shields/Murata-dualstack/src/murata.c ****         if(!murataHeader.active)
 105:../../../shields/Murata-dualstack/src/murata.c ****         {
 106:../../../shields/Murata-dualstack/src/murata.c ****             printERR("Invalid MURATA_CONNECTOR provided in Makefile\r\n");
 107:../../../shields/Murata-dualstack/src/murata.c ****             return 0;  
 108:../../../shields/Murata-dualstack/src/murata.c ****         }
 109:../../../shields/Murata-dualstack/src/murata.c ****         else
 110:../../../shields/Murata-dualstack/src/murata.c ****             printINF("Murata on P%d, initializing UART\r\n", (uint8_t)MURATA_CONNECTOR);         
 111:../../../shields/Murata-dualstack/src/murata.c ****     #endif
 112:../../../shields/Murata-dualstack/src/murata.c ****     #ifdef LORAWAN_APP_NAME
 113:../../../shields/Murata-dualstack/src/murata.c ****         printINF("Using LoRaWAN keys of %s application \r\n", LORAWAN_APP_NAME);
 114:../../../shields/Murata-dualstack/src/murata.c ****     #endif
 115:../../../shields/Murata-dualstack/src/murata.c **** 
 116:../../../shields/Murata-dualstack/src/murata.c ****     //copy OCTA UID into lorawan otaa DEV EUI
 117:../../../shields/Murata-dualstack/src/murata.c ****     memcpy(session_config_lora.lorawan_session_config_otaa.devEUI, &octa_UID, sizeof(octa_UID));
 118:../../../shields/Murata-dualstack/src/murata.c **** 
 119:../../../shields/Murata-dualstack/src/murata.c ****     // Initialize UART peripheral with driver baudrate
 120:../../../shields/Murata-dualstack/src/murata.c ****     platform_initialize_UART(murataHeader, MURATA_BAUDRATE);
 121:../../../shields/Murata-dualstack/src/murata.c **** 
 122:../../../shields/Murata-dualstack/src/murata.c ****     murata_wakeup_pin = murataHeader.DIO1;
 123:../../../shields/Murata-dualstack/src/murata.c ****     murata_reset_pin = murataHeader.DIO6;
 124:../../../shields/Murata-dualstack/src/murata.c ****     
 125:../../../shields/Murata-dualstack/src/murata.c ****     modem_interface_init(murataHeader.uartHandle);
 126:../../../shields/Murata-dualstack/src/murata.c ****     modem_cb_init(&modem_callbacks);
 127:../../../shields/Murata-dualstack/src/murata.c ****     
 128:../../../shields/Murata-dualstack/src/murata.c ****     UART_SetShieldCallback(&Murata_rxCallback, (uint8_t)MURATA_CONNECTOR);
 129:../../../shields/Murata-dualstack/src/murata.c ****     printINF("Toggling reset pin of murata, starting with clean session\r\n");
 130:../../../shields/Murata-dualstack/src/murata.c ****     Murata_toggleResetPin();
 131:../../../shields/Murata-dualstack/src/murata.c **** 
 132:../../../shields/Murata-dualstack/src/murata.c ****     printINF("Murata module init OK \r\n\r\n");
 133:../../../shields/Murata-dualstack/src/murata.c ****     return 1;
 134:../../../shields/Murata-dualstack/src/murata.c **** }
 135:../../../shields/Murata-dualstack/src/murata.c **** 
 136:../../../shields/Murata-dualstack/src/murata.c **** void murata_wakeup(void)
 137:../../../shields/Murata-dualstack/src/murata.c **** {
 138:../../../shields/Murata-dualstack/src/murata.c ****     HAL_GPIO_WritePin(murata_wakeup_pin->PORT, murata_wakeup_pin->PIN, GPIO_PIN_SET);
 139:../../../shields/Murata-dualstack/src/murata.c **** }
 140:../../../shields/Murata-dualstack/src/murata.c **** 
 141:../../../shields/Murata-dualstack/src/murata.c **** void murata_release(void)
 142:../../../shields/Murata-dualstack/src/murata.c **** {
 143:../../../shields/Murata-dualstack/src/murata.c ****     HAL_GPIO_WritePin(murata_wakeup_pin->PORT, murata_wakeup_pin->PIN, GPIO_PIN_SET);
 144:../../../shields/Murata-dualstack/src/murata.c **** }
 145:../../../shields/Murata-dualstack/src/murata.c **** 
 146:../../../shields/Murata-dualstack/src/murata.c **** void Murata_toggleResetPin(void)
 147:../../../shields/Murata-dualstack/src/murata.c **** {
 148:../../../shields/Murata-dualstack/src/murata.c ****     HAL_GPIO_WritePin(murata_reset_pin->PORT, murata_reset_pin->PIN, GPIO_PIN_RESET);
ARM GAS  C:\Users\tijsv\AppData\Local\Temp\ccstivEo.s 			page 11


 149:../../../shields/Murata-dualstack/src/murata.c ****     HAL_Delay(50);
 150:../../../shields/Murata-dualstack/src/murata.c ****     HAL_GPIO_WritePin(murata_reset_pin->PORT, murata_reset_pin->PIN, GPIO_PIN_SET);
 151:../../../shields/Murata-dualstack/src/murata.c ****     HAL_Delay(1000);
 152:../../../shields/Murata-dualstack/src/murata.c **** }
 153:../../../shields/Murata-dualstack/src/murata.c **** 
 154:../../../shields/Murata-dualstack/src/murata.c **** uint8_t Murata_SetProcessingThread(osThreadId aThreadId)
 155:../../../shields/Murata-dualstack/src/murata.c **** {
 156:../../../shields/Murata-dualstack/src/murata.c ****     threadToNotify = aThreadId;
 157:../../../shields/Murata-dualstack/src/murata.c ****     return 1;
 158:../../../shields/Murata-dualstack/src/murata.c **** }
 159:../../../shields/Murata-dualstack/src/murata.c **** 
 160:../../../shields/Murata-dualstack/src/murata.c **** uint8_t Murata_LoRaWAN_Join(void)
 161:../../../shields/Murata-dualstack/src/murata.c **** {
 162:../../../shields/Murata-dualstack/src/murata.c ****     uint8_t status = 0;
 163:../../../shields/Murata-dualstack/src/murata.c ****     status = modem_send_unsolicited_response(0x40, 0, 0, 0, &session_config_lora);
 164:../../../shields/Murata-dualstack/src/murata.c ****     printINF("Joining the LoRaWAN Network\r\n");
 165:../../../shields/Murata-dualstack/src/murata.c ****     return status;
 166:../../../shields/Murata-dualstack/src/murata.c **** }
 167:../../../shields/Murata-dualstack/src/murata.c **** 
 168:../../../shields/Murata-dualstack/src/murata.c **** uint8_t Murata_LoRaWAN_Send(uint8_t *buffer, uint8_t length)
 169:../../../shields/Murata-dualstack/src/murata.c **** {
 170:../../../shields/Murata-dualstack/src/murata.c ****     uint8_t status = 0;
 171:../../../shields/Murata-dualstack/src/murata.c ****     status = modem_send_unsolicited_response(0x40, 0, length, (uint8_t *)buffer, &session_config_lo
 172:../../../shields/Murata-dualstack/src/murata.c ****     printINF("Sending LoRaWAN message with payload size %d\r\n", length);
 173:../../../shields/Murata-dualstack/src/murata.c ****     return status;
 174:../../../shields/Murata-dualstack/src/murata.c **** }
 175:../../../shields/Murata-dualstack/src/murata.c **** 
 176:../../../shields/Murata-dualstack/src/murata.c **** uint8_t Murata_Dash7_Send(uint8_t *buffer, uint8_t length)
 177:../../../shields/Murata-dualstack/src/murata.c **** {
 178:../../../shields/Murata-dualstack/src/murata.c ****     uint8_t status = 0;
 179:../../../shields/Murata-dualstack/src/murata.c ****     status = modem_send_unsolicited_response(0x40, 0, length, (uint8_t *)buffer, &session_config_d7
 180:../../../shields/Murata-dualstack/src/murata.c ****     printINF("Sending Dash7 message with payload size %d\r\n", length);
 181:../../../shields/Murata-dualstack/src/murata.c ****     return status;
 182:../../../shields/Murata-dualstack/src/murata.c **** }
 183:../../../shields/Murata-dualstack/src/murata.c **** 
 184:../../../shields/Murata-dualstack/src/murata.c **** uint8_t Murata_process_fifo(void)
 185:../../../shields/Murata-dualstack/src/murata.c **** {
 186:../../../shields/Murata-dualstack/src/murata.c ****     return modem_process_fifo();
 187:../../../shields/Murata-dualstack/src/murata.c **** }
 188:../../../shields/Murata-dualstack/src/murata.c **** 
 189:../../../shields/Murata-dualstack/src/murata.c **** void Murata_rxCallback(void)
 190:../../../shields/Murata-dualstack/src/murata.c **** {
 363              		.loc 1 190 1 is_stmt 1 view -0
 364              		.cfi_startproc
 365              		@ args = 0, pretend = 0, frame = 0
 366              		@ frame_needed = 0, uses_anonymous_args = 0
 367 0000 08B5     		push	{r3, lr}
 368              	.LCFI12:
 369              		.cfi_def_cfa_offset 8
 370              		.cfi_offset 3, -8
 371              		.cfi_offset 14, -4
 191:../../../shields/Murata-dualstack/src/murata.c ****     uart_rx_cb();
 372              		.loc 1 191 5 view .LVU52
 373 0002 FFF7FEFF 		bl	uart_rx_cb
 374              	.LVL28:
 192:../../../shields/Murata-dualstack/src/murata.c ****     #if USE_RTOS_SCHEDULER
 193:../../../shields/Murata-dualstack/src/murata.c ****         {
ARM GAS  C:\Users\tijsv\AppData\Local\Temp\ccstivEo.s 			page 12


 194:../../../shields/Murata-dualstack/src/murata.c ****             //start rx processing thread
 195:../../../shields/Murata-dualstack/src/murata.c ****             if(osKernelRunning())
 375              		.loc 1 195 13 view .LVU53
 376              		.loc 1 195 16 is_stmt 0 view .LVU54
 377 0006 FFF7FEFF 		bl	osKernelRunning
 378              	.LVL29:
 379              		.loc 1 195 15 view .LVU55
 380 000a 00B9     		cbnz	r0, .L28
 381              	.L25:
 196:../../../shields/Murata-dualstack/src/murata.c ****                 RTOS_Send_Notification(threadToNotify);
 197:../../../shields/Murata-dualstack/src/murata.c ****         }
 198:../../../shields/Murata-dualstack/src/murata.c ****     #endif
 199:../../../shields/Murata-dualstack/src/murata.c **** }
 382              		.loc 1 199 1 view .LVU56
 383 000c 08BD     		pop	{r3, pc}
 384              	.L28:
 196:../../../shields/Murata-dualstack/src/murata.c ****                 RTOS_Send_Notification(threadToNotify);
 385              		.loc 1 196 17 is_stmt 1 view .LVU57
 386 000e 024B     		ldr	r3, .L29
 387 0010 1868     		ldr	r0, [r3]
 388 0012 FFF7FEFF 		bl	RTOS_Send_Notification
 389              	.LVL30:
 390              		.loc 1 199 1 is_stmt 0 view .LVU58
 391 0016 F9E7     		b	.L25
 392              	.L30:
 393              		.align	2
 394              	.L29:
 395 0018 00000000 		.word	threadToNotify
 396              		.cfi_endproc
 397              	.LFE146:
 399              		.section	.text.murata_wakeup,"ax",%progbits
 400              		.align	1
 401              		.global	murata_wakeup
 402              		.syntax unified
 403              		.thumb
 404              		.thumb_func
 405              		.fpu fpv4-sp-d16
 407              	murata_wakeup:
 408              	.LFB138:
 137:../../../shields/Murata-dualstack/src/murata.c ****     HAL_GPIO_WritePin(murata_wakeup_pin->PORT, murata_wakeup_pin->PIN, GPIO_PIN_SET);
 409              		.loc 1 137 1 is_stmt 1 view -0
 410              		.cfi_startproc
 411              		@ args = 0, pretend = 0, frame = 0
 412              		@ frame_needed = 0, uses_anonymous_args = 0
 413 0000 08B5     		push	{r3, lr}
 414              	.LCFI13:
 415              		.cfi_def_cfa_offset 8
 416              		.cfi_offset 3, -8
 417              		.cfi_offset 14, -4
 138:../../../shields/Murata-dualstack/src/murata.c **** }
 418              		.loc 1 138 5 view .LVU60
 138:../../../shields/Murata-dualstack/src/murata.c **** }
 419              		.loc 1 138 40 is_stmt 0 view .LVU61
 420 0002 044B     		ldr	r3, .L33
 421 0004 1B68     		ldr	r3, [r3]
 138:../../../shields/Murata-dualstack/src/murata.c **** }
 422              		.loc 1 138 5 view .LVU62
ARM GAS  C:\Users\tijsv\AppData\Local\Temp\ccstivEo.s 			page 13


 423 0006 0122     		movs	r2, #1
 424 0008 9988     		ldrh	r1, [r3, #4]
 425 000a 1868     		ldr	r0, [r3]
 426 000c FFF7FEFF 		bl	HAL_GPIO_WritePin
 427              	.LVL31:
 139:../../../shields/Murata-dualstack/src/murata.c **** 
 428              		.loc 1 139 1 view .LVU63
 429 0010 08BD     		pop	{r3, pc}
 430              	.L34:
 431 0012 00BF     		.align	2
 432              	.L33:
 433 0014 00000000 		.word	murata_wakeup_pin
 434              		.cfi_endproc
 435              	.LFE138:
 437              		.section	.text.murata_release,"ax",%progbits
 438              		.align	1
 439              		.global	murata_release
 440              		.syntax unified
 441              		.thumb
 442              		.thumb_func
 443              		.fpu fpv4-sp-d16
 445              	murata_release:
 446              	.LFB139:
 142:../../../shields/Murata-dualstack/src/murata.c ****     HAL_GPIO_WritePin(murata_wakeup_pin->PORT, murata_wakeup_pin->PIN, GPIO_PIN_SET);
 447              		.loc 1 142 1 is_stmt 1 view -0
 448              		.cfi_startproc
 449              		@ args = 0, pretend = 0, frame = 0
 450              		@ frame_needed = 0, uses_anonymous_args = 0
 451 0000 08B5     		push	{r3, lr}
 452              	.LCFI14:
 453              		.cfi_def_cfa_offset 8
 454              		.cfi_offset 3, -8
 455              		.cfi_offset 14, -4
 143:../../../shields/Murata-dualstack/src/murata.c **** }
 456              		.loc 1 143 5 view .LVU65
 143:../../../shields/Murata-dualstack/src/murata.c **** }
 457              		.loc 1 143 40 is_stmt 0 view .LVU66
 458 0002 044B     		ldr	r3, .L37
 459 0004 1B68     		ldr	r3, [r3]
 143:../../../shields/Murata-dualstack/src/murata.c **** }
 460              		.loc 1 143 5 view .LVU67
 461 0006 0122     		movs	r2, #1
 462 0008 9988     		ldrh	r1, [r3, #4]
 463 000a 1868     		ldr	r0, [r3]
 464 000c FFF7FEFF 		bl	HAL_GPIO_WritePin
 465              	.LVL32:
 144:../../../shields/Murata-dualstack/src/murata.c **** 
 466              		.loc 1 144 1 view .LVU68
 467 0010 08BD     		pop	{r3, pc}
 468              	.L38:
 469 0012 00BF     		.align	2
 470              	.L37:
 471 0014 00000000 		.word	murata_wakeup_pin
 472              		.cfi_endproc
 473              	.LFE139:
 475              		.section	.text.Murata_toggleResetPin,"ax",%progbits
 476              		.align	1
ARM GAS  C:\Users\tijsv\AppData\Local\Temp\ccstivEo.s 			page 14


 477              		.global	Murata_toggleResetPin
 478              		.syntax unified
 479              		.thumb
 480              		.thumb_func
 481              		.fpu fpv4-sp-d16
 483              	Murata_toggleResetPin:
 484              	.LFB140:
 147:../../../shields/Murata-dualstack/src/murata.c ****     HAL_GPIO_WritePin(murata_reset_pin->PORT, murata_reset_pin->PIN, GPIO_PIN_RESET);
 485              		.loc 1 147 1 is_stmt 1 view -0
 486              		.cfi_startproc
 487              		@ args = 0, pretend = 0, frame = 0
 488              		@ frame_needed = 0, uses_anonymous_args = 0
 489 0000 10B5     		push	{r4, lr}
 490              	.LCFI15:
 491              		.cfi_def_cfa_offset 8
 492              		.cfi_offset 4, -8
 493              		.cfi_offset 14, -4
 148:../../../shields/Murata-dualstack/src/murata.c ****     HAL_Delay(50);
 494              		.loc 1 148 5 view .LVU70
 148:../../../shields/Murata-dualstack/src/murata.c ****     HAL_Delay(50);
 495              		.loc 1 148 39 is_stmt 0 view .LVU71
 496 0002 0A4C     		ldr	r4, .L41
 497 0004 2368     		ldr	r3, [r4]
 148:../../../shields/Murata-dualstack/src/murata.c ****     HAL_Delay(50);
 498              		.loc 1 148 5 view .LVU72
 499 0006 0022     		movs	r2, #0
 500 0008 9988     		ldrh	r1, [r3, #4]
 501 000a 1868     		ldr	r0, [r3]
 502 000c FFF7FEFF 		bl	HAL_GPIO_WritePin
 503              	.LVL33:
 149:../../../shields/Murata-dualstack/src/murata.c ****     HAL_GPIO_WritePin(murata_reset_pin->PORT, murata_reset_pin->PIN, GPIO_PIN_SET);
 504              		.loc 1 149 5 is_stmt 1 view .LVU73
 505 0010 3220     		movs	r0, #50
 506 0012 FFF7FEFF 		bl	HAL_Delay
 507              	.LVL34:
 150:../../../shields/Murata-dualstack/src/murata.c ****     HAL_Delay(1000);
 508              		.loc 1 150 5 view .LVU74
 150:../../../shields/Murata-dualstack/src/murata.c ****     HAL_Delay(1000);
 509              		.loc 1 150 39 is_stmt 0 view .LVU75
 510 0016 2368     		ldr	r3, [r4]
 150:../../../shields/Murata-dualstack/src/murata.c ****     HAL_Delay(1000);
 511              		.loc 1 150 5 view .LVU76
 512 0018 0122     		movs	r2, #1
 513 001a 9988     		ldrh	r1, [r3, #4]
 514 001c 1868     		ldr	r0, [r3]
 515 001e FFF7FEFF 		bl	HAL_GPIO_WritePin
 516              	.LVL35:
 151:../../../shields/Murata-dualstack/src/murata.c **** }
 517              		.loc 1 151 5 is_stmt 1 view .LVU77
 518 0022 4FF47A70 		mov	r0, #1000
 519 0026 FFF7FEFF 		bl	HAL_Delay
 520              	.LVL36:
 152:../../../shields/Murata-dualstack/src/murata.c **** 
 521              		.loc 1 152 1 is_stmt 0 view .LVU78
 522 002a 10BD     		pop	{r4, pc}
 523              	.L42:
 524              		.align	2
ARM GAS  C:\Users\tijsv\AppData\Local\Temp\ccstivEo.s 			page 15


 525              	.L41:
 526 002c 00000000 		.word	murata_reset_pin
 527              		.cfi_endproc
 528              	.LFE140:
 530              		.section	.rodata.Murata_Initialize.str1.4,"aMS",%progbits,1
 531              		.align	2
 532              	.LC6:
 533 0000 2A2A2A49 		.ascii	"***Initializing murata dualstack modem driver***\015"
 533      6E697469 
 533      616C697A 
 533      696E6720 
 533      6D757261 
 534 0031 0A00     		.ascii	"\012\000"
 535 0033 00       		.align	2
 536              	.LC7:
 537 0034 496E7661 		.ascii	"Invalid MURATA_CONNECTOR provided in Makefile\015\012"
 537      6C696420 
 537      4D555241 
 537      54415F43 
 537      4F4E4E45 
 538 0063 00       		.ascii	"\000"
 539              		.align	2
 540              	.LC8:
 541 0064 4D757261 		.ascii	"Murata on P%d, initializing UART\015\012\000"
 541      7461206F 
 541      6E205025 
 541      642C2069 
 541      6E697469 
 542 0087 00       		.align	2
 543              	.LC9:
 544 0088 57696E64 		.ascii	"Windshield project\000"
 544      73686965 
 544      6C642070 
 544      726F6A65 
 544      637400
 545 009b 00       		.align	2
 546              	.LC10:
 547 009c 5573696E 		.ascii	"Using LoRaWAN keys of %s application \015\012\000"
 547      67204C6F 
 547      52615741 
 547      4E206B65 
 547      7973206F 
 548              		.align	2
 549              	.LC11:
 550 00c4 546F6767 		.ascii	"Toggling reset pin of murata, starting with clean s"
 550      6C696E67 
 550      20726573 
 550      65742070 
 550      696E206F 
 551 00f7 65737369 		.ascii	"ession\015\012\000"
 551      6F6E0D0A 
 551      00
 552              		.align	2
 553              	.LC12:
 554 0100 4D757261 		.ascii	"Murata module init OK \015\012\015\012\000"
 554      7461206D 
 554      6F64756C 
ARM GAS  C:\Users\tijsv\AppData\Local\Temp\ccstivEo.s 			page 16


 554      6520696E 
 554      6974204F 
 555              		.section	.text.Murata_Initialize,"ax",%progbits
 556              		.align	1
 557              		.global	Murata_Initialize
 558              		.syntax unified
 559              		.thumb
 560              		.thumb_func
 561              		.fpu fpv4-sp-d16
 563              	Murata_Initialize:
 564              	.LVL37:
 565              	.LFB137:
  96:../../../shields/Murata-dualstack/src/murata.c ****     printINF("***Initializing murata dualstack modem driver***\r\n");
 566              		.loc 1 96 1 is_stmt 1 view -0
 567              		.cfi_startproc
 568              		@ args = 0, pretend = 0, frame = 56
 569              		@ frame_needed = 0, uses_anonymous_args = 0
  96:../../../shields/Murata-dualstack/src/murata.c ****     printINF("***Initializing murata dualstack modem driver***\r\n");
 570              		.loc 1 96 1 is_stmt 0 view .LVU80
 571 0000 70B5     		push	{r4, r5, r6, lr}
 572              	.LCFI16:
 573              		.cfi_def_cfa_offset 16
 574              		.cfi_offset 4, -16
 575              		.cfi_offset 5, -12
 576              		.cfi_offset 6, -8
 577              		.cfi_offset 14, -4
 578 0002 96B0     		sub	sp, sp, #88
 579              	.LCFI17:
 580              		.cfi_def_cfa_offset 104
 581 0004 CDE91401 		strd	r0, [sp, #80]
  97:../../../shields/Murata-dualstack/src/murata.c **** 
 582              		.loc 1 97 5 is_stmt 1 view .LVU81
 583 0008 2A48     		ldr	r0, .L48
 584              	.LVL38:
  97:../../../shields/Murata-dualstack/src/murata.c **** 
 585              		.loc 1 97 5 is_stmt 0 view .LVU82
 586 000a FFF7FEFF 		bl	printINF
 587              	.LVL39:
 103:../../../shields/Murata-dualstack/src/murata.c ****         if(!murataHeader.active)
 588              		.loc 1 103 9 is_stmt 1 view .LVU83
 103:../../../shields/Murata-dualstack/src/murata.c ****         if(!murataHeader.active)
 589              		.loc 1 103 24 is_stmt 0 view .LVU84
 590 000e 2A4E     		ldr	r6, .L48+4
 591 0010 0321     		movs	r1, #3
 592 0012 08A8     		add	r0, sp, #32
 593 0014 FFF7FEFF 		bl	platform_getHeader
 594              	.LVL40:
 595 0018 3546     		mov	r5, r6
 596 001a 08AC     		add	r4, sp, #32
 597 001c 0FCC     		ldmia	r4!, {r0, r1, r2, r3}
 598 001e 0FC5     		stmia	r5!, {r0, r1, r2, r3}
 599 0020 0FCC     		ldmia	r4!, {r0, r1, r2, r3}
 600 0022 0FC5     		stmia	r5!, {r0, r1, r2, r3}
 601 0024 94E80700 		ldm	r4, {r0, r1, r2}
 602 0028 85E80700 		stm	r5, {r0, r1, r2}
 104:../../../shields/Murata-dualstack/src/murata.c ****         {
 603              		.loc 1 104 9 is_stmt 1 view .LVU85
ARM GAS  C:\Users\tijsv\AppData\Local\Temp\ccstivEo.s 			page 17


 104:../../../shields/Murata-dualstack/src/murata.c ****         {
 604              		.loc 1 104 25 is_stmt 0 view .LVU86
 605 002c 96F82840 		ldrb	r4, [r6, #40]	@ zero_extendqisi2
 104:../../../shields/Murata-dualstack/src/murata.c ****         {
 606              		.loc 1 104 11 view .LVU87
 607 0030 002C     		cmp	r4, #0
 608 0032 3AD0     		beq	.L47
 110:../../../shields/Murata-dualstack/src/murata.c ****     #endif
 609              		.loc 1 110 13 is_stmt 1 view .LVU88
 610 0034 0321     		movs	r1, #3
 611 0036 2148     		ldr	r0, .L48+8
 612 0038 FFF7FEFF 		bl	printINF
 613              	.LVL41:
 113:../../../shields/Murata-dualstack/src/murata.c ****     #endif
 614              		.loc 1 113 9 view .LVU89
 615 003c 2049     		ldr	r1, .L48+12
 616 003e 2148     		ldr	r0, .L48+16
 617 0040 FFF7FEFF 		bl	printINF
 618              	.LVL42:
 117:../../../shields/Murata-dualstack/src/murata.c **** 
 619              		.loc 1 117 5 view .LVU90
 620 0044 204B     		ldr	r3, .L48+20
 621 0046 16AA     		add	r2, sp, #88
 622 0048 12E90300 		ldmdb	r2, {r0, r1}
 623 004c 83E80300 		stm	r3, {r0, r1}
 120:../../../shields/Murata-dualstack/src/murata.c **** 
 624              		.loc 1 120 5 view .LVU91
 625 0050 194E     		ldr	r6, .L48+4
 626 0052 4FF4E133 		mov	r3, #115200
 627 0056 0793     		str	r3, [sp, #28]
 628 0058 6C46     		mov	r4, sp
 629 005a 06F11005 		add	r5, r6, #16
 630 005e 0FCD     		ldmia	r5!, {r0, r1, r2, r3}
 631 0060 0FC4     		stmia	r4!, {r0, r1, r2, r3}
 632 0062 95E80700 		ldm	r5, {r0, r1, r2}
 633 0066 84E80700 		stm	r4, {r0, r1, r2}
 634 006a 96E80F00 		ldm	r6, {r0, r1, r2, r3}
 635 006e FFF7FEFF 		bl	platform_initialize_UART
 636              	.LVL43:
 122:../../../shields/Murata-dualstack/src/murata.c ****     murata_reset_pin = murataHeader.DIO6;
 637              		.loc 1 122 5 view .LVU92
 122:../../../shields/Murata-dualstack/src/murata.c ****     murata_reset_pin = murataHeader.DIO6;
 638              		.loc 1 122 37 is_stmt 0 view .LVU93
 639 0072 3269     		ldr	r2, [r6, #16]
 122:../../../shields/Murata-dualstack/src/murata.c ****     murata_reset_pin = murataHeader.DIO6;
 640              		.loc 1 122 23 view .LVU94
 641 0074 154B     		ldr	r3, .L48+24
 642 0076 1A60     		str	r2, [r3]
 123:../../../shields/Murata-dualstack/src/murata.c ****     
 643              		.loc 1 123 5 is_stmt 1 view .LVU95
 123:../../../shields/Murata-dualstack/src/murata.c ****     
 644              		.loc 1 123 36 is_stmt 0 view .LVU96
 645 0078 726A     		ldr	r2, [r6, #36]
 123:../../../shields/Murata-dualstack/src/murata.c ****     
 646              		.loc 1 123 22 view .LVU97
 647 007a 154B     		ldr	r3, .L48+28
 648 007c 1A60     		str	r2, [r3]
ARM GAS  C:\Users\tijsv\AppData\Local\Temp\ccstivEo.s 			page 18


 125:../../../shields/Murata-dualstack/src/murata.c ****     modem_cb_init(&modem_callbacks);
 649              		.loc 1 125 5 is_stmt 1 view .LVU98
 650 007e 7068     		ldr	r0, [r6, #4]
 651 0080 FFF7FEFF 		bl	modem_interface_init
 652              	.LVL44:
 126:../../../shields/Murata-dualstack/src/murata.c ****     
 653              		.loc 1 126 5 view .LVU99
 654 0084 1348     		ldr	r0, .L48+32
 655 0086 FFF7FEFF 		bl	modem_cb_init
 656              	.LVL45:
 128:../../../shields/Murata-dualstack/src/murata.c ****     printINF("Toggling reset pin of murata, starting with clean session\r\n");
 657              		.loc 1 128 5 view .LVU100
 658 008a 0321     		movs	r1, #3
 659 008c 1248     		ldr	r0, .L48+36
 660 008e FFF7FEFF 		bl	UART_SetShieldCallback
 661              	.LVL46:
 129:../../../shields/Murata-dualstack/src/murata.c ****     Murata_toggleResetPin();
 662              		.loc 1 129 5 view .LVU101
 663 0092 1248     		ldr	r0, .L48+40
 664 0094 FFF7FEFF 		bl	printINF
 665              	.LVL47:
 130:../../../shields/Murata-dualstack/src/murata.c **** 
 666              		.loc 1 130 5 view .LVU102
 667 0098 FFF7FEFF 		bl	Murata_toggleResetPin
 668              	.LVL48:
 132:../../../shields/Murata-dualstack/src/murata.c ****     return 1;
 669              		.loc 1 132 5 view .LVU103
 670 009c 1048     		ldr	r0, .L48+44
 671 009e FFF7FEFF 		bl	printINF
 672              	.LVL49:
 133:../../../shields/Murata-dualstack/src/murata.c **** }
 673              		.loc 1 133 5 view .LVU104
 133:../../../shields/Murata-dualstack/src/murata.c **** }
 674              		.loc 1 133 12 is_stmt 0 view .LVU105
 675 00a2 0124     		movs	r4, #1
 676              	.L45:
 134:../../../shields/Murata-dualstack/src/murata.c **** 
 677              		.loc 1 134 1 view .LVU106
 678 00a4 2046     		mov	r0, r4
 679 00a6 16B0     		add	sp, sp, #88
 680              	.LCFI18:
 681              		.cfi_remember_state
 682              		.cfi_def_cfa_offset 16
 683              		@ sp needed
 684 00a8 70BD     		pop	{r4, r5, r6, pc}
 685              	.L47:
 686              	.LCFI19:
 687              		.cfi_restore_state
 106:../../../shields/Murata-dualstack/src/murata.c ****             return 0;  
 688              		.loc 1 106 13 is_stmt 1 view .LVU107
 689 00aa 0E48     		ldr	r0, .L48+48
 690 00ac FFF7FEFF 		bl	printERR
 691              	.LVL50:
 107:../../../shields/Murata-dualstack/src/murata.c ****         }
 692              		.loc 1 107 13 view .LVU108
 107:../../../shields/Murata-dualstack/src/murata.c ****         }
 693              		.loc 1 107 20 is_stmt 0 view .LVU109
ARM GAS  C:\Users\tijsv\AppData\Local\Temp\ccstivEo.s 			page 19


 694 00b0 F8E7     		b	.L45
 695              	.L49:
 696 00b2 00BF     		.align	2
 697              	.L48:
 698 00b4 00000000 		.word	.LC6
 699 00b8 00000000 		.word	murataHeader
 700 00bc 64000000 		.word	.LC8
 701 00c0 88000000 		.word	.LC9
 702 00c4 9C000000 		.word	.LC10
 703 00c8 04000000 		.word	.LANCHOR0+4
 704 00cc 00000000 		.word	murata_wakeup_pin
 705 00d0 00000000 		.word	murata_reset_pin
 706 00d4 00000000 		.word	.LANCHOR1
 707 00d8 00000000 		.word	Murata_rxCallback
 708 00dc C4000000 		.word	.LC11
 709 00e0 00010000 		.word	.LC12
 710 00e4 34000000 		.word	.LC7
 711              		.cfi_endproc
 712              	.LFE137:
 714              		.section	.text.Murata_SetProcessingThread,"ax",%progbits
 715              		.align	1
 716              		.global	Murata_SetProcessingThread
 717              		.syntax unified
 718              		.thumb
 719              		.thumb_func
 720              		.fpu fpv4-sp-d16
 722              	Murata_SetProcessingThread:
 723              	.LVL51:
 724              	.LFB141:
 155:../../../shields/Murata-dualstack/src/murata.c ****     threadToNotify = aThreadId;
 725              		.loc 1 155 1 is_stmt 1 view -0
 726              		.cfi_startproc
 727              		@ args = 0, pretend = 0, frame = 0
 728              		@ frame_needed = 0, uses_anonymous_args = 0
 729              		@ link register save eliminated.
 156:../../../shields/Murata-dualstack/src/murata.c ****     return 1;
 730              		.loc 1 156 5 view .LVU111
 156:../../../shields/Murata-dualstack/src/murata.c ****     return 1;
 731              		.loc 1 156 20 is_stmt 0 view .LVU112
 732 0000 014B     		ldr	r3, .L51
 733 0002 1860     		str	r0, [r3]
 157:../../../shields/Murata-dualstack/src/murata.c **** }
 734              		.loc 1 157 5 is_stmt 1 view .LVU113
 158:../../../shields/Murata-dualstack/src/murata.c **** 
 735              		.loc 1 158 1 is_stmt 0 view .LVU114
 736 0004 0120     		movs	r0, #1
 737              	.LVL52:
 158:../../../shields/Murata-dualstack/src/murata.c **** 
 738              		.loc 1 158 1 view .LVU115
 739 0006 7047     		bx	lr
 740              	.L52:
 741              		.align	2
 742              	.L51:
 743 0008 00000000 		.word	threadToNotify
 744              		.cfi_endproc
 745              	.LFE141:
 747              		.section	.rodata.Murata_LoRaWAN_Join.str1.4,"aMS",%progbits,1
ARM GAS  C:\Users\tijsv\AppData\Local\Temp\ccstivEo.s 			page 20


 748              		.align	2
 749              	.LC13:
 750 0000 4A6F696E 		.ascii	"Joining the LoRaWAN Network\015\012\000"
 750      696E6720 
 750      74686520 
 750      4C6F5261 
 750      57414E20 
 751              		.section	.text.Murata_LoRaWAN_Join,"ax",%progbits
 752              		.align	1
 753              		.global	Murata_LoRaWAN_Join
 754              		.syntax unified
 755              		.thumb
 756              		.thumb_func
 757              		.fpu fpv4-sp-d16
 759              	Murata_LoRaWAN_Join:
 760              	.LFB142:
 161:../../../shields/Murata-dualstack/src/murata.c ****     uint8_t status = 0;
 761              		.loc 1 161 1 is_stmt 1 view -0
 762              		.cfi_startproc
 763              		@ args = 0, pretend = 0, frame = 0
 764              		@ frame_needed = 0, uses_anonymous_args = 0
 765 0000 10B5     		push	{r4, lr}
 766              	.LCFI20:
 767              		.cfi_def_cfa_offset 8
 768              		.cfi_offset 4, -8
 769              		.cfi_offset 14, -4
 770 0002 82B0     		sub	sp, sp, #8
 771              	.LCFI21:
 772              		.cfi_def_cfa_offset 16
 162:../../../shields/Murata-dualstack/src/murata.c ****     status = modem_send_unsolicited_response(0x40, 0, 0, 0, &session_config_lora);
 773              		.loc 1 162 5 view .LVU117
 774              	.LVL53:
 163:../../../shields/Murata-dualstack/src/murata.c ****     printINF("Joining the LoRaWAN Network\r\n");
 775              		.loc 1 163 5 view .LVU118
 163:../../../shields/Murata-dualstack/src/murata.c ****     printINF("Joining the LoRaWAN Network\r\n");
 776              		.loc 1 163 14 is_stmt 0 view .LVU119
 777 0004 074B     		ldr	r3, .L55
 778 0006 0093     		str	r3, [sp]
 779 0008 0023     		movs	r3, #0
 780 000a 1A46     		mov	r2, r3
 781 000c 1946     		mov	r1, r3
 782 000e 4020     		movs	r0, #64
 783 0010 FFF7FEFF 		bl	modem_send_unsolicited_response
 784              	.LVL54:
 785 0014 0446     		mov	r4, r0
 786              	.LVL55:
 164:../../../shields/Murata-dualstack/src/murata.c ****     return status;
 787              		.loc 1 164 5 is_stmt 1 view .LVU120
 788 0016 0448     		ldr	r0, .L55+4
 789 0018 FFF7FEFF 		bl	printINF
 790              	.LVL56:
 165:../../../shields/Murata-dualstack/src/murata.c **** }
 791              		.loc 1 165 5 view .LVU121
 166:../../../shields/Murata-dualstack/src/murata.c **** 
 792              		.loc 1 166 1 is_stmt 0 view .LVU122
 793 001c 2046     		mov	r0, r4
 794 001e 02B0     		add	sp, sp, #8
ARM GAS  C:\Users\tijsv\AppData\Local\Temp\ccstivEo.s 			page 21


 795              	.LCFI22:
 796              		.cfi_def_cfa_offset 8
 797              		@ sp needed
 798 0020 10BD     		pop	{r4, pc}
 799              	.LVL57:
 800              	.L56:
 166:../../../shields/Murata-dualstack/src/murata.c **** 
 801              		.loc 1 166 1 view .LVU123
 802 0022 00BF     		.align	2
 803              	.L55:
 804 0024 00000000 		.word	.LANCHOR0
 805 0028 00000000 		.word	.LC13
 806              		.cfi_endproc
 807              	.LFE142:
 809              		.section	.rodata.Murata_LoRaWAN_Send.str1.4,"aMS",%progbits,1
 810              		.align	2
 811              	.LC14:
 812 0000 53656E64 		.ascii	"Sending LoRaWAN message with payload size %d\015\012"
 812      696E6720 
 812      4C6F5261 
 812      57414E20 
 812      6D657373 
 813 002e 00       		.ascii	"\000"
 814              		.section	.text.Murata_LoRaWAN_Send,"ax",%progbits
 815              		.align	1
 816              		.global	Murata_LoRaWAN_Send
 817              		.syntax unified
 818              		.thumb
 819              		.thumb_func
 820              		.fpu fpv4-sp-d16
 822              	Murata_LoRaWAN_Send:
 823              	.LVL58:
 824              	.LFB143:
 169:../../../shields/Murata-dualstack/src/murata.c ****     uint8_t status = 0;
 825              		.loc 1 169 1 is_stmt 1 view -0
 826              		.cfi_startproc
 827              		@ args = 0, pretend = 0, frame = 0
 828              		@ frame_needed = 0, uses_anonymous_args = 0
 169:../../../shields/Murata-dualstack/src/murata.c ****     uint8_t status = 0;
 829              		.loc 1 169 1 is_stmt 0 view .LVU125
 830 0000 30B5     		push	{r4, r5, lr}
 831              	.LCFI23:
 832              		.cfi_def_cfa_offset 12
 833              		.cfi_offset 4, -12
 834              		.cfi_offset 5, -8
 835              		.cfi_offset 14, -4
 836 0002 83B0     		sub	sp, sp, #12
 837              	.LCFI24:
 838              		.cfi_def_cfa_offset 24
 839 0004 0346     		mov	r3, r0
 840 0006 0C46     		mov	r4, r1
 170:../../../shields/Murata-dualstack/src/murata.c ****     status = modem_send_unsolicited_response(0x40, 0, length, (uint8_t *)buffer, &session_config_lo
 841              		.loc 1 170 5 is_stmt 1 view .LVU126
 842              	.LVL59:
 171:../../../shields/Murata-dualstack/src/murata.c ****     printINF("Sending LoRaWAN message with payload size %d\r\n", length);
 843              		.loc 1 171 5 view .LVU127
 171:../../../shields/Murata-dualstack/src/murata.c ****     printINF("Sending LoRaWAN message with payload size %d\r\n", length);
ARM GAS  C:\Users\tijsv\AppData\Local\Temp\ccstivEo.s 			page 22


 844              		.loc 1 171 14 is_stmt 0 view .LVU128
 845 0008 074A     		ldr	r2, .L59
 846 000a 0092     		str	r2, [sp]
 847 000c 0A46     		mov	r2, r1
 848 000e 0021     		movs	r1, #0
 849              	.LVL60:
 171:../../../shields/Murata-dualstack/src/murata.c ****     printINF("Sending LoRaWAN message with payload size %d\r\n", length);
 850              		.loc 1 171 14 view .LVU129
 851 0010 4020     		movs	r0, #64
 852              	.LVL61:
 171:../../../shields/Murata-dualstack/src/murata.c ****     printINF("Sending LoRaWAN message with payload size %d\r\n", length);
 853              		.loc 1 171 14 view .LVU130
 854 0012 FFF7FEFF 		bl	modem_send_unsolicited_response
 855              	.LVL62:
 171:../../../shields/Murata-dualstack/src/murata.c ****     printINF("Sending LoRaWAN message with payload size %d\r\n", length);
 856              		.loc 1 171 14 view .LVU131
 857 0016 0546     		mov	r5, r0
 858              	.LVL63:
 172:../../../shields/Murata-dualstack/src/murata.c ****     return status;
 859              		.loc 1 172 5 is_stmt 1 view .LVU132
 860 0018 2146     		mov	r1, r4
 861 001a 0448     		ldr	r0, .L59+4
 862 001c FFF7FEFF 		bl	printINF
 863              	.LVL64:
 173:../../../shields/Murata-dualstack/src/murata.c **** }
 864              		.loc 1 173 5 view .LVU133
 174:../../../shields/Murata-dualstack/src/murata.c **** 
 865              		.loc 1 174 1 is_stmt 0 view .LVU134
 866 0020 2846     		mov	r0, r5
 867 0022 03B0     		add	sp, sp, #12
 868              	.LCFI25:
 869              		.cfi_def_cfa_offset 12
 870              		@ sp needed
 871 0024 30BD     		pop	{r4, r5, pc}
 872              	.LVL65:
 873              	.L60:
 174:../../../shields/Murata-dualstack/src/murata.c **** 
 874              		.loc 1 174 1 view .LVU135
 875 0026 00BF     		.align	2
 876              	.L59:
 877 0028 00000000 		.word	.LANCHOR0
 878 002c 00000000 		.word	.LC14
 879              		.cfi_endproc
 880              	.LFE143:
 882              		.section	.rodata.Murata_Dash7_Send.str1.4,"aMS",%progbits,1
 883              		.align	2
 884              	.LC15:
 885 0000 53656E64 		.ascii	"Sending Dash7 message with payload size %d\015\012\000"
 885      696E6720 
 885      44617368 
 885      37206D65 
 885      73736167 
 886              		.section	.text.Murata_Dash7_Send,"ax",%progbits
 887              		.align	1
 888              		.global	Murata_Dash7_Send
 889              		.syntax unified
 890              		.thumb
ARM GAS  C:\Users\tijsv\AppData\Local\Temp\ccstivEo.s 			page 23


 891              		.thumb_func
 892              		.fpu fpv4-sp-d16
 894              	Murata_Dash7_Send:
 895              	.LVL66:
 896              	.LFB144:
 177:../../../shields/Murata-dualstack/src/murata.c ****     uint8_t status = 0;
 897              		.loc 1 177 1 is_stmt 1 view -0
 898              		.cfi_startproc
 899              		@ args = 0, pretend = 0, frame = 0
 900              		@ frame_needed = 0, uses_anonymous_args = 0
 177:../../../shields/Murata-dualstack/src/murata.c ****     uint8_t status = 0;
 901              		.loc 1 177 1 is_stmt 0 view .LVU137
 902 0000 30B5     		push	{r4, r5, lr}
 903              	.LCFI26:
 904              		.cfi_def_cfa_offset 12
 905              		.cfi_offset 4, -12
 906              		.cfi_offset 5, -8
 907              		.cfi_offset 14, -4
 908 0002 83B0     		sub	sp, sp, #12
 909              	.LCFI27:
 910              		.cfi_def_cfa_offset 24
 911 0004 0346     		mov	r3, r0
 912 0006 0C46     		mov	r4, r1
 178:../../../shields/Murata-dualstack/src/murata.c ****     status = modem_send_unsolicited_response(0x40, 0, length, (uint8_t *)buffer, &session_config_d7
 913              		.loc 1 178 5 is_stmt 1 view .LVU138
 914              	.LVL67:
 179:../../../shields/Murata-dualstack/src/murata.c ****     printINF("Sending Dash7 message with payload size %d\r\n", length);
 915              		.loc 1 179 5 view .LVU139
 179:../../../shields/Murata-dualstack/src/murata.c ****     printINF("Sending Dash7 message with payload size %d\r\n", length);
 916              		.loc 1 179 14 is_stmt 0 view .LVU140
 917 0008 074A     		ldr	r2, .L63
 918 000a 0092     		str	r2, [sp]
 919 000c 0A46     		mov	r2, r1
 920 000e 0021     		movs	r1, #0
 921              	.LVL68:
 179:../../../shields/Murata-dualstack/src/murata.c ****     printINF("Sending Dash7 message with payload size %d\r\n", length);
 922              		.loc 1 179 14 view .LVU141
 923 0010 4020     		movs	r0, #64
 924              	.LVL69:
 179:../../../shields/Murata-dualstack/src/murata.c ****     printINF("Sending Dash7 message with payload size %d\r\n", length);
 925              		.loc 1 179 14 view .LVU142
 926 0012 FFF7FEFF 		bl	modem_send_unsolicited_response
 927              	.LVL70:
 179:../../../shields/Murata-dualstack/src/murata.c ****     printINF("Sending Dash7 message with payload size %d\r\n", length);
 928              		.loc 1 179 14 view .LVU143
 929 0016 0546     		mov	r5, r0
 930              	.LVL71:
 180:../../../shields/Murata-dualstack/src/murata.c ****     return status;
 931              		.loc 1 180 5 is_stmt 1 view .LVU144
 932 0018 2146     		mov	r1, r4
 933 001a 0448     		ldr	r0, .L63+4
 934 001c FFF7FEFF 		bl	printINF
 935              	.LVL72:
 181:../../../shields/Murata-dualstack/src/murata.c **** }
 936              		.loc 1 181 5 view .LVU145
 182:../../../shields/Murata-dualstack/src/murata.c **** 
 937              		.loc 1 182 1 is_stmt 0 view .LVU146
ARM GAS  C:\Users\tijsv\AppData\Local\Temp\ccstivEo.s 			page 24


 938 0020 2846     		mov	r0, r5
 939 0022 03B0     		add	sp, sp, #12
 940              	.LCFI28:
 941              		.cfi_def_cfa_offset 12
 942              		@ sp needed
 943 0024 30BD     		pop	{r4, r5, pc}
 944              	.LVL73:
 945              	.L64:
 182:../../../shields/Murata-dualstack/src/murata.c **** 
 946              		.loc 1 182 1 view .LVU147
 947 0026 00BF     		.align	2
 948              	.L63:
 949 0028 00000000 		.word	.LANCHOR2
 950 002c 00000000 		.word	.LC15
 951              		.cfi_endproc
 952              	.LFE144:
 954              		.section	.text.Murata_process_fifo,"ax",%progbits
 955              		.align	1
 956              		.global	Murata_process_fifo
 957              		.syntax unified
 958              		.thumb
 959              		.thumb_func
 960              		.fpu fpv4-sp-d16
 962              	Murata_process_fifo:
 963              	.LFB145:
 185:../../../shields/Murata-dualstack/src/murata.c ****     return modem_process_fifo();
 964              		.loc 1 185 1 is_stmt 1 view -0
 965              		.cfi_startproc
 966              		@ args = 0, pretend = 0, frame = 0
 967              		@ frame_needed = 0, uses_anonymous_args = 0
 968 0000 08B5     		push	{r3, lr}
 969              	.LCFI29:
 970              		.cfi_def_cfa_offset 8
 971              		.cfi_offset 3, -8
 972              		.cfi_offset 14, -4
 186:../../../shields/Murata-dualstack/src/murata.c **** }
 973              		.loc 1 186 5 view .LVU149
 186:../../../shields/Murata-dualstack/src/murata.c **** }
 974              		.loc 1 186 12 is_stmt 0 view .LVU150
 975 0002 FFF7FEFF 		bl	modem_process_fifo
 976              	.LVL74:
 187:../../../shields/Murata-dualstack/src/murata.c **** 
 977              		.loc 1 187 1 view .LVU151
 978 0006 C0B2     		uxtb	r0, r0
 979 0008 08BD     		pop	{r3, pc}
 980              		.cfi_endproc
 981              	.LFE145:
 983              		.global	modem_callbacks
 984              		.global	session_config_d7
 985              		.global	session_config_lora
 986              		.comm	murataHeader,44,4
 987              		.comm	threadToNotify,4,4
 988              		.comm	murata_reset_pin,4,4
 989              		.comm	murata_wakeup_pin,4,4
 990              		.comm	P3_header,44,4
 991              		.comm	P2_header,44,4
 992              		.comm	P1_header,44,4
ARM GAS  C:\Users\tijsv\AppData\Local\Temp\ccstivEo.s 			page 25


 993              		.comm	stackversion_patch,1,1
 994              		.comm	stackversion_minor,1,1
 995              		.comm	stackversion_major,1,1
 996              		.comm	appversion_patch,1,1
 997              		.comm	appversion_minor,1,1
 998              		.comm	appversion_major,1,1
 999              		.comm	short_UID,8,8
 1000              		.comm	hard_reset,1,1
 1001              		.comm	wd_reset,1,1
 1002              		.comm	octa_uid,8,8
 1003              		.comm	float_union,4,4
 1004              		.comm	uint16LittleEndian,2,4
 1005              		.comm	int16LittleEndian,2,4
 1006              		.comm	uint32LittleEndian,4,4
 1007              		.comm	int32LittleEndian,4,4
 1008              		.comm	rtosprintHandle,4,4
 1009              		.comm	hrtc,36,4
 1010              		.comm	FLASH_SPI,100,4
 1011              		.comm	P3_SPI,100,4
 1012              		.comm	P2_SPI,100,4
 1013              		.comm	P1_SPI,100,4
 1014              		.comm	P3_I2C,76,4
 1015              		.comm	P2_I2C,76,4
 1016              		.comm	P1_I2C,76,4
 1017              		.comm	common_I2C,76,4
 1018              		.comm	P3_UART,120,4
 1019              		.comm	P2_UART,120,4
 1020              		.comm	P1_UART,120,4
 1021              		.comm	FTDI_UART,120,4
 1022              		.comm	BLE_UART,120,4
 1023              		.comm	USB_UART,120,4
 1024              		.comm	hiwdg,16,4
 1025              		.comm	P3_DIO6,8,4
 1026              		.comm	P3_DIO5,8,4
 1027              		.comm	P3_DIO4,8,4
 1028              		.comm	P3_DIO3,8,4
 1029              		.comm	P3_DIO2,8,4
 1030              		.comm	P3_DIO1,8,4
 1031              		.comm	P2_DIO6,8,4
 1032              		.comm	P2_DIO5,8,4
 1033              		.comm	P2_DIO4,8,4
 1034              		.comm	P2_DIO3,8,4
 1035              		.comm	P2_DIO2,8,4
 1036              		.comm	P2_DIO1,8,4
 1037              		.comm	P1_DIO6,8,4
 1038              		.comm	P1_DIO5,8,4
 1039              		.comm	P1_DIO4,8,4
 1040              		.comm	P1_DIO3,8,4
 1041              		.comm	P1_DIO2,8,4
 1042              		.comm	P1_DIO1,8,4
 1043              		.comm	htim6,64,4
 1044              		.comm	htim1,64,4
 1045              		.section	.data.modem_callbacks,"aw"
 1046              		.align	2
 1047              		.set	.LANCHOR1,. + 0
 1050              	modem_callbacks:
 1051 0000 00000000 		.word	on_modem_command_completed_callback
ARM GAS  C:\Users\tijsv\AppData\Local\Temp\ccstivEo.s 			page 26


 1052 0004 00000000 		.word	on_modem_interface_status_callback
 1053 0008 00000000 		.word	on_modem_return_file_data_callback
 1054 000c 00000000 		.word	on_modem_write_file_data_callback
 1055 0010 00000000 		.word	on_modem_reboot_callback
 1056              		.section	.data.session_config_d7,"aw"
 1057              		.align	2
 1058              		.set	.LANCHOR2,. + 0
 1061              	session_config_d7:
 1062 0000 00       		.byte	0
 1063 0001 000000   		.space	3
 1064 0004 06       		.byte	6
 1065 0005 00       		.byte	0
 1066 0006 10       		.byte	16
 1067 0007 01       		.byte	1
 1068 0008 00       		.byte	0
 1069 0009 00000000 		.space	7
 1069      000000
 1070 0010 00000000 		.space	32
 1070      00000000 
 1070      00000000 
 1070      00000000 
 1070      00000000 
 1071              		.section	.data.session_config_lora,"aw"
 1072              		.align	2
 1073              		.set	.LANCHOR0,. + 0
 1076              	session_config_lora:
 1077 0000 01       		.byte	1
 1078 0001 000000   		.space	3
 1079 0004 FF       		.byte	-1
 1080 0005 FF       		.byte	-1
 1081 0006 FF       		.byte	-1
 1082 0007 FF       		.byte	-1
 1083 0008 FF       		.byte	-1
 1084 0009 FF       		.byte	-1
 1085 000a FF       		.byte	-1
 1086 000b FF       		.byte	-1
 1087 000c 08       		.byte	8
 1088 000d FF       		.byte	-1
 1089 000e BC       		.byte	-68
 1090 000f FF       		.byte	-1
 1091 0010 AD       		.byte	-83
 1092 0011 BE       		.byte	-66
 1093 0012 56       		.byte	86
 1094 0013 92       		.byte	-110
 1095 0014 01       		.byte	1
 1096 0015 02       		.byte	2
 1097 0016 FF       		.byte	-1
 1098 0017 03       		.byte	3
 1099 0018 FF       		.byte	-1
 1100 0019 FF       		.byte	-1
 1101 001a FF       		.byte	-1
 1102 001b FF       		.byte	-1
 1103 001c 12       		.byte	18
 1104 001d FF       		.byte	-1
 1105 001e FF       		.byte	-1
 1106 001f FF       		.byte	-1
 1107 0020 FF       		.byte	-1
ARM GAS  C:\Users\tijsv\AppData\Local\Temp\ccstivEo.s 			page 27


 1108 0021 AF       		.byte	-81
 1109 0022 FF       		.byte	-1
 1110 0023 FF       		.byte	-1
 1111 0024 00       		.byte	0
 1112 0025 01       		.byte	1
 1113 0026 01       		.byte	1
 1114 0027 00       		.byte	0
 1115 0028 00000000 		.space	8
 1115      00000000 
 1116              		.text
 1117              	.Letext0:
 1118              		.file 2 "c:\\program files (x86)\\gnu tools arm embedded\\9 2019-q4-major\\arm-none-eabi\\include\
 1119              		.file 3 "c:\\program files (x86)\\gnu tools arm embedded\\9 2019-q4-major\\arm-none-eabi\\include\
 1120              		.file 4 "../../../core/ST/CMSIS/Include/core_cm4.h"
 1121              		.file 5 "../../../core/ST/CMSIS/Device/ST/STM32L4xx/Include/system_stm32l4xx.h"
 1122              		.file 6 "../../../core/ST/CMSIS/Device/ST/STM32L4xx/Include/stm32l496xx.h"
 1123              		.file 7 "../../../core/ST/STM32L4xx_HAL_Driver/Inc/stm32l4xx_hal_def.h"
 1124              		.file 8 "../../../core/ST/STM32L4xx_HAL_Driver/Inc/stm32l4xx_hal_gpio.h"
 1125              		.file 9 "../../../core/ST/STM32L4xx_HAL_Driver/Inc/stm32l4xx_hal_dma.h"
 1126              		.file 10 "../../../core/ST/STM32L4xx_HAL_Driver/Inc/stm32l4xx_hal_i2c.h"
 1127              		.file 11 "../../../core/ST/STM32L4xx_HAL_Driver/Inc/stm32l4xx_hal_iwdg.h"
 1128              		.file 12 "../../../core/ST/STM32L4xx_HAL_Driver/Inc/stm32l4xx_hal_rtc.h"
 1129              		.file 13 "../../../core/ST/STM32L4xx_HAL_Driver/Inc/stm32l4xx_hal_spi.h"
 1130              		.file 14 "../../../core/ST/STM32L4xx_HAL_Driver/Inc/stm32l4xx_hal_tim.h"
 1131              		.file 15 "../../../core/ST/STM32L4xx_HAL_Driver/Inc/stm32l4xx_hal_uart.h"
 1132              		.file 16 "../../../core/ST/STM32L4xx_HAL_Driver/Inc/stm32l4xx_hal.h"
 1133              		.file 17 "../../../core/ST/Middlewares/Third_Party/FreeRTOS/Source/include/task.h"
 1134              		.file 18 "../../../core/ST/Middlewares/Third_Party/FreeRTOS/Source/CMSIS_RTOS/cmsis_os.h"
 1135              		.file 19 "../../../core/platform/octa/inc/sysclock.h"
 1136              		.file 20 "../../../core/platform/octa/inc/gpio.h"
 1137              		.file 21 "../../../core/platform/octa/inc/iwdg.h"
 1138              		.file 22 "../../../core/platform/octa/inc/uart.h"
 1139              		.file 23 "../../../core/platform/octa/inc/i2c.h"
 1140              		.file 24 "../../../core/platform/octa/inc/spi.h"
 1141              		.file 25 "../../../core/platform/octa/inc/rtc.h"
 1142              		.file 26 "../../../core/platform/octa/inc/rtosincludes.h"
 1143              		.file 27 "c:\\program files (x86)\\gnu tools arm embedded\\9 2019-q4-major\\arm-none-eabi\\include
 1144              		.file 28 "c:\\program files (x86)\\gnu tools arm embedded\\9 2019-q4-major\\arm-none-eabi\\include
 1145              		.file 29 "c:\\program files (x86)\\gnu tools arm embedded\\9 2019-q4-major\\lib\\gcc\\arm-none-eab
 1146              		.file 30 "c:\\program files (x86)\\gnu tools arm embedded\\9 2019-q4-major\\arm-none-eabi\\include
 1147              		.file 31 "../../../core/platform/common/inc/datatypes.h"
 1148              		.file 32 "../../../core/platform/octa/inc/platform.h"
 1149              		.file 33 "../../../shields/Murata-dualstack/inc/d7ap.h"
 1150              		.file 34 "../../../shields/Murata-dualstack/inc/lorawan_stack.h"
 1151              		.file 35 "../../../shields/Murata-dualstack/inc/alp.h"
 1152              		.file 36 "../../../shields/Murata-dualstack/inc/modem_interface.h"
 1153              		.file 37 "../../../shields/Murata-dualstack/inc/modem.h"
 1154              		.file 38 "../../../shields/Murata-dualstack/inc/murata.h"
 1155              		.file 39 "../../../core/platform/common/inc/print.h"
ARM GAS  C:\Users\tijsv\AppData\Local\Temp\ccstivEo.s 			page 28

