ARM GAS  C:\Users\tijsv\AppData\Local\Temp\ccXwiIpm.s 			page 1


   1              		.cpu cortex-m4
   2              		.eabi_attribute 27, 1
   3              		.eabi_attribute 28, 1
   4              		.eabi_attribute 20, 1
   5              		.eabi_attribute 21, 1
   6              		.eabi_attribute 23, 3
   7              		.eabi_attribute 24, 1
   8              		.eabi_attribute 25, 1
   9              		.eabi_attribute 26, 1
  10              		.eabi_attribute 30, 1
  11              		.eabi_attribute 34, 1
  12              		.eabi_attribute 18, 4
  13              		.file	"nmea.c"
  14              		.text
  15              	.Ltext0:
  16              		.cfi_sections	.debug_frame
  17              		.section	.text.find_start,"ax",%progbits
  18              		.align	1
  19              		.global	find_start
  20              		.arch armv7e-m
  21              		.syntax unified
  22              		.thumb
  23              		.thumb_func
  24              		.fpu fpv4-sp-d16
  26              	find_start:
  27              	.LVL0:
  28              	.LFB4:
  29              		.file 1 "../../../shields/gps-firefly/src/nmea.c"
   1:../../../shields/gps-firefly/src/nmea.c **** // NMEA parser - only support for GNGGA and its coordinates, for now ;-)
   2:../../../shields/gps-firefly/src/nmea.c **** // constructed as a state machine
   3:../../../shields/gps-firefly/src/nmea.c **** 
   4:../../../shields/gps-firefly/src/nmea.c **** // example:
   5:../../../shields/gps-firefly/src/nmea.c **** // $GNGGA,135507.000,5101.1610,N,00442.8453,E,...
   6:../../../shields/gps-firefly/src/nmea.c **** // $.....,hhmmss.sss,ddmm.mmmm,[NS],ddmm.mmmm,[EW],...
   7:../../../shields/gps-firefly/src/nmea.c **** 
   8:../../../shields/gps-firefly/src/nmea.c **** #include <math.h>
   9:../../../shields/gps-firefly/src/nmea.c **** #include <stdlib.h>
  10:../../../shields/gps-firefly/src/nmea.c **** 
  11:../../../shields/gps-firefly/src/nmea.c **** #include "nmea.h"
  12:../../../shields/gps-firefly/src/nmea.c **** 
  13:../../../shields/gps-firefly/src/nmea.c **** // local variable to store the results of parsing
  14:../../../shields/gps-firefly/src/nmea.c **** static nmea_position_t position,
  15:../../../shields/gps-firefly/src/nmea.c ****                        current_position;
  16:../../../shields/gps-firefly/src/nmea.c **** 
  17:../../../shields/gps-firefly/src/nmea.c **** nmea_position_t nmea_get_position() { return current_position;             }
  18:../../../shields/gps-firefly/src/nmea.c **** uint8_t nmea_have_position()           { return current_position.quality > 0; }
  19:../../../shields/gps-firefly/src/nmea.c **** 
  20:../../../shields/gps-firefly/src/nmea.c **** void _reset_position(void) {
  21:../../../shields/gps-firefly/src/nmea.c ****   position.time.hour     = 0;
  22:../../../shields/gps-firefly/src/nmea.c ****   position.time.min      = 0;
  23:../../../shields/gps-firefly/src/nmea.c ****   position.time.sec      = 0;
  24:../../../shields/gps-firefly/src/nmea.c ****   position.latitude.deg  = 0;
  25:../../../shields/gps-firefly/src/nmea.c ****   position.latitude.min  = 0;
  26:../../../shields/gps-firefly/src/nmea.c ****   position.latitude.ns   = '_';
  27:../../../shields/gps-firefly/src/nmea.c ****   position.longitude.deg = 0;
  28:../../../shields/gps-firefly/src/nmea.c ****   position.longitude.min = 0;
  29:../../../shields/gps-firefly/src/nmea.c ****   position.longitude.ew  = '_';
ARM GAS  C:\Users\tijsv\AppData\Local\Temp\ccXwiIpm.s 			page 2


  30:../../../shields/gps-firefly/src/nmea.c ****   position.quality=0;
  31:../../../shields/gps-firefly/src/nmea.c **** }
  32:../../../shields/gps-firefly/src/nmea.c **** void _reset_position2(void) {
  33:../../../shields/gps-firefly/src/nmea.c **** 	current_position.time.hour     = 0;
  34:../../../shields/gps-firefly/src/nmea.c **** 	current_position.time.min      = 0;
  35:../../../shields/gps-firefly/src/nmea.c **** 	current_position.time.sec      = 0;
  36:../../../shields/gps-firefly/src/nmea.c **** 	current_position.latitude.deg  = 0;
  37:../../../shields/gps-firefly/src/nmea.c **** 	current_position.latitude.min  = 0;
  38:../../../shields/gps-firefly/src/nmea.c **** 	current_position.latitude.ns   = '_';
  39:../../../shields/gps-firefly/src/nmea.c **** 	current_position.longitude.deg = 0;
  40:../../../shields/gps-firefly/src/nmea.c ****   current_position.longitude.min = 0;
  41:../../../shields/gps-firefly/src/nmea.c ****   current_position.longitude.ew  = '_';
  42:../../../shields/gps-firefly/src/nmea.c ****   current_position.quality=0;
  43:../../../shields/gps-firefly/src/nmea.c **** }
  44:../../../shields/gps-firefly/src/nmea.c **** 
  45:../../../shields/gps-firefly/src/nmea.c **** // states use parser functions to do parts of the parsing
  46:../../../shields/gps-firefly/src/nmea.c **** // they return a result code indicating if they failed to parse, want to 
  47:../../../shields/gps-firefly/src/nmea.c **** // continue parsing or are done for their part
  48:../../../shields/gps-firefly/src/nmea.c **** // the codes are used as their int value 0, 1, 2 in the transitions table
  49:../../../shields/gps-firefly/src/nmea.c **** // to choose the next state.
  50:../../../shields/gps-firefly/src/nmea.c **** enum result_code { FAIL, REPEAT, OK };
  51:../../../shields/gps-firefly/src/nmea.c **** 
  52:../../../shields/gps-firefly/src/nmea.c **** // detects the start of a command
  53:../../../shields/gps-firefly/src/nmea.c **** int find_start (uint8_t b) { return b == '$' ? OK : FAIL; }
  30              		.loc 1 53 28 view -0
  31              		.cfi_startproc
  32              		@ args = 0, pretend = 0, frame = 0
  33              		@ frame_needed = 0, uses_anonymous_args = 0
  34              		@ link register save eliminated.
  35              		.loc 1 53 30 view .LVU1
  36              		.loc 1 53 51 is_stmt 0 view .LVU2
  37 0000 2428     		cmp	r0, #36
  38 0002 01D0     		beq	.L4
  39 0004 0020     		movs	r0, #0
  40              	.LVL1:
  41              		.loc 1 53 1 view .LVU3
  42 0006 7047     		bx	lr
  43              	.LVL2:
  44              	.L4:
  45              		.loc 1 53 51 view .LVU4
  46 0008 0220     		movs	r0, #2
  47              	.LVL3:
  48              		.loc 1 53 51 view .LVU5
  49 000a 7047     		bx	lr
  50              		.cfi_endproc
  51              	.LFE4:
  53              		.section	.text.parse_ns_ind,"ax",%progbits
  54              		.align	1
  55              		.global	parse_ns_ind
  56              		.syntax unified
  57              		.thumb
  58              		.thumb_func
  59              		.fpu fpv4-sp-d16
  61              	parse_ns_ind:
  62              	.LVL4:
  63              	.LFB8:
  54:../../../shields/gps-firefly/src/nmea.c **** 
ARM GAS  C:\Users\tijsv\AppData\Local\Temp\ccXwiIpm.s 			page 3


  55:../../../shields/gps-firefly/src/nmea.c **** // detects the GNGGA command
  56:../../../shields/gps-firefly/src/nmea.c **** //$GNGGA,132322.000,5113.4908,N,00424.7987,E,1,6,1.23,-13.3,M,47.3,M,,*5B
  57:../../../shields/gps-firefly/src/nmea.c **** int parse_gngga(uint8_t b) {
  58:../../../shields/gps-firefly/src/nmea.c ****   static uint8_t pos = 0;
  59:../../../shields/gps-firefly/src/nmea.c ****   const uint8_t string[] = "GNGGA,";
  60:../../../shields/gps-firefly/src/nmea.c **** 
  61:../../../shields/gps-firefly/src/nmea.c ****   // is it the expected next char?
  62:../../../shields/gps-firefly/src/nmea.c ****   if(string[pos] == b) {
  63:../../../shields/gps-firefly/src/nmea.c ****     if(pos == 5) {
  64:../../../shields/gps-firefly/src/nmea.c ****       pos = 0;
  65:../../../shields/gps-firefly/src/nmea.c ****       _reset_position();
  66:../../../shields/gps-firefly/src/nmea.c ****       return OK;
  67:../../../shields/gps-firefly/src/nmea.c ****     } else {
  68:../../../shields/gps-firefly/src/nmea.c ****       pos++;
  69:../../../shields/gps-firefly/src/nmea.c ****       return REPEAT;
  70:../../../shields/gps-firefly/src/nmea.c ****     }
  71:../../../shields/gps-firefly/src/nmea.c ****   }
  72:../../../shields/gps-firefly/src/nmea.c ****   pos = 0;
  73:../../../shields/gps-firefly/src/nmea.c ****   return FAIL;
  74:../../../shields/gps-firefly/src/nmea.c **** }
  75:../../../shields/gps-firefly/src/nmea.c **** 
  76:../../../shields/gps-firefly/src/nmea.c **** // parses the UTC timestamp
  77:../../../shields/gps-firefly/src/nmea.c **** int parse_time (uint8_t b) {
  78:../../../shields/gps-firefly/src/nmea.c ****   static uint8_t pos = 0;
  79:../../../shields/gps-firefly/src/nmea.c ****   switch(pos) {
  80:../../../shields/gps-firefly/src/nmea.c ****     case 0: // Hhmmss.sss
  81:../../../shields/gps-firefly/src/nmea.c ****     case 1: // hHmmss.sss
  82:../../../shields/gps-firefly/src/nmea.c ****       if(b < '0' || b > '9') { pos = 0; return FAIL; }
  83:../../../shields/gps-firefly/src/nmea.c ****       position.time.hour += (b - '0') * pow(10, (1-pos));
  84:../../../shields/gps-firefly/src/nmea.c ****       break;
  85:../../../shields/gps-firefly/src/nmea.c ****     case 2: // hhMmss.sss
  86:../../../shields/gps-firefly/src/nmea.c ****     case 3: // hhmMss.sss
  87:../../../shields/gps-firefly/src/nmea.c ****       if(b < '0' || b > '9') { pos = 0; return FAIL; }
  88:../../../shields/gps-firefly/src/nmea.c ****       position.time.min += (b - '0') * pow(10, (3-pos));
  89:../../../shields/gps-firefly/src/nmea.c ****       break;
  90:../../../shields/gps-firefly/src/nmea.c ****     case 4: // hhmmSs.sss
  91:../../../shields/gps-firefly/src/nmea.c ****     case 5: // hhmmsS.sss
  92:../../../shields/gps-firefly/src/nmea.c ****       if(b < '0' || b > '9') { pos = 0; return FAIL; }
  93:../../../shields/gps-firefly/src/nmea.c ****       position.time.sec += (b - '0') * pow(10, (5-pos));
  94:../../../shields/gps-firefly/src/nmea.c ****       break;
  95:../../../shields/gps-firefly/src/nmea.c ****     case 6: // skip .
  96:../../../shields/gps-firefly/src/nmea.c ****       break;
  97:../../../shields/gps-firefly/src/nmea.c ****     case 7: // hhmmss.Sss
  98:../../../shields/gps-firefly/src/nmea.c ****     case 8: // hhmmss.sSs
  99:../../../shields/gps-firefly/src/nmea.c ****     case 9: // hhmmss.ssS
 100:../../../shields/gps-firefly/src/nmea.c ****       if(b < '0' || b > '9') { pos = 0; return FAIL; }
 101:../../../shields/gps-firefly/src/nmea.c ****       position.time.sec += (b - '0') / pow(10, (pos - 6));
 102:../../../shields/gps-firefly/src/nmea.c ****       break;
 103:../../../shields/gps-firefly/src/nmea.c ****     case 10:
 104:../../../shields/gps-firefly/src/nmea.c ****       pos = 0;
 105:../../../shields/gps-firefly/src/nmea.c ****       if (b == ',')
 106:../../../shields/gps-firefly/src/nmea.c ****         return OK;
 107:../../../shields/gps-firefly/src/nmea.c ****       else
 108:../../../shields/gps-firefly/src/nmea.c ****     	  return FAIL;
 109:../../../shields/gps-firefly/src/nmea.c **** 
 110:../../../shields/gps-firefly/src/nmea.c ****   }
 111:../../../shields/gps-firefly/src/nmea.c **** 
ARM GAS  C:\Users\tijsv\AppData\Local\Temp\ccXwiIpm.s 			page 4


 112:../../../shields/gps-firefly/src/nmea.c ****   pos++;
 113:../../../shields/gps-firefly/src/nmea.c ****   return REPEAT;
 114:../../../shields/gps-firefly/src/nmea.c **** 
 115:../../../shields/gps-firefly/src/nmea.c **** }
 116:../../../shields/gps-firefly/src/nmea.c **** 
 117:../../../shields/gps-firefly/src/nmea.c **** // parses the latitude information
 118:../../../shields/gps-firefly/src/nmea.c **** int parse_latitude(uint8_t b) {
 119:../../../shields/gps-firefly/src/nmea.c ****   static uint8_t pos = 0;
 120:../../../shields/gps-firefly/src/nmea.c ****   switch(pos) {
 121:../../../shields/gps-firefly/src/nmea.c ****     case 0: // Ddmm.mmmm
 122:../../../shields/gps-firefly/src/nmea.c ****     case 1: // dDmm.mmmm
 123:../../../shields/gps-firefly/src/nmea.c ****       if(b < '0' || b > '9') { pos = 0; return FAIL; }
 124:../../../shields/gps-firefly/src/nmea.c ****       position.latitude.deg += (b - '0') * pow(10, (1-pos));
 125:../../../shields/gps-firefly/src/nmea.c ****       break;
 126:../../../shields/gps-firefly/src/nmea.c ****     case 2: // Ddmm.mmmm
 127:../../../shields/gps-firefly/src/nmea.c ****     case 3: // dDmm.mmmm
 128:../../../shields/gps-firefly/src/nmea.c ****       if(b < '0' || b > '9') { pos = 0; return FAIL; }
 129:../../../shields/gps-firefly/src/nmea.c ****       position.latitude.min += (b - '0') * pow(10, (3-pos));
 130:../../../shields/gps-firefly/src/nmea.c ****       break;
 131:../../../shields/gps-firefly/src/nmea.c ****     case 4: break; // skip .
 132:../../../shields/gps-firefly/src/nmea.c ****     case 5:
 133:../../../shields/gps-firefly/src/nmea.c ****     case 6:
 134:../../../shields/gps-firefly/src/nmea.c ****     case 7:
 135:../../../shields/gps-firefly/src/nmea.c ****     case 8:
 136:../../../shields/gps-firefly/src/nmea.c ****       if(b < '0' || b > '9') { pos = 0; return FAIL; }
 137:../../../shields/gps-firefly/src/nmea.c ****       position.latitude.min += (b - '0') / pow(10, (pos - 4));
 138:../../../shields/gps-firefly/src/nmea.c ****       break;
 139:../../../shields/gps-firefly/src/nmea.c ****     case 9:
 140:../../../shields/gps-firefly/src/nmea.c ****       if (b == ',')
 141:../../../shields/gps-firefly/src/nmea.c ****       {
 142:../../../shields/gps-firefly/src/nmea.c ****     	  pos = 0;
 143:../../../shields/gps-firefly/src/nmea.c ****     	  return OK;
 144:../../../shields/gps-firefly/src/nmea.c ****       }
 145:../../../shields/gps-firefly/src/nmea.c ****       else
 146:../../../shields/gps-firefly/src/nmea.c ****     	  break;
 147:../../../shields/gps-firefly/src/nmea.c ****     case 10:
 148:../../../shields/gps-firefly/src/nmea.c ****     	if(b < '0' || b > '9') { pos = 0; return FAIL; }
 149:../../../shields/gps-firefly/src/nmea.c ****     	position.latitude.min += (b - '0') / pow(10, (pos - 6));
 150:../../../shields/gps-firefly/src/nmea.c ****     	break;
 151:../../../shields/gps-firefly/src/nmea.c ****     case 11:
 152:../../../shields/gps-firefly/src/nmea.c ****     	pos = 0;
 153:../../../shields/gps-firefly/src/nmea.c ****     	if (b == ',')
 154:../../../shields/gps-firefly/src/nmea.c ****     	{
 155:../../../shields/gps-firefly/src/nmea.c ****     	  	  return OK;
 156:../../../shields/gps-firefly/src/nmea.c ****     	}
 157:../../../shields/gps-firefly/src/nmea.c ****     	else
 158:../../../shields/gps-firefly/src/nmea.c ****     	  	  return FAIL;
 159:../../../shields/gps-firefly/src/nmea.c **** 
 160:../../../shields/gps-firefly/src/nmea.c **** 
 161:../../../shields/gps-firefly/src/nmea.c ****   }
 162:../../../shields/gps-firefly/src/nmea.c ****   pos++;
 163:../../../shields/gps-firefly/src/nmea.c ****   return REPEAT;
 164:../../../shields/gps-firefly/src/nmea.c **** 
 165:../../../shields/gps-firefly/src/nmea.c **** }
 166:../../../shields/gps-firefly/src/nmea.c **** 
 167:../../../shields/gps-firefly/src/nmea.c **** // parses the latitude orientation
 168:../../../shields/gps-firefly/src/nmea.c **** int parse_ns_ind(uint8_t b) {
ARM GAS  C:\Users\tijsv\AppData\Local\Temp\ccXwiIpm.s 			page 5


  64              		.loc 1 168 29 is_stmt 1 view -0
  65              		.cfi_startproc
  66              		@ args = 0, pretend = 0, frame = 0
  67              		@ frame_needed = 0, uses_anonymous_args = 0
  68              		@ link register save eliminated.
 169:../../../shields/gps-firefly/src/nmea.c ****   if (b == ',') return OK;
  69              		.loc 1 169 3 view .LVU7
  70              		.loc 1 169 6 is_stmt 0 view .LVU8
  71 0000 2C28     		cmp	r0, #44
  72 0002 07D0     		beq	.L8
 170:../../../shields/gps-firefly/src/nmea.c **** 
 171:../../../shields/gps-firefly/src/nmea.c ****   if(b != 'N' && b != 'S') { return FAIL; }
  73              		.loc 1 171 3 is_stmt 1 view .LVU9
  74              		.loc 1 171 5 is_stmt 0 view .LVU10
  75 0004 4E28     		cmp	r0, #78
  76 0006 01D0     		beq	.L7
  77              		.loc 1 171 15 discriminator 1 view .LVU11
  78 0008 5328     		cmp	r0, #83
  79 000a 05D1     		bne	.L9
  80              	.L7:
 172:../../../shields/gps-firefly/src/nmea.c ****   position.latitude.ns = b;
  81              		.loc 1 172 3 is_stmt 1 view .LVU12
  82              		.loc 1 172 24 is_stmt 0 view .LVU13
  83 000c 034B     		ldr	r3, .L10
  84 000e 1874     		strb	r0, [r3, #16]
 173:../../../shields/gps-firefly/src/nmea.c ****   return REPEAT;
  85              		.loc 1 173 3 is_stmt 1 view .LVU14
  86              		.loc 1 173 10 is_stmt 0 view .LVU15
  87 0010 0120     		movs	r0, #1
  88              	.LVL5:
  89              		.loc 1 173 10 view .LVU16
  90 0012 7047     		bx	lr
  91              	.LVL6:
  92              	.L8:
 169:../../../shields/gps-firefly/src/nmea.c **** 
  93              		.loc 1 169 24 view .LVU17
  94 0014 0220     		movs	r0, #2
  95              	.LVL7:
 169:../../../shields/gps-firefly/src/nmea.c **** 
  96              		.loc 1 169 24 view .LVU18
  97 0016 7047     		bx	lr
  98              	.LVL8:
  99              	.L9:
 171:../../../shields/gps-firefly/src/nmea.c ****   position.latitude.ns = b;
 100              		.loc 1 171 37 view .LVU19
 101 0018 0020     		movs	r0, #0
 102              	.LVL9:
 174:../../../shields/gps-firefly/src/nmea.c **** }
 103              		.loc 1 174 1 view .LVU20
 104 001a 7047     		bx	lr
 105              	.L11:
 106              		.align	2
 107              	.L10:
 108 001c 00000000 		.word	.LANCHOR0
 109              		.cfi_endproc
 110              	.LFE8:
 112              		.section	.text.parse_ew_ind,"ax",%progbits
ARM GAS  C:\Users\tijsv\AppData\Local\Temp\ccXwiIpm.s 			page 6


 113              		.align	1
 114              		.global	parse_ew_ind
 115              		.syntax unified
 116              		.thumb
 117              		.thumb_func
 118              		.fpu fpv4-sp-d16
 120              	parse_ew_ind:
 121              	.LVL10:
 122              	.LFB10:
 175:../../../shields/gps-firefly/src/nmea.c **** 
 176:../../../shields/gps-firefly/src/nmea.c **** // parses the liongitude information
 177:../../../shields/gps-firefly/src/nmea.c **** int parse_longitude(uint8_t b) {
 178:../../../shields/gps-firefly/src/nmea.c ****   static uint8_t pos = 0;
 179:../../../shields/gps-firefly/src/nmea.c ****   switch(pos) {
 180:../../../shields/gps-firefly/src/nmea.c ****     case 0: // Dddmm.mmmm
 181:../../../shields/gps-firefly/src/nmea.c ****       position.longitude.deg = 0;
 182:../../../shields/gps-firefly/src/nmea.c ****       position.longitude.min = 0;
 183:../../../shields/gps-firefly/src/nmea.c ****     case 1: // dDdmm.mmmm
 184:../../../shields/gps-firefly/src/nmea.c ****     case 2: // ddDmm.mmmm
 185:../../../shields/gps-firefly/src/nmea.c ****       if(b < '0' || b > '9') { pos = 0; return FAIL; }
 186:../../../shields/gps-firefly/src/nmea.c ****       position.longitude.deg += (b - '0') * pow(10, (2-pos));
 187:../../../shields/gps-firefly/src/nmea.c ****       break;
 188:../../../shields/gps-firefly/src/nmea.c ****     case 3: // Ddmm.mmmm
 189:../../../shields/gps-firefly/src/nmea.c ****     case 4: // dDmm.mmmm
 190:../../../shields/gps-firefly/src/nmea.c ****       if(b < '0' || b > '9') { pos = 0; return FAIL; }
 191:../../../shields/gps-firefly/src/nmea.c ****       position.longitude.min += (b - '0') * pow(10, (4-pos));
 192:../../../shields/gps-firefly/src/nmea.c ****       break;
 193:../../../shields/gps-firefly/src/nmea.c ****     case 5: break; // skip .
 194:../../../shields/gps-firefly/src/nmea.c ****     case 6:
 195:../../../shields/gps-firefly/src/nmea.c ****     case 7:
 196:../../../shields/gps-firefly/src/nmea.c ****     case 8:
 197:../../../shields/gps-firefly/src/nmea.c ****     case 9:
 198:../../../shields/gps-firefly/src/nmea.c ****       if(b < '0' || b > '9') { pos = 0; return FAIL; }
 199:../../../shields/gps-firefly/src/nmea.c ****       position.longitude.min += (b - '0') / pow(10, (pos - 5));
 200:../../../shields/gps-firefly/src/nmea.c ****       break;
 201:../../../shields/gps-firefly/src/nmea.c ****     case 10:
 202:../../../shields/gps-firefly/src/nmea.c ****     	if (b == ',')
 203:../../../shields/gps-firefly/src/nmea.c ****     	{
 204:../../../shields/gps-firefly/src/nmea.c ****     		pos = 0;
 205:../../../shields/gps-firefly/src/nmea.c ****     		return OK;
 206:../../../shields/gps-firefly/src/nmea.c ****     	}
 207:../../../shields/gps-firefly/src/nmea.c ****     	else
 208:../../../shields/gps-firefly/src/nmea.c ****     		break;
 209:../../../shields/gps-firefly/src/nmea.c ****     case 11:
 210:../../../shields/gps-firefly/src/nmea.c ****     	if(b < '0' || b > '9') { pos = 0; return FAIL; }
 211:../../../shields/gps-firefly/src/nmea.c ****     	position.longitude.min += (b - '0') / pow(10, (pos - 5));
 212:../../../shields/gps-firefly/src/nmea.c ****     	break;
 213:../../../shields/gps-firefly/src/nmea.c ****     case 12:
 214:../../../shields/gps-firefly/src/nmea.c ****           pos = 0;
 215:../../../shields/gps-firefly/src/nmea.c ****           if (b == ',')
 216:../../../shields/gps-firefly/src/nmea.c ****             return OK;
 217:../../../shields/gps-firefly/src/nmea.c ****           else
 218:../../../shields/gps-firefly/src/nmea.c ****         	  return FAIL;
 219:../../../shields/gps-firefly/src/nmea.c **** 
 220:../../../shields/gps-firefly/src/nmea.c ****   }
 221:../../../shields/gps-firefly/src/nmea.c ****   pos++;
 222:../../../shields/gps-firefly/src/nmea.c ****   return REPEAT;
ARM GAS  C:\Users\tijsv\AppData\Local\Temp\ccXwiIpm.s 			page 7


 223:../../../shields/gps-firefly/src/nmea.c **** }
 224:../../../shields/gps-firefly/src/nmea.c **** 
 225:../../../shields/gps-firefly/src/nmea.c **** // parses the longitude orientation
 226:../../../shields/gps-firefly/src/nmea.c **** int parse_ew_ind(uint8_t b) {
 123              		.loc 1 226 29 is_stmt 1 view -0
 124              		.cfi_startproc
 125              		@ args = 0, pretend = 0, frame = 0
 126              		@ frame_needed = 0, uses_anonymous_args = 0
 127              		@ link register save eliminated.
 227:../../../shields/gps-firefly/src/nmea.c **** 	if (b == ',') return OK;
 128              		.loc 1 227 2 view .LVU22
 129              		.loc 1 227 5 is_stmt 0 view .LVU23
 130 0000 2C28     		cmp	r0, #44
 131 0002 07D0     		beq	.L15
 228:../../../shields/gps-firefly/src/nmea.c **** 	if(b != 'E' && b != 'W') { return FAIL; }
 132              		.loc 1 228 2 is_stmt 1 view .LVU24
 133              		.loc 1 228 4 is_stmt 0 view .LVU25
 134 0004 4528     		cmp	r0, #69
 135 0006 01D0     		beq	.L14
 136              		.loc 1 228 14 discriminator 1 view .LVU26
 137 0008 5728     		cmp	r0, #87
 138 000a 05D1     		bne	.L16
 139              	.L14:
 229:../../../shields/gps-firefly/src/nmea.c **** 	position.longitude.ew = b;
 140              		.loc 1 229 2 is_stmt 1 view .LVU27
 141              		.loc 1 229 24 is_stmt 0 view .LVU28
 142 000c 034B     		ldr	r3, .L17
 143 000e 1877     		strb	r0, [r3, #28]
 230:../../../shields/gps-firefly/src/nmea.c **** 
 231:../../../shields/gps-firefly/src/nmea.c **** 	return REPEAT;
 144              		.loc 1 231 2 is_stmt 1 view .LVU29
 145              		.loc 1 231 9 is_stmt 0 view .LVU30
 146 0010 0120     		movs	r0, #1
 147              	.LVL11:
 148              		.loc 1 231 9 view .LVU31
 149 0012 7047     		bx	lr
 150              	.LVL12:
 151              	.L15:
 227:../../../shields/gps-firefly/src/nmea.c **** 	if(b != 'E' && b != 'W') { return FAIL; }
 152              		.loc 1 227 23 view .LVU32
 153 0014 0220     		movs	r0, #2
 154              	.LVL13:
 227:../../../shields/gps-firefly/src/nmea.c **** 	if(b != 'E' && b != 'W') { return FAIL; }
 155              		.loc 1 227 23 view .LVU33
 156 0016 7047     		bx	lr
 157              	.LVL14:
 158              	.L16:
 228:../../../shields/gps-firefly/src/nmea.c **** 	position.longitude.ew = b;
 159              		.loc 1 228 36 view .LVU34
 160 0018 0020     		movs	r0, #0
 161              	.LVL15:
 232:../../../shields/gps-firefly/src/nmea.c **** }
 162              		.loc 1 232 1 view .LVU35
 163 001a 7047     		bx	lr
 164              	.L18:
 165              		.align	2
 166              	.L17:
ARM GAS  C:\Users\tijsv\AppData\Local\Temp\ccXwiIpm.s 			page 8


 167 001c 00000000 		.word	.LANCHOR0
 168              		.cfi_endproc
 169              	.LFE10:
 171              		.section	.text.parse_quality,"ax",%progbits
 172              		.align	1
 173              		.global	parse_quality
 174              		.syntax unified
 175              		.thumb
 176              		.thumb_func
 177              		.fpu fpv4-sp-d16
 179              	parse_quality:
 180              	.LVL16:
 181              	.LFB11:
 233:../../../shields/gps-firefly/src/nmea.c **** 
 234:../../../shields/gps-firefly/src/nmea.c **** int parse_quality(uint8_t b) {
 182              		.loc 1 234 30 is_stmt 1 view -0
 183              		.cfi_startproc
 184              		@ args = 0, pretend = 0, frame = 0
 185              		@ frame_needed = 0, uses_anonymous_args = 0
 186              		@ link register save eliminated.
 235:../../../shields/gps-firefly/src/nmea.c **** 	if (b == ',') return OK;
 187              		.loc 1 235 2 view .LVU37
 188              		.loc 1 235 5 is_stmt 0 view .LVU38
 189 0000 2C28     		cmp	r0, #44
 190 0002 08D0     		beq	.L21
 236:../../../shields/gps-firefly/src/nmea.c **** 	b -= '0';
 191              		.loc 1 236 2 is_stmt 1 view .LVU39
 192              		.loc 1 236 4 is_stmt 0 view .LVU40
 193 0004 3038     		subs	r0, r0, #48
 194              	.LVL17:
 195              		.loc 1 236 4 view .LVU41
 196 0006 C0B2     		uxtb	r0, r0
 197              	.LVL18:
 237:../../../shields/gps-firefly/src/nmea.c **** 	if(b > 8) { return FAIL; }
 198              		.loc 1 237 2 is_stmt 1 view .LVU42
 199              		.loc 1 237 4 is_stmt 0 view .LVU43
 200 0008 0828     		cmp	r0, #8
 201 000a 06D8     		bhi	.L22
 238:../../../shields/gps-firefly/src/nmea.c **** 	position.quality = b;
 202              		.loc 1 238 2 is_stmt 1 view .LVU44
 203              		.loc 1 238 19 is_stmt 0 view .LVU45
 204 000c 044B     		ldr	r3, .L23
 205 000e 83F82000 		strb	r0, [r3, #32]
 239:../../../shields/gps-firefly/src/nmea.c **** 
 240:../../../shields/gps-firefly/src/nmea.c **** 	return REPEAT;
 206              		.loc 1 240 2 is_stmt 1 view .LVU46
 207              		.loc 1 240 9 is_stmt 0 view .LVU47
 208 0012 0120     		movs	r0, #1
 209              	.LVL19:
 210              		.loc 1 240 9 view .LVU48
 211 0014 7047     		bx	lr
 212              	.LVL20:
 213              	.L21:
 235:../../../shields/gps-firefly/src/nmea.c **** 	b -= '0';
 214              		.loc 1 235 23 view .LVU49
 215 0016 0220     		movs	r0, #2
 216              	.LVL21:
ARM GAS  C:\Users\tijsv\AppData\Local\Temp\ccXwiIpm.s 			page 9


 235:../../../shields/gps-firefly/src/nmea.c **** 	b -= '0';
 217              		.loc 1 235 23 view .LVU50
 218 0018 7047     		bx	lr
 219              	.LVL22:
 220              	.L22:
 237:../../../shields/gps-firefly/src/nmea.c **** 	position.quality = b;
 221              		.loc 1 237 21 view .LVU51
 222 001a 0020     		movs	r0, #0
 223              	.LVL23:
 241:../../../shields/gps-firefly/src/nmea.c **** }
 224              		.loc 1 241 1 view .LVU52
 225 001c 7047     		bx	lr
 226              	.L24:
 227 001e 00BF     		.align	2
 228              	.L23:
 229 0020 00000000 		.word	.LANCHOR0
 230              		.cfi_endproc
 231              	.LFE11:
 233              		.section	.text.parse_nr_sats,"ax",%progbits
 234              		.align	1
 235              		.global	parse_nr_sats
 236              		.syntax unified
 237              		.thumb
 238              		.thumb_func
 239              		.fpu fpv4-sp-d16
 241              	parse_nr_sats:
 242              	.LVL24:
 243              	.LFB12:
 242:../../../shields/gps-firefly/src/nmea.c **** 
 243:../../../shields/gps-firefly/src/nmea.c **** int parse_nr_sats(uint8_t b) {
 244              		.loc 1 243 30 is_stmt 1 view -0
 245              		.cfi_startproc
 246              		@ args = 0, pretend = 0, frame = 0
 247              		@ frame_needed = 0, uses_anonymous_args = 0
 248              		@ link register save eliminated.
 244:../../../shields/gps-firefly/src/nmea.c **** 
 245:../../../shields/gps-firefly/src/nmea.c **** 	static uint8_t pos = 0;
 249              		.loc 1 245 2 view .LVU54
 246:../../../shields/gps-firefly/src/nmea.c **** 	if (b == ',')
 250              		.loc 1 246 2 view .LVU55
 251              		.loc 1 246 5 is_stmt 0 view .LVU56
 252 0000 2C28     		cmp	r0, #44
 253 0002 0FD0     		beq	.L31
 247:../../../shields/gps-firefly/src/nmea.c **** 	{
 248:../../../shields/gps-firefly/src/nmea.c **** 		pos = 0;
 249:../../../shields/gps-firefly/src/nmea.c **** 		return OK;
 250:../../../shields/gps-firefly/src/nmea.c **** 	}
 251:../../../shields/gps-firefly/src/nmea.c **** 
 252:../../../shields/gps-firefly/src/nmea.c **** 	if(b < '0' || b > '9') { pos = 0; return FAIL; }
 254              		.loc 1 252 2 is_stmt 1 view .LVU57
 255              		.loc 1 252 13 is_stmt 0 view .LVU58
 256 0004 A0F13003 		sub	r3, r0, #48
 257 0008 DBB2     		uxtb	r3, r3
 258              		.loc 1 252 4 view .LVU59
 259 000a 092B     		cmp	r3, #9
 260 000c 0FD8     		bhi	.L32
 253:../../../shields/gps-firefly/src/nmea.c **** 
ARM GAS  C:\Users\tijsv\AppData\Local\Temp\ccXwiIpm.s 			page 10


 254:../../../shields/gps-firefly/src/nmea.c **** 	if (pos == 0)
 261              		.loc 1 254 2 is_stmt 1 view .LVU60
 262              		.loc 1 254 10 is_stmt 0 view .LVU61
 263 000e 104A     		ldr	r2, .L33
 264 0010 1278     		ldrb	r2, [r2]	@ zero_extendqisi2
 265              		.loc 1 254 5 view .LVU62
 266 0012 82B9     		cbnz	r2, .L29
 255:../../../shields/gps-firefly/src/nmea.c **** 	{
 256:../../../shields/gps-firefly/src/nmea.c **** 		position.nrofsats = (b - '0');
 267              		.loc 1 256 3 is_stmt 1 view .LVU63
 268              		.loc 1 256 21 is_stmt 0 view .LVU64
 269 0014 0F49     		ldr	r1, .L33+4
 270 0016 81F82830 		strb	r3, [r1, #40]
 271              	.LVL25:
 272              	.L30:
 257:../../../shields/gps-firefly/src/nmea.c **** 	}
 258:../../../shields/gps-firefly/src/nmea.c **** 	else
 259:../../../shields/gps-firefly/src/nmea.c **** 	{
 260:../../../shields/gps-firefly/src/nmea.c **** 		position.nrofsats *= 10;
 261:../../../shields/gps-firefly/src/nmea.c **** 		position.nrofsats += (b - '0');
 262:../../../shields/gps-firefly/src/nmea.c **** 	}
 263:../../../shields/gps-firefly/src/nmea.c **** 
 264:../../../shields/gps-firefly/src/nmea.c **** 	pos++;
 273              		.loc 1 264 2 is_stmt 1 view .LVU65
 274              		.loc 1 264 5 is_stmt 0 view .LVU66
 275 001a 0132     		adds	r2, r2, #1
 276 001c 0C4B     		ldr	r3, .L33
 277 001e 1A70     		strb	r2, [r3]
 265:../../../shields/gps-firefly/src/nmea.c ****     return REPEAT;
 278              		.loc 1 265 5 is_stmt 1 view .LVU67
 279              		.loc 1 265 12 is_stmt 0 view .LVU68
 280 0020 0120     		movs	r0, #1
 266:../../../shields/gps-firefly/src/nmea.c **** }
 281              		.loc 1 266 1 view .LVU69
 282 0022 7047     		bx	lr
 283              	.LVL26:
 284              	.L31:
 248:../../../shields/gps-firefly/src/nmea.c **** 		return OK;
 285              		.loc 1 248 3 is_stmt 1 view .LVU70
 248:../../../shields/gps-firefly/src/nmea.c **** 		return OK;
 286              		.loc 1 248 7 is_stmt 0 view .LVU71
 287 0024 0A4B     		ldr	r3, .L33
 288 0026 0022     		movs	r2, #0
 289 0028 1A70     		strb	r2, [r3]
 249:../../../shields/gps-firefly/src/nmea.c **** 	}
 290              		.loc 1 249 3 is_stmt 1 view .LVU72
 249:../../../shields/gps-firefly/src/nmea.c **** 	}
 291              		.loc 1 249 10 is_stmt 0 view .LVU73
 292 002a 0220     		movs	r0, #2
 293              	.LVL27:
 249:../../../shields/gps-firefly/src/nmea.c **** 	}
 294              		.loc 1 249 10 view .LVU74
 295 002c 7047     		bx	lr
 296              	.LVL28:
 297              	.L32:
 252:../../../shields/gps-firefly/src/nmea.c **** 
 298              		.loc 1 252 27 is_stmt 1 discriminator 1 view .LVU75
ARM GAS  C:\Users\tijsv\AppData\Local\Temp\ccXwiIpm.s 			page 11


 252:../../../shields/gps-firefly/src/nmea.c **** 
 299              		.loc 1 252 31 is_stmt 0 discriminator 1 view .LVU76
 300 002e 0020     		movs	r0, #0
 301              	.LVL29:
 252:../../../shields/gps-firefly/src/nmea.c **** 
 302              		.loc 1 252 31 discriminator 1 view .LVU77
 303 0030 074B     		ldr	r3, .L33
 304 0032 1870     		strb	r0, [r3]
 252:../../../shields/gps-firefly/src/nmea.c **** 
 305              		.loc 1 252 36 is_stmt 1 discriminator 1 view .LVU78
 252:../../../shields/gps-firefly/src/nmea.c **** 
 306              		.loc 1 252 43 is_stmt 0 discriminator 1 view .LVU79
 307 0034 7047     		bx	lr
 308              	.LVL30:
 309              	.L29:
 260:../../../shields/gps-firefly/src/nmea.c **** 		position.nrofsats += (b - '0');
 310              		.loc 1 260 3 is_stmt 1 view .LVU80
 260:../../../shields/gps-firefly/src/nmea.c **** 		position.nrofsats += (b - '0');
 311              		.loc 1 260 21 is_stmt 0 view .LVU81
 312 0036 0749     		ldr	r1, .L33+4
 313 0038 91F82830 		ldrb	r3, [r1, #40]	@ zero_extendqisi2
 314 003c 03EB8303 		add	r3, r3, r3, lsl #2
 315 0040 5B00     		lsls	r3, r3, #1
 316 0042 DBB2     		uxtb	r3, r3
 261:../../../shields/gps-firefly/src/nmea.c **** 	}
 317              		.loc 1 261 3 is_stmt 1 view .LVU82
 261:../../../shields/gps-firefly/src/nmea.c **** 	}
 318              		.loc 1 261 21 is_stmt 0 view .LVU83
 319 0044 1844     		add	r0, r0, r3
 320              	.LVL31:
 261:../../../shields/gps-firefly/src/nmea.c **** 	}
 321              		.loc 1 261 21 view .LVU84
 322 0046 3038     		subs	r0, r0, #48
 323 0048 81F82800 		strb	r0, [r1, #40]
 324 004c E5E7     		b	.L30
 325              	.L34:
 326 004e 00BF     		.align	2
 327              	.L33:
 328 0050 00000000 		.word	.LANCHOR1
 329 0054 00000000 		.word	.LANCHOR0
 330              		.cfi_endproc
 331              	.LFE12:
 333              		.global	__aeabi_i2d
 334              		.global	__aeabi_dmul
 335              		.global	__aeabi_dadd
 336              		.global	__aeabi_d2uiz
 337              		.global	__aeabi_f2d
 338              		.global	__aeabi_d2f
 339              		.global	__aeabi_ddiv
 340              		.section	.text.parse_time,"ax",%progbits
 341              		.align	1
 342              		.global	parse_time
 343              		.syntax unified
 344              		.thumb
 345              		.thumb_func
 346              		.fpu fpv4-sp-d16
 348              	parse_time:
ARM GAS  C:\Users\tijsv\AppData\Local\Temp\ccXwiIpm.s 			page 12


 349              	.LVL32:
 350              	.LFB6:
  77:../../../shields/gps-firefly/src/nmea.c ****   static uint8_t pos = 0;
 351              		.loc 1 77 28 is_stmt 1 view -0
 352              		.cfi_startproc
 353              		@ args = 0, pretend = 0, frame = 0
 354              		@ frame_needed = 0, uses_anonymous_args = 0
  77:../../../shields/gps-firefly/src/nmea.c ****   static uint8_t pos = 0;
 355              		.loc 1 77 28 is_stmt 0 view .LVU86
 356 0000 F8B5     		push	{r3, r4, r5, r6, r7, lr}
 357              	.LCFI0:
 358              		.cfi_def_cfa_offset 24
 359              		.cfi_offset 3, -24
 360              		.cfi_offset 4, -20
 361              		.cfi_offset 5, -16
 362              		.cfi_offset 6, -12
 363              		.cfi_offset 7, -8
 364              		.cfi_offset 14, -4
  78:../../../shields/gps-firefly/src/nmea.c ****   switch(pos) {
 365              		.loc 1 78 3 is_stmt 1 view .LVU87
  79:../../../shields/gps-firefly/src/nmea.c ****     case 0: // Hhmmss.sss
 366              		.loc 1 79 3 view .LVU88
 367 0002 674B     		ldr	r3, .L51+8
 368 0004 1B78     		ldrb	r3, [r3]	@ zero_extendqisi2
 369 0006 0A2B     		cmp	r3, #10
 370 0008 32D8     		bhi	.L36
 371 000a DFE803F0 		tbb	[pc, r3]
 372              	.L38:
 373 000e 06       		.byte	(.L42-.L38)/2
 374 000f 06       		.byte	(.L42-.L38)/2
 375 0010 37       		.byte	(.L41-.L38)/2
 376 0011 37       		.byte	(.L41-.L38)/2
 377 0012 63       		.byte	(.L40-.L38)/2
 378 0013 63       		.byte	(.L40-.L38)/2
 379 0014 31       		.byte	(.L36-.L38)/2
 380 0015 8F       		.byte	(.L39-.L38)/2
 381 0016 8F       		.byte	(.L39-.L38)/2
 382 0017 8F       		.byte	(.L39-.L38)/2
 383 0018 BA       		.byte	(.L37-.L38)/2
 384 0019 00       		.p2align 1
 385              	.L42:
  82:../../../shields/gps-firefly/src/nmea.c ****       position.time.hour += (b - '0') * pow(10, (1-pos));
 386              		.loc 1 82 7 view .LVU89
  82:../../../shields/gps-firefly/src/nmea.c ****       position.time.hour += (b - '0') * pow(10, (1-pos));
 387              		.loc 1 82 18 is_stmt 0 view .LVU90
 388 001a A0F13002 		sub	r2, r0, #48
 389 001e D2B2     		uxtb	r2, r2
  82:../../../shields/gps-firefly/src/nmea.c ****       position.time.hour += (b - '0') * pow(10, (1-pos));
 390              		.loc 1 82 9 view .LVU91
 391 0020 092A     		cmp	r2, #9
 392 0022 03D9     		bls	.L43
  82:../../../shields/gps-firefly/src/nmea.c ****       position.time.hour += (b - '0') * pow(10, (1-pos));
 393              		.loc 1 82 32 is_stmt 1 discriminator 1 view .LVU92
  82:../../../shields/gps-firefly/src/nmea.c ****       position.time.hour += (b - '0') * pow(10, (1-pos));
 394              		.loc 1 82 36 is_stmt 0 discriminator 1 view .LVU93
 395 0024 0020     		movs	r0, #0
 396              	.LVL33:
ARM GAS  C:\Users\tijsv\AppData\Local\Temp\ccXwiIpm.s 			page 13


  82:../../../shields/gps-firefly/src/nmea.c ****       position.time.hour += (b - '0') * pow(10, (1-pos));
 397              		.loc 1 82 36 discriminator 1 view .LVU94
 398 0026 5E4B     		ldr	r3, .L51+8
 399 0028 1870     		strb	r0, [r3]
  82:../../../shields/gps-firefly/src/nmea.c ****       position.time.hour += (b - '0') * pow(10, (1-pos));
 400              		.loc 1 82 41 is_stmt 1 discriminator 1 view .LVU95
  82:../../../shields/gps-firefly/src/nmea.c ****       position.time.hour += (b - '0') * pow(10, (1-pos));
 401              		.loc 1 82 48 is_stmt 0 discriminator 1 view .LVU96
 402 002a 26E0     		b	.L35
 403              	.LVL34:
 404              	.L43:
  83:../../../shields/gps-firefly/src/nmea.c ****       break;
 405              		.loc 1 83 7 is_stmt 1 view .LVU97
  83:../../../shields/gps-firefly/src/nmea.c ****       break;
 406              		.loc 1 83 32 is_stmt 0 view .LVU98
 407 002c A0F13004 		sub	r4, r0, #48
  83:../../../shields/gps-firefly/src/nmea.c ****       break;
 408              		.loc 1 83 41 view .LVU99
 409 0030 C3F10100 		rsb	r0, r3, #1
 410              	.LVL35:
  83:../../../shields/gps-firefly/src/nmea.c ****       break;
 411              		.loc 1 83 41 view .LVU100
 412 0034 FFF7FEFF 		bl	__aeabi_i2d
 413              	.LVL36:
 414 0038 41EC110B 		vmov	d1, r0, r1
 415 003c 9FED560B 		vldr.64	d0, .L51
 416 0040 FFF7FEFF 		bl	pow
 417              	.LVL37:
 418 0044 57EC106B 		vmov	r6, r7, d0
  83:../../../shields/gps-firefly/src/nmea.c ****       break;
 419              		.loc 1 83 39 view .LVU101
 420 0048 2046     		mov	r0, r4
 421 004a FFF7FEFF 		bl	__aeabi_i2d
 422              	.LVL38:
 423 004e 3246     		mov	r2, r6
 424 0050 3B46     		mov	r3, r7
 425 0052 FFF7FEFF 		bl	__aeabi_dmul
 426              	.LVL39:
 427 0056 0446     		mov	r4, r0
 428 0058 0D46     		mov	r5, r1
  83:../../../shields/gps-firefly/src/nmea.c ****       break;
 429              		.loc 1 83 26 view .LVU102
 430 005a 524E     		ldr	r6, .L51+12
 431 005c 3078     		ldrb	r0, [r6]	@ zero_extendqisi2
 432 005e FFF7FEFF 		bl	__aeabi_i2d
 433              	.LVL40:
 434 0062 2246     		mov	r2, r4
 435 0064 2B46     		mov	r3, r5
 436 0066 FFF7FEFF 		bl	__aeabi_dadd
 437              	.LVL41:
 438 006a FFF7FEFF 		bl	__aeabi_d2uiz
 439              	.LVL42:
 440 006e 3070     		strb	r0, [r6]
  84:../../../shields/gps-firefly/src/nmea.c ****     case 2: // hhMmss.sss
 441              		.loc 1 84 7 is_stmt 1 view .LVU103
 442              	.L36:
 112:../../../shields/gps-firefly/src/nmea.c ****   return REPEAT;
ARM GAS  C:\Users\tijsv\AppData\Local\Temp\ccXwiIpm.s 			page 14


 443              		.loc 1 112 3 view .LVU104
 112:../../../shields/gps-firefly/src/nmea.c ****   return REPEAT;
 444              		.loc 1 112 6 is_stmt 0 view .LVU105
 445 0070 4B4A     		ldr	r2, .L51+8
 446 0072 1378     		ldrb	r3, [r2]	@ zero_extendqisi2
 447 0074 0133     		adds	r3, r3, #1
 448 0076 1370     		strb	r3, [r2]
 113:../../../shields/gps-firefly/src/nmea.c **** 
 449              		.loc 1 113 3 is_stmt 1 view .LVU106
 113:../../../shields/gps-firefly/src/nmea.c **** 
 450              		.loc 1 113 10 is_stmt 0 view .LVU107
 451 0078 0120     		movs	r0, #1
 452              	.L35:
 115:../../../shields/gps-firefly/src/nmea.c **** 
 453              		.loc 1 115 1 view .LVU108
 454 007a F8BD     		pop	{r3, r4, r5, r6, r7, pc}
 455              	.LVL43:
 456              	.L41:
  87:../../../shields/gps-firefly/src/nmea.c ****       position.time.min += (b - '0') * pow(10, (3-pos));
 457              		.loc 1 87 7 is_stmt 1 view .LVU109
  87:../../../shields/gps-firefly/src/nmea.c ****       position.time.min += (b - '0') * pow(10, (3-pos));
 458              		.loc 1 87 18 is_stmt 0 view .LVU110
 459 007c A0F13002 		sub	r2, r0, #48
 460 0080 D2B2     		uxtb	r2, r2
  87:../../../shields/gps-firefly/src/nmea.c ****       position.time.min += (b - '0') * pow(10, (3-pos));
 461              		.loc 1 87 9 view .LVU111
 462 0082 092A     		cmp	r2, #9
 463 0084 03D9     		bls	.L45
  87:../../../shields/gps-firefly/src/nmea.c ****       position.time.min += (b - '0') * pow(10, (3-pos));
 464              		.loc 1 87 32 is_stmt 1 discriminator 1 view .LVU112
  87:../../../shields/gps-firefly/src/nmea.c ****       position.time.min += (b - '0') * pow(10, (3-pos));
 465              		.loc 1 87 36 is_stmt 0 discriminator 1 view .LVU113
 466 0086 0020     		movs	r0, #0
 467              	.LVL44:
  87:../../../shields/gps-firefly/src/nmea.c ****       position.time.min += (b - '0') * pow(10, (3-pos));
 468              		.loc 1 87 36 discriminator 1 view .LVU114
 469 0088 454B     		ldr	r3, .L51+8
 470 008a 1870     		strb	r0, [r3]
  87:../../../shields/gps-firefly/src/nmea.c ****       position.time.min += (b - '0') * pow(10, (3-pos));
 471              		.loc 1 87 41 is_stmt 1 discriminator 1 view .LVU115
  87:../../../shields/gps-firefly/src/nmea.c ****       position.time.min += (b - '0') * pow(10, (3-pos));
 472              		.loc 1 87 48 is_stmt 0 discriminator 1 view .LVU116
 473 008c F5E7     		b	.L35
 474              	.LVL45:
 475              	.L45:
  88:../../../shields/gps-firefly/src/nmea.c ****       break;
 476              		.loc 1 88 7 is_stmt 1 view .LVU117
  88:../../../shields/gps-firefly/src/nmea.c ****       break;
 477              		.loc 1 88 31 is_stmt 0 view .LVU118
 478 008e A0F13004 		sub	r4, r0, #48
  88:../../../shields/gps-firefly/src/nmea.c ****       break;
 479              		.loc 1 88 40 view .LVU119
 480 0092 C3F10300 		rsb	r0, r3, #3
 481              	.LVL46:
  88:../../../shields/gps-firefly/src/nmea.c ****       break;
 482              		.loc 1 88 40 view .LVU120
 483 0096 FFF7FEFF 		bl	__aeabi_i2d
ARM GAS  C:\Users\tijsv\AppData\Local\Temp\ccXwiIpm.s 			page 15


 484              	.LVL47:
 485 009a 41EC110B 		vmov	d1, r0, r1
 486 009e 9FED3E0B 		vldr.64	d0, .L51
 487 00a2 FFF7FEFF 		bl	pow
 488              	.LVL48:
 489 00a6 57EC106B 		vmov	r6, r7, d0
  88:../../../shields/gps-firefly/src/nmea.c ****       break;
 490              		.loc 1 88 38 view .LVU121
 491 00aa 2046     		mov	r0, r4
 492 00ac FFF7FEFF 		bl	__aeabi_i2d
 493              	.LVL49:
 494 00b0 3246     		mov	r2, r6
 495 00b2 3B46     		mov	r3, r7
 496 00b4 FFF7FEFF 		bl	__aeabi_dmul
 497              	.LVL50:
 498 00b8 0446     		mov	r4, r0
 499 00ba 0D46     		mov	r5, r1
  88:../../../shields/gps-firefly/src/nmea.c ****       break;
 500              		.loc 1 88 25 view .LVU122
 501 00bc 394E     		ldr	r6, .L51+12
 502 00be 7078     		ldrb	r0, [r6, #1]	@ zero_extendqisi2
 503 00c0 FFF7FEFF 		bl	__aeabi_i2d
 504              	.LVL51:
 505 00c4 2246     		mov	r2, r4
 506 00c6 2B46     		mov	r3, r5
 507 00c8 FFF7FEFF 		bl	__aeabi_dadd
 508              	.LVL52:
 509 00cc FFF7FEFF 		bl	__aeabi_d2uiz
 510              	.LVL53:
 511 00d0 7070     		strb	r0, [r6, #1]
  89:../../../shields/gps-firefly/src/nmea.c ****     case 4: // hhmmSs.sss
 512              		.loc 1 89 7 is_stmt 1 view .LVU123
 513 00d2 CDE7     		b	.L36
 514              	.LVL54:
 515              	.L40:
  92:../../../shields/gps-firefly/src/nmea.c ****       position.time.sec += (b - '0') * pow(10, (5-pos));
 516              		.loc 1 92 7 view .LVU124
  92:../../../shields/gps-firefly/src/nmea.c ****       position.time.sec += (b - '0') * pow(10, (5-pos));
 517              		.loc 1 92 18 is_stmt 0 view .LVU125
 518 00d4 A0F13002 		sub	r2, r0, #48
 519 00d8 D2B2     		uxtb	r2, r2
  92:../../../shields/gps-firefly/src/nmea.c ****       position.time.sec += (b - '0') * pow(10, (5-pos));
 520              		.loc 1 92 9 view .LVU126
 521 00da 092A     		cmp	r2, #9
 522 00dc 03D9     		bls	.L46
  92:../../../shields/gps-firefly/src/nmea.c ****       position.time.sec += (b - '0') * pow(10, (5-pos));
 523              		.loc 1 92 32 is_stmt 1 discriminator 1 view .LVU127
  92:../../../shields/gps-firefly/src/nmea.c ****       position.time.sec += (b - '0') * pow(10, (5-pos));
 524              		.loc 1 92 36 is_stmt 0 discriminator 1 view .LVU128
 525 00de 0020     		movs	r0, #0
 526              	.LVL55:
  92:../../../shields/gps-firefly/src/nmea.c ****       position.time.sec += (b - '0') * pow(10, (5-pos));
 527              		.loc 1 92 36 discriminator 1 view .LVU129
 528 00e0 2F4B     		ldr	r3, .L51+8
 529 00e2 1870     		strb	r0, [r3]
  92:../../../shields/gps-firefly/src/nmea.c ****       position.time.sec += (b - '0') * pow(10, (5-pos));
 530              		.loc 1 92 41 is_stmt 1 discriminator 1 view .LVU130
ARM GAS  C:\Users\tijsv\AppData\Local\Temp\ccXwiIpm.s 			page 16


  92:../../../shields/gps-firefly/src/nmea.c ****       position.time.sec += (b - '0') * pow(10, (5-pos));
 531              		.loc 1 92 48 is_stmt 0 discriminator 1 view .LVU131
 532 00e4 C9E7     		b	.L35
 533              	.LVL56:
 534              	.L46:
  93:../../../shields/gps-firefly/src/nmea.c ****       break;
 535              		.loc 1 93 7 is_stmt 1 view .LVU132
  93:../../../shields/gps-firefly/src/nmea.c ****       break;
 536              		.loc 1 93 31 is_stmt 0 view .LVU133
 537 00e6 A0F13004 		sub	r4, r0, #48
  93:../../../shields/gps-firefly/src/nmea.c ****       break;
 538              		.loc 1 93 40 view .LVU134
 539 00ea C3F10500 		rsb	r0, r3, #5
 540              	.LVL57:
  93:../../../shields/gps-firefly/src/nmea.c ****       break;
 541              		.loc 1 93 40 view .LVU135
 542 00ee FFF7FEFF 		bl	__aeabi_i2d
 543              	.LVL58:
 544 00f2 41EC110B 		vmov	d1, r0, r1
 545 00f6 9FED280B 		vldr.64	d0, .L51
 546 00fa FFF7FEFF 		bl	pow
 547              	.LVL59:
 548 00fe 57EC106B 		vmov	r6, r7, d0
  93:../../../shields/gps-firefly/src/nmea.c ****       break;
 549              		.loc 1 93 38 view .LVU136
 550 0102 2046     		mov	r0, r4
 551 0104 FFF7FEFF 		bl	__aeabi_i2d
 552              	.LVL60:
 553 0108 3246     		mov	r2, r6
 554 010a 3B46     		mov	r3, r7
 555 010c FFF7FEFF 		bl	__aeabi_dmul
 556              	.LVL61:
 557 0110 0446     		mov	r4, r0
 558 0112 0D46     		mov	r5, r1
  93:../../../shields/gps-firefly/src/nmea.c ****       break;
 559              		.loc 1 93 25 view .LVU137
 560 0114 234E     		ldr	r6, .L51+12
 561 0116 7068     		ldr	r0, [r6, #4]	@ float
 562 0118 FFF7FEFF 		bl	__aeabi_f2d
 563              	.LVL62:
 564 011c 2246     		mov	r2, r4
 565 011e 2B46     		mov	r3, r5
 566 0120 FFF7FEFF 		bl	__aeabi_dadd
 567              	.LVL63:
 568 0124 FFF7FEFF 		bl	__aeabi_d2f
 569              	.LVL64:
 570 0128 7060     		str	r0, [r6, #4]	@ float
  94:../../../shields/gps-firefly/src/nmea.c ****     case 6: // skip .
 571              		.loc 1 94 7 is_stmt 1 view .LVU138
 572 012a A1E7     		b	.L36
 573              	.LVL65:
 574              	.L39:
 100:../../../shields/gps-firefly/src/nmea.c ****       position.time.sec += (b - '0') / pow(10, (pos - 6));
 575              		.loc 1 100 7 view .LVU139
 100:../../../shields/gps-firefly/src/nmea.c ****       position.time.sec += (b - '0') / pow(10, (pos - 6));
 576              		.loc 1 100 18 is_stmt 0 view .LVU140
 577 012c A0F13002 		sub	r2, r0, #48
ARM GAS  C:\Users\tijsv\AppData\Local\Temp\ccXwiIpm.s 			page 17


 578 0130 D2B2     		uxtb	r2, r2
 100:../../../shields/gps-firefly/src/nmea.c ****       position.time.sec += (b - '0') / pow(10, (pos - 6));
 579              		.loc 1 100 9 view .LVU141
 580 0132 092A     		cmp	r2, #9
 581 0134 03D9     		bls	.L47
 100:../../../shields/gps-firefly/src/nmea.c ****       position.time.sec += (b - '0') / pow(10, (pos - 6));
 582              		.loc 1 100 32 is_stmt 1 discriminator 1 view .LVU142
 100:../../../shields/gps-firefly/src/nmea.c ****       position.time.sec += (b - '0') / pow(10, (pos - 6));
 583              		.loc 1 100 36 is_stmt 0 discriminator 1 view .LVU143
 584 0136 0020     		movs	r0, #0
 585              	.LVL66:
 100:../../../shields/gps-firefly/src/nmea.c ****       position.time.sec += (b - '0') / pow(10, (pos - 6));
 586              		.loc 1 100 36 discriminator 1 view .LVU144
 587 0138 194B     		ldr	r3, .L51+8
 588 013a 1870     		strb	r0, [r3]
 100:../../../shields/gps-firefly/src/nmea.c ****       position.time.sec += (b - '0') / pow(10, (pos - 6));
 589              		.loc 1 100 41 is_stmt 1 discriminator 1 view .LVU145
 100:../../../shields/gps-firefly/src/nmea.c ****       position.time.sec += (b - '0') / pow(10, (pos - 6));
 590              		.loc 1 100 48 is_stmt 0 discriminator 1 view .LVU146
 591 013c 9DE7     		b	.L35
 592              	.LVL67:
 593              	.L47:
 101:../../../shields/gps-firefly/src/nmea.c ****       break;
 594              		.loc 1 101 7 is_stmt 1 view .LVU147
 101:../../../shields/gps-firefly/src/nmea.c ****       break;
 595              		.loc 1 101 31 is_stmt 0 view .LVU148
 596 013e A0F13004 		sub	r4, r0, #48
 101:../../../shields/gps-firefly/src/nmea.c ****       break;
 597              		.loc 1 101 40 view .LVU149
 598 0142 981F     		subs	r0, r3, #6
 599              	.LVL68:
 101:../../../shields/gps-firefly/src/nmea.c ****       break;
 600              		.loc 1 101 40 view .LVU150
 601 0144 FFF7FEFF 		bl	__aeabi_i2d
 602              	.LVL69:
 603 0148 41EC110B 		vmov	d1, r0, r1
 604 014c 9FED120B 		vldr.64	d0, .L51
 605 0150 FFF7FEFF 		bl	pow
 606              	.LVL70:
 607 0154 57EC106B 		vmov	r6, r7, d0
 101:../../../shields/gps-firefly/src/nmea.c ****       break;
 608              		.loc 1 101 38 view .LVU151
 609 0158 2046     		mov	r0, r4
 610 015a FFF7FEFF 		bl	__aeabi_i2d
 611              	.LVL71:
 612 015e 3246     		mov	r2, r6
 613 0160 3B46     		mov	r3, r7
 614 0162 FFF7FEFF 		bl	__aeabi_ddiv
 615              	.LVL72:
 616 0166 0446     		mov	r4, r0
 617 0168 0D46     		mov	r5, r1
 101:../../../shields/gps-firefly/src/nmea.c ****       break;
 618              		.loc 1 101 25 view .LVU152
 619 016a 0E4E     		ldr	r6, .L51+12
 620 016c 7068     		ldr	r0, [r6, #4]	@ float
 621 016e FFF7FEFF 		bl	__aeabi_f2d
 622              	.LVL73:
ARM GAS  C:\Users\tijsv\AppData\Local\Temp\ccXwiIpm.s 			page 18


 623 0172 2246     		mov	r2, r4
 624 0174 2B46     		mov	r3, r5
 625 0176 FFF7FEFF 		bl	__aeabi_dadd
 626              	.LVL74:
 627 017a FFF7FEFF 		bl	__aeabi_d2f
 628              	.LVL75:
 629 017e 7060     		str	r0, [r6, #4]	@ float
 102:../../../shields/gps-firefly/src/nmea.c ****     case 10:
 630              		.loc 1 102 7 is_stmt 1 view .LVU153
 631 0180 76E7     		b	.L36
 632              	.LVL76:
 633              	.L37:
 104:../../../shields/gps-firefly/src/nmea.c ****       if (b == ',')
 634              		.loc 1 104 7 view .LVU154
 104:../../../shields/gps-firefly/src/nmea.c ****       if (b == ',')
 635              		.loc 1 104 11 is_stmt 0 view .LVU155
 636 0182 074B     		ldr	r3, .L51+8
 637 0184 0022     		movs	r2, #0
 638 0186 1A70     		strb	r2, [r3]
 105:../../../shields/gps-firefly/src/nmea.c ****         return OK;
 639              		.loc 1 105 7 is_stmt 1 view .LVU156
 105:../../../shields/gps-firefly/src/nmea.c ****         return OK;
 640              		.loc 1 105 10 is_stmt 0 view .LVU157
 641 0188 2C28     		cmp	r0, #44
 642 018a 01D0     		beq	.L50
 108:../../../shields/gps-firefly/src/nmea.c **** 
 643              		.loc 1 108 15 view .LVU158
 644 018c 0020     		movs	r0, #0
 645              	.LVL77:
 108:../../../shields/gps-firefly/src/nmea.c **** 
 646              		.loc 1 108 15 view .LVU159
 647 018e 74E7     		b	.L35
 648              	.LVL78:
 649              	.L50:
 106:../../../shields/gps-firefly/src/nmea.c ****       else
 650              		.loc 1 106 16 view .LVU160
 651 0190 0220     		movs	r0, #2
 652              	.LVL79:
 106:../../../shields/gps-firefly/src/nmea.c ****       else
 653              		.loc 1 106 16 view .LVU161
 654 0192 72E7     		b	.L35
 655              	.L52:
 656 0194 AFF30080 		.align	3
 657              	.L51:
 658 0198 00000000 		.word	0
 659 019c 00002440 		.word	1076101120
 660 01a0 00000000 		.word	.LANCHOR2
 661 01a4 00000000 		.word	.LANCHOR0
 662              		.cfi_endproc
 663              	.LFE6:
 665              		.section	.text.parse_latitude,"ax",%progbits
 666              		.align	1
 667              		.global	parse_latitude
 668              		.syntax unified
 669              		.thumb
 670              		.thumb_func
 671              		.fpu fpv4-sp-d16
ARM GAS  C:\Users\tijsv\AppData\Local\Temp\ccXwiIpm.s 			page 19


 673              	parse_latitude:
 674              	.LVL80:
 675              	.LFB7:
 118:../../../shields/gps-firefly/src/nmea.c ****   static uint8_t pos = 0;
 676              		.loc 1 118 31 is_stmt 1 view -0
 677              		.cfi_startproc
 678              		@ args = 0, pretend = 0, frame = 0
 679              		@ frame_needed = 0, uses_anonymous_args = 0
 118:../../../shields/gps-firefly/src/nmea.c ****   static uint8_t pos = 0;
 680              		.loc 1 118 31 is_stmt 0 view .LVU163
 681 0000 F8B5     		push	{r3, r4, r5, r6, r7, lr}
 682              	.LCFI1:
 683              		.cfi_def_cfa_offset 24
 684              		.cfi_offset 3, -24
 685              		.cfi_offset 4, -20
 686              		.cfi_offset 5, -16
 687              		.cfi_offset 6, -12
 688              		.cfi_offset 7, -8
 689              		.cfi_offset 14, -4
 119:../../../shields/gps-firefly/src/nmea.c ****   switch(pos) {
 690              		.loc 1 119 3 is_stmt 1 view .LVU164
 120:../../../shields/gps-firefly/src/nmea.c ****     case 0: // Ddmm.mmmm
 691              		.loc 1 120 3 view .LVU165
 692 0002 6B4B     		ldr	r3, .L71+8
 693 0004 1B78     		ldrb	r3, [r3]	@ zero_extendqisi2
 694 0006 0B2B     		cmp	r3, #11
 695 0008 00F28D80 		bhi	.L54
 696 000c DFE803F0 		tbb	[pc, r3]
 697              	.L56:
 698 0010 06       		.byte	(.L61-.L56)/2
 699 0011 06       		.byte	(.L61-.L56)/2
 700 0012 32       		.byte	(.L60-.L56)/2
 701 0013 32       		.byte	(.L60-.L56)/2
 702 0014 8B       		.byte	(.L54-.L56)/2
 703 0015 5E       		.byte	(.L59-.L56)/2
 704 0016 5E       		.byte	(.L59-.L56)/2
 705 0017 5E       		.byte	(.L59-.L56)/2
 706 0018 5E       		.byte	(.L59-.L56)/2
 707 0019 89       		.byte	(.L58-.L56)/2
 708 001a 96       		.byte	(.L57-.L56)/2
 709 001b C1       		.byte	(.L55-.L56)/2
 710              		.p2align 1
 711              	.L61:
 123:../../../shields/gps-firefly/src/nmea.c ****       position.latitude.deg += (b - '0') * pow(10, (1-pos));
 712              		.loc 1 123 7 view .LVU166
 123:../../../shields/gps-firefly/src/nmea.c ****       position.latitude.deg += (b - '0') * pow(10, (1-pos));
 713              		.loc 1 123 18 is_stmt 0 view .LVU167
 714 001c A0F13002 		sub	r2, r0, #48
 715 0020 D2B2     		uxtb	r2, r2
 123:../../../shields/gps-firefly/src/nmea.c ****       position.latitude.deg += (b - '0') * pow(10, (1-pos));
 716              		.loc 1 123 9 view .LVU168
 717 0022 092A     		cmp	r2, #9
 718 0024 03D9     		bls	.L62
 123:../../../shields/gps-firefly/src/nmea.c ****       position.latitude.deg += (b - '0') * pow(10, (1-pos));
 719              		.loc 1 123 32 is_stmt 1 discriminator 1 view .LVU169
 123:../../../shields/gps-firefly/src/nmea.c ****       position.latitude.deg += (b - '0') * pow(10, (1-pos));
 720              		.loc 1 123 36 is_stmt 0 discriminator 1 view .LVU170
ARM GAS  C:\Users\tijsv\AppData\Local\Temp\ccXwiIpm.s 			page 20


 721 0026 0020     		movs	r0, #0
 722              	.LVL81:
 123:../../../shields/gps-firefly/src/nmea.c ****       position.latitude.deg += (b - '0') * pow(10, (1-pos));
 723              		.loc 1 123 36 discriminator 1 view .LVU171
 724 0028 614B     		ldr	r3, .L71+8
 725 002a 1870     		strb	r0, [r3]
 123:../../../shields/gps-firefly/src/nmea.c ****       position.latitude.deg += (b - '0') * pow(10, (1-pos));
 726              		.loc 1 123 41 is_stmt 1 discriminator 1 view .LVU172
 123:../../../shields/gps-firefly/src/nmea.c ****       position.latitude.deg += (b - '0') * pow(10, (1-pos));
 727              		.loc 1 123 48 is_stmt 0 discriminator 1 view .LVU173
 728 002c 80E0     		b	.L53
 729              	.LVL82:
 730              	.L62:
 124:../../../shields/gps-firefly/src/nmea.c ****       break;
 731              		.loc 1 124 7 is_stmt 1 view .LVU174
 124:../../../shields/gps-firefly/src/nmea.c ****       break;
 732              		.loc 1 124 35 is_stmt 0 view .LVU175
 733 002e A0F13004 		sub	r4, r0, #48
 124:../../../shields/gps-firefly/src/nmea.c ****       break;
 734              		.loc 1 124 44 view .LVU176
 735 0032 C3F10100 		rsb	r0, r3, #1
 736              	.LVL83:
 124:../../../shields/gps-firefly/src/nmea.c ****       break;
 737              		.loc 1 124 44 view .LVU177
 738 0036 FFF7FEFF 		bl	__aeabi_i2d
 739              	.LVL84:
 740 003a 41EC110B 		vmov	d1, r0, r1
 741 003e 9FED5A0B 		vldr.64	d0, .L71
 742 0042 FFF7FEFF 		bl	pow
 743              	.LVL85:
 744 0046 57EC106B 		vmov	r6, r7, d0
 124:../../../shields/gps-firefly/src/nmea.c ****       break;
 745              		.loc 1 124 42 view .LVU178
 746 004a 2046     		mov	r0, r4
 747 004c FFF7FEFF 		bl	__aeabi_i2d
 748              	.LVL86:
 749 0050 3246     		mov	r2, r6
 750 0052 3B46     		mov	r3, r7
 751 0054 FFF7FEFF 		bl	__aeabi_dmul
 752              	.LVL87:
 753 0058 0446     		mov	r4, r0
 754 005a 0D46     		mov	r5, r1
 124:../../../shields/gps-firefly/src/nmea.c ****       break;
 755              		.loc 1 124 29 view .LVU179
 756 005c 554E     		ldr	r6, .L71+12
 757 005e 307A     		ldrb	r0, [r6, #8]	@ zero_extendqisi2
 758 0060 FFF7FEFF 		bl	__aeabi_i2d
 759              	.LVL88:
 760 0064 2246     		mov	r2, r4
 761 0066 2B46     		mov	r3, r5
 762 0068 FFF7FEFF 		bl	__aeabi_dadd
 763              	.LVL89:
 764 006c FFF7FEFF 		bl	__aeabi_d2uiz
 765              	.LVL90:
 766 0070 3072     		strb	r0, [r6, #8]
 125:../../../shields/gps-firefly/src/nmea.c ****     case 2: // Ddmm.mmmm
 767              		.loc 1 125 7 is_stmt 1 view .LVU180
ARM GAS  C:\Users\tijsv\AppData\Local\Temp\ccXwiIpm.s 			page 21


 768 0072 58E0     		b	.L54
 769              	.LVL91:
 770              	.L60:
 128:../../../shields/gps-firefly/src/nmea.c ****       position.latitude.min += (b - '0') * pow(10, (3-pos));
 771              		.loc 1 128 7 view .LVU181
 128:../../../shields/gps-firefly/src/nmea.c ****       position.latitude.min += (b - '0') * pow(10, (3-pos));
 772              		.loc 1 128 18 is_stmt 0 view .LVU182
 773 0074 A0F13002 		sub	r2, r0, #48
 774 0078 D2B2     		uxtb	r2, r2
 128:../../../shields/gps-firefly/src/nmea.c ****       position.latitude.min += (b - '0') * pow(10, (3-pos));
 775              		.loc 1 128 9 view .LVU183
 776 007a 092A     		cmp	r2, #9
 777 007c 03D9     		bls	.L64
 128:../../../shields/gps-firefly/src/nmea.c ****       position.latitude.min += (b - '0') * pow(10, (3-pos));
 778              		.loc 1 128 32 is_stmt 1 discriminator 1 view .LVU184
 128:../../../shields/gps-firefly/src/nmea.c ****       position.latitude.min += (b - '0') * pow(10, (3-pos));
 779              		.loc 1 128 36 is_stmt 0 discriminator 1 view .LVU185
 780 007e 0020     		movs	r0, #0
 781              	.LVL92:
 128:../../../shields/gps-firefly/src/nmea.c ****       position.latitude.min += (b - '0') * pow(10, (3-pos));
 782              		.loc 1 128 36 discriminator 1 view .LVU186
 783 0080 4B4B     		ldr	r3, .L71+8
 784 0082 1870     		strb	r0, [r3]
 128:../../../shields/gps-firefly/src/nmea.c ****       position.latitude.min += (b - '0') * pow(10, (3-pos));
 785              		.loc 1 128 41 is_stmt 1 discriminator 1 view .LVU187
 128:../../../shields/gps-firefly/src/nmea.c ****       position.latitude.min += (b - '0') * pow(10, (3-pos));
 786              		.loc 1 128 48 is_stmt 0 discriminator 1 view .LVU188
 787 0084 54E0     		b	.L53
 788              	.LVL93:
 789              	.L64:
 129:../../../shields/gps-firefly/src/nmea.c ****       break;
 790              		.loc 1 129 7 is_stmt 1 view .LVU189
 129:../../../shields/gps-firefly/src/nmea.c ****       break;
 791              		.loc 1 129 35 is_stmt 0 view .LVU190
 792 0086 A0F13004 		sub	r4, r0, #48
 129:../../../shields/gps-firefly/src/nmea.c ****       break;
 793              		.loc 1 129 44 view .LVU191
 794 008a C3F10300 		rsb	r0, r3, #3
 795              	.LVL94:
 129:../../../shields/gps-firefly/src/nmea.c ****       break;
 796              		.loc 1 129 44 view .LVU192
 797 008e FFF7FEFF 		bl	__aeabi_i2d
 798              	.LVL95:
 799 0092 41EC110B 		vmov	d1, r0, r1
 800 0096 9FED440B 		vldr.64	d0, .L71
 801 009a FFF7FEFF 		bl	pow
 802              	.LVL96:
 803 009e 57EC106B 		vmov	r6, r7, d0
 129:../../../shields/gps-firefly/src/nmea.c ****       break;
 804              		.loc 1 129 42 view .LVU193
 805 00a2 2046     		mov	r0, r4
 806 00a4 FFF7FEFF 		bl	__aeabi_i2d
 807              	.LVL97:
 808 00a8 3246     		mov	r2, r6
 809 00aa 3B46     		mov	r3, r7
 810 00ac FFF7FEFF 		bl	__aeabi_dmul
 811              	.LVL98:
ARM GAS  C:\Users\tijsv\AppData\Local\Temp\ccXwiIpm.s 			page 22


 812 00b0 0446     		mov	r4, r0
 813 00b2 0D46     		mov	r5, r1
 129:../../../shields/gps-firefly/src/nmea.c ****       break;
 814              		.loc 1 129 29 view .LVU194
 815 00b4 3F4E     		ldr	r6, .L71+12
 816 00b6 F068     		ldr	r0, [r6, #12]	@ float
 817 00b8 FFF7FEFF 		bl	__aeabi_f2d
 818              	.LVL99:
 819 00bc 2246     		mov	r2, r4
 820 00be 2B46     		mov	r3, r5
 821 00c0 FFF7FEFF 		bl	__aeabi_dadd
 822              	.LVL100:
 823 00c4 FFF7FEFF 		bl	__aeabi_d2f
 824              	.LVL101:
 825 00c8 F060     		str	r0, [r6, #12]	@ float
 130:../../../shields/gps-firefly/src/nmea.c ****     case 4: break; // skip .
 826              		.loc 1 130 7 is_stmt 1 view .LVU195
 827 00ca 2CE0     		b	.L54
 828              	.LVL102:
 829              	.L59:
 136:../../../shields/gps-firefly/src/nmea.c ****       position.latitude.min += (b - '0') / pow(10, (pos - 4));
 830              		.loc 1 136 7 view .LVU196
 136:../../../shields/gps-firefly/src/nmea.c ****       position.latitude.min += (b - '0') / pow(10, (pos - 4));
 831              		.loc 1 136 18 is_stmt 0 view .LVU197
 832 00cc A0F13002 		sub	r2, r0, #48
 833 00d0 D2B2     		uxtb	r2, r2
 136:../../../shields/gps-firefly/src/nmea.c ****       position.latitude.min += (b - '0') / pow(10, (pos - 4));
 834              		.loc 1 136 9 view .LVU198
 835 00d2 092A     		cmp	r2, #9
 836 00d4 03D9     		bls	.L65
 136:../../../shields/gps-firefly/src/nmea.c ****       position.latitude.min += (b - '0') / pow(10, (pos - 4));
 837              		.loc 1 136 32 is_stmt 1 discriminator 1 view .LVU199
 136:../../../shields/gps-firefly/src/nmea.c ****       position.latitude.min += (b - '0') / pow(10, (pos - 4));
 838              		.loc 1 136 36 is_stmt 0 discriminator 1 view .LVU200
 839 00d6 0020     		movs	r0, #0
 840              	.LVL103:
 136:../../../shields/gps-firefly/src/nmea.c ****       position.latitude.min += (b - '0') / pow(10, (pos - 4));
 841              		.loc 1 136 36 discriminator 1 view .LVU201
 842 00d8 354B     		ldr	r3, .L71+8
 843 00da 1870     		strb	r0, [r3]
 136:../../../shields/gps-firefly/src/nmea.c ****       position.latitude.min += (b - '0') / pow(10, (pos - 4));
 844              		.loc 1 136 41 is_stmt 1 discriminator 1 view .LVU202
 136:../../../shields/gps-firefly/src/nmea.c ****       position.latitude.min += (b - '0') / pow(10, (pos - 4));
 845              		.loc 1 136 48 is_stmt 0 discriminator 1 view .LVU203
 846 00dc 28E0     		b	.L53
 847              	.LVL104:
 848              	.L65:
 137:../../../shields/gps-firefly/src/nmea.c ****       break;
 849              		.loc 1 137 7 is_stmt 1 view .LVU204
 137:../../../shields/gps-firefly/src/nmea.c ****       break;
 850              		.loc 1 137 35 is_stmt 0 view .LVU205
 851 00de A0F13004 		sub	r4, r0, #48
 137:../../../shields/gps-firefly/src/nmea.c ****       break;
 852              		.loc 1 137 44 view .LVU206
 853 00e2 181F     		subs	r0, r3, #4
 854              	.LVL105:
 137:../../../shields/gps-firefly/src/nmea.c ****       break;
ARM GAS  C:\Users\tijsv\AppData\Local\Temp\ccXwiIpm.s 			page 23


 855              		.loc 1 137 44 view .LVU207
 856 00e4 FFF7FEFF 		bl	__aeabi_i2d
 857              	.LVL106:
 858 00e8 41EC110B 		vmov	d1, r0, r1
 859 00ec 9FED2E0B 		vldr.64	d0, .L71
 860 00f0 FFF7FEFF 		bl	pow
 861              	.LVL107:
 862 00f4 57EC106B 		vmov	r6, r7, d0
 137:../../../shields/gps-firefly/src/nmea.c ****       break;
 863              		.loc 1 137 42 view .LVU208
 864 00f8 2046     		mov	r0, r4
 865 00fa FFF7FEFF 		bl	__aeabi_i2d
 866              	.LVL108:
 867 00fe 3246     		mov	r2, r6
 868 0100 3B46     		mov	r3, r7
 869 0102 FFF7FEFF 		bl	__aeabi_ddiv
 870              	.LVL109:
 871 0106 0446     		mov	r4, r0
 872 0108 0D46     		mov	r5, r1
 137:../../../shields/gps-firefly/src/nmea.c ****       break;
 873              		.loc 1 137 29 view .LVU209
 874 010a 2A4E     		ldr	r6, .L71+12
 875 010c F068     		ldr	r0, [r6, #12]	@ float
 876 010e FFF7FEFF 		bl	__aeabi_f2d
 877              	.LVL110:
 878 0112 2246     		mov	r2, r4
 879 0114 2B46     		mov	r3, r5
 880 0116 FFF7FEFF 		bl	__aeabi_dadd
 881              	.LVL111:
 882 011a FFF7FEFF 		bl	__aeabi_d2f
 883              	.LVL112:
 884 011e F060     		str	r0, [r6, #12]	@ float
 138:../../../shields/gps-firefly/src/nmea.c ****     case 9:
 885              		.loc 1 138 7 is_stmt 1 view .LVU210
 886 0120 01E0     		b	.L54
 887              	.LVL113:
 888              	.L58:
 140:../../../shields/gps-firefly/src/nmea.c ****       {
 889              		.loc 1 140 7 view .LVU211
 140:../../../shields/gps-firefly/src/nmea.c ****       {
 890              		.loc 1 140 10 is_stmt 0 view .LVU212
 891 0122 2C28     		cmp	r0, #44
 892 0124 05D0     		beq	.L69
 893              	.LVL114:
 894              	.L54:
 162:../../../shields/gps-firefly/src/nmea.c ****   return REPEAT;
 895              		.loc 1 162 3 is_stmt 1 view .LVU213
 162:../../../shields/gps-firefly/src/nmea.c ****   return REPEAT;
 896              		.loc 1 162 6 is_stmt 0 view .LVU214
 897 0126 224A     		ldr	r2, .L71+8
 898 0128 1378     		ldrb	r3, [r2]	@ zero_extendqisi2
 899 012a 0133     		adds	r3, r3, #1
 900 012c 1370     		strb	r3, [r2]
 163:../../../shields/gps-firefly/src/nmea.c **** 
 901              		.loc 1 163 3 is_stmt 1 view .LVU215
 163:../../../shields/gps-firefly/src/nmea.c **** 
 902              		.loc 1 163 10 is_stmt 0 view .LVU216
ARM GAS  C:\Users\tijsv\AppData\Local\Temp\ccXwiIpm.s 			page 24


 903 012e 0120     		movs	r0, #1
 904              	.L53:
 165:../../../shields/gps-firefly/src/nmea.c **** 
 905              		.loc 1 165 1 view .LVU217
 906 0130 F8BD     		pop	{r3, r4, r5, r6, r7, pc}
 907              	.LVL115:
 908              	.L69:
 142:../../../shields/gps-firefly/src/nmea.c ****     	  return OK;
 909              		.loc 1 142 8 is_stmt 1 view .LVU218
 142:../../../shields/gps-firefly/src/nmea.c ****     	  return OK;
 910              		.loc 1 142 12 is_stmt 0 view .LVU219
 911 0132 1F4B     		ldr	r3, .L71+8
 912 0134 0022     		movs	r2, #0
 913 0136 1A70     		strb	r2, [r3]
 143:../../../shields/gps-firefly/src/nmea.c ****       }
 914              		.loc 1 143 8 is_stmt 1 view .LVU220
 143:../../../shields/gps-firefly/src/nmea.c ****       }
 915              		.loc 1 143 15 is_stmt 0 view .LVU221
 916 0138 0220     		movs	r0, #2
 917              	.LVL116:
 143:../../../shields/gps-firefly/src/nmea.c ****       }
 918              		.loc 1 143 15 view .LVU222
 919 013a F9E7     		b	.L53
 920              	.LVL117:
 921              	.L57:
 148:../../../shields/gps-firefly/src/nmea.c ****     	position.latitude.min += (b - '0') / pow(10, (pos - 6));
 922              		.loc 1 148 6 is_stmt 1 view .LVU223
 148:../../../shields/gps-firefly/src/nmea.c ****     	position.latitude.min += (b - '0') / pow(10, (pos - 6));
 923              		.loc 1 148 17 is_stmt 0 view .LVU224
 924 013c A0F13002 		sub	r2, r0, #48
 925 0140 D2B2     		uxtb	r2, r2
 148:../../../shields/gps-firefly/src/nmea.c ****     	position.latitude.min += (b - '0') / pow(10, (pos - 6));
 926              		.loc 1 148 8 view .LVU225
 927 0142 092A     		cmp	r2, #9
 928 0144 03D9     		bls	.L66
 148:../../../shields/gps-firefly/src/nmea.c ****     	position.latitude.min += (b - '0') / pow(10, (pos - 6));
 929              		.loc 1 148 31 is_stmt 1 discriminator 1 view .LVU226
 148:../../../shields/gps-firefly/src/nmea.c ****     	position.latitude.min += (b - '0') / pow(10, (pos - 6));
 930              		.loc 1 148 35 is_stmt 0 discriminator 1 view .LVU227
 931 0146 0020     		movs	r0, #0
 932              	.LVL118:
 148:../../../shields/gps-firefly/src/nmea.c ****     	position.latitude.min += (b - '0') / pow(10, (pos - 6));
 933              		.loc 1 148 35 discriminator 1 view .LVU228
 934 0148 194B     		ldr	r3, .L71+8
 935 014a 1870     		strb	r0, [r3]
 148:../../../shields/gps-firefly/src/nmea.c ****     	position.latitude.min += (b - '0') / pow(10, (pos - 6));
 936              		.loc 1 148 40 is_stmt 1 discriminator 1 view .LVU229
 148:../../../shields/gps-firefly/src/nmea.c ****     	position.latitude.min += (b - '0') / pow(10, (pos - 6));
 937              		.loc 1 148 47 is_stmt 0 discriminator 1 view .LVU230
 938 014c F0E7     		b	.L53
 939              	.LVL119:
 940              	.L66:
 149:../../../shields/gps-firefly/src/nmea.c ****     	break;
 941              		.loc 1 149 6 is_stmt 1 view .LVU231
 149:../../../shields/gps-firefly/src/nmea.c ****     	break;
 942              		.loc 1 149 34 is_stmt 0 view .LVU232
 943 014e A0F13004 		sub	r4, r0, #48
ARM GAS  C:\Users\tijsv\AppData\Local\Temp\ccXwiIpm.s 			page 25


 149:../../../shields/gps-firefly/src/nmea.c ****     	break;
 944              		.loc 1 149 43 view .LVU233
 945 0152 981F     		subs	r0, r3, #6
 946              	.LVL120:
 149:../../../shields/gps-firefly/src/nmea.c ****     	break;
 947              		.loc 1 149 43 view .LVU234
 948 0154 FFF7FEFF 		bl	__aeabi_i2d
 949              	.LVL121:
 950 0158 41EC110B 		vmov	d1, r0, r1
 951 015c 9FED120B 		vldr.64	d0, .L71
 952 0160 FFF7FEFF 		bl	pow
 953              	.LVL122:
 954 0164 57EC106B 		vmov	r6, r7, d0
 149:../../../shields/gps-firefly/src/nmea.c ****     	break;
 955              		.loc 1 149 41 view .LVU235
 956 0168 2046     		mov	r0, r4
 957 016a FFF7FEFF 		bl	__aeabi_i2d
 958              	.LVL123:
 959 016e 3246     		mov	r2, r6
 960 0170 3B46     		mov	r3, r7
 961 0172 FFF7FEFF 		bl	__aeabi_ddiv
 962              	.LVL124:
 963 0176 0446     		mov	r4, r0
 964 0178 0D46     		mov	r5, r1
 149:../../../shields/gps-firefly/src/nmea.c ****     	break;
 965              		.loc 1 149 28 view .LVU236
 966 017a 0E4E     		ldr	r6, .L71+12
 967 017c F068     		ldr	r0, [r6, #12]	@ float
 968 017e FFF7FEFF 		bl	__aeabi_f2d
 969              	.LVL125:
 970 0182 2246     		mov	r2, r4
 971 0184 2B46     		mov	r3, r5
 972 0186 FFF7FEFF 		bl	__aeabi_dadd
 973              	.LVL126:
 974 018a FFF7FEFF 		bl	__aeabi_d2f
 975              	.LVL127:
 976 018e F060     		str	r0, [r6, #12]	@ float
 150:../../../shields/gps-firefly/src/nmea.c ****     case 11:
 977              		.loc 1 150 6 is_stmt 1 view .LVU237
 978 0190 C9E7     		b	.L54
 979              	.LVL128:
 980              	.L55:
 152:../../../shields/gps-firefly/src/nmea.c ****     	if (b == ',')
 981              		.loc 1 152 6 view .LVU238
 152:../../../shields/gps-firefly/src/nmea.c ****     	if (b == ',')
 982              		.loc 1 152 10 is_stmt 0 view .LVU239
 983 0192 074B     		ldr	r3, .L71+8
 984 0194 0022     		movs	r2, #0
 985 0196 1A70     		strb	r2, [r3]
 153:../../../shields/gps-firefly/src/nmea.c ****     	{
 986              		.loc 1 153 6 is_stmt 1 view .LVU240
 153:../../../shields/gps-firefly/src/nmea.c ****     	{
 987              		.loc 1 153 9 is_stmt 0 view .LVU241
 988 0198 2C28     		cmp	r0, #44
 989 019a 01D0     		beq	.L70
 158:../../../shields/gps-firefly/src/nmea.c **** 
 990              		.loc 1 158 18 view .LVU242
ARM GAS  C:\Users\tijsv\AppData\Local\Temp\ccXwiIpm.s 			page 26


 991 019c 0020     		movs	r0, #0
 992              	.LVL129:
 158:../../../shields/gps-firefly/src/nmea.c **** 
 993              		.loc 1 158 18 view .LVU243
 994 019e C7E7     		b	.L53
 995              	.LVL130:
 996              	.L70:
 155:../../../shields/gps-firefly/src/nmea.c ****     	}
 997              		.loc 1 155 18 view .LVU244
 998 01a0 0220     		movs	r0, #2
 999              	.LVL131:
 155:../../../shields/gps-firefly/src/nmea.c ****     	}
 1000              		.loc 1 155 18 view .LVU245
 1001 01a2 C5E7     		b	.L53
 1002              	.L72:
 1003 01a4 AFF30080 		.align	3
 1004              	.L71:
 1005 01a8 00000000 		.word	0
 1006 01ac 00002440 		.word	1076101120
 1007 01b0 00000000 		.word	.LANCHOR3
 1008 01b4 00000000 		.word	.LANCHOR0
 1009              		.cfi_endproc
 1010              	.LFE7:
 1012              		.section	.text.parse_longitude,"ax",%progbits
 1013              		.align	1
 1014              		.global	parse_longitude
 1015              		.syntax unified
 1016              		.thumb
 1017              		.thumb_func
 1018              		.fpu fpv4-sp-d16
 1020              	parse_longitude:
 1021              	.LVL132:
 1022              	.LFB9:
 177:../../../shields/gps-firefly/src/nmea.c ****   static uint8_t pos = 0;
 1023              		.loc 1 177 32 is_stmt 1 view -0
 1024              		.cfi_startproc
 1025              		@ args = 0, pretend = 0, frame = 0
 1026              		@ frame_needed = 0, uses_anonymous_args = 0
 177:../../../shields/gps-firefly/src/nmea.c ****   static uint8_t pos = 0;
 1027              		.loc 1 177 32 is_stmt 0 view .LVU247
 1028 0000 70B5     		push	{r4, r5, r6, lr}
 1029              	.LCFI2:
 1030              		.cfi_def_cfa_offset 16
 1031              		.cfi_offset 4, -16
 1032              		.cfi_offset 5, -12
 1033              		.cfi_offset 6, -8
 1034              		.cfi_offset 14, -4
 178:../../../shields/gps-firefly/src/nmea.c ****   switch(pos) {
 1035              		.loc 1 178 3 is_stmt 1 view .LVU248
 179:../../../shields/gps-firefly/src/nmea.c ****     case 0: // Dddmm.mmmm
 1036              		.loc 1 179 3 view .LVU249
 1037 0002 6D4B     		ldr	r3, .L91+8
 1038 0004 1B78     		ldrb	r3, [r3]	@ zero_extendqisi2
 1039 0006 0C2B     		cmp	r3, #12
 1040 0008 38D8     		bhi	.L74
 1041 000a DFE803F0 		tbb	[pc, r3]
 1042              	.L76:
ARM GAS  C:\Users\tijsv\AppData\Local\Temp\ccXwiIpm.s 			page 27


 1043 000e 07       		.byte	(.L82-.L76)/2
 1044 000f 0C       		.byte	(.L81-.L76)/2
 1045 0010 0C       		.byte	(.L81-.L76)/2
 1046 0011 3D       		.byte	(.L80-.L76)/2
 1047 0012 3D       		.byte	(.L80-.L76)/2
 1048 0013 37       		.byte	(.L74-.L76)/2
 1049 0014 69       		.byte	(.L79-.L76)/2
 1050 0015 69       		.byte	(.L79-.L76)/2
 1051 0016 69       		.byte	(.L79-.L76)/2
 1052 0017 69       		.byte	(.L79-.L76)/2
 1053 0018 94       		.byte	(.L78-.L76)/2
 1054 0019 9B       		.byte	(.L77-.L76)/2
 1055 001a C6       		.byte	(.L75-.L76)/2
 1056 001b 00       		.p2align 1
 1057              	.L82:
 181:../../../shields/gps-firefly/src/nmea.c ****       position.longitude.min = 0;
 1058              		.loc 1 181 7 view .LVU250
 181:../../../shields/gps-firefly/src/nmea.c ****       position.longitude.min = 0;
 1059              		.loc 1 181 30 is_stmt 0 view .LVU251
 1060 001c 674A     		ldr	r2, .L91+12
 1061 001e 0021     		movs	r1, #0
 1062 0020 1175     		strb	r1, [r2, #20]
 182:../../../shields/gps-firefly/src/nmea.c ****     case 1: // dDdmm.mmmm
 1063              		.loc 1 182 7 is_stmt 1 view .LVU252
 182:../../../shields/gps-firefly/src/nmea.c ****     case 1: // dDdmm.mmmm
 1064              		.loc 1 182 30 is_stmt 0 view .LVU253
 1065 0022 0021     		movs	r1, #0
 1066 0024 9161     		str	r1, [r2, #24]	@ float
 1067              	.L81:
 185:../../../shields/gps-firefly/src/nmea.c ****       position.longitude.deg += (b - '0') * pow(10, (2-pos));
 1068              		.loc 1 185 7 is_stmt 1 view .LVU254
 185:../../../shields/gps-firefly/src/nmea.c ****       position.longitude.deg += (b - '0') * pow(10, (2-pos));
 1069              		.loc 1 185 18 is_stmt 0 view .LVU255
 1070 0026 A0F13002 		sub	r2, r0, #48
 1071 002a D2B2     		uxtb	r2, r2
 185:../../../shields/gps-firefly/src/nmea.c ****       position.longitude.deg += (b - '0') * pow(10, (2-pos));
 1072              		.loc 1 185 9 view .LVU256
 1073 002c 092A     		cmp	r2, #9
 1074 002e 03D9     		bls	.L83
 185:../../../shields/gps-firefly/src/nmea.c ****       position.longitude.deg += (b - '0') * pow(10, (2-pos));
 1075              		.loc 1 185 32 is_stmt 1 discriminator 1 view .LVU257
 185:../../../shields/gps-firefly/src/nmea.c ****       position.longitude.deg += (b - '0') * pow(10, (2-pos));
 1076              		.loc 1 185 36 is_stmt 0 discriminator 1 view .LVU258
 1077 0030 0020     		movs	r0, #0
 1078              	.LVL133:
 185:../../../shields/gps-firefly/src/nmea.c ****       position.longitude.deg += (b - '0') * pow(10, (2-pos));
 1079              		.loc 1 185 36 discriminator 1 view .LVU259
 1080 0032 614B     		ldr	r3, .L91+8
 1081 0034 1870     		strb	r0, [r3]
 185:../../../shields/gps-firefly/src/nmea.c ****       position.longitude.deg += (b - '0') * pow(10, (2-pos));
 1082              		.loc 1 185 41 is_stmt 1 discriminator 1 view .LVU260
 185:../../../shields/gps-firefly/src/nmea.c ****       position.longitude.deg += (b - '0') * pow(10, (2-pos));
 1083              		.loc 1 185 48 is_stmt 0 discriminator 1 view .LVU261
 1084 0036 26E0     		b	.L73
 1085              	.LVL134:
 1086              	.L83:
 186:../../../shields/gps-firefly/src/nmea.c ****       break;
ARM GAS  C:\Users\tijsv\AppData\Local\Temp\ccXwiIpm.s 			page 28


 1087              		.loc 1 186 7 is_stmt 1 view .LVU262
 186:../../../shields/gps-firefly/src/nmea.c ****       break;
 1088              		.loc 1 186 36 is_stmt 0 view .LVU263
 1089 0038 A0F13006 		sub	r6, r0, #48
 186:../../../shields/gps-firefly/src/nmea.c ****       break;
 1090              		.loc 1 186 45 view .LVU264
 1091 003c C3F10200 		rsb	r0, r3, #2
 1092              	.LVL135:
 186:../../../shields/gps-firefly/src/nmea.c ****       break;
 1093              		.loc 1 186 45 view .LVU265
 1094 0040 FFF7FEFF 		bl	__aeabi_i2d
 1095              	.LVL136:
 1096 0044 41EC110B 		vmov	d1, r0, r1
 1097 0048 9FED590B 		vldr.64	d0, .L91
 1098 004c FFF7FEFF 		bl	pow
 1099              	.LVL137:
 1100 0050 55EC104B 		vmov	r4, r5, d0
 186:../../../shields/gps-firefly/src/nmea.c ****       break;
 1101              		.loc 1 186 43 view .LVU266
 1102 0054 3046     		mov	r0, r6
 1103 0056 FFF7FEFF 		bl	__aeabi_i2d
 1104              	.LVL138:
 1105 005a 2246     		mov	r2, r4
 1106 005c 2B46     		mov	r3, r5
 1107 005e FFF7FEFF 		bl	__aeabi_dmul
 1108              	.LVL139:
 1109 0062 0446     		mov	r4, r0
 1110 0064 0D46     		mov	r5, r1
 186:../../../shields/gps-firefly/src/nmea.c ****       break;
 1111              		.loc 1 186 30 view .LVU267
 1112 0066 554E     		ldr	r6, .L91+12
 1113 0068 307D     		ldrb	r0, [r6, #20]	@ zero_extendqisi2
 1114 006a FFF7FEFF 		bl	__aeabi_i2d
 1115              	.LVL140:
 1116 006e 2246     		mov	r2, r4
 1117 0070 2B46     		mov	r3, r5
 1118 0072 FFF7FEFF 		bl	__aeabi_dadd
 1119              	.LVL141:
 1120 0076 FFF7FEFF 		bl	__aeabi_d2uiz
 1121              	.LVL142:
 1122 007a 3075     		strb	r0, [r6, #20]
 187:../../../shields/gps-firefly/src/nmea.c ****     case 3: // Ddmm.mmmm
 1123              		.loc 1 187 7 is_stmt 1 view .LVU268
 1124              	.L74:
 221:../../../shields/gps-firefly/src/nmea.c ****   return REPEAT;
 1125              		.loc 1 221 3 view .LVU269
 221:../../../shields/gps-firefly/src/nmea.c ****   return REPEAT;
 1126              		.loc 1 221 6 is_stmt 0 view .LVU270
 1127 007c 4E4A     		ldr	r2, .L91+8
 1128 007e 1378     		ldrb	r3, [r2]	@ zero_extendqisi2
 1129 0080 0133     		adds	r3, r3, #1
 1130 0082 1370     		strb	r3, [r2]
 222:../../../shields/gps-firefly/src/nmea.c **** }
 1131              		.loc 1 222 3 is_stmt 1 view .LVU271
 222:../../../shields/gps-firefly/src/nmea.c **** }
 1132              		.loc 1 222 10 is_stmt 0 view .LVU272
 1133 0084 0120     		movs	r0, #1
ARM GAS  C:\Users\tijsv\AppData\Local\Temp\ccXwiIpm.s 			page 29


 1134              	.L73:
 223:../../../shields/gps-firefly/src/nmea.c **** 
 1135              		.loc 1 223 1 view .LVU273
 1136 0086 70BD     		pop	{r4, r5, r6, pc}
 1137              	.LVL143:
 1138              	.L80:
 190:../../../shields/gps-firefly/src/nmea.c ****       position.longitude.min += (b - '0') * pow(10, (4-pos));
 1139              		.loc 1 190 7 is_stmt 1 view .LVU274
 190:../../../shields/gps-firefly/src/nmea.c ****       position.longitude.min += (b - '0') * pow(10, (4-pos));
 1140              		.loc 1 190 18 is_stmt 0 view .LVU275
 1141 0088 A0F13002 		sub	r2, r0, #48
 1142 008c D2B2     		uxtb	r2, r2
 190:../../../shields/gps-firefly/src/nmea.c ****       position.longitude.min += (b - '0') * pow(10, (4-pos));
 1143              		.loc 1 190 9 view .LVU276
 1144 008e 092A     		cmp	r2, #9
 1145 0090 03D9     		bls	.L85
 190:../../../shields/gps-firefly/src/nmea.c ****       position.longitude.min += (b - '0') * pow(10, (4-pos));
 1146              		.loc 1 190 32 is_stmt 1 discriminator 1 view .LVU277
 190:../../../shields/gps-firefly/src/nmea.c ****       position.longitude.min += (b - '0') * pow(10, (4-pos));
 1147              		.loc 1 190 36 is_stmt 0 discriminator 1 view .LVU278
 1148 0092 0020     		movs	r0, #0
 1149              	.LVL144:
 190:../../../shields/gps-firefly/src/nmea.c ****       position.longitude.min += (b - '0') * pow(10, (4-pos));
 1150              		.loc 1 190 36 discriminator 1 view .LVU279
 1151 0094 484B     		ldr	r3, .L91+8
 1152 0096 1870     		strb	r0, [r3]
 190:../../../shields/gps-firefly/src/nmea.c ****       position.longitude.min += (b - '0') * pow(10, (4-pos));
 1153              		.loc 1 190 41 is_stmt 1 discriminator 1 view .LVU280
 190:../../../shields/gps-firefly/src/nmea.c ****       position.longitude.min += (b - '0') * pow(10, (4-pos));
 1154              		.loc 1 190 48 is_stmt 0 discriminator 1 view .LVU281
 1155 0098 F5E7     		b	.L73
 1156              	.LVL145:
 1157              	.L85:
 191:../../../shields/gps-firefly/src/nmea.c ****       break;
 1158              		.loc 1 191 7 is_stmt 1 view .LVU282
 191:../../../shields/gps-firefly/src/nmea.c ****       break;
 1159              		.loc 1 191 36 is_stmt 0 view .LVU283
 1160 009a A0F13006 		sub	r6, r0, #48
 191:../../../shields/gps-firefly/src/nmea.c ****       break;
 1161              		.loc 1 191 45 view .LVU284
 1162 009e C3F10400 		rsb	r0, r3, #4
 1163              	.LVL146:
 191:../../../shields/gps-firefly/src/nmea.c ****       break;
 1164              		.loc 1 191 45 view .LVU285
 1165 00a2 FFF7FEFF 		bl	__aeabi_i2d
 1166              	.LVL147:
 1167 00a6 41EC110B 		vmov	d1, r0, r1
 1168 00aa 9FED410B 		vldr.64	d0, .L91
 1169 00ae FFF7FEFF 		bl	pow
 1170              	.LVL148:
 1171 00b2 55EC104B 		vmov	r4, r5, d0
 191:../../../shields/gps-firefly/src/nmea.c ****       break;
 1172              		.loc 1 191 43 view .LVU286
 1173 00b6 3046     		mov	r0, r6
 1174 00b8 FFF7FEFF 		bl	__aeabi_i2d
 1175              	.LVL149:
 1176 00bc 2246     		mov	r2, r4
ARM GAS  C:\Users\tijsv\AppData\Local\Temp\ccXwiIpm.s 			page 30


 1177 00be 2B46     		mov	r3, r5
 1178 00c0 FFF7FEFF 		bl	__aeabi_dmul
 1179              	.LVL150:
 1180 00c4 0446     		mov	r4, r0
 1181 00c6 0D46     		mov	r5, r1
 191:../../../shields/gps-firefly/src/nmea.c ****       break;
 1182              		.loc 1 191 30 view .LVU287
 1183 00c8 3C4E     		ldr	r6, .L91+12
 1184 00ca B069     		ldr	r0, [r6, #24]	@ float
 1185 00cc FFF7FEFF 		bl	__aeabi_f2d
 1186              	.LVL151:
 1187 00d0 2246     		mov	r2, r4
 1188 00d2 2B46     		mov	r3, r5
 1189 00d4 FFF7FEFF 		bl	__aeabi_dadd
 1190              	.LVL152:
 1191 00d8 FFF7FEFF 		bl	__aeabi_d2f
 1192              	.LVL153:
 1193 00dc B061     		str	r0, [r6, #24]	@ float
 192:../../../shields/gps-firefly/src/nmea.c ****     case 5: break; // skip .
 1194              		.loc 1 192 7 is_stmt 1 view .LVU288
 1195 00de CDE7     		b	.L74
 1196              	.LVL154:
 1197              	.L79:
 198:../../../shields/gps-firefly/src/nmea.c ****       position.longitude.min += (b - '0') / pow(10, (pos - 5));
 1198              		.loc 1 198 7 view .LVU289
 198:../../../shields/gps-firefly/src/nmea.c ****       position.longitude.min += (b - '0') / pow(10, (pos - 5));
 1199              		.loc 1 198 18 is_stmt 0 view .LVU290
 1200 00e0 A0F13002 		sub	r2, r0, #48
 1201 00e4 D2B2     		uxtb	r2, r2
 198:../../../shields/gps-firefly/src/nmea.c ****       position.longitude.min += (b - '0') / pow(10, (pos - 5));
 1202              		.loc 1 198 9 view .LVU291
 1203 00e6 092A     		cmp	r2, #9
 1204 00e8 03D9     		bls	.L86
 198:../../../shields/gps-firefly/src/nmea.c ****       position.longitude.min += (b - '0') / pow(10, (pos - 5));
 1205              		.loc 1 198 32 is_stmt 1 discriminator 1 view .LVU292
 198:../../../shields/gps-firefly/src/nmea.c ****       position.longitude.min += (b - '0') / pow(10, (pos - 5));
 1206              		.loc 1 198 36 is_stmt 0 discriminator 1 view .LVU293
 1207 00ea 0020     		movs	r0, #0
 1208              	.LVL155:
 198:../../../shields/gps-firefly/src/nmea.c ****       position.longitude.min += (b - '0') / pow(10, (pos - 5));
 1209              		.loc 1 198 36 discriminator 1 view .LVU294
 1210 00ec 324B     		ldr	r3, .L91+8
 1211 00ee 1870     		strb	r0, [r3]
 198:../../../shields/gps-firefly/src/nmea.c ****       position.longitude.min += (b - '0') / pow(10, (pos - 5));
 1212              		.loc 1 198 41 is_stmt 1 discriminator 1 view .LVU295
 198:../../../shields/gps-firefly/src/nmea.c ****       position.longitude.min += (b - '0') / pow(10, (pos - 5));
 1213              		.loc 1 198 48 is_stmt 0 discriminator 1 view .LVU296
 1214 00f0 C9E7     		b	.L73
 1215              	.LVL156:
 1216              	.L86:
 199:../../../shields/gps-firefly/src/nmea.c ****       break;
 1217              		.loc 1 199 7 is_stmt 1 view .LVU297
 199:../../../shields/gps-firefly/src/nmea.c ****       break;
 1218              		.loc 1 199 36 is_stmt 0 view .LVU298
 1219 00f2 A0F13006 		sub	r6, r0, #48
 199:../../../shields/gps-firefly/src/nmea.c ****       break;
 1220              		.loc 1 199 45 view .LVU299
ARM GAS  C:\Users\tijsv\AppData\Local\Temp\ccXwiIpm.s 			page 31


 1221 00f6 581F     		subs	r0, r3, #5
 1222              	.LVL157:
 199:../../../shields/gps-firefly/src/nmea.c ****       break;
 1223              		.loc 1 199 45 view .LVU300
 1224 00f8 FFF7FEFF 		bl	__aeabi_i2d
 1225              	.LVL158:
 1226 00fc 41EC110B 		vmov	d1, r0, r1
 1227 0100 9FED2B0B 		vldr.64	d0, .L91
 1228 0104 FFF7FEFF 		bl	pow
 1229              	.LVL159:
 1230 0108 55EC104B 		vmov	r4, r5, d0
 199:../../../shields/gps-firefly/src/nmea.c ****       break;
 1231              		.loc 1 199 43 view .LVU301
 1232 010c 3046     		mov	r0, r6
 1233 010e FFF7FEFF 		bl	__aeabi_i2d
 1234              	.LVL160:
 1235 0112 2246     		mov	r2, r4
 1236 0114 2B46     		mov	r3, r5
 1237 0116 FFF7FEFF 		bl	__aeabi_ddiv
 1238              	.LVL161:
 1239 011a 0446     		mov	r4, r0
 1240 011c 0D46     		mov	r5, r1
 199:../../../shields/gps-firefly/src/nmea.c ****       break;
 1241              		.loc 1 199 30 view .LVU302
 1242 011e 274E     		ldr	r6, .L91+12
 1243 0120 B069     		ldr	r0, [r6, #24]	@ float
 1244 0122 FFF7FEFF 		bl	__aeabi_f2d
 1245              	.LVL162:
 1246 0126 2246     		mov	r2, r4
 1247 0128 2B46     		mov	r3, r5
 1248 012a FFF7FEFF 		bl	__aeabi_dadd
 1249              	.LVL163:
 1250 012e FFF7FEFF 		bl	__aeabi_d2f
 1251              	.LVL164:
 1252 0132 B061     		str	r0, [r6, #24]	@ float
 200:../../../shields/gps-firefly/src/nmea.c ****     case 10:
 1253              		.loc 1 200 7 is_stmt 1 view .LVU303
 1254 0134 A2E7     		b	.L74
 1255              	.LVL165:
 1256              	.L78:
 202:../../../shields/gps-firefly/src/nmea.c ****     	{
 1257              		.loc 1 202 6 view .LVU304
 202:../../../shields/gps-firefly/src/nmea.c ****     	{
 1258              		.loc 1 202 9 is_stmt 0 view .LVU305
 1259 0136 2C28     		cmp	r0, #44
 1260 0138 A0D1     		bne	.L74
 204:../../../shields/gps-firefly/src/nmea.c ****     		return OK;
 1261              		.loc 1 204 7 is_stmt 1 view .LVU306
 204:../../../shields/gps-firefly/src/nmea.c ****     		return OK;
 1262              		.loc 1 204 11 is_stmt 0 view .LVU307
 1263 013a 1F4B     		ldr	r3, .L91+8
 1264 013c 0022     		movs	r2, #0
 1265 013e 1A70     		strb	r2, [r3]
 205:../../../shields/gps-firefly/src/nmea.c ****     	}
 1266              		.loc 1 205 7 is_stmt 1 view .LVU308
 205:../../../shields/gps-firefly/src/nmea.c ****     	}
 1267              		.loc 1 205 14 is_stmt 0 view .LVU309
ARM GAS  C:\Users\tijsv\AppData\Local\Temp\ccXwiIpm.s 			page 32


 1268 0140 0220     		movs	r0, #2
 1269              	.LVL166:
 205:../../../shields/gps-firefly/src/nmea.c ****     	}
 1270              		.loc 1 205 14 view .LVU310
 1271 0142 A0E7     		b	.L73
 1272              	.LVL167:
 1273              	.L77:
 210:../../../shields/gps-firefly/src/nmea.c ****     	position.longitude.min += (b - '0') / pow(10, (pos - 5));
 1274              		.loc 1 210 6 is_stmt 1 view .LVU311
 210:../../../shields/gps-firefly/src/nmea.c ****     	position.longitude.min += (b - '0') / pow(10, (pos - 5));
 1275              		.loc 1 210 17 is_stmt 0 view .LVU312
 1276 0144 A0F13002 		sub	r2, r0, #48
 1277 0148 D2B2     		uxtb	r2, r2
 210:../../../shields/gps-firefly/src/nmea.c ****     	position.longitude.min += (b - '0') / pow(10, (pos - 5));
 1278              		.loc 1 210 8 view .LVU313
 1279 014a 092A     		cmp	r2, #9
 1280 014c 03D9     		bls	.L87
 210:../../../shields/gps-firefly/src/nmea.c ****     	position.longitude.min += (b - '0') / pow(10, (pos - 5));
 1281              		.loc 1 210 31 is_stmt 1 discriminator 1 view .LVU314
 210:../../../shields/gps-firefly/src/nmea.c ****     	position.longitude.min += (b - '0') / pow(10, (pos - 5));
 1282              		.loc 1 210 35 is_stmt 0 discriminator 1 view .LVU315
 1283 014e 0020     		movs	r0, #0
 1284              	.LVL168:
 210:../../../shields/gps-firefly/src/nmea.c ****     	position.longitude.min += (b - '0') / pow(10, (pos - 5));
 1285              		.loc 1 210 35 discriminator 1 view .LVU316
 1286 0150 194B     		ldr	r3, .L91+8
 1287 0152 1870     		strb	r0, [r3]
 210:../../../shields/gps-firefly/src/nmea.c ****     	position.longitude.min += (b - '0') / pow(10, (pos - 5));
 1288              		.loc 1 210 40 is_stmt 1 discriminator 1 view .LVU317
 210:../../../shields/gps-firefly/src/nmea.c ****     	position.longitude.min += (b - '0') / pow(10, (pos - 5));
 1289              		.loc 1 210 47 is_stmt 0 discriminator 1 view .LVU318
 1290 0154 97E7     		b	.L73
 1291              	.LVL169:
 1292              	.L87:
 211:../../../shields/gps-firefly/src/nmea.c ****     	break;
 1293              		.loc 1 211 6 is_stmt 1 view .LVU319
 211:../../../shields/gps-firefly/src/nmea.c ****     	break;
 1294              		.loc 1 211 35 is_stmt 0 view .LVU320
 1295 0156 A0F13006 		sub	r6, r0, #48
 211:../../../shields/gps-firefly/src/nmea.c ****     	break;
 1296              		.loc 1 211 44 view .LVU321
 1297 015a 581F     		subs	r0, r3, #5
 1298              	.LVL170:
 211:../../../shields/gps-firefly/src/nmea.c ****     	break;
 1299              		.loc 1 211 44 view .LVU322
 1300 015c FFF7FEFF 		bl	__aeabi_i2d
 1301              	.LVL171:
 1302 0160 41EC110B 		vmov	d1, r0, r1
 1303 0164 9FED120B 		vldr.64	d0, .L91
 1304 0168 FFF7FEFF 		bl	pow
 1305              	.LVL172:
 1306 016c 55EC104B 		vmov	r4, r5, d0
 211:../../../shields/gps-firefly/src/nmea.c ****     	break;
 1307              		.loc 1 211 42 view .LVU323
 1308 0170 3046     		mov	r0, r6
 1309 0172 FFF7FEFF 		bl	__aeabi_i2d
 1310              	.LVL173:
ARM GAS  C:\Users\tijsv\AppData\Local\Temp\ccXwiIpm.s 			page 33


 1311 0176 2246     		mov	r2, r4
 1312 0178 2B46     		mov	r3, r5
 1313 017a FFF7FEFF 		bl	__aeabi_ddiv
 1314              	.LVL174:
 1315 017e 0446     		mov	r4, r0
 1316 0180 0D46     		mov	r5, r1
 211:../../../shields/gps-firefly/src/nmea.c ****     	break;
 1317              		.loc 1 211 29 view .LVU324
 1318 0182 0E4E     		ldr	r6, .L91+12
 1319 0184 B069     		ldr	r0, [r6, #24]	@ float
 1320 0186 FFF7FEFF 		bl	__aeabi_f2d
 1321              	.LVL175:
 1322 018a 2246     		mov	r2, r4
 1323 018c 2B46     		mov	r3, r5
 1324 018e FFF7FEFF 		bl	__aeabi_dadd
 1325              	.LVL176:
 1326 0192 FFF7FEFF 		bl	__aeabi_d2f
 1327              	.LVL177:
 1328 0196 B061     		str	r0, [r6, #24]	@ float
 212:../../../shields/gps-firefly/src/nmea.c ****     case 12:
 1329              		.loc 1 212 6 is_stmt 1 view .LVU325
 1330 0198 70E7     		b	.L74
 1331              	.LVL178:
 1332              	.L75:
 214:../../../shields/gps-firefly/src/nmea.c ****           if (b == ',')
 1333              		.loc 1 214 11 view .LVU326
 214:../../../shields/gps-firefly/src/nmea.c ****           if (b == ',')
 1334              		.loc 1 214 15 is_stmt 0 view .LVU327
 1335 019a 074B     		ldr	r3, .L91+8
 1336 019c 0022     		movs	r2, #0
 1337 019e 1A70     		strb	r2, [r3]
 215:../../../shields/gps-firefly/src/nmea.c ****             return OK;
 1338              		.loc 1 215 11 is_stmt 1 view .LVU328
 215:../../../shields/gps-firefly/src/nmea.c ****             return OK;
 1339              		.loc 1 215 14 is_stmt 0 view .LVU329
 1340 01a0 2C28     		cmp	r0, #44
 1341 01a2 01D0     		beq	.L90
 218:../../../shields/gps-firefly/src/nmea.c **** 
 1342              		.loc 1 218 19 view .LVU330
 1343 01a4 0020     		movs	r0, #0
 1344              	.LVL179:
 218:../../../shields/gps-firefly/src/nmea.c **** 
 1345              		.loc 1 218 19 view .LVU331
 1346 01a6 6EE7     		b	.L73
 1347              	.LVL180:
 1348              	.L90:
 216:../../../shields/gps-firefly/src/nmea.c ****           else
 1349              		.loc 1 216 20 view .LVU332
 1350 01a8 0220     		movs	r0, #2
 1351              	.LVL181:
 216:../../../shields/gps-firefly/src/nmea.c ****           else
 1352              		.loc 1 216 20 view .LVU333
 1353 01aa 6CE7     		b	.L73
 1354              	.L92:
 1355 01ac AFF30080 		.align	3
 1356              	.L91:
 1357 01b0 00000000 		.word	0
ARM GAS  C:\Users\tijsv\AppData\Local\Temp\ccXwiIpm.s 			page 34


 1358 01b4 00002440 		.word	1076101120
 1359 01b8 00000000 		.word	.LANCHOR4
 1360 01bc 00000000 		.word	.LANCHOR0
 1361              		.cfi_endproc
 1362              	.LFE9:
 1364              		.global	__aeabi_ui2d
 1365              		.section	.text.parse_hdop,"ax",%progbits
 1366              		.align	1
 1367              		.global	parse_hdop
 1368              		.syntax unified
 1369              		.thumb
 1370              		.thumb_func
 1371              		.fpu fpv4-sp-d16
 1373              	parse_hdop:
 1374              	.LVL182:
 1375              	.LFB13:
 267:../../../shields/gps-firefly/src/nmea.c **** 
 268:../../../shields/gps-firefly/src/nmea.c **** int parse_hdop(uint8_t b) {
 1376              		.loc 1 268 27 is_stmt 1 view -0
 1377              		.cfi_startproc
 1378              		@ args = 0, pretend = 0, frame = 0
 1379              		@ frame_needed = 0, uses_anonymous_args = 0
 1380              		.loc 1 268 27 is_stmt 0 view .LVU335
 1381 0000 F8B5     		push	{r3, r4, r5, r6, r7, lr}
 1382              	.LCFI3:
 1383              		.cfi_def_cfa_offset 24
 1384              		.cfi_offset 3, -24
 1385              		.cfi_offset 4, -20
 1386              		.cfi_offset 5, -16
 1387              		.cfi_offset 6, -12
 1388              		.cfi_offset 7, -8
 1389              		.cfi_offset 14, -4
 269:../../../shields/gps-firefly/src/nmea.c **** 	static uint8_t pos = 0;
 1390              		.loc 1 269 2 is_stmt 1 view .LVU336
 270:../../../shields/gps-firefly/src/nmea.c **** 	static uint8_t dec = 0;
 1391              		.loc 1 270 2 view .LVU337
 271:../../../shields/gps-firefly/src/nmea.c **** 
 272:../../../shields/gps-firefly/src/nmea.c **** 	if (b == ',')
 1392              		.loc 1 272 2 view .LVU338
 1393              		.loc 1 272 5 is_stmt 0 view .LVU339
 1394 0002 2C28     		cmp	r0, #44
 1395 0004 15D0     		beq	.L101
 273:../../../shields/gps-firefly/src/nmea.c **** 	{
 274:../../../shields/gps-firefly/src/nmea.c **** 		pos = 0;
 275:../../../shields/gps-firefly/src/nmea.c **** 		dec = 0;
 276:../../../shields/gps-firefly/src/nmea.c **** 		// full parse, store current position
 277:../../../shields/gps-firefly/src/nmea.c **** 		current_position = position;
 278:../../../shields/gps-firefly/src/nmea.c **** 		return OK;
 279:../../../shields/gps-firefly/src/nmea.c **** 	}
 280:../../../shields/gps-firefly/src/nmea.c **** 
 281:../../../shields/gps-firefly/src/nmea.c **** 	if (b == '.')
 1396              		.loc 1 281 2 is_stmt 1 view .LVU340
 1397              		.loc 1 281 5 is_stmt 0 view .LVU341
 1398 0006 2E28     		cmp	r0, #46
 1399 0008 24D0     		beq	.L102
 282:../../../shields/gps-firefly/src/nmea.c **** 	{
 283:../../../shields/gps-firefly/src/nmea.c **** 		dec = 1;
ARM GAS  C:\Users\tijsv\AppData\Local\Temp\ccXwiIpm.s 			page 35


 284:../../../shields/gps-firefly/src/nmea.c **** 		return REPEAT;
 285:../../../shields/gps-firefly/src/nmea.c **** 	}
 286:../../../shields/gps-firefly/src/nmea.c **** 
 287:../../../shields/gps-firefly/src/nmea.c **** 	if(b < '0' || b > '9') { pos = 0; return FAIL; }
 1400              		.loc 1 287 2 is_stmt 1 view .LVU342
 1401              		.loc 1 287 13 is_stmt 0 view .LVU343
 1402 000a A0F13003 		sub	r3, r0, #48
 1403 000e DBB2     		uxtb	r3, r3
 1404              		.loc 1 287 4 view .LVU344
 1405 0010 092B     		cmp	r3, #9
 1406 0012 23D8     		bhi	.L103
 288:../../../shields/gps-firefly/src/nmea.c **** 
 289:../../../shields/gps-firefly/src/nmea.c **** 	if (pos == 0)
 1407              		.loc 1 289 2 is_stmt 1 view .LVU345
 1408              		.loc 1 289 10 is_stmt 0 view .LVU346
 1409 0014 344B     		ldr	r3, .L104+8
 1410 0016 1B78     		ldrb	r3, [r3]	@ zero_extendqisi2
 1411              		.loc 1 289 5 view .LVU347
 1412 0018 23BB     		cbnz	r3, .L98
 290:../../../shields/gps-firefly/src/nmea.c **** 	{
 291:../../../shields/gps-firefly/src/nmea.c **** 		position.hdop = (b - '0');
 1413              		.loc 1 291 3 is_stmt 1 view .LVU348
 1414              		.loc 1 291 22 is_stmt 0 view .LVU349
 1415 001a 3038     		subs	r0, r0, #48
 1416              	.LVL183:
 1417              		.loc 1 291 17 view .LVU350
 1418 001c 07EE900A 		vmov	s15, r0	@ int
 1419 0020 F8EEE77A 		vcvt.f32.s32	s15, s15
 1420 0024 314B     		ldr	r3, .L104+12
 1421 0026 C3ED097A 		vstr.32	s15, [r3, #36]
 292:../../../shields/gps-firefly/src/nmea.c **** 		pos = 1;
 1422              		.loc 1 292 3 is_stmt 1 view .LVU351
 1423              		.loc 1 292 7 is_stmt 0 view .LVU352
 1424 002a 0120     		movs	r0, #1
 1425 002c 2E4B     		ldr	r3, .L104+8
 1426 002e 1870     		strb	r0, [r3]
 1427 0030 17E0     		b	.L93
 1428              	.LVL184:
 1429              	.L101:
 274:../../../shields/gps-firefly/src/nmea.c **** 		dec = 0;
 1430              		.loc 1 274 3 is_stmt 1 view .LVU353
 274:../../../shields/gps-firefly/src/nmea.c **** 		dec = 0;
 1431              		.loc 1 274 7 is_stmt 0 view .LVU354
 1432 0032 0023     		movs	r3, #0
 1433 0034 2C4A     		ldr	r2, .L104+8
 1434 0036 1370     		strb	r3, [r2]
 275:../../../shields/gps-firefly/src/nmea.c **** 		// full parse, store current position
 1435              		.loc 1 275 3 is_stmt 1 view .LVU355
 275:../../../shields/gps-firefly/src/nmea.c **** 		// full parse, store current position
 1436              		.loc 1 275 7 is_stmt 0 view .LVU356
 1437 0038 2D4A     		ldr	r2, .L104+16
 1438 003a 1370     		strb	r3, [r2]
 277:../../../shields/gps-firefly/src/nmea.c **** 		return OK;
 1439              		.loc 1 277 3 is_stmt 1 view .LVU357
 277:../../../shields/gps-firefly/src/nmea.c **** 		return OK;
 1440              		.loc 1 277 20 is_stmt 0 view .LVU358
 1441 003c 2D4C     		ldr	r4, .L104+20
ARM GAS  C:\Users\tijsv\AppData\Local\Temp\ccXwiIpm.s 			page 36


 1442 003e 2B4D     		ldr	r5, .L104+12
 1443 0040 0FCD     		ldmia	r5!, {r0, r1, r2, r3}
 1444              	.LVL185:
 277:../../../shields/gps-firefly/src/nmea.c **** 		return OK;
 1445              		.loc 1 277 20 view .LVU359
 1446 0042 0FC4     		stmia	r4!, {r0, r1, r2, r3}
 1447 0044 0FCD     		ldmia	r5!, {r0, r1, r2, r3}
 1448 0046 0FC4     		stmia	r4!, {r0, r1, r2, r3}
 1449 0048 95E80700 		ldm	r5, {r0, r1, r2}
 1450 004c 84E80700 		stm	r4, {r0, r1, r2}
 278:../../../shields/gps-firefly/src/nmea.c **** 	}
 1451              		.loc 1 278 3 is_stmt 1 view .LVU360
 278:../../../shields/gps-firefly/src/nmea.c **** 	}
 1452              		.loc 1 278 10 is_stmt 0 view .LVU361
 1453 0050 0220     		movs	r0, #2
 1454 0052 06E0     		b	.L93
 1455              	.LVL186:
 1456              	.L102:
 283:../../../shields/gps-firefly/src/nmea.c **** 		return REPEAT;
 1457              		.loc 1 283 3 is_stmt 1 view .LVU362
 283:../../../shields/gps-firefly/src/nmea.c **** 		return REPEAT;
 1458              		.loc 1 283 7 is_stmt 0 view .LVU363
 1459 0054 0120     		movs	r0, #1
 1460              	.LVL187:
 283:../../../shields/gps-firefly/src/nmea.c **** 		return REPEAT;
 1461              		.loc 1 283 7 view .LVU364
 1462 0056 264B     		ldr	r3, .L104+16
 1463 0058 1870     		strb	r0, [r3]
 284:../../../shields/gps-firefly/src/nmea.c **** 	}
 1464              		.loc 1 284 3 is_stmt 1 view .LVU365
 284:../../../shields/gps-firefly/src/nmea.c **** 	}
 1465              		.loc 1 284 10 is_stmt 0 view .LVU366
 1466 005a 02E0     		b	.L93
 1467              	.LVL188:
 1468              	.L103:
 287:../../../shields/gps-firefly/src/nmea.c **** 
 1469              		.loc 1 287 27 is_stmt 1 discriminator 1 view .LVU367
 287:../../../shields/gps-firefly/src/nmea.c **** 
 1470              		.loc 1 287 31 is_stmt 0 discriminator 1 view .LVU368
 1471 005c 0020     		movs	r0, #0
 1472              	.LVL189:
 287:../../../shields/gps-firefly/src/nmea.c **** 
 1473              		.loc 1 287 31 discriminator 1 view .LVU369
 1474 005e 224B     		ldr	r3, .L104+8
 1475 0060 1870     		strb	r0, [r3]
 287:../../../shields/gps-firefly/src/nmea.c **** 
 1476              		.loc 1 287 36 is_stmt 1 discriminator 1 view .LVU370
 1477              	.L93:
 293:../../../shields/gps-firefly/src/nmea.c **** 	} else {
 294:../../../shields/gps-firefly/src/nmea.c **** 		if (dec == 0)
 295:../../../shields/gps-firefly/src/nmea.c **** 		{
 296:../../../shields/gps-firefly/src/nmea.c **** 			position.hdop *= 10;
 297:../../../shields/gps-firefly/src/nmea.c **** 			position.hdop += (b - '0');
 298:../../../shields/gps-firefly/src/nmea.c **** 		} else {
 299:../../../shields/gps-firefly/src/nmea.c **** 			position.hdop += (b - '0') / pow(10, dec);
 300:../../../shields/gps-firefly/src/nmea.c **** 			dec++;
 301:../../../shields/gps-firefly/src/nmea.c **** 		}
ARM GAS  C:\Users\tijsv\AppData\Local\Temp\ccXwiIpm.s 			page 37


 302:../../../shields/gps-firefly/src/nmea.c **** 	}
 303:../../../shields/gps-firefly/src/nmea.c **** 
 304:../../../shields/gps-firefly/src/nmea.c **** 	return REPEAT;
 305:../../../shields/gps-firefly/src/nmea.c **** }
 1478              		.loc 1 305 1 is_stmt 0 view .LVU371
 1479 0062 F8BD     		pop	{r3, r4, r5, r6, r7, pc}
 1480              	.LVL190:
 1481              	.L98:
 294:../../../shields/gps-firefly/src/nmea.c **** 		{
 1482              		.loc 1 294 3 is_stmt 1 view .LVU372
 294:../../../shields/gps-firefly/src/nmea.c **** 		{
 1483              		.loc 1 294 11 is_stmt 0 view .LVU373
 1484 0064 224B     		ldr	r3, .L104+16
 1485 0066 1B78     		ldrb	r3, [r3]	@ zero_extendqisi2
 294:../../../shields/gps-firefly/src/nmea.c **** 		{
 1486              		.loc 1 294 6 view .LVU374
 1487 0068 93B9     		cbnz	r3, .L99
 296:../../../shields/gps-firefly/src/nmea.c **** 			position.hdop += (b - '0');
 1488              		.loc 1 296 4 is_stmt 1 view .LVU375
 296:../../../shields/gps-firefly/src/nmea.c **** 			position.hdop += (b - '0');
 1489              		.loc 1 296 18 is_stmt 0 view .LVU376
 1490 006a 204B     		ldr	r3, .L104+12
 1491 006c D3ED097A 		vldr.32	s15, [r3, #36]
 1492 0070 B2EE047A 		vmov.f32	s14, #1.0e+1
 1493 0074 27EE877A 		vmul.f32	s14, s15, s14
 297:../../../shields/gps-firefly/src/nmea.c **** 		} else {
 1494              		.loc 1 297 4 is_stmt 1 view .LVU377
 297:../../../shields/gps-firefly/src/nmea.c **** 		} else {
 1495              		.loc 1 297 24 is_stmt 0 view .LVU378
 1496 0078 A0F13002 		sub	r2, r0, #48
 1497 007c 07EE902A 		vmov	s15, r2	@ int
 297:../../../shields/gps-firefly/src/nmea.c **** 		} else {
 1498              		.loc 1 297 18 view .LVU379
 1499 0080 F8EEE77A 		vcvt.f32.s32	s15, s15
 1500 0084 77EE877A 		vadd.f32	s15, s15, s14
 1501 0088 C3ED097A 		vstr.32	s15, [r3, #36]
 304:../../../shields/gps-firefly/src/nmea.c **** }
 1502              		.loc 1 304 9 view .LVU380
 1503 008c 0120     		movs	r0, #1
 1504              	.LVL191:
 304:../../../shields/gps-firefly/src/nmea.c **** }
 1505              		.loc 1 304 9 view .LVU381
 1506 008e E8E7     		b	.L93
 1507              	.LVL192:
 1508              	.L99:
 299:../../../shields/gps-firefly/src/nmea.c **** 			dec++;
 1509              		.loc 1 299 4 is_stmt 1 view .LVU382
 299:../../../shields/gps-firefly/src/nmea.c **** 			dec++;
 1510              		.loc 1 299 24 is_stmt 0 view .LVU383
 1511 0090 A0F13004 		sub	r4, r0, #48
 299:../../../shields/gps-firefly/src/nmea.c **** 			dec++;
 1512              		.loc 1 299 33 view .LVU384
 1513 0094 1846     		mov	r0, r3
 1514              	.LVL193:
 299:../../../shields/gps-firefly/src/nmea.c **** 			dec++;
 1515              		.loc 1 299 33 view .LVU385
 1516 0096 FFF7FEFF 		bl	__aeabi_ui2d
ARM GAS  C:\Users\tijsv\AppData\Local\Temp\ccXwiIpm.s 			page 38


 1517              	.LVL194:
 1518 009a 41EC110B 		vmov	d1, r0, r1
 1519 009e 9FED100B 		vldr.64	d0, .L104
 1520 00a2 FFF7FEFF 		bl	pow
 1521              	.LVL195:
 1522 00a6 57EC106B 		vmov	r6, r7, d0
 299:../../../shields/gps-firefly/src/nmea.c **** 			dec++;
 1523              		.loc 1 299 31 view .LVU386
 1524 00aa 2046     		mov	r0, r4
 1525 00ac FFF7FEFF 		bl	__aeabi_i2d
 1526              	.LVL196:
 1527 00b0 3246     		mov	r2, r6
 1528 00b2 3B46     		mov	r3, r7
 1529 00b4 FFF7FEFF 		bl	__aeabi_ddiv
 1530              	.LVL197:
 1531 00b8 0446     		mov	r4, r0
 1532 00ba 0D46     		mov	r5, r1
 299:../../../shields/gps-firefly/src/nmea.c **** 			dec++;
 1533              		.loc 1 299 18 view .LVU387
 1534 00bc 0B4E     		ldr	r6, .L104+12
 1535 00be 706A     		ldr	r0, [r6, #36]	@ float
 1536 00c0 FFF7FEFF 		bl	__aeabi_f2d
 1537              	.LVL198:
 1538 00c4 2246     		mov	r2, r4
 1539 00c6 2B46     		mov	r3, r5
 1540 00c8 FFF7FEFF 		bl	__aeabi_dadd
 1541              	.LVL199:
 1542 00cc FFF7FEFF 		bl	__aeabi_d2f
 1543              	.LVL200:
 1544 00d0 7062     		str	r0, [r6, #36]	@ float
 300:../../../shields/gps-firefly/src/nmea.c **** 		}
 1545              		.loc 1 300 4 is_stmt 1 view .LVU388
 300:../../../shields/gps-firefly/src/nmea.c **** 		}
 1546              		.loc 1 300 7 is_stmt 0 view .LVU389
 1547 00d2 074A     		ldr	r2, .L104+16
 1548 00d4 1378     		ldrb	r3, [r2]	@ zero_extendqisi2
 1549 00d6 0133     		adds	r3, r3, #1
 1550 00d8 1370     		strb	r3, [r2]
 304:../../../shields/gps-firefly/src/nmea.c **** }
 1551              		.loc 1 304 9 view .LVU390
 1552 00da 0120     		movs	r0, #1
 1553 00dc C1E7     		b	.L93
 1554              	.L105:
 1555 00de 00BF     		.align	3
 1556              	.L104:
 1557 00e0 00000000 		.word	0
 1558 00e4 00002440 		.word	1076101120
 1559 00e8 00000000 		.word	.LANCHOR5
 1560 00ec 00000000 		.word	.LANCHOR0
 1561 00f0 00000000 		.word	.LANCHOR6
 1562 00f4 00000000 		.word	.LANCHOR7
 1563              		.cfi_endproc
 1564              	.LFE13:
 1566              		.section	.text.nmea_get_position,"ax",%progbits
 1567              		.align	1
 1568              		.global	nmea_get_position
 1569              		.syntax unified
ARM GAS  C:\Users\tijsv\AppData\Local\Temp\ccXwiIpm.s 			page 39


 1570              		.thumb
 1571              		.thumb_func
 1572              		.fpu fpv4-sp-d16
 1574              	nmea_get_position:
 1575              	.LVL201:
 1576              	.LFB0:
  17:../../../shields/gps-firefly/src/nmea.c **** uint8_t nmea_have_position()           { return current_position.quality > 0; }
 1577              		.loc 1 17 37 is_stmt 1 view -0
 1578              		.cfi_startproc
 1579              		@ args = 0, pretend = 0, frame = 0
 1580              		@ frame_needed = 0, uses_anonymous_args = 0
 1581              		@ link register save eliminated.
  17:../../../shields/gps-firefly/src/nmea.c **** uint8_t nmea_have_position()           { return current_position.quality > 0; }
 1582              		.loc 1 17 37 is_stmt 0 view .LVU392
 1583 0000 70B4     		push	{r4, r5, r6}
 1584              	.LCFI4:
 1585              		.cfi_def_cfa_offset 12
 1586              		.cfi_offset 4, -12
 1587              		.cfi_offset 5, -8
 1588              		.cfi_offset 6, -4
 1589 0002 0646     		mov	r6, r0
  17:../../../shields/gps-firefly/src/nmea.c **** uint8_t nmea_have_position()           { return current_position.quality > 0; }
 1590              		.loc 1 17 39 is_stmt 1 view .LVU393
  17:../../../shields/gps-firefly/src/nmea.c **** uint8_t nmea_have_position()           { return current_position.quality > 0; }
 1591              		.loc 1 17 46 is_stmt 0 view .LVU394
 1592 0004 0446     		mov	r4, r0
 1593 0006 064D     		ldr	r5, .L108
 1594 0008 0FCD     		ldmia	r5!, {r0, r1, r2, r3}
 1595              	.LVL202:
  17:../../../shields/gps-firefly/src/nmea.c **** uint8_t nmea_have_position()           { return current_position.quality > 0; }
 1596              		.loc 1 17 46 view .LVU395
 1597 000a 0FC4     		stmia	r4!, {r0, r1, r2, r3}
 1598              	.LVL203:
  17:../../../shields/gps-firefly/src/nmea.c **** uint8_t nmea_have_position()           { return current_position.quality > 0; }
 1599              		.loc 1 17 46 view .LVU396
 1600 000c 0FCD     		ldmia	r5!, {r0, r1, r2, r3}
 1601 000e 0FC4     		stmia	r4!, {r0, r1, r2, r3}
 1602 0010 95E80700 		ldm	r5, {r0, r1, r2}
 1603 0014 84E80700 		stm	r4, {r0, r1, r2}
  17:../../../shields/gps-firefly/src/nmea.c **** uint8_t nmea_have_position()           { return current_position.quality > 0; }
 1604              		.loc 1 17 1 view .LVU397
 1605 0018 3046     		mov	r0, r6
 1606 001a 70BC     		pop	{r4, r5, r6}
 1607              	.LCFI5:
 1608              		.cfi_restore 6
 1609              		.cfi_restore 5
 1610              		.cfi_restore 4
 1611              		.cfi_def_cfa_offset 0
 1612              	.LVL204:
  17:../../../shields/gps-firefly/src/nmea.c **** uint8_t nmea_have_position()           { return current_position.quality > 0; }
 1613              		.loc 1 17 1 view .LVU398
 1614 001c 7047     		bx	lr
 1615              	.L109:
 1616 001e 00BF     		.align	2
 1617              	.L108:
 1618 0020 00000000 		.word	.LANCHOR7
 1619              		.cfi_endproc
ARM GAS  C:\Users\tijsv\AppData\Local\Temp\ccXwiIpm.s 			page 40


 1620              	.LFE0:
 1622              		.section	.text.nmea_have_position,"ax",%progbits
 1623              		.align	1
 1624              		.global	nmea_have_position
 1625              		.syntax unified
 1626              		.thumb
 1627              		.thumb_func
 1628              		.fpu fpv4-sp-d16
 1630              	nmea_have_position:
 1631              	.LFB1:
  18:../../../shields/gps-firefly/src/nmea.c **** 
 1632              		.loc 1 18 40 is_stmt 1 view -0
 1633              		.cfi_startproc
 1634              		@ args = 0, pretend = 0, frame = 0
 1635              		@ frame_needed = 0, uses_anonymous_args = 0
 1636              		@ link register save eliminated.
  18:../../../shields/gps-firefly/src/nmea.c **** 
 1637              		.loc 1 18 42 view .LVU400
  18:../../../shields/gps-firefly/src/nmea.c **** 
 1638              		.loc 1 18 65 is_stmt 0 view .LVU401
 1639 0000 034B     		ldr	r3, .L111
 1640 0002 93F82000 		ldrb	r0, [r3, #32]	@ zero_extendqisi2
  18:../../../shields/gps-firefly/src/nmea.c **** 
 1641              		.loc 1 18 1 view .LVU402
 1642 0006 0038     		subs	r0, r0, #0
 1643 0008 18BF     		it	ne
 1644 000a 0120     		movne	r0, #1
 1645 000c 7047     		bx	lr
 1646              	.L112:
 1647 000e 00BF     		.align	2
 1648              	.L111:
 1649 0010 00000000 		.word	.LANCHOR7
 1650              		.cfi_endproc
 1651              	.LFE1:
 1653              		.section	.text._reset_position,"ax",%progbits
 1654              		.align	1
 1655              		.global	_reset_position
 1656              		.syntax unified
 1657              		.thumb
 1658              		.thumb_func
 1659              		.fpu fpv4-sp-d16
 1661              	_reset_position:
 1662              	.LFB2:
  20:../../../shields/gps-firefly/src/nmea.c ****   position.time.hour     = 0;
 1663              		.loc 1 20 28 is_stmt 1 view -0
 1664              		.cfi_startproc
 1665              		@ args = 0, pretend = 0, frame = 0
 1666              		@ frame_needed = 0, uses_anonymous_args = 0
 1667              		@ link register save eliminated.
  21:../../../shields/gps-firefly/src/nmea.c ****   position.time.min      = 0;
 1668              		.loc 1 21 3 view .LVU404
  21:../../../shields/gps-firefly/src/nmea.c ****   position.time.min      = 0;
 1669              		.loc 1 21 26 is_stmt 0 view .LVU405
 1670 0000 074B     		ldr	r3, .L114
 1671 0002 0022     		movs	r2, #0
 1672 0004 1A70     		strb	r2, [r3]
  22:../../../shields/gps-firefly/src/nmea.c ****   position.time.sec      = 0;
ARM GAS  C:\Users\tijsv\AppData\Local\Temp\ccXwiIpm.s 			page 41


 1673              		.loc 1 22 3 is_stmt 1 view .LVU406
  22:../../../shields/gps-firefly/src/nmea.c ****   position.time.sec      = 0;
 1674              		.loc 1 22 26 is_stmt 0 view .LVU407
 1675 0006 5A70     		strb	r2, [r3, #1]
  23:../../../shields/gps-firefly/src/nmea.c ****   position.latitude.deg  = 0;
 1676              		.loc 1 23 3 is_stmt 1 view .LVU408
  23:../../../shields/gps-firefly/src/nmea.c ****   position.latitude.deg  = 0;
 1677              		.loc 1 23 26 is_stmt 0 view .LVU409
 1678 0008 0021     		movs	r1, #0
 1679 000a 5960     		str	r1, [r3, #4]	@ float
  24:../../../shields/gps-firefly/src/nmea.c ****   position.latitude.min  = 0;
 1680              		.loc 1 24 3 is_stmt 1 view .LVU410
  24:../../../shields/gps-firefly/src/nmea.c ****   position.latitude.min  = 0;
 1681              		.loc 1 24 26 is_stmt 0 view .LVU411
 1682 000c 1A72     		strb	r2, [r3, #8]
  25:../../../shields/gps-firefly/src/nmea.c ****   position.latitude.ns   = '_';
 1683              		.loc 1 25 3 is_stmt 1 view .LVU412
  25:../../../shields/gps-firefly/src/nmea.c ****   position.latitude.ns   = '_';
 1684              		.loc 1 25 26 is_stmt 0 view .LVU413
 1685 000e D960     		str	r1, [r3, #12]	@ float
  26:../../../shields/gps-firefly/src/nmea.c ****   position.longitude.deg = 0;
 1686              		.loc 1 26 3 is_stmt 1 view .LVU414
  26:../../../shields/gps-firefly/src/nmea.c ****   position.longitude.deg = 0;
 1687              		.loc 1 26 26 is_stmt 0 view .LVU415
 1688 0010 5F20     		movs	r0, #95
 1689 0012 1874     		strb	r0, [r3, #16]
  27:../../../shields/gps-firefly/src/nmea.c ****   position.longitude.min = 0;
 1690              		.loc 1 27 3 is_stmt 1 view .LVU416
  27:../../../shields/gps-firefly/src/nmea.c ****   position.longitude.min = 0;
 1691              		.loc 1 27 26 is_stmt 0 view .LVU417
 1692 0014 1A75     		strb	r2, [r3, #20]
  28:../../../shields/gps-firefly/src/nmea.c ****   position.longitude.ew  = '_';
 1693              		.loc 1 28 3 is_stmt 1 view .LVU418
  28:../../../shields/gps-firefly/src/nmea.c ****   position.longitude.ew  = '_';
 1694              		.loc 1 28 26 is_stmt 0 view .LVU419
 1695 0016 9961     		str	r1, [r3, #24]	@ float
  29:../../../shields/gps-firefly/src/nmea.c ****   position.quality=0;
 1696              		.loc 1 29 3 is_stmt 1 view .LVU420
  29:../../../shields/gps-firefly/src/nmea.c ****   position.quality=0;
 1697              		.loc 1 29 26 is_stmt 0 view .LVU421
 1698 0018 1877     		strb	r0, [r3, #28]
  30:../../../shields/gps-firefly/src/nmea.c **** }
 1699              		.loc 1 30 3 is_stmt 1 view .LVU422
  30:../../../shields/gps-firefly/src/nmea.c **** }
 1700              		.loc 1 30 19 is_stmt 0 view .LVU423
 1701 001a 83F82020 		strb	r2, [r3, #32]
  31:../../../shields/gps-firefly/src/nmea.c **** void _reset_position2(void) {
 1702              		.loc 1 31 1 view .LVU424
 1703 001e 7047     		bx	lr
 1704              	.L115:
 1705              		.align	2
 1706              	.L114:
 1707 0020 00000000 		.word	.LANCHOR0
 1708              		.cfi_endproc
 1709              	.LFE2:
 1711              		.section	.rodata.parse_gngga.str1.4,"aMS",%progbits,1
 1712              		.align	2
ARM GAS  C:\Users\tijsv\AppData\Local\Temp\ccXwiIpm.s 			page 42


 1713              	.LC0:
 1714 0000 474E4747 		.ascii	"GNGGA,\000"
 1714      412C00
 1715              		.section	.text.parse_gngga,"ax",%progbits
 1716              		.align	1
 1717              		.global	parse_gngga
 1718              		.syntax unified
 1719              		.thumb
 1720              		.thumb_func
 1721              		.fpu fpv4-sp-d16
 1723              	parse_gngga:
 1724              	.LVL205:
 1725              	.LFB5:
  57:../../../shields/gps-firefly/src/nmea.c ****   static uint8_t pos = 0;
 1726              		.loc 1 57 28 is_stmt 1 view -0
 1727              		.cfi_startproc
 1728              		@ args = 0, pretend = 0, frame = 8
 1729              		@ frame_needed = 0, uses_anonymous_args = 0
  57:../../../shields/gps-firefly/src/nmea.c ****   static uint8_t pos = 0;
 1730              		.loc 1 57 28 is_stmt 0 view .LVU426
 1731 0000 00B5     		push	{lr}
 1732              	.LCFI6:
 1733              		.cfi_def_cfa_offset 4
 1734              		.cfi_offset 14, -4
 1735 0002 83B0     		sub	sp, sp, #12
 1736              	.LCFI7:
 1737              		.cfi_def_cfa_offset 16
 1738 0004 0246     		mov	r2, r0
  58:../../../shields/gps-firefly/src/nmea.c ****   const uint8_t string[] = "GNGGA,";
 1739              		.loc 1 58 3 is_stmt 1 view .LVU427
  59:../../../shields/gps-firefly/src/nmea.c **** 
 1740              		.loc 1 59 3 view .LVU428
  59:../../../shields/gps-firefly/src/nmea.c **** 
 1741              		.loc 1 59 17 is_stmt 0 view .LVU429
 1742 0006 124B     		ldr	r3, .L123
 1743 0008 93E80300 		ldm	r3, {r0, r1}
 1744              	.LVL206:
  59:../../../shields/gps-firefly/src/nmea.c **** 
 1745              		.loc 1 59 17 view .LVU430
 1746 000c 0090     		str	r0, [sp]
 1747 000e ADF80410 		strh	r1, [sp, #4]	@ movhi
 1748 0012 090C     		lsrs	r1, r1, #16
 1749 0014 8DF80610 		strb	r1, [sp, #6]
  62:../../../shields/gps-firefly/src/nmea.c ****     if(pos == 5) {
 1750              		.loc 1 62 3 is_stmt 1 view .LVU431
  62:../../../shields/gps-firefly/src/nmea.c ****     if(pos == 5) {
 1751              		.loc 1 62 12 is_stmt 0 view .LVU432
 1752 0018 0E4B     		ldr	r3, .L123+4
 1753 001a 1B78     		ldrb	r3, [r3]	@ zero_extendqisi2
 1754 001c 02A9     		add	r1, sp, #8
 1755 001e 1944     		add	r1, r1, r3
 1756 0020 11F8081C 		ldrb	r1, [r1, #-8]	@ zero_extendqisi2
  62:../../../shields/gps-firefly/src/nmea.c ****     if(pos == 5) {
 1757              		.loc 1 62 5 view .LVU433
 1758 0024 9142     		cmp	r1, r2
 1759 0026 05D0     		beq	.L121
  72:../../../shields/gps-firefly/src/nmea.c ****   return FAIL;
ARM GAS  C:\Users\tijsv\AppData\Local\Temp\ccXwiIpm.s 			page 43


 1760              		.loc 1 72 3 is_stmt 1 view .LVU434
  72:../../../shields/gps-firefly/src/nmea.c ****   return FAIL;
 1761              		.loc 1 72 7 is_stmt 0 view .LVU435
 1762 0028 0020     		movs	r0, #0
 1763 002a 0A4B     		ldr	r3, .L123+4
 1764 002c 1870     		strb	r0, [r3]
  73:../../../shields/gps-firefly/src/nmea.c **** }
 1765              		.loc 1 73 3 is_stmt 1 view .LVU436
 1766              	.L116:
  74:../../../shields/gps-firefly/src/nmea.c **** 
 1767              		.loc 1 74 1 is_stmt 0 view .LVU437
 1768 002e 03B0     		add	sp, sp, #12
 1769              	.LCFI8:
 1770              		.cfi_remember_state
 1771              		.cfi_def_cfa_offset 4
 1772              		@ sp needed
 1773 0030 5DF804FB 		ldr	pc, [sp], #4
 1774              	.L121:
 1775              	.LCFI9:
 1776              		.cfi_restore_state
  63:../../../shields/gps-firefly/src/nmea.c ****       pos = 0;
 1777              		.loc 1 63 5 is_stmt 1 view .LVU438
  63:../../../shields/gps-firefly/src/nmea.c ****       pos = 0;
 1778              		.loc 1 63 7 is_stmt 0 view .LVU439
 1779 0034 052B     		cmp	r3, #5
 1780 0036 04D0     		beq	.L122
  68:../../../shields/gps-firefly/src/nmea.c ****       return REPEAT;
 1781              		.loc 1 68 7 is_stmt 1 view .LVU440
  68:../../../shields/gps-firefly/src/nmea.c ****       return REPEAT;
 1782              		.loc 1 68 10 is_stmt 0 view .LVU441
 1783 0038 0133     		adds	r3, r3, #1
 1784 003a 064A     		ldr	r2, .L123+4
 1785 003c 1370     		strb	r3, [r2]
  69:../../../shields/gps-firefly/src/nmea.c ****     }
 1786              		.loc 1 69 7 is_stmt 1 view .LVU442
  69:../../../shields/gps-firefly/src/nmea.c ****     }
 1787              		.loc 1 69 14 is_stmt 0 view .LVU443
 1788 003e 0120     		movs	r0, #1
 1789 0040 F5E7     		b	.L116
 1790              	.L122:
  64:../../../shields/gps-firefly/src/nmea.c ****       _reset_position();
 1791              		.loc 1 64 7 is_stmt 1 view .LVU444
  64:../../../shields/gps-firefly/src/nmea.c ****       _reset_position();
 1792              		.loc 1 64 11 is_stmt 0 view .LVU445
 1793 0042 044B     		ldr	r3, .L123+4
 1794 0044 0022     		movs	r2, #0
 1795 0046 1A70     		strb	r2, [r3]
  65:../../../shields/gps-firefly/src/nmea.c ****       return OK;
 1796              		.loc 1 65 7 is_stmt 1 view .LVU446
 1797 0048 FFF7FEFF 		bl	_reset_position
 1798              	.LVL207:
  66:../../../shields/gps-firefly/src/nmea.c ****     } else {
 1799              		.loc 1 66 7 view .LVU447
  66:../../../shields/gps-firefly/src/nmea.c ****     } else {
 1800              		.loc 1 66 14 is_stmt 0 view .LVU448
 1801 004c 0220     		movs	r0, #2
 1802 004e EEE7     		b	.L116
ARM GAS  C:\Users\tijsv\AppData\Local\Temp\ccXwiIpm.s 			page 44


 1803              	.L124:
 1804              		.align	2
 1805              	.L123:
 1806 0050 00000000 		.word	.LC0
 1807 0054 00000000 		.word	.LANCHOR8
 1808              		.cfi_endproc
 1809              	.LFE5:
 1811              		.section	.text._reset_position2,"ax",%progbits
 1812              		.align	1
 1813              		.global	_reset_position2
 1814              		.syntax unified
 1815              		.thumb
 1816              		.thumb_func
 1817              		.fpu fpv4-sp-d16
 1819              	_reset_position2:
 1820              	.LFB3:
  32:../../../shields/gps-firefly/src/nmea.c **** 	current_position.time.hour     = 0;
 1821              		.loc 1 32 29 is_stmt 1 view -0
 1822              		.cfi_startproc
 1823              		@ args = 0, pretend = 0, frame = 0
 1824              		@ frame_needed = 0, uses_anonymous_args = 0
 1825              		@ link register save eliminated.
  33:../../../shields/gps-firefly/src/nmea.c **** 	current_position.time.min      = 0;
 1826              		.loc 1 33 2 view .LVU450
  33:../../../shields/gps-firefly/src/nmea.c **** 	current_position.time.min      = 0;
 1827              		.loc 1 33 33 is_stmt 0 view .LVU451
 1828 0000 074B     		ldr	r3, .L126
 1829 0002 0022     		movs	r2, #0
 1830 0004 1A70     		strb	r2, [r3]
  34:../../../shields/gps-firefly/src/nmea.c **** 	current_position.time.sec      = 0;
 1831              		.loc 1 34 2 is_stmt 1 view .LVU452
  34:../../../shields/gps-firefly/src/nmea.c **** 	current_position.time.sec      = 0;
 1832              		.loc 1 34 33 is_stmt 0 view .LVU453
 1833 0006 5A70     		strb	r2, [r3, #1]
  35:../../../shields/gps-firefly/src/nmea.c **** 	current_position.latitude.deg  = 0;
 1834              		.loc 1 35 2 is_stmt 1 view .LVU454
  35:../../../shields/gps-firefly/src/nmea.c **** 	current_position.latitude.deg  = 0;
 1835              		.loc 1 35 33 is_stmt 0 view .LVU455
 1836 0008 0021     		movs	r1, #0
 1837 000a 5960     		str	r1, [r3, #4]	@ float
  36:../../../shields/gps-firefly/src/nmea.c **** 	current_position.latitude.min  = 0;
 1838              		.loc 1 36 2 is_stmt 1 view .LVU456
  36:../../../shields/gps-firefly/src/nmea.c **** 	current_position.latitude.min  = 0;
 1839              		.loc 1 36 33 is_stmt 0 view .LVU457
 1840 000c 1A72     		strb	r2, [r3, #8]
  37:../../../shields/gps-firefly/src/nmea.c **** 	current_position.latitude.ns   = '_';
 1841              		.loc 1 37 2 is_stmt 1 view .LVU458
  37:../../../shields/gps-firefly/src/nmea.c **** 	current_position.latitude.ns   = '_';
 1842              		.loc 1 37 33 is_stmt 0 view .LVU459
 1843 000e D960     		str	r1, [r3, #12]	@ float
  38:../../../shields/gps-firefly/src/nmea.c **** 	current_position.longitude.deg = 0;
 1844              		.loc 1 38 2 is_stmt 1 view .LVU460
  38:../../../shields/gps-firefly/src/nmea.c **** 	current_position.longitude.deg = 0;
 1845              		.loc 1 38 33 is_stmt 0 view .LVU461
 1846 0010 5F20     		movs	r0, #95
 1847 0012 1874     		strb	r0, [r3, #16]
  39:../../../shields/gps-firefly/src/nmea.c ****   current_position.longitude.min = 0;
ARM GAS  C:\Users\tijsv\AppData\Local\Temp\ccXwiIpm.s 			page 45


 1848              		.loc 1 39 2 is_stmt 1 view .LVU462
  39:../../../shields/gps-firefly/src/nmea.c ****   current_position.longitude.min = 0;
 1849              		.loc 1 39 33 is_stmt 0 view .LVU463
 1850 0014 1A75     		strb	r2, [r3, #20]
  40:../../../shields/gps-firefly/src/nmea.c ****   current_position.longitude.ew  = '_';
 1851              		.loc 1 40 3 is_stmt 1 view .LVU464
  40:../../../shields/gps-firefly/src/nmea.c ****   current_position.longitude.ew  = '_';
 1852              		.loc 1 40 34 is_stmt 0 view .LVU465
 1853 0016 9961     		str	r1, [r3, #24]	@ float
  41:../../../shields/gps-firefly/src/nmea.c ****   current_position.quality=0;
 1854              		.loc 1 41 3 is_stmt 1 view .LVU466
  41:../../../shields/gps-firefly/src/nmea.c ****   current_position.quality=0;
 1855              		.loc 1 41 34 is_stmt 0 view .LVU467
 1856 0018 1877     		strb	r0, [r3, #28]
  42:../../../shields/gps-firefly/src/nmea.c **** }
 1857              		.loc 1 42 3 is_stmt 1 view .LVU468
  42:../../../shields/gps-firefly/src/nmea.c **** }
 1858              		.loc 1 42 27 is_stmt 0 view .LVU469
 1859 001a 83F82020 		strb	r2, [r3, #32]
  43:../../../shields/gps-firefly/src/nmea.c **** 
 1860              		.loc 1 43 1 view .LVU470
 1861 001e 7047     		bx	lr
 1862              	.L127:
 1863              		.align	2
 1864              	.L126:
 1865 0020 00000000 		.word	.LANCHOR7
 1866              		.cfi_endproc
 1867              	.LFE3:
 1869              		.section	.text.nmea_parse,"ax",%progbits
 1870              		.align	1
 1871              		.global	nmea_parse
 1872              		.syntax unified
 1873              		.thumb
 1874              		.thumb_func
 1875              		.fpu fpv4-sp-d16
 1877              	nmea_parse:
 1878              	.LVL208:
 1879              	.LFB14:
 306:../../../shields/gps-firefly/src/nmea.c **** 
 307:../../../shields/gps-firefly/src/nmea.c **** // function pointer for state_handlers
 308:../../../shields/gps-firefly/src/nmea.c **** typedef int (* state_handler)(uint8_t);
 309:../../../shields/gps-firefly/src/nmea.c **** 
 310:../../../shields/gps-firefly/src/nmea.c **** enum state {
 311:../../../shields/gps-firefly/src/nmea.c ****   start_state,
 312:../../../shields/gps-firefly/src/nmea.c ****   gngga_state,
 313:../../../shields/gps-firefly/src/nmea.c ****   time_state,
 314:../../../shields/gps-firefly/src/nmea.c ****   latitude_state,
 315:../../../shields/gps-firefly/src/nmea.c ****   ns_ind_state,
 316:../../../shields/gps-firefly/src/nmea.c ****   longitude_state,
 317:../../../shields/gps-firefly/src/nmea.c ****   ew_ind_state,
 318:../../../shields/gps-firefly/src/nmea.c ****   quality_state,
 319:../../../shields/gps-firefly/src/nmea.c ****   nr_sat_state,
 320:../../../shields/gps-firefly/src/nmea.c ****   hdop_state
 321:../../../shields/gps-firefly/src/nmea.c **** };
 322:../../../shields/gps-firefly/src/nmea.c **** 
 323:../../../shields/gps-firefly/src/nmea.c **** struct transition {
 324:../../../shields/gps-firefly/src/nmea.c ****   state_handler handler;
ARM GAS  C:\Users\tijsv\AppData\Local\Temp\ccXwiIpm.s 			page 46


 325:../../../shields/gps-firefly/src/nmea.c ****   int result[3];
 326:../../../shields/gps-firefly/src/nmea.c **** };
 327:../../../shields/gps-firefly/src/nmea.c **** 
 328:../../../shields/gps-firefly/src/nmea.c **** static struct transition transitions[] = {
 329:../../../shields/gps-firefly/src/nmea.c ****   /* in state              what to look for   FAIL         REPEAT            OK               */
 330:../../../shields/gps-firefly/src/nmea.c ****   /* -------------------   ----------------   -----------  ----------------  ---------------  */
 331:../../../shields/gps-firefly/src/nmea.c ****   /* start_state */      { find_start,      { start_state, start_state,      gngga_state     } },
 332:../../../shields/gps-firefly/src/nmea.c ****   /* gngga_state */      { parse_gngga,     { start_state, gngga_state,      time_state      } },
 333:../../../shields/gps-firefly/src/nmea.c ****   /* time_state */       { parse_time,      { start_state, time_state,       latitude_state  } },
 334:../../../shields/gps-firefly/src/nmea.c ****   /* latitude_state */   { parse_latitude,  { start_state, latitude_state,   ns_ind_state    } },
 335:../../../shields/gps-firefly/src/nmea.c ****   /* ns_ind_state */     { parse_ns_ind,    { start_state, ns_ind_state,     longitude_state } },
 336:../../../shields/gps-firefly/src/nmea.c ****   /* longitude_state */  { parse_longitude, { start_state, longitude_state,  ew_ind_state    } },
 337:../../../shields/gps-firefly/src/nmea.c ****   /* ew_ind_state */     { parse_ew_ind,    { start_state, ew_ind_state,     quality_state   } },
 338:../../../shields/gps-firefly/src/nmea.c ****   /* quality_state */    { parse_quality,   { start_state, quality_state,    nr_sat_state    } },
 339:../../../shields/gps-firefly/src/nmea.c ****   /* nr_sat_state */     { parse_nr_sats,   { start_state, nr_sat_state,     hdop_state      } },
 340:../../../shields/gps-firefly/src/nmea.c ****   /* hdop_state */       { parse_hdop,      { start_state, hdop_state,       start_state     } }
 341:../../../shields/gps-firefly/src/nmea.c **** };
 342:../../../shields/gps-firefly/src/nmea.c **** 
 343:../../../shields/gps-firefly/src/nmea.c **** static int current_state = start_state;
 344:../../../shields/gps-firefly/src/nmea.c ****   
 345:../../../shields/gps-firefly/src/nmea.c **** void nmea_parse(uint8_t b) {
 1880              		.loc 1 345 28 is_stmt 1 view -0
 1881              		.cfi_startproc
 1882              		@ args = 0, pretend = 0, frame = 0
 1883              		@ frame_needed = 0, uses_anonymous_args = 0
 346:../../../shields/gps-firefly/src/nmea.c ****   if(b == '\n' || b == '\r') {   // IGNORES
 1884              		.loc 1 346 3 view .LVU472
 1885              		.loc 1 346 5 is_stmt 0 view .LVU473
 1886 0000 0A28     		cmp	r0, #10
 1887 0002 10D0     		beq	.L131
 1888              		.loc 1 346 16 discriminator 1 view .LVU474
 1889 0004 0D28     		cmp	r0, #13
 1890 0006 0ED0     		beq	.L131
 345:../../../shields/gps-firefly/src/nmea.c ****   if(b == '\n' || b == '\r') {   // IGNORES
 1891              		.loc 1 345 28 view .LVU475
 1892 0008 38B5     		push	{r3, r4, r5, lr}
 1893              	.LCFI10:
 1894              		.cfi_def_cfa_offset 16
 1895              		.cfi_offset 3, -16
 1896              		.cfi_offset 4, -12
 1897              		.cfi_offset 5, -8
 1898              		.cfi_offset 14, -4
 347:../../../shields/gps-firefly/src/nmea.c ****     return;
 348:../../../shields/gps-firefly/src/nmea.c ****   }
 349:../../../shields/gps-firefly/src/nmea.c ****   int outcome   = transitions[current_state].handler(b);
 1899              		.loc 1 349 3 is_stmt 1 view .LVU476
 1900              		.loc 1 349 45 is_stmt 0 view .LVU477
 1901 000a 074C     		ldr	r4, .L134
 1902 000c 074D     		ldr	r5, .L134+4
 1903 000e 2B68     		ldr	r3, [r5]
 1904 0010 1B01     		lsls	r3, r3, #4
 1905 0012 E358     		ldr	r3, [r4, r3]
 1906              		.loc 1 349 19 view .LVU478
 1907 0014 9847     		blx	r3
 1908              	.LVL209:
 350:../../../shields/gps-firefly/src/nmea.c ****   current_state = transitions[current_state].result[outcome];
 1909              		.loc 1 350 3 is_stmt 1 view .LVU479
ARM GAS  C:\Users\tijsv\AppData\Local\Temp\ccXwiIpm.s 			page 47


 1910              		.loc 1 350 52 is_stmt 0 view .LVU480
 1911 0016 2B68     		ldr	r3, [r5]
 1912 0018 00EB8300 		add	r0, r0, r3, lsl #2
 1913              	.LVL210:
 1914              		.loc 1 350 52 view .LVU481
 1915 001c 04EB8004 		add	r4, r4, r0, lsl #2
 1916 0020 6368     		ldr	r3, [r4, #4]
 1917              		.loc 1 350 17 view .LVU482
 1918 0022 2B60     		str	r3, [r5]
 351:../../../shields/gps-firefly/src/nmea.c **** }
 1919              		.loc 1 351 1 view .LVU483
 1920 0024 38BD     		pop	{r3, r4, r5, pc}
 1921              	.LVL211:
 1922              	.L131:
 1923              	.LCFI11:
 1924              		.cfi_def_cfa_offset 0
 1925              		.cfi_restore 3
 1926              		.cfi_restore 4
 1927              		.cfi_restore 5
 1928              		.cfi_restore 14
 1929              		.loc 1 351 1 view .LVU484
 1930 0026 7047     		bx	lr
 1931              	.L135:
 1932              		.align	2
 1933              	.L134:
 1934 0028 00000000 		.word	.LANCHOR9
 1935 002c 00000000 		.word	.LANCHOR10
 1936              		.cfi_endproc
 1937              	.LFE14:
 1939              		.section	.bss.current_position,"aw",%nobits
 1940              		.align	2
 1941              		.set	.LANCHOR7,. + 0
 1944              	current_position:
 1945 0000 00000000 		.space	44
 1945      00000000 
 1945      00000000 
 1945      00000000 
 1945      00000000 
 1946              		.section	.bss.current_state,"aw",%nobits
 1947              		.align	2
 1948              		.set	.LANCHOR10,. + 0
 1951              	current_state:
 1952 0000 00000000 		.space	4
 1953              		.section	.bss.dec.6799,"aw",%nobits
 1954              		.set	.LANCHOR6,. + 0
 1957              	dec.6799:
 1958 0000 00       		.space	1
 1959              		.section	.bss.pos.6729,"aw",%nobits
 1960              		.set	.LANCHOR8,. + 0
 1963              	pos.6729:
 1964 0000 00       		.space	1
 1965              		.section	.bss.pos.6734,"aw",%nobits
 1966              		.set	.LANCHOR2,. + 0
 1969              	pos.6734:
 1970 0000 00       		.space	1
 1971              		.section	.bss.pos.6750,"aw",%nobits
 1972              		.set	.LANCHOR3,. + 0
ARM GAS  C:\Users\tijsv\AppData\Local\Temp\ccXwiIpm.s 			page 48


 1975              	pos.6750:
 1976 0000 00       		.space	1
 1977              		.section	.bss.pos.6770,"aw",%nobits
 1978              		.set	.LANCHOR4,. + 0
 1981              	pos.6770:
 1982 0000 00       		.space	1
 1983              		.section	.bss.pos.6794,"aw",%nobits
 1984              		.set	.LANCHOR1,. + 0
 1987              	pos.6794:
 1988 0000 00       		.space	1
 1989              		.section	.bss.pos.6798,"aw",%nobits
 1990              		.set	.LANCHOR5,. + 0
 1993              	pos.6798:
 1994 0000 00       		.space	1
 1995              		.section	.bss.position,"aw",%nobits
 1996              		.align	2
 1997              		.set	.LANCHOR0,. + 0
 2000              	position:
 2001 0000 00000000 		.space	44
 2001      00000000 
 2001      00000000 
 2001      00000000 
 2001      00000000 
 2002              		.section	.rodata.transitions,"a"
 2003              		.align	2
 2004              		.set	.LANCHOR9,. + 0
 2007              	transitions:
 2008 0000 00000000 		.word	find_start
 2009 0004 00000000 		.word	0
 2010 0008 00000000 		.word	0
 2011 000c 01000000 		.word	1
 2012 0010 00000000 		.word	parse_gngga
 2013 0014 00000000 		.word	0
 2014 0018 01000000 		.word	1
 2015 001c 02000000 		.word	2
 2016 0020 00000000 		.word	parse_time
 2017 0024 00000000 		.word	0
 2018 0028 02000000 		.word	2
 2019 002c 03000000 		.word	3
 2020 0030 00000000 		.word	parse_latitude
 2021 0034 00000000 		.word	0
 2022 0038 03000000 		.word	3
 2023 003c 04000000 		.word	4
 2024 0040 00000000 		.word	parse_ns_ind
 2025 0044 00000000 		.word	0
 2026 0048 04000000 		.word	4
 2027 004c 05000000 		.word	5
 2028 0050 00000000 		.word	parse_longitude
 2029 0054 00000000 		.word	0
 2030 0058 05000000 		.word	5
 2031 005c 06000000 		.word	6
 2032 0060 00000000 		.word	parse_ew_ind
 2033 0064 00000000 		.word	0
 2034 0068 06000000 		.word	6
 2035 006c 07000000 		.word	7
 2036 0070 00000000 		.word	parse_quality
 2037 0074 00000000 		.word	0
ARM GAS  C:\Users\tijsv\AppData\Local\Temp\ccXwiIpm.s 			page 49


 2038 0078 07000000 		.word	7
 2039 007c 08000000 		.word	8
 2040 0080 00000000 		.word	parse_nr_sats
 2041 0084 00000000 		.word	0
 2042 0088 08000000 		.word	8
 2043 008c 09000000 		.word	9
 2044 0090 00000000 		.word	parse_hdop
 2045 0094 00000000 		.word	0
 2046 0098 09000000 		.word	9
 2047 009c 00000000 		.word	0
 2048              		.text
 2049              	.Letext0:
 2050              		.file 2 "c:\\program files (x86)\\gnu tools arm embedded\\9 2019-q4-major\\arm-none-eabi\\include\
 2051              		.file 3 "c:\\program files (x86)\\gnu tools arm embedded\\9 2019-q4-major\\arm-none-eabi\\include\
 2052              		.file 4 "c:\\program files (x86)\\gnu tools arm embedded\\9 2019-q4-major\\arm-none-eabi\\include\
 2053              		.file 5 "c:\\program files (x86)\\gnu tools arm embedded\\9 2019-q4-major\\lib\\gcc\\arm-none-eabi
 2054              		.file 6 "c:\\program files (x86)\\gnu tools arm embedded\\9 2019-q4-major\\arm-none-eabi\\include\
 2055              		.file 7 "c:\\program files (x86)\\gnu tools arm embedded\\9 2019-q4-major\\arm-none-eabi\\include\
 2056              		.file 8 "c:\\program files (x86)\\gnu tools arm embedded\\9 2019-q4-major\\arm-none-eabi\\include\
 2057              		.file 9 "c:\\program files (x86)\\gnu tools arm embedded\\9 2019-q4-major\\arm-none-eabi\\include\
 2058              		.file 10 "../../../shields/gps-firefly/inc/nmea.h"
ARM GAS  C:\Users\tijsv\AppData\Local\Temp\ccXwiIpm.s 			page 50

