ARM GAS  C:\Users\tijsv\AppData\Local\Temp\ccjudKGt.s 			page 1


   1              		.cpu cortex-m4
   2              		.eabi_attribute 27, 1
   3              		.eabi_attribute 28, 1
   4              		.eabi_attribute 20, 1
   5              		.eabi_attribute 21, 1
   6              		.eabi_attribute 23, 3
   7              		.eabi_attribute 24, 1
   8              		.eabi_attribute 25, 1
   9              		.eabi_attribute 26, 1
  10              		.eabi_attribute 30, 1
  11              		.eabi_attribute 34, 1
  12              		.eabi_attribute 18, 4
  13              		.file	"payloadparser.c"
  14              		.text
  15              	.Ltext0:
  16              		.cfi_sections	.debug_frame
  17              		.section	.rodata.parse_octa_configuration.str1.4,"aMS",%progbits,1
  18              		.align	2
  19              	.LC0:
  20 0000 70617273 		.ascii	"parsing octa configuration payload with size %d\015"
  20      696E6720 
  20      6F637461 
  20      20636F6E 
  20      66696775 
  21 0030 0A00     		.ascii	"\012\000"
  22 0032 0000     		.align	2
  23              	.LC1:
  24 0034 42756666 		.ascii	"Buffer too short\015\012\000"
  24      65722074 
  24      6F6F2073 
  24      686F7274 
  24      0D0A00
  25 0047 00       		.align	2
  26              	.LC2:
  27 0048 44617461 		.ascii	"Data too short for ACK type.\015\012\000"
  27      20746F6F 
  27      2073686F 
  27      72742066 
  27      6F722041 
  28 0067 00       		.align	2
  29              	.LC3:
  30 0068 41434B20 		.ascii	"ACK for SEQ_NR: %d\015\012\000"
  30      666F7220 
  30      5345515F 
  30      4E523A20 
  30      25640D0A 
  31 007d 000000   		.align	2
  32              	.LC4:
  33 0080 44617461 		.ascii	"Data too short for INTERVAL_MULTIPLIER type.\015\012"
  33      20746F6F 
  33      2073686F 
  33      72742066 
  33      6F722049 
  34 00ae 00       		.ascii	"\000"
  35 00af 00       		.align	2
  36              	.LC5:
  37 00b0 4E657720 		.ascii	"New interval: %d and multiplier: %d\015\012\000"
ARM GAS  C:\Users\tijsv\AppData\Local\Temp\ccjudKGt.s 			page 2


  37      696E7465 
  37      7276616C 
  37      3A202564 
  37      20616E64 
  38 00d6 0000     		.align	2
  39              	.LC6:
  40 00d8 44617461 		.ascii	"Data too short for DNS type.\015\012\000"
  40      20746F6F 
  40      2073686F 
  40      72742066 
  40      6F722044 
  41 00f7 00       		.align	2
  42              	.LC7:
  43 00f8 4E4F4E20 		.ascii	"NON EXISTING DNS URL ID\015\012\000"
  43      45584953 
  43      54494E47 
  43      20444E53 
  43      2055524C 
  44 0112 0000     		.align	2
  45              	.LC8:
  46 0114 4E657720 		.ascii	"New DNS URL id: %d\015\012\000"
  46      444E5320 
  46      55524C20 
  46      69643A20 
  46      25640D0A 
  47 0129 000000   		.align	2
  48              	.LC9:
  49 012c 44617461 		.ascii	"Data too short for FLASH type.\015\012\000"
  49      20746F6F 
  49      2073686F 
  49      72742066 
  49      6F722046 
  50 014d 000000   		.align	2
  51              	.LC10:
  52 0150 43757272 		.ascii	"Current Flash Index %d\015\012\000"
  52      656E7420 
  52      466C6173 
  52      6820496E 
  52      64657820 
  53 0169 000000   		.align	2
  54              	.LC11:
  55 016c 44617461 		.ascii	"Data too short for LAST_KNOWN_TIMESTAMP type.\015\012"
  55      20746F6F 
  55      2073686F 
  55      72742066 
  55      6F72204C 
  56 019b 00       		.ascii	"\000"
  57              		.align	2
  58              	.LC12:
  59 019c 43757272 		.ascii	"Current last known timestamp %d\015\012\000"
  59      656E7420 
  59      6C617374 
  59      206B6E6F 
  59      776E2074 
  60 01be 0000     		.align	2
  61              	.LC13:
  62 01c0 554E4B4E 		.ascii	"UNKNOWN OCTA PAYLOAD TYPE RECEIVED\015\012\000"
ARM GAS  C:\Users\tijsv\AppData\Local\Temp\ccjudKGt.s 			page 3


  62      4F574E20 
  62      4F435441 
  62      20504159 
  62      4C4F4144 
  63              		.section	.text.parse_octa_configuration,"ax",%progbits
  64              		.align	1
  65              		.global	parse_octa_configuration
  66              		.arch armv7e-m
  67              		.syntax unified
  68              		.thumb
  69              		.thumb_func
  70              		.fpu fpv4-sp-d16
  72              	parse_octa_configuration:
  73              	.LVL0:
  74              	.LFB0:
  75              		.file 1 "../../../core/platform/common/src/payloadparser.c"
   1:../../../core/platform/common/src/payloadparser.c **** #include "payloadformat.h"
   2:../../../core/platform/common/src/payloadparser.c **** #include "datatypes.h"
   3:../../../core/platform/common/src/payloadparser.c **** #include "payloadparser.h"
   4:../../../core/platform/common/src/payloadparser.c **** #include "octa-protocol-types.h"
   5:../../../core/platform/common/src/payloadparser.c **** 
   6:../../../core/platform/common/src/payloadparser.c **** uint8_t parse_octa_configuration(struct octa_configuration* current_octa_configuration, uint8_t* bu
   7:../../../core/platform/common/src/payloadparser.c **** {
  76              		.loc 1 7 1 view -0
  77              		.cfi_startproc
  78              		@ args = 0, pretend = 0, frame = 24
  79              		@ frame_needed = 0, uses_anonymous_args = 0
  80              		.loc 1 7 1 is_stmt 0 view .LVU1
  81 0000 2DE9F043 		push	{r4, r5, r6, r7, r8, r9, lr}
  82              	.LCFI0:
  83              		.cfi_def_cfa_offset 28
  84              		.cfi_offset 4, -28
  85              		.cfi_offset 5, -24
  86              		.cfi_offset 6, -20
  87              		.cfi_offset 7, -16
  88              		.cfi_offset 8, -12
  89              		.cfi_offset 9, -8
  90              		.cfi_offset 14, -4
  91 0004 87B0     		sub	sp, sp, #28
  92              	.LCFI1:
  93              		.cfi_def_cfa_offset 56
  94 0006 8046     		mov	r8, r0
  95 0008 0E46     		mov	r6, r1
  96 000a 1746     		mov	r7, r2
   8:../../../core/platform/common/src/payloadparser.c ****   uint16_t index = 0;
  97              		.loc 1 8 3 is_stmt 1 view .LVU2
  98              	.LVL1:
   9:../../../core/platform/common/src/payloadparser.c ****   struct octa_configuration temp_config;
  99              		.loc 1 9 3 view .LVU3
  10:../../../core/platform/common/src/payloadparser.c ****   //set temp config to use current config params
  11:../../../core/platform/common/src/payloadparser.c ****   temp_config = *current_octa_configuration;
 100              		.loc 1 11 3 view .LVU4
 101              		.loc 1 11 15 is_stmt 0 view .LVU5
 102 000c 01AC     		add	r4, sp, #4
 103 000e 0546     		mov	r5, r0
 104 0010 0FCD     		ldmia	r5!, {r0, r1, r2, r3}
 105              	.LVL2:
ARM GAS  C:\Users\tijsv\AppData\Local\Temp\ccjudKGt.s 			page 4


 106              		.loc 1 11 15 view .LVU6
 107 0012 0FC4     		stmia	r4!, {r0, r1, r2, r3}
 108 0014 2B68     		ldr	r3, [r5]
 109 0016 2360     		str	r3, [r4]
  12:../../../core/platform/common/src/payloadparser.c ****   printDBG("parsing octa configuration payload with size %d\r\n", len);
 110              		.loc 1 12 3 is_stmt 1 view .LVU7
 111 0018 3946     		mov	r1, r7
 112 001a 5448     		ldr	r0, .L29
 113 001c FFF7FEFF 		bl	printDBG
 114              	.LVL3:
  13:../../../core/platform/common/src/payloadparser.c ****   #if DEBUG
  14:../../../core/platform/common/src/payloadparser.c ****     for (uint16_t i = 0; i < len; ++i) {
  15:../../../core/platform/common/src/payloadparser.c ****       printf("%02x", buffer[i]);
  16:../../../core/platform/common/src/payloadparser.c ****     }
  17:../../../core/platform/common/src/payloadparser.c ****     printf("\r\n");
  18:../../../core/platform/common/src/payloadparser.c ****   #endif
  19:../../../core/platform/common/src/payloadparser.c ****   if(len<1)
 115              		.loc 1 19 3 view .LVU8
 116              		.loc 1 19 5 is_stmt 0 view .LVU9
 117 0020 1FB3     		cbz	r7, .L20
 118 0022 B946     		mov	r9, r7
   8:../../../core/platform/common/src/payloadparser.c ****   struct octa_configuration temp_config;
 119              		.loc 1 8 12 view .LVU10
 120 0024 0024     		movs	r4, #0
 121              	.LVL4:
 122              	.L2:
  20:../../../core/platform/common/src/payloadparser.c ****   {
  21:../../../core/platform/common/src/payloadparser.c ****     printERR("Buffer too short\r\n");
  22:../../../core/platform/common/src/payloadparser.c ****     return PARSER_TOO_SHORT;
  23:../../../core/platform/common/src/payloadparser.c ****   }
  24:../../../core/platform/common/src/payloadparser.c ****   while (index<len)
 123              		.loc 1 24 9 is_stmt 1 view .LVU11
 124 0026 BC42     		cmp	r4, r7
 125 0028 80F09680 		bcs	.L21
  25:../../../core/platform/common/src/payloadparser.c ****   {
  26:../../../core/platform/common/src/payloadparser.c ****     switch(buffer[index])
 126              		.loc 1 26 5 view .LVU12
 127              		.loc 1 26 18 is_stmt 0 view .LVU13
 128 002c 2546     		mov	r5, r4
 129 002e 335D     		ldrb	r3, [r6, r4]	@ zero_extendqisi2
 130              		.loc 1 26 5 view .LVU14
 131 0030 F52B     		cmp	r3, #245
 132 0032 52D0     		beq	.L4
 133 0034 1ED9     		bls	.L22
 134 0036 F62B     		cmp	r3, #246
 135 0038 3AD0     		beq	.L9
 136 003a F72B     		cmp	r3, #247
 137 003c 40F08580 		bne	.L8
 138              	.LBB2:
  27:../../../core/platform/common/src/payloadparser.c ****     {
  28:../../../core/platform/common/src/payloadparser.c ****       case TYPE_DOWNLINK_ACK:
  29:../../../core/platform/common/src/payloadparser.c ****         if(len < index+5)
 139              		.loc 1 29 9 is_stmt 1 view .LVU15
 140              		.loc 1 29 16 is_stmt 0 view .LVU16
 141 0040 231D     		adds	r3, r4, #4
 142              		.loc 1 29 11 view .LVU17
 143 0042 9945     		cmp	r9, r3
ARM GAS  C:\Users\tijsv\AppData\Local\Temp\ccjudKGt.s 			page 5


 144 0044 2FDD     		ble	.L23
  30:../../../core/platform/common/src/payloadparser.c ****         {
  31:../../../core/platform/common/src/payloadparser.c ****           printERR("Data too short for ACK type.\r\n");
  32:../../../core/platform/common/src/payloadparser.c ****           return PARSER_PARSE_ERROR;
  33:../../../core/platform/common/src/payloadparser.c ****         }
  34:../../../core/platform/common/src/payloadparser.c ****         //ACK RECEIVED
  35:../../../core/platform/common/src/payloadparser.c ****         uint32LittleEndian.byte[0] = buffer[index+1];
 145              		.loc 1 35 9 is_stmt 1 view .LVU18
 146              		.loc 1 35 44 is_stmt 0 view .LVU19
 147 0046 3544     		add	r5, r5, r6
 148 0048 6A78     		ldrb	r2, [r5, #1]	@ zero_extendqisi2
 149              		.loc 1 35 36 view .LVU20
 150 004a 494B     		ldr	r3, .L29+4
 151 004c 1A70     		strb	r2, [r3]
  36:../../../core/platform/common/src/payloadparser.c ****         uint32LittleEndian.byte[1] = buffer[index+2];
 152              		.loc 1 36 9 is_stmt 1 view .LVU21
 153              		.loc 1 36 44 is_stmt 0 view .LVU22
 154 004e AA78     		ldrb	r2, [r5, #2]	@ zero_extendqisi2
 155              		.loc 1 36 36 view .LVU23
 156 0050 5A70     		strb	r2, [r3, #1]
  37:../../../core/platform/common/src/payloadparser.c ****         uint32LittleEndian.byte[2] = buffer[index+3];
 157              		.loc 1 37 9 is_stmt 1 view .LVU24
 158              		.loc 1 37 44 is_stmt 0 view .LVU25
 159 0052 EA78     		ldrb	r2, [r5, #3]	@ zero_extendqisi2
 160              		.loc 1 37 36 view .LVU26
 161 0054 9A70     		strb	r2, [r3, #2]
  38:../../../core/platform/common/src/payloadparser.c ****         uint32LittleEndian.byte[3] = buffer[index+4];
 162              		.loc 1 38 9 is_stmt 1 view .LVU27
 163              		.loc 1 38 44 is_stmt 0 view .LVU28
 164 0056 2A79     		ldrb	r2, [r5, #4]	@ zero_extendqisi2
 165              		.loc 1 38 36 view .LVU29
 166 0058 DA70     		strb	r2, [r3, #3]
  39:../../../core/platform/common/src/payloadparser.c ****         temp_config.last_msg_acked = uint32LittleEndian.integer;
 167              		.loc 1 39 9 is_stmt 1 view .LVU30
 168              		.loc 1 39 56 is_stmt 0 view .LVU31
 169 005a 1968     		ldr	r1, [r3]
 170              		.loc 1 39 36 view .LVU32
 171 005c 0391     		str	r1, [sp, #12]
  40:../../../core/platform/common/src/payloadparser.c ****         printINF("ACK for SEQ_NR: %d\r\n", temp_config.last_msg_acked);
 172              		.loc 1 40 9 is_stmt 1 view .LVU33
 173 005e 4548     		ldr	r0, .L29+8
 174 0060 FFF7FEFF 		bl	printINF
 175              	.LVL5:
  41:../../../core/platform/common/src/payloadparser.c ****         index += 5;
 176              		.loc 1 41 9 view .LVU34
 177              		.loc 1 41 15 is_stmt 0 view .LVU35
 178 0064 0534     		adds	r4, r4, #5
 179              	.LVL6:
 180              		.loc 1 41 15 view .LVU36
 181 0066 A4B2     		uxth	r4, r4
 182              	.LVL7:
  42:../../../core/platform/common/src/payloadparser.c ****         break;
 183              		.loc 1 42 9 is_stmt 1 view .LVU37
 184 0068 DDE7     		b	.L2
 185              	.LVL8:
 186              	.L20:
 187              		.loc 1 42 9 is_stmt 0 view .LVU38
ARM GAS  C:\Users\tijsv\AppData\Local\Temp\ccjudKGt.s 			page 6


 188              	.LBE2:
 189              	.LBB9:
  21:../../../core/platform/common/src/payloadparser.c ****     return PARSER_TOO_SHORT;
 190              		.loc 1 21 5 is_stmt 1 view .LVU39
 191 006a 4348     		ldr	r0, .L29+12
 192 006c FFF7FEFF 		bl	printERR
 193              	.LVL9:
  22:../../../core/platform/common/src/payloadparser.c ****   }
 194              		.loc 1 22 5 view .LVU40
  22:../../../core/platform/common/src/payloadparser.c ****   }
 195              		.loc 1 22 12 is_stmt 0 view .LVU41
 196 0070 0120     		movs	r0, #1
 197 0072 6EE0     		b	.L3
 198              	.LVL10:
 199              	.L22:
  22:../../../core/platform/common/src/payloadparser.c ****   }
 200              		.loc 1 22 12 view .LVU42
 201              	.LBE9:
  26:../../../core/platform/common/src/payloadparser.c ****     {
 202              		.loc 1 26 5 view .LVU43
 203 0074 262B     		cmp	r3, #38
 204 0076 49D0     		beq	.L6
 205 0078 362B     		cmp	r3, #54
 206 007a 66D1     		bne	.L8
 207              	.LBB10:
  43:../../../core/platform/common/src/payloadparser.c ****       case TYPE_DOWNLINK_INTERVAL_MULTIPLIER_UPDATE:
  44:../../../core/platform/common/src/payloadparser.c ****         if(len < index+3)
  45:../../../core/platform/common/src/payloadparser.c ****         {
  46:../../../core/platform/common/src/payloadparser.c ****           printERR("Data too short for INTERVAL_MULTIPLIER type.\r\n");
  47:../../../core/platform/common/src/payloadparser.c ****           return PARSER_PARSE_ERROR;
  48:../../../core/platform/common/src/payloadparser.c ****         }
  49:../../../core/platform/common/src/payloadparser.c ****         //INTERVAL & MULTIPLIER UPDATE RECEIVED
  50:../../../core/platform/common/src/payloadparser.c ****         temp_config.interval = buffer[index+1];
  51:../../../core/platform/common/src/payloadparser.c ****         temp_config.multiplier = buffer[index+2];
  52:../../../core/platform/common/src/payloadparser.c ****         printINF("New interval: %d and multiplier: %d\r\n", temp_config.interval, temp_config.multi
  53:../../../core/platform/common/src/payloadparser.c ****         index += 3;
  54:../../../core/platform/common/src/payloadparser.c ****         break;
  55:../../../core/platform/common/src/payloadparser.c ****       case TYPE_DOWNLINK_DNS_UPDATE:
  56:../../../core/platform/common/src/payloadparser.c ****         if(len < index+2)
  57:../../../core/platform/common/src/payloadparser.c ****         {
  58:../../../core/platform/common/src/payloadparser.c ****           printERR("Data too short for DNS type.\r\n");
  59:../../../core/platform/common/src/payloadparser.c ****           return PARSER_PARSE_ERROR;
  60:../../../core/platform/common/src/payloadparser.c ****         } 
  61:../../../core/platform/common/src/payloadparser.c ****         //DNS ID UPDATE RECEIVED        
  62:../../../core/platform/common/src/payloadparser.c ****         if((buffer[index+1] != 1) && (buffer[index+1] != 0))
  63:../../../core/platform/common/src/payloadparser.c ****         {
  64:../../../core/platform/common/src/payloadparser.c ****           printERR("NON EXISTING DNS URL ID\r\n");
  65:../../../core/platform/common/src/payloadparser.c ****           return PARSER_INVALID_VALUE;
  66:../../../core/platform/common/src/payloadparser.c ****         }  
  67:../../../core/platform/common/src/payloadparser.c ****         else
  68:../../../core/platform/common/src/payloadparser.c ****         {
  69:../../../core/platform/common/src/payloadparser.c ****           temp_config.dns_id = buffer[index+1];
  70:../../../core/platform/common/src/payloadparser.c ****           printINF("New DNS URL id: %d\r\n", temp_config.dns_id);
  71:../../../core/platform/common/src/payloadparser.c ****           //TODO: reboot after new URL id? or just reinint nb-iot module? -> this is for applicatio
  72:../../../core/platform/common/src/payloadparser.c ****         }
  73:../../../core/platform/common/src/payloadparser.c ****         index += 2;
  74:../../../core/platform/common/src/payloadparser.c ****         break;
ARM GAS  C:\Users\tijsv\AppData\Local\Temp\ccjudKGt.s 			page 7


  75:../../../core/platform/common/src/payloadparser.c ****       case TYPE_CURRENT_FLASH_INDEX:
  76:../../../core/platform/common/src/payloadparser.c ****         if(len < index+5)
  77:../../../core/platform/common/src/payloadparser.c ****         {
  78:../../../core/platform/common/src/payloadparser.c ****           printERR("Data too short for FLASH type.\r\n");
  79:../../../core/platform/common/src/payloadparser.c ****           return PARSER_PARSE_ERROR;
  80:../../../core/platform/common/src/payloadparser.c ****         }
  81:../../../core/platform/common/src/payloadparser.c ****         //FLASH INDEX
  82:../../../core/platform/common/src/payloadparser.c ****         uint32LittleEndian.byte[0] = buffer[index+1];
  83:../../../core/platform/common/src/payloadparser.c ****         uint32LittleEndian.byte[1] = buffer[index+2];
  84:../../../core/platform/common/src/payloadparser.c ****         uint32LittleEndian.byte[2] = buffer[index+3];
  85:../../../core/platform/common/src/payloadparser.c ****         uint32LittleEndian.byte[3] = buffer[index+4];
  86:../../../core/platform/common/src/payloadparser.c ****         temp_config.flash_index = uint32LittleEndian.integer;
  87:../../../core/platform/common/src/payloadparser.c ****         printINF("Current Flash Index %d\r\n", temp_config.flash_index);
  88:../../../core/platform/common/src/payloadparser.c ****         index += 5;
  89:../../../core/platform/common/src/payloadparser.c ****         break;
  90:../../../core/platform/common/src/payloadparser.c ****       case TYPE_LAST_KNOWN_TIMESTAMP:
  91:../../../core/platform/common/src/payloadparser.c ****         if(len < index+5)
 208              		.loc 1 91 9 is_stmt 1 view .LVU44
 209              		.loc 1 91 16 is_stmt 0 view .LVU45
 210 007c 231D     		adds	r3, r4, #4
 211              		.loc 1 91 11 view .LVU46
 212 007e 9945     		cmp	r9, r3
 213 0080 5EDD     		ble	.L24
  92:../../../core/platform/common/src/payloadparser.c ****         {
  93:../../../core/platform/common/src/payloadparser.c ****           printERR("Data too short for LAST_KNOWN_TIMESTAMP type.\r\n");
  94:../../../core/platform/common/src/payloadparser.c ****           return PARSER_PARSE_ERROR;
  95:../../../core/platform/common/src/payloadparser.c ****         }
  96:../../../core/platform/common/src/payloadparser.c ****         //FLASH INDEX
  97:../../../core/platform/common/src/payloadparser.c ****         uint32LittleEndian.byte[0] = buffer[index+1];
 214              		.loc 1 97 9 is_stmt 1 view .LVU47
 215              		.loc 1 97 44 is_stmt 0 view .LVU48
 216 0082 3544     		add	r5, r5, r6
 217 0084 6A78     		ldrb	r2, [r5, #1]	@ zero_extendqisi2
 218              		.loc 1 97 36 view .LVU49
 219 0086 3A4B     		ldr	r3, .L29+4
 220 0088 1A70     		strb	r2, [r3]
  98:../../../core/platform/common/src/payloadparser.c ****         uint32LittleEndian.byte[1] = buffer[index+2];
 221              		.loc 1 98 9 is_stmt 1 view .LVU50
 222              		.loc 1 98 44 is_stmt 0 view .LVU51
 223 008a AA78     		ldrb	r2, [r5, #2]	@ zero_extendqisi2
 224              		.loc 1 98 36 view .LVU52
 225 008c 5A70     		strb	r2, [r3, #1]
  99:../../../core/platform/common/src/payloadparser.c ****         uint32LittleEndian.byte[2] = buffer[index+3];
 226              		.loc 1 99 9 is_stmt 1 view .LVU53
 227              		.loc 1 99 44 is_stmt 0 view .LVU54
 228 008e EA78     		ldrb	r2, [r5, #3]	@ zero_extendqisi2
 229              		.loc 1 99 36 view .LVU55
 230 0090 9A70     		strb	r2, [r3, #2]
 100:../../../core/platform/common/src/payloadparser.c ****         uint32LittleEndian.byte[3] = buffer[index+4];
 231              		.loc 1 100 9 is_stmt 1 view .LVU56
 232              		.loc 1 100 44 is_stmt 0 view .LVU57
 233 0092 2A79     		ldrb	r2, [r5, #4]	@ zero_extendqisi2
 234              		.loc 1 100 36 view .LVU58
 235 0094 DA70     		strb	r2, [r3, #3]
 101:../../../core/platform/common/src/payloadparser.c ****         temp_config.last_known_timestamp = uint32LittleEndian.integer;
 236              		.loc 1 101 9 is_stmt 1 view .LVU59
 237              		.loc 1 101 62 is_stmt 0 view .LVU60
ARM GAS  C:\Users\tijsv\AppData\Local\Temp\ccjudKGt.s 			page 8


 238 0096 1968     		ldr	r1, [r3]
 239              		.loc 1 101 42 view .LVU61
 240 0098 0591     		str	r1, [sp, #20]
 102:../../../core/platform/common/src/payloadparser.c ****         printINF("Current last known timestamp %d\r\n", temp_config.last_known_timestamp);
 241              		.loc 1 102 9 is_stmt 1 view .LVU62
 242 009a 3848     		ldr	r0, .L29+16
 243 009c FFF7FEFF 		bl	printINF
 244              	.LVL11:
 103:../../../core/platform/common/src/payloadparser.c ****         index += 5;
 245              		.loc 1 103 9 view .LVU63
 246              		.loc 1 103 15 is_stmt 0 view .LVU64
 247 00a0 0534     		adds	r4, r4, #5
 248              	.LVL12:
 249              		.loc 1 103 15 view .LVU65
 250 00a2 A4B2     		uxth	r4, r4
 251              	.LVL13:
 104:../../../core/platform/common/src/payloadparser.c ****         break;
 252              		.loc 1 104 9 is_stmt 1 view .LVU66
 253 00a4 BFE7     		b	.L2
 254              	.L23:
 255              	.LBB3:
  31:../../../core/platform/common/src/payloadparser.c ****           return PARSER_PARSE_ERROR;
 256              		.loc 1 31 11 view .LVU67
 257 00a6 3648     		ldr	r0, .L29+20
 258 00a8 FFF7FEFF 		bl	printERR
 259              	.LVL14:
  32:../../../core/platform/common/src/payloadparser.c ****         }
 260              		.loc 1 32 11 view .LVU68
  32:../../../core/platform/common/src/payloadparser.c ****         }
 261              		.loc 1 32 18 is_stmt 0 view .LVU69
 262 00ac 0220     		movs	r0, #2
 263 00ae 50E0     		b	.L3
 264              	.L9:
 265              	.LBE3:
  44:../../../core/platform/common/src/payloadparser.c ****         {
 266              		.loc 1 44 9 is_stmt 1 view .LVU70
  44:../../../core/platform/common/src/payloadparser.c ****         {
 267              		.loc 1 44 16 is_stmt 0 view .LVU71
 268 00b0 A31C     		adds	r3, r4, #2
  44:../../../core/platform/common/src/payloadparser.c ****         {
 269              		.loc 1 44 11 view .LVU72
 270 00b2 9945     		cmp	r9, r3
 271 00b4 0CDD     		ble	.L25
  50:../../../core/platform/common/src/payloadparser.c ****         temp_config.multiplier = buffer[index+2];
 272              		.loc 1 50 9 is_stmt 1 view .LVU73
  50:../../../core/platform/common/src/payloadparser.c ****         temp_config.multiplier = buffer[index+2];
 273              		.loc 1 50 38 is_stmt 0 view .LVU74
 274 00b6 3544     		add	r5, r5, r6
 275 00b8 6978     		ldrb	r1, [r5, #1]	@ zero_extendqisi2
  50:../../../core/platform/common/src/payloadparser.c ****         temp_config.multiplier = buffer[index+2];
 276              		.loc 1 50 30 view .LVU75
 277 00ba 8DF81010 		strb	r1, [sp, #16]
  51:../../../core/platform/common/src/payloadparser.c ****         printINF("New interval: %d and multiplier: %d\r\n", temp_config.interval, temp_config.multi
 278              		.loc 1 51 9 is_stmt 1 view .LVU76
  51:../../../core/platform/common/src/payloadparser.c ****         printINF("New interval: %d and multiplier: %d\r\n", temp_config.interval, temp_config.multi
 279              		.loc 1 51 40 is_stmt 0 view .LVU77
 280 00be AA78     		ldrb	r2, [r5, #2]	@ zero_extendqisi2
ARM GAS  C:\Users\tijsv\AppData\Local\Temp\ccjudKGt.s 			page 9


  51:../../../core/platform/common/src/payloadparser.c ****         printINF("New interval: %d and multiplier: %d\r\n", temp_config.interval, temp_config.multi
 281              		.loc 1 51 32 view .LVU78
 282 00c0 8DF81120 		strb	r2, [sp, #17]
  52:../../../core/platform/common/src/payloadparser.c ****         index += 3;
 283              		.loc 1 52 9 is_stmt 1 view .LVU79
 284 00c4 2F48     		ldr	r0, .L29+24
 285 00c6 FFF7FEFF 		bl	printINF
 286              	.LVL15:
  53:../../../core/platform/common/src/payloadparser.c ****         break;
 287              		.loc 1 53 9 view .LVU80
  53:../../../core/platform/common/src/payloadparser.c ****         break;
 288              		.loc 1 53 15 is_stmt 0 view .LVU81
 289 00ca 0334     		adds	r4, r4, #3
 290              	.LVL16:
  53:../../../core/platform/common/src/payloadparser.c ****         break;
 291              		.loc 1 53 15 view .LVU82
 292 00cc A4B2     		uxth	r4, r4
 293              	.LVL17:
  54:../../../core/platform/common/src/payloadparser.c ****       case TYPE_DOWNLINK_DNS_UPDATE:
 294              		.loc 1 54 9 is_stmt 1 view .LVU83
 295 00ce AAE7     		b	.L2
 296              	.L25:
 297              	.LBB4:
  46:../../../core/platform/common/src/payloadparser.c ****           return PARSER_PARSE_ERROR;
 298              		.loc 1 46 11 view .LVU84
 299 00d0 2D48     		ldr	r0, .L29+28
 300 00d2 FFF7FEFF 		bl	printERR
 301              	.LVL18:
  47:../../../core/platform/common/src/payloadparser.c ****         }
 302              		.loc 1 47 11 view .LVU85
  47:../../../core/platform/common/src/payloadparser.c ****         }
 303              		.loc 1 47 18 is_stmt 0 view .LVU86
 304 00d6 0220     		movs	r0, #2
 305 00d8 3BE0     		b	.L3
 306              	.L4:
 307              	.LBE4:
  56:../../../core/platform/common/src/payloadparser.c ****         {
 308              		.loc 1 56 9 is_stmt 1 view .LVU87
  56:../../../core/platform/common/src/payloadparser.c ****         {
 309              		.loc 1 56 16 is_stmt 0 view .LVU88
 310 00da 631C     		adds	r3, r4, #1
  56:../../../core/platform/common/src/payloadparser.c ****         {
 311              		.loc 1 56 11 view .LVU89
 312 00dc 9945     		cmp	r9, r3
 313 00de 0BDD     		ble	.L26
  62:../../../core/platform/common/src/payloadparser.c ****         {
 314              		.loc 1 62 9 is_stmt 1 view .LVU90
  62:../../../core/platform/common/src/payloadparser.c ****         {
 315              		.loc 1 62 19 is_stmt 0 view .LVU91
 316 00e0 3544     		add	r5, r5, r6
 317 00e2 6978     		ldrb	r1, [r5, #1]	@ zero_extendqisi2
  62:../../../core/platform/common/src/payloadparser.c ****         {
 318              		.loc 1 62 11 view .LVU92
 319 00e4 0129     		cmp	r1, #1
 320 00e6 0CD8     		bhi	.L27
  69:../../../core/platform/common/src/payloadparser.c ****           printINF("New DNS URL id: %d\r\n", temp_config.dns_id);
 321              		.loc 1 69 11 is_stmt 1 view .LVU93
ARM GAS  C:\Users\tijsv\AppData\Local\Temp\ccjudKGt.s 			page 10


  69:../../../core/platform/common/src/payloadparser.c ****           printINF("New DNS URL id: %d\r\n", temp_config.dns_id);
 322              		.loc 1 69 30 is_stmt 0 view .LVU94
 323 00e8 8DF80810 		strb	r1, [sp, #8]
  70:../../../core/platform/common/src/payloadparser.c ****           //TODO: reboot after new URL id? or just reinint nb-iot module? -> this is for applicatio
 324              		.loc 1 70 11 is_stmt 1 view .LVU95
 325 00ec 2748     		ldr	r0, .L29+32
 326 00ee FFF7FEFF 		bl	printINF
 327              	.LVL19:
  73:../../../core/platform/common/src/payloadparser.c ****         break;
 328              		.loc 1 73 9 view .LVU96
  73:../../../core/platform/common/src/payloadparser.c ****         break;
 329              		.loc 1 73 15 is_stmt 0 view .LVU97
 330 00f2 0234     		adds	r4, r4, #2
 331              	.LVL20:
  73:../../../core/platform/common/src/payloadparser.c ****         break;
 332              		.loc 1 73 15 view .LVU98
 333 00f4 A4B2     		uxth	r4, r4
 334              	.LVL21:
  74:../../../core/platform/common/src/payloadparser.c ****       case TYPE_CURRENT_FLASH_INDEX:
 335              		.loc 1 74 9 is_stmt 1 view .LVU99
 336 00f6 96E7     		b	.L2
 337              	.L26:
 338              	.LBB5:
  58:../../../core/platform/common/src/payloadparser.c ****           return PARSER_PARSE_ERROR;
 339              		.loc 1 58 11 view .LVU100
 340 00f8 2548     		ldr	r0, .L29+36
 341 00fa FFF7FEFF 		bl	printERR
 342              	.LVL22:
  59:../../../core/platform/common/src/payloadparser.c ****         } 
 343              		.loc 1 59 11 view .LVU101
  59:../../../core/platform/common/src/payloadparser.c ****         } 
 344              		.loc 1 59 18 is_stmt 0 view .LVU102
 345 00fe 0220     		movs	r0, #2
 346 0100 27E0     		b	.L3
 347              	.L27:
  59:../../../core/platform/common/src/payloadparser.c ****         } 
 348              		.loc 1 59 18 view .LVU103
 349              	.LBE5:
 350              	.LBB6:
  64:../../../core/platform/common/src/payloadparser.c ****           return PARSER_INVALID_VALUE;
 351              		.loc 1 64 11 is_stmt 1 view .LVU104
 352 0102 2448     		ldr	r0, .L29+40
 353 0104 FFF7FEFF 		bl	printERR
 354              	.LVL23:
  65:../../../core/platform/common/src/payloadparser.c ****         }  
 355              		.loc 1 65 11 view .LVU105
  65:../../../core/platform/common/src/payloadparser.c ****         }  
 356              		.loc 1 65 18 is_stmt 0 view .LVU106
 357 0108 0420     		movs	r0, #4
 358 010a 22E0     		b	.L3
 359              	.L6:
  65:../../../core/platform/common/src/payloadparser.c ****         }  
 360              		.loc 1 65 18 view .LVU107
 361              	.LBE6:
  76:../../../core/platform/common/src/payloadparser.c ****         {
 362              		.loc 1 76 9 is_stmt 1 view .LVU108
  76:../../../core/platform/common/src/payloadparser.c ****         {
ARM GAS  C:\Users\tijsv\AppData\Local\Temp\ccjudKGt.s 			page 11


 363              		.loc 1 76 16 is_stmt 0 view .LVU109
 364 010c 231D     		adds	r3, r4, #4
  76:../../../core/platform/common/src/payloadparser.c ****         {
 365              		.loc 1 76 11 view .LVU110
 366 010e 9945     		cmp	r9, r3
 367 0110 11DD     		ble	.L28
  82:../../../core/platform/common/src/payloadparser.c ****         uint32LittleEndian.byte[1] = buffer[index+2];
 368              		.loc 1 82 9 is_stmt 1 view .LVU111
  82:../../../core/platform/common/src/payloadparser.c ****         uint32LittleEndian.byte[1] = buffer[index+2];
 369              		.loc 1 82 44 is_stmt 0 view .LVU112
 370 0112 3544     		add	r5, r5, r6
 371 0114 6A78     		ldrb	r2, [r5, #1]	@ zero_extendqisi2
  82:../../../core/platform/common/src/payloadparser.c ****         uint32LittleEndian.byte[1] = buffer[index+2];
 372              		.loc 1 82 36 view .LVU113
 373 0116 164B     		ldr	r3, .L29+4
 374 0118 1A70     		strb	r2, [r3]
  83:../../../core/platform/common/src/payloadparser.c ****         uint32LittleEndian.byte[2] = buffer[index+3];
 375              		.loc 1 83 9 is_stmt 1 view .LVU114
  83:../../../core/platform/common/src/payloadparser.c ****         uint32LittleEndian.byte[2] = buffer[index+3];
 376              		.loc 1 83 44 is_stmt 0 view .LVU115
 377 011a AA78     		ldrb	r2, [r5, #2]	@ zero_extendqisi2
  83:../../../core/platform/common/src/payloadparser.c ****         uint32LittleEndian.byte[2] = buffer[index+3];
 378              		.loc 1 83 36 view .LVU116
 379 011c 5A70     		strb	r2, [r3, #1]
  84:../../../core/platform/common/src/payloadparser.c ****         uint32LittleEndian.byte[3] = buffer[index+4];
 380              		.loc 1 84 9 is_stmt 1 view .LVU117
  84:../../../core/platform/common/src/payloadparser.c ****         uint32LittleEndian.byte[3] = buffer[index+4];
 381              		.loc 1 84 44 is_stmt 0 view .LVU118
 382 011e EA78     		ldrb	r2, [r5, #3]	@ zero_extendqisi2
  84:../../../core/platform/common/src/payloadparser.c ****         uint32LittleEndian.byte[3] = buffer[index+4];
 383              		.loc 1 84 36 view .LVU119
 384 0120 9A70     		strb	r2, [r3, #2]
  85:../../../core/platform/common/src/payloadparser.c ****         temp_config.flash_index = uint32LittleEndian.integer;
 385              		.loc 1 85 9 is_stmt 1 view .LVU120
  85:../../../core/platform/common/src/payloadparser.c ****         temp_config.flash_index = uint32LittleEndian.integer;
 386              		.loc 1 85 44 is_stmt 0 view .LVU121
 387 0122 2A79     		ldrb	r2, [r5, #4]	@ zero_extendqisi2
  85:../../../core/platform/common/src/payloadparser.c ****         temp_config.flash_index = uint32LittleEndian.integer;
 388              		.loc 1 85 36 view .LVU122
 389 0124 DA70     		strb	r2, [r3, #3]
  86:../../../core/platform/common/src/payloadparser.c ****         printINF("Current Flash Index %d\r\n", temp_config.flash_index);
 390              		.loc 1 86 9 is_stmt 1 view .LVU123
  86:../../../core/platform/common/src/payloadparser.c ****         printINF("Current Flash Index %d\r\n", temp_config.flash_index);
 391              		.loc 1 86 53 is_stmt 0 view .LVU124
 392 0126 1968     		ldr	r1, [r3]
  86:../../../core/platform/common/src/payloadparser.c ****         printINF("Current Flash Index %d\r\n", temp_config.flash_index);
 393              		.loc 1 86 33 view .LVU125
 394 0128 0191     		str	r1, [sp, #4]
  87:../../../core/platform/common/src/payloadparser.c ****         index += 5;
 395              		.loc 1 87 9 is_stmt 1 view .LVU126
 396 012a 1B48     		ldr	r0, .L29+44
 397 012c FFF7FEFF 		bl	printINF
 398              	.LVL24:
  88:../../../core/platform/common/src/payloadparser.c ****         break;
 399              		.loc 1 88 9 view .LVU127
  88:../../../core/platform/common/src/payloadparser.c ****         break;
 400              		.loc 1 88 15 is_stmt 0 view .LVU128
ARM GAS  C:\Users\tijsv\AppData\Local\Temp\ccjudKGt.s 			page 12


 401 0130 0534     		adds	r4, r4, #5
 402              	.LVL25:
  88:../../../core/platform/common/src/payloadparser.c ****         break;
 403              		.loc 1 88 15 view .LVU129
 404 0132 A4B2     		uxth	r4, r4
 405              	.LVL26:
  89:../../../core/platform/common/src/payloadparser.c ****       case TYPE_LAST_KNOWN_TIMESTAMP:
 406              		.loc 1 89 9 is_stmt 1 view .LVU130
 407 0134 77E7     		b	.L2
 408              	.L28:
 409              	.LBB7:
  78:../../../core/platform/common/src/payloadparser.c ****           return PARSER_PARSE_ERROR;
 410              		.loc 1 78 11 view .LVU131
 411 0136 1948     		ldr	r0, .L29+48
 412 0138 FFF7FEFF 		bl	printERR
 413              	.LVL27:
  79:../../../core/platform/common/src/payloadparser.c ****         }
 414              		.loc 1 79 11 view .LVU132
  79:../../../core/platform/common/src/payloadparser.c ****         }
 415              		.loc 1 79 18 is_stmt 0 view .LVU133
 416 013c 0220     		movs	r0, #2
 417 013e 08E0     		b	.L3
 418              	.L24:
 419              	.LBE7:
 420              	.LBB8:
  93:../../../core/platform/common/src/payloadparser.c ****           return PARSER_PARSE_ERROR;
 421              		.loc 1 93 11 is_stmt 1 view .LVU134
 422 0140 1748     		ldr	r0, .L29+52
 423 0142 FFF7FEFF 		bl	printERR
 424              	.LVL28:
  94:../../../core/platform/common/src/payloadparser.c ****         }
 425              		.loc 1 94 11 view .LVU135
  94:../../../core/platform/common/src/payloadparser.c ****         }
 426              		.loc 1 94 18 is_stmt 0 view .LVU136
 427 0146 0220     		movs	r0, #2
 428 0148 03E0     		b	.L3
 429              	.L8:
 430              	.LBE8:
 105:../../../core/platform/common/src/payloadparser.c ****       default:
 106:../../../core/platform/common/src/payloadparser.c ****         printERR("UNKNOWN OCTA PAYLOAD TYPE RECEIVED\r\n");
 431              		.loc 1 106 9 is_stmt 1 view .LVU137
 432 014a 1648     		ldr	r0, .L29+56
 433 014c FFF7FEFF 		bl	printERR
 434              	.LVL29:
 107:../../../core/platform/common/src/payloadparser.c ****         return PARSER_UNKNOWN_TYPE;
 435              		.loc 1 107 9 view .LVU138
 436              		.loc 1 107 16 is_stmt 0 view .LVU139
 437 0150 0320     		movs	r0, #3
 438              	.LVL30:
 439              	.L3:
 440              		.loc 1 107 16 view .LVU140
 441              	.LBE10:
 108:../../../core/platform/common/src/payloadparser.c ****     }    
 109:../../../core/platform/common/src/payloadparser.c ****   }
 110:../../../core/platform/common/src/payloadparser.c ****   *current_octa_configuration = temp_config;
 111:../../../core/platform/common/src/payloadparser.c ****   return PARSER_OK;
 112:../../../core/platform/common/src/payloadparser.c **** }
ARM GAS  C:\Users\tijsv\AppData\Local\Temp\ccjudKGt.s 			page 13


 442              		.loc 1 112 1 view .LVU141
 443 0152 07B0     		add	sp, sp, #28
 444              	.LCFI2:
 445              		.cfi_remember_state
 446              		.cfi_def_cfa_offset 28
 447              		@ sp needed
 448 0154 BDE8F083 		pop	{r4, r5, r6, r7, r8, r9, pc}
 449              	.LVL31:
 450              	.L21:
 451              	.LCFI3:
 452              		.cfi_restore_state
 110:../../../core/platform/common/src/payloadparser.c ****   return PARSER_OK;
 453              		.loc 1 110 3 is_stmt 1 view .LVU142
 110:../../../core/platform/common/src/payloadparser.c ****   return PARSER_OK;
 454              		.loc 1 110 31 is_stmt 0 view .LVU143
 455 0158 01AC     		add	r4, sp, #4
 456              	.LVL32:
 110:../../../core/platform/common/src/payloadparser.c ****   return PARSER_OK;
 457              		.loc 1 110 31 view .LVU144
 458 015a 0FCC     		ldmia	r4!, {r0, r1, r2, r3}
 459 015c A8E80F00 		stmia	r8!, {r0, r1, r2, r3}
 460              	.LVL33:
 110:../../../core/platform/common/src/payloadparser.c ****   return PARSER_OK;
 461              		.loc 1 110 31 view .LVU145
 462 0160 2368     		ldr	r3, [r4]
 463 0162 C8F80030 		str	r3, [r8]
 111:../../../core/platform/common/src/payloadparser.c **** }
 464              		.loc 1 111 3 is_stmt 1 view .LVU146
 111:../../../core/platform/common/src/payloadparser.c **** }
 465              		.loc 1 111 10 is_stmt 0 view .LVU147
 466 0166 0020     		movs	r0, #0
 467 0168 F3E7     		b	.L3
 468              	.L30:
 469 016a 00BF     		.align	2
 470              	.L29:
 471 016c 00000000 		.word	.LC0
 472 0170 00000000 		.word	uint32LittleEndian
 473 0174 68000000 		.word	.LC3
 474 0178 34000000 		.word	.LC1
 475 017c 9C010000 		.word	.LC12
 476 0180 48000000 		.word	.LC2
 477 0184 B0000000 		.word	.LC5
 478 0188 80000000 		.word	.LC4
 479 018c 14010000 		.word	.LC8
 480 0190 D8000000 		.word	.LC6
 481 0194 F8000000 		.word	.LC7
 482 0198 50010000 		.word	.LC10
 483 019c 2C010000 		.word	.LC9
 484 01a0 6C010000 		.word	.LC11
 485 01a4 C0010000 		.word	.LC13
 486              		.cfi_endproc
 487              	.LFE0:
 489              		.section	.rodata.parse_octa_protocol_downlink.str1.4,"aMS",%progbits,1
 490              		.align	2
 491              	.LC14:
 492 0000 70617273 		.ascii	"parsing octa protocol downlink with size %d\015\012"
 492      696E6720 
ARM GAS  C:\Users\tijsv\AppData\Local\Temp\ccjudKGt.s 			page 14


 492      6F637461 
 492      2070726F 
 492      746F636F 
 493 002d 00       		.ascii	"\000"
 494 002e 0000     		.align	2
 495              	.LC15:
 496 0030 48656164 		.ascii	"Header of Payload END found\015\012\000"
 496      6572206F 
 496      66205061 
 496      796C6F61 
 496      6420454E 
 497 004e 0000     		.align	2
 498              	.LC16:
 499 0050 44617461 		.ascii	"Data too short for TIMESTAMP type.\015\012\000"
 499      20746F6F 
 499      2073686F 
 499      72742066 
 499      6F722054 
 500 0075 000000   		.align	2
 501              	.LC17:
 502 0078 55544320 		.ascii	"UTC Timestamp received: %d\015\012\000"
 502      54696D65 
 502      7374616D 
 502      70207265 
 502      63656976 
 503 0095 000000   		.align	2
 504              	.LC18:
 505 0098 5B706179 		.ascii	"[payloadparser:parse_octa_protocol_downlink] parsin"
 505      6C6F6164 
 505      70617273 
 505      65723A70 
 505      61727365 
 506 00cb 67204F4B 		.ascii	"g OK\015\012\000"
 506      0D0A00
 507              		.section	.text.parse_octa_protocol_downlink,"ax",%progbits
 508              		.align	1
 509              		.global	parse_octa_protocol_downlink
 510              		.syntax unified
 511              		.thumb
 512              		.thumb_func
 513              		.fpu fpv4-sp-d16
 515              	parse_octa_protocol_downlink:
 516              	.LVL34:
 517              	.LFB1:
 113:../../../core/platform/common/src/payloadparser.c **** 
 114:../../../core/platform/common/src/payloadparser.c **** uint8_t parse_octa_protocol_downlink(struct octa_configuration* current_octa_configuration, uint8_t
 115:../../../core/platform/common/src/payloadparser.c **** {
 518              		.loc 1 115 1 is_stmt 1 view -0
 519              		.cfi_startproc
 520              		@ args = 0, pretend = 0, frame = 24
 521              		@ frame_needed = 0, uses_anonymous_args = 0
 522              		.loc 1 115 1 is_stmt 0 view .LVU149
 523 0000 2DE9F043 		push	{r4, r5, r6, r7, r8, r9, lr}
 524              	.LCFI4:
 525              		.cfi_def_cfa_offset 28
 526              		.cfi_offset 4, -28
 527              		.cfi_offset 5, -24
ARM GAS  C:\Users\tijsv\AppData\Local\Temp\ccjudKGt.s 			page 15


 528              		.cfi_offset 6, -20
 529              		.cfi_offset 7, -16
 530              		.cfi_offset 8, -12
 531              		.cfi_offset 9, -8
 532              		.cfi_offset 14, -4
 533 0004 87B0     		sub	sp, sp, #28
 534              	.LCFI5:
 535              		.cfi_def_cfa_offset 56
 536 0006 8046     		mov	r8, r0
 537 0008 0F46     		mov	r7, r1
 538 000a 1646     		mov	r6, r2
 116:../../../core/platform/common/src/payloadparser.c ****   uint16_t index = 0;
 539              		.loc 1 116 3 is_stmt 1 view .LVU150
 540              	.LVL35:
 117:../../../core/platform/common/src/payloadparser.c ****   struct octa_configuration temp_config;
 541              		.loc 1 117 3 view .LVU151
 118:../../../core/platform/common/src/payloadparser.c ****   //set temp config to use current config params
 119:../../../core/platform/common/src/payloadparser.c ****   temp_config = *current_octa_configuration;
 542              		.loc 1 119 3 view .LVU152
 543              		.loc 1 119 15 is_stmt 0 view .LVU153
 544 000c 01AC     		add	r4, sp, #4
 545 000e 0546     		mov	r5, r0
 546 0010 0FCD     		ldmia	r5!, {r0, r1, r2, r3}
 547              	.LVL36:
 548              		.loc 1 119 15 view .LVU154
 549 0012 0FC4     		stmia	r4!, {r0, r1, r2, r3}
 550 0014 2B68     		ldr	r3, [r5]
 551 0016 2360     		str	r3, [r4]
 120:../../../core/platform/common/src/payloadparser.c ****   printDBG("parsing octa protocol downlink with size %d\r\n", len);
 552              		.loc 1 120 3 is_stmt 1 view .LVU155
 553 0018 3146     		mov	r1, r6
 554 001a 3348     		ldr	r0, .L50
 555 001c FFF7FEFF 		bl	printDBG
 556              	.LVL37:
 121:../../../core/platform/common/src/payloadparser.c ****   #if DEBUG
 122:../../../core/platform/common/src/payloadparser.c ****     for (uint16_t i = 0; i < len; ++i) {
 123:../../../core/platform/common/src/payloadparser.c ****       printf("%02x", buffer[i]);
 124:../../../core/platform/common/src/payloadparser.c ****     }
 125:../../../core/platform/common/src/payloadparser.c ****     printf("\r\n");
 126:../../../core/platform/common/src/payloadparser.c ****   #endif
 127:../../../core/platform/common/src/payloadparser.c ****   if(len<1)
 557              		.loc 1 127 3 view .LVU156
 558              		.loc 1 127 5 is_stmt 0 view .LVU157
 559 0020 8EB1     		cbz	r6, .L45
 560 0022 B146     		mov	r9, r6
 116:../../../core/platform/common/src/payloadparser.c ****   struct octa_configuration temp_config;
 561              		.loc 1 116 12 view .LVU158
 562 0024 0024     		movs	r4, #0
 563              	.LVL38:
 564              	.L32:
 128:../../../core/platform/common/src/payloadparser.c ****   {
 129:../../../core/platform/common/src/payloadparser.c ****     printERR("Buffer too short\r\n");
 130:../../../core/platform/common/src/payloadparser.c ****     return PARSER_TOO_SHORT;
 131:../../../core/platform/common/src/payloadparser.c ****   }
 132:../../../core/platform/common/src/payloadparser.c ****   while (index<len)
 565              		.loc 1 132 9 is_stmt 1 view .LVU159
 566 0026 B442     		cmp	r4, r6
ARM GAS  C:\Users\tijsv\AppData\Local\Temp\ccjudKGt.s 			page 16


 567 0028 52D2     		bcs	.L46
 133:../../../core/platform/common/src/payloadparser.c ****   {
 134:../../../core/platform/common/src/payloadparser.c ****     switch(buffer[index])
 568              		.loc 1 134 5 view .LVU160
 569              		.loc 1 134 18 is_stmt 0 view .LVU161
 570 002a 2546     		mov	r5, r4
 571 002c 3B5D     		ldrb	r3, [r7, r4]	@ zero_extendqisi2
 572              		.loc 1 134 5 view .LVU162
 573 002e 072B     		cmp	r3, #7
 574 0030 0ED0     		beq	.L34
 575 0032 FF2B     		cmp	r3, #255
 576 0034 26D0     		beq	.L35
 577 0036 5BB3     		cbz	r3, .L47
 578              	.LBB11:
 135:../../../core/platform/common/src/payloadparser.c ****     {
 136:../../../core/platform/common/src/payloadparser.c ****       case TYPE_HEADER_ACK:
 137:../../../core/platform/common/src/payloadparser.c ****         if(len < index+5)
 138:../../../core/platform/common/src/payloadparser.c ****         {
 139:../../../core/platform/common/src/payloadparser.c ****           printERR("Data too short for ACK type.\r\n");
 140:../../../core/platform/common/src/payloadparser.c ****           return PARSER_PARSE_ERROR;
 141:../../../core/platform/common/src/payloadparser.c ****         }
 142:../../../core/platform/common/src/payloadparser.c ****         //ACK RECEIVED
 143:../../../core/platform/common/src/payloadparser.c ****         uint32LittleEndian.byte[0] = buffer[index+1];
 144:../../../core/platform/common/src/payloadparser.c ****         uint32LittleEndian.byte[1] = buffer[index+2];
 145:../../../core/platform/common/src/payloadparser.c ****         uint32LittleEndian.byte[2] = buffer[index+3];
 146:../../../core/platform/common/src/payloadparser.c ****         uint32LittleEndian.byte[3] = buffer[index+4];
 147:../../../core/platform/common/src/payloadparser.c ****         temp_config.last_msg_acked = uint32LittleEndian.integer;
 148:../../../core/platform/common/src/payloadparser.c ****         printINF("ACK for SEQ_NR: %d\r\n", temp_config.last_msg_acked);
 149:../../../core/platform/common/src/payloadparser.c ****         index += 5;
 150:../../../core/platform/common/src/payloadparser.c ****         break;
 151:../../../core/platform/common/src/payloadparser.c ****       case TYPE_HEADER_END:
 152:../../../core/platform/common/src/payloadparser.c ****         printINF("Header of Payload END found\r\n");
 153:../../../core/platform/common/src/payloadparser.c ****         index ++;
 154:../../../core/platform/common/src/payloadparser.c ****         break;
 155:../../../core/platform/common/src/payloadparser.c ****       case TYPE_PAYLOAD_TIMESTAMP:
 156:../../../core/platform/common/src/payloadparser.c ****         if(len < index+5)
 157:../../../core/platform/common/src/payloadparser.c ****         {
 158:../../../core/platform/common/src/payloadparser.c ****           printERR("Data too short for TIMESTAMP type.\r\n");
 159:../../../core/platform/common/src/payloadparser.c ****           return PARSER_PARSE_ERROR;
 160:../../../core/platform/common/src/payloadparser.c ****         }
 161:../../../core/platform/common/src/payloadparser.c ****         //FLASH INDEX
 162:../../../core/platform/common/src/payloadparser.c ****         uint32LittleEndian.byte[0] = buffer[index+1];
 163:../../../core/platform/common/src/payloadparser.c ****         uint32LittleEndian.byte[1] = buffer[index+2];
 164:../../../core/platform/common/src/payloadparser.c ****         uint32LittleEndian.byte[2] = buffer[index+3];
 165:../../../core/platform/common/src/payloadparser.c ****         uint32LittleEndian.byte[3] = buffer[index+4];
 166:../../../core/platform/common/src/payloadparser.c ****         temp_config.last_known_timestamp = uint32LittleEndian.integer;
 167:../../../core/platform/common/src/payloadparser.c ****         RTC_Set_Time_From_Unix(temp_config.last_known_timestamp);
 168:../../../core/platform/common/src/payloadparser.c ****         printINF("UTC Timestamp received: %d\r\n", temp_config.last_known_timestamp);
 169:../../../core/platform/common/src/payloadparser.c ****         RTC_Print_DateTime();
 170:../../../core/platform/common/src/payloadparser.c ****         index += 5;
 171:../../../core/platform/common/src/payloadparser.c ****         break;
 172:../../../core/platform/common/src/payloadparser.c ****       default:
 173:../../../core/platform/common/src/payloadparser.c ****         printERR("UNKNOWN OCTA PAYLOAD TYPE RECEIVED\r\n");
 579              		.loc 1 173 9 is_stmt 1 view .LVU163
 580 0038 2C48     		ldr	r0, .L50+4
 581 003a FFF7FEFF 		bl	printERR
 582              	.LVL39:
ARM GAS  C:\Users\tijsv\AppData\Local\Temp\ccjudKGt.s 			page 17


 174:../../../core/platform/common/src/payloadparser.c ****         return PARSER_UNKNOWN_TYPE;
 583              		.loc 1 174 9 view .LVU164
 584              		.loc 1 174 16 is_stmt 0 view .LVU165
 585 003e 0320     		movs	r0, #3
 586              	.LVL40:
 587              	.L33:
 588              		.loc 1 174 16 view .LVU166
 589              	.LBE11:
 175:../../../core/platform/common/src/payloadparser.c ****     }    
 176:../../../core/platform/common/src/payloadparser.c ****   }
 177:../../../core/platform/common/src/payloadparser.c ****   *current_octa_configuration = temp_config;
 178:../../../core/platform/common/src/payloadparser.c ****   printINF("[payloadparser:parse_octa_protocol_downlink] parsing OK\r\n");
 179:../../../core/platform/common/src/payloadparser.c ****   return PARSER_OK;
 180:../../../core/platform/common/src/payloadparser.c **** }
 590              		.loc 1 180 1 view .LVU167
 591 0040 07B0     		add	sp, sp, #28
 592              	.LCFI6:
 593              		.cfi_remember_state
 594              		.cfi_def_cfa_offset 28
 595              		@ sp needed
 596 0042 BDE8F083 		pop	{r4, r5, r6, r7, r8, r9, pc}
 597              	.LVL41:
 598              	.L45:
 599              	.LCFI7:
 600              		.cfi_restore_state
 601              	.LBB14:
 129:../../../core/platform/common/src/payloadparser.c ****     return PARSER_TOO_SHORT;
 602              		.loc 1 129 5 is_stmt 1 view .LVU168
 603 0046 2A48     		ldr	r0, .L50+8
 604 0048 FFF7FEFF 		bl	printERR
 605              	.LVL42:
 130:../../../core/platform/common/src/payloadparser.c ****   }
 606              		.loc 1 130 5 view .LVU169
 130:../../../core/platform/common/src/payloadparser.c ****   }
 607              		.loc 1 130 12 is_stmt 0 view .LVU170
 608 004c 0120     		movs	r0, #1
 609 004e F7E7     		b	.L33
 610              	.LVL43:
 611              	.L34:
 130:../../../core/platform/common/src/payloadparser.c ****   }
 612              		.loc 1 130 12 view .LVU171
 613              	.LBE14:
 614              	.LBB15:
 137:../../../core/platform/common/src/payloadparser.c ****         {
 615              		.loc 1 137 9 is_stmt 1 view .LVU172
 137:../../../core/platform/common/src/payloadparser.c ****         {
 616              		.loc 1 137 16 is_stmt 0 view .LVU173
 617 0050 231D     		adds	r3, r4, #4
 137:../../../core/platform/common/src/payloadparser.c ****         {
 618              		.loc 1 137 11 view .LVU174
 619 0052 9945     		cmp	r9, r3
 620 0054 11DD     		ble	.L48
 143:../../../core/platform/common/src/payloadparser.c ****         uint32LittleEndian.byte[1] = buffer[index+2];
 621              		.loc 1 143 9 is_stmt 1 view .LVU175
 143:../../../core/platform/common/src/payloadparser.c ****         uint32LittleEndian.byte[1] = buffer[index+2];
 622              		.loc 1 143 44 is_stmt 0 view .LVU176
 623 0056 3D44     		add	r5, r5, r7
ARM GAS  C:\Users\tijsv\AppData\Local\Temp\ccjudKGt.s 			page 18


 624 0058 6A78     		ldrb	r2, [r5, #1]	@ zero_extendqisi2
 143:../../../core/platform/common/src/payloadparser.c ****         uint32LittleEndian.byte[1] = buffer[index+2];
 625              		.loc 1 143 36 view .LVU177
 626 005a 264B     		ldr	r3, .L50+12
 627 005c 1A70     		strb	r2, [r3]
 144:../../../core/platform/common/src/payloadparser.c ****         uint32LittleEndian.byte[2] = buffer[index+3];
 628              		.loc 1 144 9 is_stmt 1 view .LVU178
 144:../../../core/platform/common/src/payloadparser.c ****         uint32LittleEndian.byte[2] = buffer[index+3];
 629              		.loc 1 144 44 is_stmt 0 view .LVU179
 630 005e AA78     		ldrb	r2, [r5, #2]	@ zero_extendqisi2
 144:../../../core/platform/common/src/payloadparser.c ****         uint32LittleEndian.byte[2] = buffer[index+3];
 631              		.loc 1 144 36 view .LVU180
 632 0060 5A70     		strb	r2, [r3, #1]
 145:../../../core/platform/common/src/payloadparser.c ****         uint32LittleEndian.byte[3] = buffer[index+4];
 633              		.loc 1 145 9 is_stmt 1 view .LVU181
 145:../../../core/platform/common/src/payloadparser.c ****         uint32LittleEndian.byte[3] = buffer[index+4];
 634              		.loc 1 145 44 is_stmt 0 view .LVU182
 635 0062 EA78     		ldrb	r2, [r5, #3]	@ zero_extendqisi2
 145:../../../core/platform/common/src/payloadparser.c ****         uint32LittleEndian.byte[3] = buffer[index+4];
 636              		.loc 1 145 36 view .LVU183
 637 0064 9A70     		strb	r2, [r3, #2]
 146:../../../core/platform/common/src/payloadparser.c ****         temp_config.last_msg_acked = uint32LittleEndian.integer;
 638              		.loc 1 146 9 is_stmt 1 view .LVU184
 146:../../../core/platform/common/src/payloadparser.c ****         temp_config.last_msg_acked = uint32LittleEndian.integer;
 639              		.loc 1 146 44 is_stmt 0 view .LVU185
 640 0066 2A79     		ldrb	r2, [r5, #4]	@ zero_extendqisi2
 146:../../../core/platform/common/src/payloadparser.c ****         temp_config.last_msg_acked = uint32LittleEndian.integer;
 641              		.loc 1 146 36 view .LVU186
 642 0068 DA70     		strb	r2, [r3, #3]
 147:../../../core/platform/common/src/payloadparser.c ****         printINF("ACK for SEQ_NR: %d\r\n", temp_config.last_msg_acked);
 643              		.loc 1 147 9 is_stmt 1 view .LVU187
 147:../../../core/platform/common/src/payloadparser.c ****         printINF("ACK for SEQ_NR: %d\r\n", temp_config.last_msg_acked);
 644              		.loc 1 147 56 is_stmt 0 view .LVU188
 645 006a 1968     		ldr	r1, [r3]
 147:../../../core/platform/common/src/payloadparser.c ****         printINF("ACK for SEQ_NR: %d\r\n", temp_config.last_msg_acked);
 646              		.loc 1 147 36 view .LVU189
 647 006c 0391     		str	r1, [sp, #12]
 148:../../../core/platform/common/src/payloadparser.c ****         index += 5;
 648              		.loc 1 148 9 is_stmt 1 view .LVU190
 649 006e 2248     		ldr	r0, .L50+16
 650 0070 FFF7FEFF 		bl	printINF
 651              	.LVL44:
 149:../../../core/platform/common/src/payloadparser.c ****         break;
 652              		.loc 1 149 9 view .LVU191
 149:../../../core/platform/common/src/payloadparser.c ****         break;
 653              		.loc 1 149 15 is_stmt 0 view .LVU192
 654 0074 0534     		adds	r4, r4, #5
 655              	.LVL45:
 149:../../../core/platform/common/src/payloadparser.c ****         break;
 656              		.loc 1 149 15 view .LVU193
 657 0076 A4B2     		uxth	r4, r4
 658              	.LVL46:
 150:../../../core/platform/common/src/payloadparser.c ****       case TYPE_HEADER_END:
 659              		.loc 1 150 9 is_stmt 1 view .LVU194
 660 0078 D5E7     		b	.L32
 661              	.L48:
 662              	.LBB12:
ARM GAS  C:\Users\tijsv\AppData\Local\Temp\ccjudKGt.s 			page 19


 139:../../../core/platform/common/src/payloadparser.c ****           return PARSER_PARSE_ERROR;
 663              		.loc 1 139 11 view .LVU195
 664 007a 2048     		ldr	r0, .L50+20
 665 007c FFF7FEFF 		bl	printERR
 666              	.LVL47:
 140:../../../core/platform/common/src/payloadparser.c ****         }
 667              		.loc 1 140 11 view .LVU196
 140:../../../core/platform/common/src/payloadparser.c ****         }
 668              		.loc 1 140 18 is_stmt 0 view .LVU197
 669 0080 0220     		movs	r0, #2
 670 0082 DDE7     		b	.L33
 671              	.L35:
 672              	.LBE12:
 152:../../../core/platform/common/src/payloadparser.c ****         index ++;
 673              		.loc 1 152 9 is_stmt 1 view .LVU198
 674 0084 1E48     		ldr	r0, .L50+24
 675 0086 FFF7FEFF 		bl	printINF
 676              	.LVL48:
 153:../../../core/platform/common/src/payloadparser.c ****         break;
 677              		.loc 1 153 9 view .LVU199
 153:../../../core/platform/common/src/payloadparser.c ****         break;
 678              		.loc 1 153 15 is_stmt 0 view .LVU200
 679 008a 0134     		adds	r4, r4, #1
 680              	.LVL49:
 153:../../../core/platform/common/src/payloadparser.c ****         break;
 681              		.loc 1 153 15 view .LVU201
 682 008c A4B2     		uxth	r4, r4
 683              	.LVL50:
 154:../../../core/platform/common/src/payloadparser.c ****       case TYPE_PAYLOAD_TIMESTAMP:
 684              		.loc 1 154 9 is_stmt 1 view .LVU202
 685 008e CAE7     		b	.L32
 686              	.L47:
 156:../../../core/platform/common/src/payloadparser.c ****         {
 687              		.loc 1 156 9 view .LVU203
 156:../../../core/platform/common/src/payloadparser.c ****         {
 688              		.loc 1 156 16 is_stmt 0 view .LVU204
 689 0090 231D     		adds	r3, r4, #4
 156:../../../core/platform/common/src/payloadparser.c ****         {
 690              		.loc 1 156 11 view .LVU205
 691 0092 9945     		cmp	r9, r3
 692 0094 17DD     		ble	.L49
 162:../../../core/platform/common/src/payloadparser.c ****         uint32LittleEndian.byte[1] = buffer[index+2];
 693              		.loc 1 162 9 is_stmt 1 view .LVU206
 162:../../../core/platform/common/src/payloadparser.c ****         uint32LittleEndian.byte[1] = buffer[index+2];
 694              		.loc 1 162 44 is_stmt 0 view .LVU207
 695 0096 3D44     		add	r5, r5, r7
 696 0098 6A78     		ldrb	r2, [r5, #1]	@ zero_extendqisi2
 162:../../../core/platform/common/src/payloadparser.c ****         uint32LittleEndian.byte[1] = buffer[index+2];
 697              		.loc 1 162 36 view .LVU208
 698 009a 164B     		ldr	r3, .L50+12
 699 009c 1A70     		strb	r2, [r3]
 163:../../../core/platform/common/src/payloadparser.c ****         uint32LittleEndian.byte[2] = buffer[index+3];
 700              		.loc 1 163 9 is_stmt 1 view .LVU209
 163:../../../core/platform/common/src/payloadparser.c ****         uint32LittleEndian.byte[2] = buffer[index+3];
 701              		.loc 1 163 44 is_stmt 0 view .LVU210
 702 009e AA78     		ldrb	r2, [r5, #2]	@ zero_extendqisi2
 163:../../../core/platform/common/src/payloadparser.c ****         uint32LittleEndian.byte[2] = buffer[index+3];
ARM GAS  C:\Users\tijsv\AppData\Local\Temp\ccjudKGt.s 			page 20


 703              		.loc 1 163 36 view .LVU211
 704 00a0 5A70     		strb	r2, [r3, #1]
 164:../../../core/platform/common/src/payloadparser.c ****         uint32LittleEndian.byte[3] = buffer[index+4];
 705              		.loc 1 164 9 is_stmt 1 view .LVU212
 164:../../../core/platform/common/src/payloadparser.c ****         uint32LittleEndian.byte[3] = buffer[index+4];
 706              		.loc 1 164 44 is_stmt 0 view .LVU213
 707 00a2 EA78     		ldrb	r2, [r5, #3]	@ zero_extendqisi2
 164:../../../core/platform/common/src/payloadparser.c ****         uint32LittleEndian.byte[3] = buffer[index+4];
 708              		.loc 1 164 36 view .LVU214
 709 00a4 9A70     		strb	r2, [r3, #2]
 165:../../../core/platform/common/src/payloadparser.c ****         temp_config.last_known_timestamp = uint32LittleEndian.integer;
 710              		.loc 1 165 9 is_stmt 1 view .LVU215
 165:../../../core/platform/common/src/payloadparser.c ****         temp_config.last_known_timestamp = uint32LittleEndian.integer;
 711              		.loc 1 165 44 is_stmt 0 view .LVU216
 712 00a6 2A79     		ldrb	r2, [r5, #4]	@ zero_extendqisi2
 165:../../../core/platform/common/src/payloadparser.c ****         temp_config.last_known_timestamp = uint32LittleEndian.integer;
 713              		.loc 1 165 36 view .LVU217
 714 00a8 DA70     		strb	r2, [r3, #3]
 166:../../../core/platform/common/src/payloadparser.c ****         RTC_Set_Time_From_Unix(temp_config.last_known_timestamp);
 715              		.loc 1 166 9 is_stmt 1 view .LVU218
 166:../../../core/platform/common/src/payloadparser.c ****         RTC_Set_Time_From_Unix(temp_config.last_known_timestamp);
 716              		.loc 1 166 62 is_stmt 0 view .LVU219
 717 00aa 1D68     		ldr	r5, [r3]
 166:../../../core/platform/common/src/payloadparser.c ****         RTC_Set_Time_From_Unix(temp_config.last_known_timestamp);
 718              		.loc 1 166 42 view .LVU220
 719 00ac 0595     		str	r5, [sp, #20]
 167:../../../core/platform/common/src/payloadparser.c ****         printINF("UTC Timestamp received: %d\r\n", temp_config.last_known_timestamp);
 720              		.loc 1 167 9 is_stmt 1 view .LVU221
 721 00ae 2846     		mov	r0, r5
 722 00b0 FFF7FEFF 		bl	RTC_Set_Time_From_Unix
 723              	.LVL51:
 168:../../../core/platform/common/src/payloadparser.c ****         RTC_Print_DateTime();
 724              		.loc 1 168 9 view .LVU222
 725 00b4 2946     		mov	r1, r5
 726 00b6 1348     		ldr	r0, .L50+28
 727 00b8 FFF7FEFF 		bl	printINF
 728              	.LVL52:
 169:../../../core/platform/common/src/payloadparser.c ****         index += 5;
 729              		.loc 1 169 9 view .LVU223
 730 00bc FFF7FEFF 		bl	RTC_Print_DateTime
 731              	.LVL53:
 170:../../../core/platform/common/src/payloadparser.c ****         break;
 732              		.loc 1 170 9 view .LVU224
 170:../../../core/platform/common/src/payloadparser.c ****         break;
 733              		.loc 1 170 15 is_stmt 0 view .LVU225
 734 00c0 0534     		adds	r4, r4, #5
 735              	.LVL54:
 170:../../../core/platform/common/src/payloadparser.c ****         break;
 736              		.loc 1 170 15 view .LVU226
 737 00c2 A4B2     		uxth	r4, r4
 738              	.LVL55:
 171:../../../core/platform/common/src/payloadparser.c ****       default:
 739              		.loc 1 171 9 is_stmt 1 view .LVU227
 740 00c4 AFE7     		b	.L32
 741              	.L49:
 742              	.LBB13:
 158:../../../core/platform/common/src/payloadparser.c ****           return PARSER_PARSE_ERROR;
ARM GAS  C:\Users\tijsv\AppData\Local\Temp\ccjudKGt.s 			page 21


 743              		.loc 1 158 11 view .LVU228
 744 00c6 1048     		ldr	r0, .L50+32
 745 00c8 FFF7FEFF 		bl	printERR
 746              	.LVL56:
 159:../../../core/platform/common/src/payloadparser.c ****         }
 747              		.loc 1 159 11 view .LVU229
 159:../../../core/platform/common/src/payloadparser.c ****         }
 748              		.loc 1 159 18 is_stmt 0 view .LVU230
 749 00cc 0220     		movs	r0, #2
 750 00ce B7E7     		b	.L33
 751              	.L46:
 159:../../../core/platform/common/src/payloadparser.c ****         }
 752              		.loc 1 159 18 view .LVU231
 753              	.LBE13:
 754              	.LBE15:
 177:../../../core/platform/common/src/payloadparser.c ****   printINF("[payloadparser:parse_octa_protocol_downlink] parsing OK\r\n");
 755              		.loc 1 177 3 is_stmt 1 view .LVU232
 177:../../../core/platform/common/src/payloadparser.c ****   printINF("[payloadparser:parse_octa_protocol_downlink] parsing OK\r\n");
 756              		.loc 1 177 31 is_stmt 0 view .LVU233
 757 00d0 01AC     		add	r4, sp, #4
 758              	.LVL57:
 177:../../../core/platform/common/src/payloadparser.c ****   printINF("[payloadparser:parse_octa_protocol_downlink] parsing OK\r\n");
 759              		.loc 1 177 31 view .LVU234
 760 00d2 0FCC     		ldmia	r4!, {r0, r1, r2, r3}
 761 00d4 A8E80F00 		stmia	r8!, {r0, r1, r2, r3}
 762              	.LVL58:
 177:../../../core/platform/common/src/payloadparser.c ****   printINF("[payloadparser:parse_octa_protocol_downlink] parsing OK\r\n");
 763              		.loc 1 177 31 view .LVU235
 764 00d8 2368     		ldr	r3, [r4]
 765 00da C8F80030 		str	r3, [r8]
 178:../../../core/platform/common/src/payloadparser.c ****   return PARSER_OK;
 766              		.loc 1 178 3 is_stmt 1 view .LVU236
 767 00de 0B48     		ldr	r0, .L50+36
 768 00e0 FFF7FEFF 		bl	printINF
 769              	.LVL59:
 179:../../../core/platform/common/src/payloadparser.c **** }
 770              		.loc 1 179 3 view .LVU237
 179:../../../core/platform/common/src/payloadparser.c **** }
 771              		.loc 1 179 10 is_stmt 0 view .LVU238
 772 00e4 0020     		movs	r0, #0
 773 00e6 ABE7     		b	.L33
 774              	.L51:
 775              		.align	2
 776              	.L50:
 777 00e8 00000000 		.word	.LC14
 778 00ec C0010000 		.word	.LC13
 779 00f0 34000000 		.word	.LC1
 780 00f4 00000000 		.word	uint32LittleEndian
 781 00f8 68000000 		.word	.LC3
 782 00fc 48000000 		.word	.LC2
 783 0100 30000000 		.word	.LC15
 784 0104 78000000 		.word	.LC17
 785 0108 50000000 		.word	.LC16
 786 010c 98000000 		.word	.LC18
 787              		.cfi_endproc
 788              	.LFE1:
 790              		.section	.text.parse_timestamp,"ax",%progbits
ARM GAS  C:\Users\tijsv\AppData\Local\Temp\ccjudKGt.s 			page 22


 791              		.align	1
 792              		.global	parse_timestamp
 793              		.syntax unified
 794              		.thumb
 795              		.thumb_func
 796              		.fpu fpv4-sp-d16
 798              	parse_timestamp:
 799              	.LVL60:
 800              	.LFB2:
 181:../../../core/platform/common/src/payloadparser.c **** 
 182:../../../core/platform/common/src/payloadparser.c **** uint32_t parse_timestamp(uint8_t* buffer)
 183:../../../core/platform/common/src/payloadparser.c **** {
 801              		.loc 1 183 1 is_stmt 1 view -0
 802              		.cfi_startproc
 803              		@ args = 0, pretend = 0, frame = 0
 804              		@ frame_needed = 0, uses_anonymous_args = 0
 805              		@ link register save eliminated.
 184:../../../core/platform/common/src/payloadparser.c ****   uint32LittleEndian.byte[0] = buffer[0];
 806              		.loc 1 184 3 view .LVU240
 807              		.loc 1 184 38 is_stmt 0 view .LVU241
 808 0000 0278     		ldrb	r2, [r0]	@ zero_extendqisi2
 809              		.loc 1 184 30 view .LVU242
 810 0002 054B     		ldr	r3, .L53
 811 0004 1A70     		strb	r2, [r3]
 185:../../../core/platform/common/src/payloadparser.c ****   uint32LittleEndian.byte[1] = buffer[1];
 812              		.loc 1 185 3 is_stmt 1 view .LVU243
 813              		.loc 1 185 30 is_stmt 0 view .LVU244
 814 0006 4278     		ldrb	r2, [r0, #1]	@ zero_extendqisi2
 815 0008 5A70     		strb	r2, [r3, #1]
 186:../../../core/platform/common/src/payloadparser.c ****   uint32LittleEndian.byte[2] = buffer[2];
 816              		.loc 1 186 3 is_stmt 1 view .LVU245
 817              		.loc 1 186 30 is_stmt 0 view .LVU246
 818 000a 8278     		ldrb	r2, [r0, #2]	@ zero_extendqisi2
 819 000c 9A70     		strb	r2, [r3, #2]
 187:../../../core/platform/common/src/payloadparser.c ****   uint32LittleEndian.byte[3] = buffer[3];
 820              		.loc 1 187 3 is_stmt 1 view .LVU247
 821              		.loc 1 187 30 is_stmt 0 view .LVU248
 822 000e C278     		ldrb	r2, [r0, #3]	@ zero_extendqisi2
 823 0010 DA70     		strb	r2, [r3, #3]
 188:../../../core/platform/common/src/payloadparser.c ****   return uint32LittleEndian.integer;
 824              		.loc 1 188 3 is_stmt 1 view .LVU249
 189:../../../core/platform/common/src/payloadparser.c **** }...
 825              		.loc 1 189 1 is_stmt 0 view .LVU250
 826 0012 1868     		ldr	r0, [r3]
 827              	.LVL61:
 828              		.loc 1 189 1 view .LVU251
 829 0014 7047     		bx	lr
 830              	.L54:
 831 0016 00BF     		.align	2
 832              	.L53:
 833 0018 00000000 		.word	uint32LittleEndian
 834              		.cfi_endproc
 835              	.LFE2:
 837              		.comm	octa_uid,8,8
 838              		.comm	float_union,4,4
 839              		.comm	uint16LittleEndian,2,4
 840              		.comm	int16LittleEndian,2,4
ARM GAS  C:\Users\tijsv\AppData\Local\Temp\ccjudKGt.s 			page 23


 841              		.comm	uint32LittleEndian,4,4
 842              		.comm	int32LittleEndian,4,4
 843              		.text
 844              	.Letext0:
 845              		.file 2 "c:\\program files (x86)\\gnu tools arm embedded\\9 2019-q4-major\\arm-none-eabi\\include\
 846              		.file 3 "c:\\program files (x86)\\gnu tools arm embedded\\9 2019-q4-major\\arm-none-eabi\\include\
 847              		.file 4 "../../../core/platform/common/inc/datatypes.h"
ARM GAS  C:\Users\tijsv\AppData\Local\Temp\ccjudKGt.s 			page 24

