ARM GAS  C:\Users\tijsv\AppData\Local\Temp\ccbnstr6.s 			page 1


   1              		.cpu cortex-m4
   2              		.eabi_attribute 27, 1
   3              		.eabi_attribute 28, 1
   4              		.eabi_attribute 20, 1
   5              		.eabi_attribute 21, 1
   6              		.eabi_attribute 23, 3
   7              		.eabi_attribute 24, 1
   8              		.eabi_attribute 25, 1
   9              		.eabi_attribute 26, 1
  10              		.eabi_attribute 30, 1
  11              		.eabi_attribute 34, 1
  12              		.eabi_attribute 18, 4
  13              		.file	"stm32l4xx_it.c"
  14              		.text
  15              	.Ltext0:
  16              		.cfi_sections	.debug_frame
  17              		.section	.text.NMI_Handler,"ax",%progbits
  18              		.align	1
  19              		.global	NMI_Handler
  20              		.arch armv7e-m
  21              		.syntax unified
  22              		.thumb
  23              		.thumb_func
  24              		.fpu fpv4-sp-d16
  26              	NMI_Handler:
  27              	.LFB128:
  28              		.file 1 "../../../core/platform/octa/src/stm32l4xx_it.c"
   1:../../../core/platform/octa/src/stm32l4xx_it.c **** /* USER CODE BEGIN Header */
   2:../../../core/platform/octa/src/stm32l4xx_it.c **** /**
   3:../../../core/platform/octa/src/stm32l4xx_it.c ****   ******************************************************************************
   4:../../../core/platform/octa/src/stm32l4xx_it.c ****   * @file    stm32l4xx_it.c
   5:../../../core/platform/octa/src/stm32l4xx_it.c ****   * @brief   Interrupt Service Routines.
   6:../../../core/platform/octa/src/stm32l4xx_it.c ****   ******************************************************************************
   7:../../../core/platform/octa/src/stm32l4xx_it.c ****   *
   8:../../../core/platform/octa/src/stm32l4xx_it.c ****   * COPYRIGHT(c) 2019 STMicroelectronics
   9:../../../core/platform/octa/src/stm32l4xx_it.c ****   *
  10:../../../core/platform/octa/src/stm32l4xx_it.c ****   * Redistribution and use in source and binary forms, with or without modification,
  11:../../../core/platform/octa/src/stm32l4xx_it.c ****   * are permitted provided that the following conditions are met:
  12:../../../core/platform/octa/src/stm32l4xx_it.c ****   *   1. Redistributions of source code must retain the above copyright notice,
  13:../../../core/platform/octa/src/stm32l4xx_it.c ****   *      this list of conditions and the following disclaimer.
  14:../../../core/platform/octa/src/stm32l4xx_it.c ****   *   2. Redistributions in binary form must reproduce the above copyright notice,
  15:../../../core/platform/octa/src/stm32l4xx_it.c ****   *      this list of conditions and the following disclaimer in the documentation
  16:../../../core/platform/octa/src/stm32l4xx_it.c ****   *      and/or other materials provided with the distribution.
  17:../../../core/platform/octa/src/stm32l4xx_it.c ****   *   3. Neither the name of STMicroelectronics nor the names of its contributors
  18:../../../core/platform/octa/src/stm32l4xx_it.c ****   *      may be used to endorse or promote products derived from this software
  19:../../../core/platform/octa/src/stm32l4xx_it.c ****   *      without specific prior written permission.
  20:../../../core/platform/octa/src/stm32l4xx_it.c ****   *
  21:../../../core/platform/octa/src/stm32l4xx_it.c ****   * THIS SOFTWARE IS PROVIDED BY THE COPYRIGHT HOLDERS AND CONTRIBUTORS "AS IS"
  22:../../../core/platform/octa/src/stm32l4xx_it.c ****   * AND ANY EXPRESS OR IMPLIED WARRANTIES, INCLUDING, BUT NOT LIMITED TO, THE
  23:../../../core/platform/octa/src/stm32l4xx_it.c ****   * IMPLIED WARRANTIES OF MERCHANTABILITY AND FITNESS FOR A PARTICULAR PURPOSE ARE
  24:../../../core/platform/octa/src/stm32l4xx_it.c ****   * DISCLAIMED. IN NO EVENT SHALL THE COPYRIGHT HOLDER OR CONTRIBUTORS BE LIABLE
  25:../../../core/platform/octa/src/stm32l4xx_it.c ****   * FOR ANY DIRECT, INDIRECT, INCIDENTAL, SPECIAL, EXEMPLARY, OR CONSEQUENTIAL
  26:../../../core/platform/octa/src/stm32l4xx_it.c ****   * DAMAGES (INCLUDING, BUT NOT LIMITED TO, PROCUREMENT OF SUBSTITUTE GOODS OR
  27:../../../core/platform/octa/src/stm32l4xx_it.c ****   * SERVICES; LOSS OF USE, DATA, OR PROFITS; OR BUSINESS INTERRUPTION) HOWEVER
  28:../../../core/platform/octa/src/stm32l4xx_it.c ****   * CAUSED AND ON ANY THEORY OF LIABILITY, WHETHER IN CONTRACT, STRICT LIABILITY,
  29:../../../core/platform/octa/src/stm32l4xx_it.c ****   * OR TORT (INCLUDING NEGLIGENCE OR OTHERWISE) ARISING IN ANY WAY OUT OF THE USE
  30:../../../core/platform/octa/src/stm32l4xx_it.c ****   * OF THIS SOFTWARE, EVEN IF ADVISED OF THE POSSIBILITY OF SUCH DAMAGE.
ARM GAS  C:\Users\tijsv\AppData\Local\Temp\ccbnstr6.s 			page 2


  31:../../../core/platform/octa/src/stm32l4xx_it.c ****   *
  32:../../../core/platform/octa/src/stm32l4xx_it.c ****   ******************************************************************************
  33:../../../core/platform/octa/src/stm32l4xx_it.c ****   */
  34:../../../core/platform/octa/src/stm32l4xx_it.c **** /* USER CODE END Header */
  35:../../../core/platform/octa/src/stm32l4xx_it.c **** 
  36:../../../core/platform/octa/src/stm32l4xx_it.c **** /* Includes ------------------------------------------------------------------*/
  37:../../../core/platform/octa/src/stm32l4xx_it.c **** #include "stm32l4xx_it.h"
  38:../../../core/platform/octa/src/stm32l4xx_it.c **** #include "cmsis_os.h"
  39:../../../core/platform/octa/src/stm32l4xx_it.c **** #include "uart.h"
  40:../../../core/platform/octa/src/stm32l4xx_it.c **** #include "spi.h"
  41:../../../core/platform/octa/src/stm32l4xx_it.c **** #include "rtc.h"
  42:../../../core/platform/octa/src/stm32l4xx_it.c **** #include "gpio.h"
  43:../../../core/platform/octa/src/stm32l4xx_it.c **** #include "sysclock.h"
  44:../../../core/platform/octa/src/stm32l4xx_it.c **** /* Private includes ----------------------------------------------------------*/
  45:../../../core/platform/octa/src/stm32l4xx_it.c **** /* USER CODE BEGIN Includes */
  46:../../../core/platform/octa/src/stm32l4xx_it.c **** /* USER CODE END Includes */
  47:../../../core/platform/octa/src/stm32l4xx_it.c **** 
  48:../../../core/platform/octa/src/stm32l4xx_it.c **** /* Private typedef -----------------------------------------------------------*/
  49:../../../core/platform/octa/src/stm32l4xx_it.c **** /* USER CODE BEGIN TD */
  50:../../../core/platform/octa/src/stm32l4xx_it.c **** 
  51:../../../core/platform/octa/src/stm32l4xx_it.c **** /* USER CODE END TD */
  52:../../../core/platform/octa/src/stm32l4xx_it.c **** 
  53:../../../core/platform/octa/src/stm32l4xx_it.c **** /* Private define ------------------------------------------------------------*/
  54:../../../core/platform/octa/src/stm32l4xx_it.c **** /* USER CODE BEGIN PD */
  55:../../../core/platform/octa/src/stm32l4xx_it.c ****  
  56:../../../core/platform/octa/src/stm32l4xx_it.c **** /* USER CODE END PD */
  57:../../../core/platform/octa/src/stm32l4xx_it.c **** 
  58:../../../core/platform/octa/src/stm32l4xx_it.c **** /* Private macro -------------------------------------------------------------*/
  59:../../../core/platform/octa/src/stm32l4xx_it.c **** /* USER CODE BEGIN PM */
  60:../../../core/platform/octa/src/stm32l4xx_it.c **** 
  61:../../../core/platform/octa/src/stm32l4xx_it.c **** /* USER CODE END PM */
  62:../../../core/platform/octa/src/stm32l4xx_it.c **** 
  63:../../../core/platform/octa/src/stm32l4xx_it.c **** /* Private variables ---------------------------------------------------------*/
  64:../../../core/platform/octa/src/stm32l4xx_it.c **** /* USER CODE BEGIN PV */
  65:../../../core/platform/octa/src/stm32l4xx_it.c **** 
  66:../../../core/platform/octa/src/stm32l4xx_it.c **** /* USER CODE END PV */
  67:../../../core/platform/octa/src/stm32l4xx_it.c **** 
  68:../../../core/platform/octa/src/stm32l4xx_it.c **** /* Private function prototypes -----------------------------------------------*/
  69:../../../core/platform/octa/src/stm32l4xx_it.c **** /* USER CODE BEGIN PFP */
  70:../../../core/platform/octa/src/stm32l4xx_it.c **** 
  71:../../../core/platform/octa/src/stm32l4xx_it.c **** /* USER CODE END PFP */
  72:../../../core/platform/octa/src/stm32l4xx_it.c **** 
  73:../../../core/platform/octa/src/stm32l4xx_it.c **** /* Private user code ---------------------------------------------------------*/
  74:../../../core/platform/octa/src/stm32l4xx_it.c **** /* USER CODE BEGIN 0 */
  75:../../../core/platform/octa/src/stm32l4xx_it.c **** 
  76:../../../core/platform/octa/src/stm32l4xx_it.c **** /* USER CODE END 0 */
  77:../../../core/platform/octa/src/stm32l4xx_it.c **** 
  78:../../../core/platform/octa/src/stm32l4xx_it.c **** /* External variables --------------------------------------------------------*/
  79:../../../core/platform/octa/src/stm32l4xx_it.c **** /* USER CODE BEGIN EV */
  80:../../../core/platform/octa/src/stm32l4xx_it.c **** 
  81:../../../core/platform/octa/src/stm32l4xx_it.c **** /* USER CODE END EV */
  82:../../../core/platform/octa/src/stm32l4xx_it.c **** 
  83:../../../core/platform/octa/src/stm32l4xx_it.c **** /******************************************************************************/
  84:../../../core/platform/octa/src/stm32l4xx_it.c **** /*           Cortex-M4 Processor Interruption and Exception Handlers          */ 
  85:../../../core/platform/octa/src/stm32l4xx_it.c **** /******************************************************************************/
  86:../../../core/platform/octa/src/stm32l4xx_it.c **** /**
  87:../../../core/platform/octa/src/stm32l4xx_it.c ****   * @brief This function handles Non maskable interrupt.
ARM GAS  C:\Users\tijsv\AppData\Local\Temp\ccbnstr6.s 			page 3


  88:../../../core/platform/octa/src/stm32l4xx_it.c ****   */
  89:../../../core/platform/octa/src/stm32l4xx_it.c **** void NMI_Handler(void)
  90:../../../core/platform/octa/src/stm32l4xx_it.c **** {
  29              		.loc 1 90 1 view -0
  30              		.cfi_startproc
  31              		@ args = 0, pretend = 0, frame = 0
  32              		@ frame_needed = 0, uses_anonymous_args = 0
  33              		@ link register save eliminated.
  91:../../../core/platform/octa/src/stm32l4xx_it.c ****   /* USER CODE BEGIN NonMaskableInt_IRQn 0 */
  92:../../../core/platform/octa/src/stm32l4xx_it.c **** 
  93:../../../core/platform/octa/src/stm32l4xx_it.c ****   /* USER CODE END NonMaskableInt_IRQn 0 */
  94:../../../core/platform/octa/src/stm32l4xx_it.c ****   /* USER CODE BEGIN NonMaskableInt_IRQn 1 */
  95:../../../core/platform/octa/src/stm32l4xx_it.c **** 
  96:../../../core/platform/octa/src/stm32l4xx_it.c ****   /* USER CODE END NonMaskableInt_IRQn 1 */
  97:../../../core/platform/octa/src/stm32l4xx_it.c **** }
  34              		.loc 1 97 1 view .LVU1
  35 0000 7047     		bx	lr
  36              		.cfi_endproc
  37              	.LFE128:
  39              		.section	.text.HardFault_Handler,"ax",%progbits
  40              		.align	1
  41              		.global	HardFault_Handler
  42              		.syntax unified
  43              		.thumb
  44              		.thumb_func
  45              		.fpu fpv4-sp-d16
  47              	HardFault_Handler:
  48              	.LFB129:
  98:../../../core/platform/octa/src/stm32l4xx_it.c **** 
  99:../../../core/platform/octa/src/stm32l4xx_it.c **** /**
 100:../../../core/platform/octa/src/stm32l4xx_it.c ****   * @brief This function handles Hard fault interrupt.
 101:../../../core/platform/octa/src/stm32l4xx_it.c ****   */
 102:../../../core/platform/octa/src/stm32l4xx_it.c **** void HardFault_Handler(void)
 103:../../../core/platform/octa/src/stm32l4xx_it.c **** {
  49              		.loc 1 103 1 view -0
  50              		.cfi_startproc
  51              		@ Volatile: function does not return.
  52              		@ args = 0, pretend = 0, frame = 0
  53              		@ frame_needed = 0, uses_anonymous_args = 0
  54              		@ link register save eliminated.
  55              	.L3:
 104:../../../core/platform/octa/src/stm32l4xx_it.c ****   /* USER CODE BEGIN HardFault_IRQn 0 */
 105:../../../core/platform/octa/src/stm32l4xx_it.c **** 
 106:../../../core/platform/octa/src/stm32l4xx_it.c ****   /* USER CODE END HardFault_IRQn 0 */
 107:../../../core/platform/octa/src/stm32l4xx_it.c ****   while (1)
  56              		.loc 1 107 3 discriminator 1 view .LVU3
 108:../../../core/platform/octa/src/stm32l4xx_it.c ****   {
 109:../../../core/platform/octa/src/stm32l4xx_it.c ****     /* USER CODE BEGIN W1_HardFault_IRQn 0 */
 110:../../../core/platform/octa/src/stm32l4xx_it.c ****     /* USER CODE END W1_HardFault_IRQn 0 */
 111:../../../core/platform/octa/src/stm32l4xx_it.c ****   }
  57              		.loc 1 111 3 discriminator 1 view .LVU4
 107:../../../core/platform/octa/src/stm32l4xx_it.c ****   {
  58              		.loc 1 107 9 discriminator 1 view .LVU5
  59 0000 FEE7     		b	.L3
  60              		.cfi_endproc
  61              	.LFE129:
  63              		.section	.text.MemManage_Handler,"ax",%progbits
ARM GAS  C:\Users\tijsv\AppData\Local\Temp\ccbnstr6.s 			page 4


  64              		.align	1
  65              		.global	MemManage_Handler
  66              		.syntax unified
  67              		.thumb
  68              		.thumb_func
  69              		.fpu fpv4-sp-d16
  71              	MemManage_Handler:
  72              	.LFB130:
 112:../../../core/platform/octa/src/stm32l4xx_it.c **** }
 113:../../../core/platform/octa/src/stm32l4xx_it.c **** 
 114:../../../core/platform/octa/src/stm32l4xx_it.c **** /**
 115:../../../core/platform/octa/src/stm32l4xx_it.c ****   * @brief This function handles Memory management fault.
 116:../../../core/platform/octa/src/stm32l4xx_it.c ****   */
 117:../../../core/platform/octa/src/stm32l4xx_it.c **** void MemManage_Handler(void)
 118:../../../core/platform/octa/src/stm32l4xx_it.c **** {
  73              		.loc 1 118 1 view -0
  74              		.cfi_startproc
  75              		@ Volatile: function does not return.
  76              		@ args = 0, pretend = 0, frame = 0
  77              		@ frame_needed = 0, uses_anonymous_args = 0
  78              		@ link register save eliminated.
  79              	.L5:
 119:../../../core/platform/octa/src/stm32l4xx_it.c ****   /* USER CODE BEGIN MemoryManagement_IRQn 0 */
 120:../../../core/platform/octa/src/stm32l4xx_it.c **** 
 121:../../../core/platform/octa/src/stm32l4xx_it.c ****   /* USER CODE END MemoryManagement_IRQn 0 */
 122:../../../core/platform/octa/src/stm32l4xx_it.c ****   while (1)
  80              		.loc 1 122 3 discriminator 1 view .LVU7
 123:../../../core/platform/octa/src/stm32l4xx_it.c ****   {
 124:../../../core/platform/octa/src/stm32l4xx_it.c ****     /* USER CODE BEGIN W1_MemoryManagement_IRQn 0 */
 125:../../../core/platform/octa/src/stm32l4xx_it.c ****     /* USER CODE END W1_MemoryManagement_IRQn 0 */
 126:../../../core/platform/octa/src/stm32l4xx_it.c ****   }
  81              		.loc 1 126 3 discriminator 1 view .LVU8
 122:../../../core/platform/octa/src/stm32l4xx_it.c ****   {
  82              		.loc 1 122 9 discriminator 1 view .LVU9
  83 0000 FEE7     		b	.L5
  84              		.cfi_endproc
  85              	.LFE130:
  87              		.section	.text.BusFault_Handler,"ax",%progbits
  88              		.align	1
  89              		.global	BusFault_Handler
  90              		.syntax unified
  91              		.thumb
  92              		.thumb_func
  93              		.fpu fpv4-sp-d16
  95              	BusFault_Handler:
  96              	.LFB131:
 127:../../../core/platform/octa/src/stm32l4xx_it.c **** }
 128:../../../core/platform/octa/src/stm32l4xx_it.c **** 
 129:../../../core/platform/octa/src/stm32l4xx_it.c **** /**
 130:../../../core/platform/octa/src/stm32l4xx_it.c ****   * @brief This function handles Prefetch fault, memory access fault.
 131:../../../core/platform/octa/src/stm32l4xx_it.c ****   */
 132:../../../core/platform/octa/src/stm32l4xx_it.c **** void BusFault_Handler(void)
 133:../../../core/platform/octa/src/stm32l4xx_it.c **** {
  97              		.loc 1 133 1 view -0
  98              		.cfi_startproc
  99              		@ Volatile: function does not return.
 100              		@ args = 0, pretend = 0, frame = 0
ARM GAS  C:\Users\tijsv\AppData\Local\Temp\ccbnstr6.s 			page 5


 101              		@ frame_needed = 0, uses_anonymous_args = 0
 102              		@ link register save eliminated.
 103              	.L7:
 134:../../../core/platform/octa/src/stm32l4xx_it.c ****   /* USER CODE BEGIN BusFault_IRQn 0 */
 135:../../../core/platform/octa/src/stm32l4xx_it.c **** 
 136:../../../core/platform/octa/src/stm32l4xx_it.c ****   /* USER CODE END BusFault_IRQn 0 */
 137:../../../core/platform/octa/src/stm32l4xx_it.c ****   while (1)
 104              		.loc 1 137 3 discriminator 1 view .LVU11
 138:../../../core/platform/octa/src/stm32l4xx_it.c ****   {
 139:../../../core/platform/octa/src/stm32l4xx_it.c ****     /* USER CODE BEGIN W1_BusFault_IRQn 0 */
 140:../../../core/platform/octa/src/stm32l4xx_it.c ****     /* USER CODE END W1_BusFault_IRQn 0 */
 141:../../../core/platform/octa/src/stm32l4xx_it.c ****   }
 105              		.loc 1 141 3 discriminator 1 view .LVU12
 137:../../../core/platform/octa/src/stm32l4xx_it.c ****   {
 106              		.loc 1 137 9 discriminator 1 view .LVU13
 107 0000 FEE7     		b	.L7
 108              		.cfi_endproc
 109              	.LFE131:
 111              		.section	.text.UsageFault_Handler,"ax",%progbits
 112              		.align	1
 113              		.global	UsageFault_Handler
 114              		.syntax unified
 115              		.thumb
 116              		.thumb_func
 117              		.fpu fpv4-sp-d16
 119              	UsageFault_Handler:
 120              	.LFB132:
 142:../../../core/platform/octa/src/stm32l4xx_it.c **** }
 143:../../../core/platform/octa/src/stm32l4xx_it.c **** 
 144:../../../core/platform/octa/src/stm32l4xx_it.c **** /**
 145:../../../core/platform/octa/src/stm32l4xx_it.c ****   * @brief This function handles Undefined instruction or illegal state.
 146:../../../core/platform/octa/src/stm32l4xx_it.c ****   */
 147:../../../core/platform/octa/src/stm32l4xx_it.c **** void UsageFault_Handler(void)
 148:../../../core/platform/octa/src/stm32l4xx_it.c **** {
 121              		.loc 1 148 1 view -0
 122              		.cfi_startproc
 123              		@ Volatile: function does not return.
 124              		@ args = 0, pretend = 0, frame = 0
 125              		@ frame_needed = 0, uses_anonymous_args = 0
 126              		@ link register save eliminated.
 127              	.L9:
 149:../../../core/platform/octa/src/stm32l4xx_it.c ****   /* USER CODE BEGIN UsageFault_IRQn 0 */
 150:../../../core/platform/octa/src/stm32l4xx_it.c **** 
 151:../../../core/platform/octa/src/stm32l4xx_it.c ****   /* USER CODE END UsageFault_IRQn 0 */
 152:../../../core/platform/octa/src/stm32l4xx_it.c ****   while (1)
 128              		.loc 1 152 3 discriminator 1 view .LVU15
 153:../../../core/platform/octa/src/stm32l4xx_it.c ****   {
 154:../../../core/platform/octa/src/stm32l4xx_it.c ****     /* USER CODE BEGIN W1_UsageFault_IRQn 0 */
 155:../../../core/platform/octa/src/stm32l4xx_it.c ****     /* USER CODE END W1_UsageFault_IRQn 0 */
 156:../../../core/platform/octa/src/stm32l4xx_it.c ****   }
 129              		.loc 1 156 3 discriminator 1 view .LVU16
 152:../../../core/platform/octa/src/stm32l4xx_it.c ****   {
 130              		.loc 1 152 9 discriminator 1 view .LVU17
 131 0000 FEE7     		b	.L9
 132              		.cfi_endproc
 133              	.LFE132:
 135              		.section	.text.DebugMon_Handler,"ax",%progbits
ARM GAS  C:\Users\tijsv\AppData\Local\Temp\ccbnstr6.s 			page 6


 136              		.align	1
 137              		.global	DebugMon_Handler
 138              		.syntax unified
 139              		.thumb
 140              		.thumb_func
 141              		.fpu fpv4-sp-d16
 143              	DebugMon_Handler:
 144              	.LFB133:
 157:../../../core/platform/octa/src/stm32l4xx_it.c **** }
 158:../../../core/platform/octa/src/stm32l4xx_it.c **** 
 159:../../../core/platform/octa/src/stm32l4xx_it.c **** /**
 160:../../../core/platform/octa/src/stm32l4xx_it.c ****   * @brief This function handles Debug monitor.
 161:../../../core/platform/octa/src/stm32l4xx_it.c ****   */
 162:../../../core/platform/octa/src/stm32l4xx_it.c **** void DebugMon_Handler(void)
 163:../../../core/platform/octa/src/stm32l4xx_it.c **** {
 145              		.loc 1 163 1 view -0
 146              		.cfi_startproc
 147              		@ args = 0, pretend = 0, frame = 0
 148              		@ frame_needed = 0, uses_anonymous_args = 0
 149              		@ link register save eliminated.
 164:../../../core/platform/octa/src/stm32l4xx_it.c ****   /* USER CODE BEGIN DebugMonitor_IRQn 0 */
 165:../../../core/platform/octa/src/stm32l4xx_it.c **** 
 166:../../../core/platform/octa/src/stm32l4xx_it.c ****   /* USER CODE END DebugMonitor_IRQn 0 */
 167:../../../core/platform/octa/src/stm32l4xx_it.c ****   /* USER CODE BEGIN DebugMonitor_IRQn 1 */
 168:../../../core/platform/octa/src/stm32l4xx_it.c **** 
 169:../../../core/platform/octa/src/stm32l4xx_it.c ****   /* USER CODE END DebugMonitor_IRQn 1 */
 170:../../../core/platform/octa/src/stm32l4xx_it.c **** }
 150              		.loc 1 170 1 view .LVU19
 151 0000 7047     		bx	lr
 152              		.cfi_endproc
 153              	.LFE133:
 155              		.section	.text.TIM1_UP_TIM16_IRQHandler,"ax",%progbits
 156              		.align	1
 157              		.global	TIM1_UP_TIM16_IRQHandler
 158              		.syntax unified
 159              		.thumb
 160              		.thumb_func
 161              		.fpu fpv4-sp-d16
 163              	TIM1_UP_TIM16_IRQHandler:
 164              	.LFB134:
 171:../../../core/platform/octa/src/stm32l4xx_it.c **** 
 172:../../../core/platform/octa/src/stm32l4xx_it.c **** /******************************************************************************/
 173:../../../core/platform/octa/src/stm32l4xx_it.c **** /* STM32L4xx Peripheral Interrupt Handlers                                    */
 174:../../../core/platform/octa/src/stm32l4xx_it.c **** /* Add here the Interrupt Handlers for the used peripherals.                  */
 175:../../../core/platform/octa/src/stm32l4xx_it.c **** /* For the available peripheral interrupt handler names,                      */
 176:../../../core/platform/octa/src/stm32l4xx_it.c **** /* please refer to the startup file (startup_stm32l4xx.s).                    */
 177:../../../core/platform/octa/src/stm32l4xx_it.c **** /******************************************************************************/
 178:../../../core/platform/octa/src/stm32l4xx_it.c **** 
 179:../../../core/platform/octa/src/stm32l4xx_it.c **** /**
 180:../../../core/platform/octa/src/stm32l4xx_it.c ****   * @brief This function handles TIM1 update interrupt and TIM16 global interrupt.
 181:../../../core/platform/octa/src/stm32l4xx_it.c ****   */
 182:../../../core/platform/octa/src/stm32l4xx_it.c **** void TIM1_UP_TIM16_IRQHandler(void)
 183:../../../core/platform/octa/src/stm32l4xx_it.c **** {
 165              		.loc 1 183 1 view -0
 166              		.cfi_startproc
 167              		@ args = 0, pretend = 0, frame = 0
 168              		@ frame_needed = 0, uses_anonymous_args = 0
ARM GAS  C:\Users\tijsv\AppData\Local\Temp\ccbnstr6.s 			page 7


 169 0000 08B5     		push	{r3, lr}
 170              	.LCFI0:
 171              		.cfi_def_cfa_offset 8
 172              		.cfi_offset 3, -8
 173              		.cfi_offset 14, -4
 184:../../../core/platform/octa/src/stm32l4xx_it.c ****   /* USER CODE BEGIN TIM1_UP_TIM16_IRQn 0 */
 185:../../../core/platform/octa/src/stm32l4xx_it.c **** 
 186:../../../core/platform/octa/src/stm32l4xx_it.c ****   /* USER CODE END TIM1_UP_TIM16_IRQn 0 */
 187:../../../core/platform/octa/src/stm32l4xx_it.c ****   HAL_TIM_IRQHandler(&htim1);
 174              		.loc 1 187 3 view .LVU21
 175 0002 0248     		ldr	r0, .L13
 176 0004 FFF7FEFF 		bl	HAL_TIM_IRQHandler
 177              	.LVL0:
 188:../../../core/platform/octa/src/stm32l4xx_it.c ****   /* USER CODE BEGIN TIM1_UP_TIM16_IRQn 1 */
 189:../../../core/platform/octa/src/stm32l4xx_it.c **** 
 190:../../../core/platform/octa/src/stm32l4xx_it.c ****   /* USER CODE END TIM1_UP_TIM16_IRQn 1 */
 191:../../../core/platform/octa/src/stm32l4xx_it.c **** }
 178              		.loc 1 191 1 is_stmt 0 view .LVU22
 179 0008 08BD     		pop	{r3, pc}
 180              	.L14:
 181 000a 00BF     		.align	2
 182              	.L13:
 183 000c 00000000 		.word	htim1
 184              		.cfi_endproc
 185              	.LFE134:
 187              		.section	.text.TIM6_DAC_IRQHandler,"ax",%progbits
 188              		.align	1
 189              		.global	TIM6_DAC_IRQHandler
 190              		.syntax unified
 191              		.thumb
 192              		.thumb_func
 193              		.fpu fpv4-sp-d16
 195              	TIM6_DAC_IRQHandler:
 196              	.LFB135:
 192:../../../core/platform/octa/src/stm32l4xx_it.c **** 
 193:../../../core/platform/octa/src/stm32l4xx_it.c **** void TIM6_DAC_IRQHandler(void)
 194:../../../core/platform/octa/src/stm32l4xx_it.c **** {
 197              		.loc 1 194 1 is_stmt 1 view -0
 198              		.cfi_startproc
 199              		@ args = 0, pretend = 0, frame = 0
 200              		@ frame_needed = 0, uses_anonymous_args = 0
 201 0000 08B5     		push	{r3, lr}
 202              	.LCFI1:
 203              		.cfi_def_cfa_offset 8
 204              		.cfi_offset 3, -8
 205              		.cfi_offset 14, -4
 195:../../../core/platform/octa/src/stm32l4xx_it.c ****   HAL_TIM_IRQHandler(&htim6);
 206              		.loc 1 195 3 view .LVU24
 207 0002 0248     		ldr	r0, .L17
 208 0004 FFF7FEFF 		bl	HAL_TIM_IRQHandler
 209              	.LVL1:
 196:../../../core/platform/octa/src/stm32l4xx_it.c **** }
 210              		.loc 1 196 1 is_stmt 0 view .LVU25
 211 0008 08BD     		pop	{r3, pc}
 212              	.L18:
 213 000a 00BF     		.align	2
 214              	.L17:
ARM GAS  C:\Users\tijsv\AppData\Local\Temp\ccbnstr6.s 			page 8


 215 000c 00000000 		.word	htim6
 216              		.cfi_endproc
 217              	.LFE135:
 219              		.section	.text.USART2_IRQHandler,"ax",%progbits
 220              		.align	1
 221              		.global	USART2_IRQHandler
 222              		.syntax unified
 223              		.thumb
 224              		.thumb_func
 225              		.fpu fpv4-sp-d16
 227              	USART2_IRQHandler:
 228              	.LFB136:
 197:../../../core/platform/octa/src/stm32l4xx_it.c **** 
 198:../../../core/platform/octa/src/stm32l4xx_it.c **** 
 199:../../../core/platform/octa/src/stm32l4xx_it.c **** /* USER CODE BEGIN 1 */
 200:../../../core/platform/octa/src/stm32l4xx_it.c **** /**
 201:../../../core/platform/octa/src/stm32l4xx_it.c **** * @brief This function handles USART2 global interrupt.
 202:../../../core/platform/octa/src/stm32l4xx_it.c **** */
 203:../../../core/platform/octa/src/stm32l4xx_it.c **** void USART2_IRQHandler(void)
 204:../../../core/platform/octa/src/stm32l4xx_it.c **** {
 229              		.loc 1 204 1 is_stmt 1 view -0
 230              		.cfi_startproc
 231              		@ args = 0, pretend = 0, frame = 0
 232              		@ frame_needed = 0, uses_anonymous_args = 0
 233 0000 08B5     		push	{r3, lr}
 234              	.LCFI2:
 235              		.cfi_def_cfa_offset 8
 236              		.cfi_offset 3, -8
 237              		.cfi_offset 14, -4
 205:../../../core/platform/octa/src/stm32l4xx_it.c ****   /* USER CODE BEGIN USART2_IRQn 0 */
 206:../../../core/platform/octa/src/stm32l4xx_it.c **** 
 207:../../../core/platform/octa/src/stm32l4xx_it.c ****   /* USER CODE END USART2_IRQn 0 */
 208:../../../core/platform/octa/src/stm32l4xx_it.c ****   #if USE_BOOTLOADER
 209:../../../core/platform/octa/src/stm32l4xx_it.c ****     HAL_UART_IRQHandler(&BLE_UART);
 210:../../../core/platform/octa/src/stm32l4xx_it.c ****   #else
 211:../../../core/platform/octa/src/stm32l4xx_it.c ****     HAL_UART_IRQHandler(&P2_UART);
 238              		.loc 1 211 5 view .LVU27
 239 0002 0248     		ldr	r0, .L21
 240 0004 FFF7FEFF 		bl	HAL_UART_IRQHandler
 241              	.LVL2:
 212:../../../core/platform/octa/src/stm32l4xx_it.c ****   #endif
 213:../../../core/platform/octa/src/stm32l4xx_it.c ****   /* USER CODE BEGIN USART2_IRQn 1 */
 214:../../../core/platform/octa/src/stm32l4xx_it.c **** 
 215:../../../core/platform/octa/src/stm32l4xx_it.c ****   /* USER CODE END USART2_IRQn 1 */
 216:../../../core/platform/octa/src/stm32l4xx_it.c **** }
 242              		.loc 1 216 1 is_stmt 0 view .LVU28
 243 0008 08BD     		pop	{r3, pc}
 244              	.L22:
 245 000a 00BF     		.align	2
 246              	.L21:
 247 000c 00000000 		.word	P2_UART
 248              		.cfi_endproc
 249              	.LFE136:
 251              		.section	.text.USART3_IRQHandler,"ax",%progbits
 252              		.align	1
 253              		.global	USART3_IRQHandler
 254              		.syntax unified
ARM GAS  C:\Users\tijsv\AppData\Local\Temp\ccbnstr6.s 			page 9


 255              		.thumb
 256              		.thumb_func
 257              		.fpu fpv4-sp-d16
 259              	USART3_IRQHandler:
 260              	.LFB137:
 217:../../../core/platform/octa/src/stm32l4xx_it.c **** 
 218:../../../core/platform/octa/src/stm32l4xx_it.c **** /**
 219:../../../core/platform/octa/src/stm32l4xx_it.c **** * @brief This function handles USART3 global interrupt.
 220:../../../core/platform/octa/src/stm32l4xx_it.c **** */
 221:../../../core/platform/octa/src/stm32l4xx_it.c **** void USART3_IRQHandler(void)
 222:../../../core/platform/octa/src/stm32l4xx_it.c **** {
 261              		.loc 1 222 1 is_stmt 1 view -0
 262              		.cfi_startproc
 263              		@ args = 0, pretend = 0, frame = 0
 264              		@ frame_needed = 0, uses_anonymous_args = 0
 265 0000 08B5     		push	{r3, lr}
 266              	.LCFI3:
 267              		.cfi_def_cfa_offset 8
 268              		.cfi_offset 3, -8
 269              		.cfi_offset 14, -4
 223:../../../core/platform/octa/src/stm32l4xx_it.c ****   /* USER CODE BEGIN USART2_IRQn 0 */
 224:../../../core/platform/octa/src/stm32l4xx_it.c **** 
 225:../../../core/platform/octa/src/stm32l4xx_it.c ****   /* USER CODE END USART2_IRQn 0 */
 226:../../../core/platform/octa/src/stm32l4xx_it.c ****   HAL_UART_IRQHandler(&P3_UART);
 270              		.loc 1 226 3 view .LVU30
 271 0002 0248     		ldr	r0, .L25
 272 0004 FFF7FEFF 		bl	HAL_UART_IRQHandler
 273              	.LVL3:
 227:../../../core/platform/octa/src/stm32l4xx_it.c ****   /* USER CODE BEGIN USART2_IRQn 1 */
 228:../../../core/platform/octa/src/stm32l4xx_it.c **** 
 229:../../../core/platform/octa/src/stm32l4xx_it.c ****   /* USER CODE END USART2_IRQn 1 */
 230:../../../core/platform/octa/src/stm32l4xx_it.c **** }
 274              		.loc 1 230 1 is_stmt 0 view .LVU31
 275 0008 08BD     		pop	{r3, pc}
 276              	.L26:
 277 000a 00BF     		.align	2
 278              	.L25:
 279 000c 00000000 		.word	P3_UART
 280              		.cfi_endproc
 281              	.LFE137:
 283              		.section	.text.UART5_IRQHandler,"ax",%progbits
 284              		.align	1
 285              		.global	UART5_IRQHandler
 286              		.syntax unified
 287              		.thumb
 288              		.thumb_func
 289              		.fpu fpv4-sp-d16
 291              	UART5_IRQHandler:
 292              	.LFB138:
 231:../../../core/platform/octa/src/stm32l4xx_it.c **** 
 232:../../../core/platform/octa/src/stm32l4xx_it.c **** /**
 233:../../../core/platform/octa/src/stm32l4xx_it.c **** * @brief This function handles UART5 global interrupt.
 234:../../../core/platform/octa/src/stm32l4xx_it.c **** */
 235:../../../core/platform/octa/src/stm32l4xx_it.c **** void UART5_IRQHandler(void)
 236:../../../core/platform/octa/src/stm32l4xx_it.c **** {
 293              		.loc 1 236 1 is_stmt 1 view -0
 294              		.cfi_startproc
ARM GAS  C:\Users\tijsv\AppData\Local\Temp\ccbnstr6.s 			page 10


 295              		@ args = 0, pretend = 0, frame = 0
 296              		@ frame_needed = 0, uses_anonymous_args = 0
 297 0000 08B5     		push	{r3, lr}
 298              	.LCFI4:
 299              		.cfi_def_cfa_offset 8
 300              		.cfi_offset 3, -8
 301              		.cfi_offset 14, -4
 237:../../../core/platform/octa/src/stm32l4xx_it.c ****   /* USER CODE BEGIN UART5 0 */
 238:../../../core/platform/octa/src/stm32l4xx_it.c **** 
 239:../../../core/platform/octa/src/stm32l4xx_it.c ****   /* USER CODE END UART5 0 */
 240:../../../core/platform/octa/src/stm32l4xx_it.c ****   HAL_UART_IRQHandler(&P1_UART);
 302              		.loc 1 240 3 view .LVU33
 303 0002 0248     		ldr	r0, .L29
 304 0004 FFF7FEFF 		bl	HAL_UART_IRQHandler
 305              	.LVL4:
 241:../../../core/platform/octa/src/stm32l4xx_it.c ****   /* USER CODE BEGIN UART5 1 */
 242:../../../core/platform/octa/src/stm32l4xx_it.c **** 
 243:../../../core/platform/octa/src/stm32l4xx_it.c ****   /* USER CODE END UART5 1 */
 244:../../../core/platform/octa/src/stm32l4xx_it.c **** }
 306              		.loc 1 244 1 is_stmt 0 view .LVU34
 307 0008 08BD     		pop	{r3, pc}
 308              	.L30:
 309 000a 00BF     		.align	2
 310              	.L29:
 311 000c 00000000 		.word	P1_UART
 312              		.cfi_endproc
 313              	.LFE138:
 315              		.section	.text.SPI1_IRQHandler,"ax",%progbits
 316              		.align	1
 317              		.global	SPI1_IRQHandler
 318              		.syntax unified
 319              		.thumb
 320              		.thumb_func
 321              		.fpu fpv4-sp-d16
 323              	SPI1_IRQHandler:
 324              	.LFB139:
 245:../../../core/platform/octa/src/stm32l4xx_it.c **** 
 246:../../../core/platform/octa/src/stm32l4xx_it.c **** /**
 247:../../../core/platform/octa/src/stm32l4xx_it.c ****   * @brief This function handles SPI1 global interrupt.
 248:../../../core/platform/octa/src/stm32l4xx_it.c ****   */
 249:../../../core/platform/octa/src/stm32l4xx_it.c **** void SPI1_IRQHandler(void)
 250:../../../core/platform/octa/src/stm32l4xx_it.c **** {
 325              		.loc 1 250 1 is_stmt 1 view -0
 326              		.cfi_startproc
 327              		@ args = 0, pretend = 0, frame = 0
 328              		@ frame_needed = 0, uses_anonymous_args = 0
 329 0000 08B5     		push	{r3, lr}
 330              	.LCFI5:
 331              		.cfi_def_cfa_offset 8
 332              		.cfi_offset 3, -8
 333              		.cfi_offset 14, -4
 251:../../../core/platform/octa/src/stm32l4xx_it.c ****   /* USER CODE BEGIN SPI1_IRQn 0 */
 252:../../../core/platform/octa/src/stm32l4xx_it.c **** 
 253:../../../core/platform/octa/src/stm32l4xx_it.c ****   /* USER CODE END SPI1_IRQn 0 */
 254:../../../core/platform/octa/src/stm32l4xx_it.c ****   HAL_SPI_IRQHandler(&P3_SPI);
 334              		.loc 1 254 3 view .LVU36
 335 0002 0248     		ldr	r0, .L33
ARM GAS  C:\Users\tijsv\AppData\Local\Temp\ccbnstr6.s 			page 11


 336 0004 FFF7FEFF 		bl	HAL_SPI_IRQHandler
 337              	.LVL5:
 255:../../../core/platform/octa/src/stm32l4xx_it.c ****   /* USER CODE BEGIN SPI1_IRQn 1 */
 256:../../../core/platform/octa/src/stm32l4xx_it.c **** 
 257:../../../core/platform/octa/src/stm32l4xx_it.c ****   /* USER CODE END SPI1_IRQn 1 */
 258:../../../core/platform/octa/src/stm32l4xx_it.c **** }
 338              		.loc 1 258 1 is_stmt 0 view .LVU37
 339 0008 08BD     		pop	{r3, pc}
 340              	.L34:
 341 000a 00BF     		.align	2
 342              	.L33:
 343 000c 00000000 		.word	P3_SPI
 344              		.cfi_endproc
 345              	.LFE139:
 347              		.section	.text.SPI2_IRQHandler,"ax",%progbits
 348              		.align	1
 349              		.global	SPI2_IRQHandler
 350              		.syntax unified
 351              		.thumb
 352              		.thumb_func
 353              		.fpu fpv4-sp-d16
 355              	SPI2_IRQHandler:
 356              	.LFB140:
 259:../../../core/platform/octa/src/stm32l4xx_it.c **** 
 260:../../../core/platform/octa/src/stm32l4xx_it.c **** /**
 261:../../../core/platform/octa/src/stm32l4xx_it.c ****   * @brief This function handles SPI2 global interrupt.
 262:../../../core/platform/octa/src/stm32l4xx_it.c ****   */
 263:../../../core/platform/octa/src/stm32l4xx_it.c **** void SPI2_IRQHandler(void)
 264:../../../core/platform/octa/src/stm32l4xx_it.c **** {
 357              		.loc 1 264 1 is_stmt 1 view -0
 358              		.cfi_startproc
 359              		@ args = 0, pretend = 0, frame = 0
 360              		@ frame_needed = 0, uses_anonymous_args = 0
 361 0000 08B5     		push	{r3, lr}
 362              	.LCFI6:
 363              		.cfi_def_cfa_offset 8
 364              		.cfi_offset 3, -8
 365              		.cfi_offset 14, -4
 265:../../../core/platform/octa/src/stm32l4xx_it.c ****   /* USER CODE BEGIN SPI2_IRQn 0 */
 266:../../../core/platform/octa/src/stm32l4xx_it.c **** 
 267:../../../core/platform/octa/src/stm32l4xx_it.c ****   /* USER CODE END SPI2_IRQn 0 */
 268:../../../core/platform/octa/src/stm32l4xx_it.c ****   HAL_SPI_IRQHandler(&P2_SPI);
 366              		.loc 1 268 3 view .LVU39
 367 0002 0248     		ldr	r0, .L37
 368 0004 FFF7FEFF 		bl	HAL_SPI_IRQHandler
 369              	.LVL6:
 269:../../../core/platform/octa/src/stm32l4xx_it.c ****   /* USER CODE BEGIN SPI2_IRQn 1 */
 270:../../../core/platform/octa/src/stm32l4xx_it.c **** 
 271:../../../core/platform/octa/src/stm32l4xx_it.c ****   /* USER CODE END SPI2_IRQn 1 */
 272:../../../core/platform/octa/src/stm32l4xx_it.c **** }
 370              		.loc 1 272 1 is_stmt 0 view .LVU40
 371 0008 08BD     		pop	{r3, pc}
 372              	.L38:
 373 000a 00BF     		.align	2
 374              	.L37:
 375 000c 00000000 		.word	P2_SPI
 376              		.cfi_endproc
ARM GAS  C:\Users\tijsv\AppData\Local\Temp\ccbnstr6.s 			page 12


 377              	.LFE140:
 379              		.section	.text.SPI3_IRQHandler,"ax",%progbits
 380              		.align	1
 381              		.global	SPI3_IRQHandler
 382              		.syntax unified
 383              		.thumb
 384              		.thumb_func
 385              		.fpu fpv4-sp-d16
 387              	SPI3_IRQHandler:
 388              	.LFB141:
 273:../../../core/platform/octa/src/stm32l4xx_it.c **** 
 274:../../../core/platform/octa/src/stm32l4xx_it.c **** /**
 275:../../../core/platform/octa/src/stm32l4xx_it.c ****   * @brief This function handles SPI3 global interrupt.
 276:../../../core/platform/octa/src/stm32l4xx_it.c ****   */
 277:../../../core/platform/octa/src/stm32l4xx_it.c **** void SPI3_IRQHandler(void)
 278:../../../core/platform/octa/src/stm32l4xx_it.c **** {
 389              		.loc 1 278 1 is_stmt 1 view -0
 390              		.cfi_startproc
 391              		@ args = 0, pretend = 0, frame = 0
 392              		@ frame_needed = 0, uses_anonymous_args = 0
 393 0000 08B5     		push	{r3, lr}
 394              	.LCFI7:
 395              		.cfi_def_cfa_offset 8
 396              		.cfi_offset 3, -8
 397              		.cfi_offset 14, -4
 279:../../../core/platform/octa/src/stm32l4xx_it.c ****   /* USER CODE BEGIN SPI3_IRQn 0 */
 280:../../../core/platform/octa/src/stm32l4xx_it.c **** 
 281:../../../core/platform/octa/src/stm32l4xx_it.c ****   /* USER CODE END SPI3_IRQn 0 */
 282:../../../core/platform/octa/src/stm32l4xx_it.c ****   HAL_SPI_IRQHandler(&P1_SPI);
 398              		.loc 1 282 3 view .LVU42
 399 0002 0248     		ldr	r0, .L41
 400 0004 FFF7FEFF 		bl	HAL_SPI_IRQHandler
 401              	.LVL7:
 283:../../../core/platform/octa/src/stm32l4xx_it.c ****   /* USER CODE BEGIN SPI3_IRQn 1 */
 284:../../../core/platform/octa/src/stm32l4xx_it.c **** 
 285:../../../core/platform/octa/src/stm32l4xx_it.c ****   /* USER CODE END SPI3_IRQn 1 */
 286:../../../core/platform/octa/src/stm32l4xx_it.c **** }
 402              		.loc 1 286 1 is_stmt 0 view .LVU43
 403 0008 08BD     		pop	{r3, pc}
 404              	.L42:
 405 000a 00BF     		.align	2
 406              	.L41:
 407 000c 00000000 		.word	P1_SPI
 408              		.cfi_endproc
 409              	.LFE141:
 411              		.section	.text.EXTI0_IRQHandler,"ax",%progbits
 412              		.align	1
 413              		.global	EXTI0_IRQHandler
 414              		.syntax unified
 415              		.thumb
 416              		.thumb_func
 417              		.fpu fpv4-sp-d16
 419              	EXTI0_IRQHandler:
 420              	.LFB142:
 287:../../../core/platform/octa/src/stm32l4xx_it.c **** 
 288:../../../core/platform/octa/src/stm32l4xx_it.c **** void EXTI0_IRQHandler(void) 
 289:../../../core/platform/octa/src/stm32l4xx_it.c **** {
ARM GAS  C:\Users\tijsv\AppData\Local\Temp\ccbnstr6.s 			page 13


 421              		.loc 1 289 1 is_stmt 1 view -0
 422              		.cfi_startproc
 423              		@ args = 0, pretend = 0, frame = 0
 424              		@ frame_needed = 0, uses_anonymous_args = 0
 425 0000 08B5     		push	{r3, lr}
 426              	.LCFI8:
 427              		.cfi_def_cfa_offset 8
 428              		.cfi_offset 3, -8
 429              		.cfi_offset 14, -4
 290:../../../core/platform/octa/src/stm32l4xx_it.c ****     HAL_GPIO_EXTI_IRQHandler(OCTA_BTN1_Pin);
 430              		.loc 1 290 5 view .LVU45
 431 0002 0120     		movs	r0, #1
 432 0004 FFF7FEFF 		bl	HAL_GPIO_EXTI_IRQHandler
 433              	.LVL8:
 291:../../../core/platform/octa/src/stm32l4xx_it.c **** }
 434              		.loc 1 291 1 is_stmt 0 view .LVU46
 435 0008 08BD     		pop	{r3, pc}
 436              		.cfi_endproc
 437              	.LFE142:
 439              		.section	.text.EXTI1_IRQHandler,"ax",%progbits
 440              		.align	1
 441              		.global	EXTI1_IRQHandler
 442              		.syntax unified
 443              		.thumb
 444              		.thumb_func
 445              		.fpu fpv4-sp-d16
 447              	EXTI1_IRQHandler:
 448              	.LFB143:
 292:../../../core/platform/octa/src/stm32l4xx_it.c **** 
 293:../../../core/platform/octa/src/stm32l4xx_it.c **** void EXTI1_IRQHandler(void) 
 294:../../../core/platform/octa/src/stm32l4xx_it.c **** {
 449              		.loc 1 294 1 is_stmt 1 view -0
 450              		.cfi_startproc
 451              		@ args = 0, pretend = 0, frame = 0
 452              		@ frame_needed = 0, uses_anonymous_args = 0
 453 0000 08B5     		push	{r3, lr}
 454              	.LCFI9:
 455              		.cfi_def_cfa_offset 8
 456              		.cfi_offset 3, -8
 457              		.cfi_offset 14, -4
 295:../../../core/platform/octa/src/stm32l4xx_it.c ****     HAL_GPIO_EXTI_IRQHandler(OCTA_BTN2_Pin);
 458              		.loc 1 295 5 view .LVU48
 459 0002 0220     		movs	r0, #2
 460 0004 FFF7FEFF 		bl	HAL_GPIO_EXTI_IRQHandler
 461              	.LVL9:
 296:../../../core/platform/octa/src/stm32l4xx_it.c **** }
 462              		.loc 1 296 1 is_stmt 0 view .LVU49
 463 0008 08BD     		pop	{r3, pc}
 464              		.cfi_endproc
 465              	.LFE143:
 467              		.section	.text.EXTI15_10_IRQHandler,"ax",%progbits
 468              		.align	1
 469              		.global	EXTI15_10_IRQHandler
 470              		.syntax unified
 471              		.thumb
 472              		.thumb_func
 473              		.fpu fpv4-sp-d16
ARM GAS  C:\Users\tijsv\AppData\Local\Temp\ccbnstr6.s 			page 14


 475              	EXTI15_10_IRQHandler:
 476              	.LFB144:
 297:../../../core/platform/octa/src/stm32l4xx_it.c **** 
 298:../../../core/platform/octa/src/stm32l4xx_it.c **** void EXTI15_10_IRQHandler(void) 
 299:../../../core/platform/octa/src/stm32l4xx_it.c **** {
 477              		.loc 1 299 1 is_stmt 1 view -0
 478              		.cfi_startproc
 479              		@ args = 0, pretend = 0, frame = 0
 480              		@ frame_needed = 0, uses_anonymous_args = 0
 481 0000 08B5     		push	{r3, lr}
 482              	.LCFI10:
 483              		.cfi_def_cfa_offset 8
 484              		.cfi_offset 3, -8
 485              		.cfi_offset 14, -4
 300:../../../core/platform/octa/src/stm32l4xx_it.c ****     HAL_GPIO_EXTI_IRQHandler(B1_Pin);
 486              		.loc 1 300 5 view .LVU51
 487 0002 4FF40050 		mov	r0, #8192
 488 0006 FFF7FEFF 		bl	HAL_GPIO_EXTI_IRQHandler
 489              	.LVL10:
 301:../../../core/platform/octa/src/stm32l4xx_it.c **** }
 490              		.loc 1 301 1 is_stmt 0 view .LVU52
 491 000a 08BD     		pop	{r3, pc}
 492              		.cfi_endproc
 493              	.LFE144:
 495              		.section	.text.RTC_WKUP_IRQHandler,"ax",%progbits
 496              		.align	1
 497              		.global	RTC_WKUP_IRQHandler
 498              		.syntax unified
 499              		.thumb
 500              		.thumb_func
 501              		.fpu fpv4-sp-d16
 503              	RTC_WKUP_IRQHandler:
 504              	.LFB145:
 302:../../../core/platform/octa/src/stm32l4xx_it.c **** 
 303:../../../core/platform/octa/src/stm32l4xx_it.c **** /**
 304:../../../core/platform/octa/src/stm32l4xx_it.c ****   * @brief  This function handles RTC Auto wake-up interrupt request.
 305:../../../core/platform/octa/src/stm32l4xx_it.c ****   * @param  None
 306:../../../core/platform/octa/src/stm32l4xx_it.c ****   * @retval None
 307:../../../core/platform/octa/src/stm32l4xx_it.c ****   */
 308:../../../core/platform/octa/src/stm32l4xx_it.c **** 
 309:../../../core/platform/octa/src/stm32l4xx_it.c ****  
 310:../../../core/platform/octa/src/stm32l4xx_it.c **** void RTC_WKUP_IRQHandler(void)
 311:../../../core/platform/octa/src/stm32l4xx_it.c **** {
 505              		.loc 1 311 1 is_stmt 1 view -0
 506              		.cfi_startproc
 507              		@ args = 0, pretend = 0, frame = 0
 508              		@ frame_needed = 0, uses_anonymous_args = 0
 509 0000 08B5     		push	{r3, lr}
 510              	.LCFI11:
 511              		.cfi_def_cfa_offset 8
 512              		.cfi_offset 3, -8
 513              		.cfi_offset 14, -4
 312:../../../core/platform/octa/src/stm32l4xx_it.c ****   HAL_RTCEx_WakeUpTimerIRQHandler(&hrtc);
 514              		.loc 1 312 3 view .LVU54
 515 0002 0248     		ldr	r0, .L51
 516 0004 FFF7FEFF 		bl	HAL_RTCEx_WakeUpTimerIRQHandler
 517              	.LVL11:
ARM GAS  C:\Users\tijsv\AppData\Local\Temp\ccbnstr6.s 			page 15


 313:../../../core/platform/octa/src/stm32l4xx_it.c **** }
 518              		.loc 1 313 1 is_stmt 0 view .LVU55
 519 0008 08BD     		pop	{r3, pc}
 520              	.L52:
 521 000a 00BF     		.align	2
 522              	.L51:
 523 000c 00000000 		.word	hrtc
 524              		.cfi_endproc
 525              	.LFE145:
 527              		.comm	htim6,64,4
 528              		.comm	htim1,64,4
 529              		.comm	P3_DIO6,8,4
 530              		.comm	P3_DIO5,8,4
 531              		.comm	P3_DIO4,8,4
 532              		.comm	P3_DIO3,8,4
 533              		.comm	P3_DIO2,8,4
 534              		.comm	P3_DIO1,8,4
 535              		.comm	P2_DIO6,8,4
 536              		.comm	P2_DIO5,8,4
 537              		.comm	P2_DIO4,8,4
 538              		.comm	P2_DIO3,8,4
 539              		.comm	P2_DIO2,8,4
 540              		.comm	P2_DIO1,8,4
 541              		.comm	P1_DIO6,8,4
 542              		.comm	P1_DIO5,8,4
 543              		.comm	P1_DIO4,8,4
 544              		.comm	P1_DIO3,8,4
 545              		.comm	P1_DIO2,8,4
 546              		.comm	P1_DIO1,8,4
 547              		.comm	hrtc,36,4
 548              		.comm	FLASH_SPI,100,4
 549              		.comm	P3_SPI,100,4
 550              		.comm	P2_SPI,100,4
 551              		.comm	P1_SPI,100,4
 552              		.comm	P3_UART,120,4
 553              		.comm	P2_UART,120,4
 554              		.comm	P1_UART,120,4
 555              		.comm	FTDI_UART,120,4
 556              		.comm	BLE_UART,120,4
 557              		.comm	USB_UART,120,4
 558              		.text
 559              	.Letext0:
 560              		.file 2 "c:\\program files (x86)\\gnu tools arm embedded\\9 2019-q4-major\\arm-none-eabi\\include\
 561              		.file 3 "c:\\program files (x86)\\gnu tools arm embedded\\9 2019-q4-major\\arm-none-eabi\\include\
 562              		.file 4 "../../../core/platform/octa/inc/FreeRTOSConfig.h"
 563              		.file 5 "../../../core/ST/CMSIS/Include/core_cm4.h"
 564              		.file 6 "../../../core/ST/CMSIS/Device/ST/STM32L4xx/Include/system_stm32l4xx.h"
 565              		.file 7 "../../../core/ST/CMSIS/Device/ST/STM32L4xx/Include/stm32l496xx.h"
 566              		.file 8 "../../../core/ST/STM32L4xx_HAL_Driver/Inc/stm32l4xx_hal_def.h"
 567              		.file 9 "../../../core/ST/STM32L4xx_HAL_Driver/Inc/stm32l4xx_hal_dma.h"
 568              		.file 10 "../../../core/ST/STM32L4xx_HAL_Driver/Inc/stm32l4xx_hal_rtc.h"
 569              		.file 11 "../../../core/ST/STM32L4xx_HAL_Driver/Inc/stm32l4xx_hal_spi.h"
 570              		.file 12 "../../../core/ST/STM32L4xx_HAL_Driver/Inc/stm32l4xx_hal_tim.h"
 571              		.file 13 "../../../core/ST/STM32L4xx_HAL_Driver/Inc/stm32l4xx_hal_uart.h"
 572              		.file 14 "../../../core/ST/STM32L4xx_HAL_Driver/Inc/stm32l4xx_hal.h"
 573              		.file 15 "../../../core/platform/octa/inc/uart.h"
 574              		.file 16 "../../../core/platform/octa/inc/spi.h"
ARM GAS  C:\Users\tijsv\AppData\Local\Temp\ccbnstr6.s 			page 16


 575              		.file 17 "../../../core/platform/octa/inc/rtc.h"
 576              		.file 18 "../../../core/platform/octa/inc/gpio.h"
 577              		.file 19 "../../../core/platform/octa/inc/sysclock.h"
 578              		.file 20 "../../../core/ST/STM32L4xx_HAL_Driver/Inc/stm32l4xx_hal_rtc_ex.h"
 579              		.file 21 "../../../core/ST/STM32L4xx_HAL_Driver/Inc/stm32l4xx_hal_gpio.h"
ARM GAS  C:\Users\tijsv\AppData\Local\Temp\ccbnstr6.s 			page 17

