ARM GAS  C:\Users\tijsv\AppData\Local\Temp\cc0UGmBk.s 			page 1


   1              		.cpu cortex-m4
   2              		.eabi_attribute 27, 1
   3              		.eabi_attribute 28, 1
   4              		.eabi_attribute 20, 1
   5              		.eabi_attribute 21, 1
   6              		.eabi_attribute 23, 3
   7              		.eabi_attribute 24, 1
   8              		.eabi_attribute 25, 1
   9              		.eabi_attribute 26, 1
  10              		.eabi_attribute 30, 1
  11              		.eabi_attribute 34, 1
  12              		.eabi_attribute 18, 4
  13              		.file	"stm32l4xx_hal_dma.c"
  14              		.text
  15              	.Ltext0:
  16              		.cfi_sections	.debug_frame
  17              		.section	.text.DMA_SetConfig,"ax",%progbits
  18              		.align	1
  19              		.arch armv7e-m
  20              		.syntax unified
  21              		.thumb
  22              		.thumb_func
  23              		.fpu fpv4-sp-d16
  25              	DMA_SetConfig:
  26              	.LVL0:
  27              	.LFB135:
  28              		.file 1 "../../../core/ST/STM32L4xx_HAL_Driver/Src/stm32l4xx_hal_dma.c"
   1:../../../core/ST/STM32L4xx_HAL_Driver/Src/stm32l4xx_hal_dma.c **** /**
   2:../../../core/ST/STM32L4xx_HAL_Driver/Src/stm32l4xx_hal_dma.c ****   ******************************************************************************
   3:../../../core/ST/STM32L4xx_HAL_Driver/Src/stm32l4xx_hal_dma.c ****   * @file    stm32l4xx_hal_dma.c
   4:../../../core/ST/STM32L4xx_HAL_Driver/Src/stm32l4xx_hal_dma.c ****   * @author  MCD Application Team
   5:../../../core/ST/STM32L4xx_HAL_Driver/Src/stm32l4xx_hal_dma.c ****   * @brief   DMA HAL module driver.
   6:../../../core/ST/STM32L4xx_HAL_Driver/Src/stm32l4xx_hal_dma.c ****   *         This file provides firmware functions to manage the following
   7:../../../core/ST/STM32L4xx_HAL_Driver/Src/stm32l4xx_hal_dma.c ****   *         functionalities of the Direct Memory Access (DMA) peripheral:
   8:../../../core/ST/STM32L4xx_HAL_Driver/Src/stm32l4xx_hal_dma.c ****   *           + Initialization and de-initialization functions
   9:../../../core/ST/STM32L4xx_HAL_Driver/Src/stm32l4xx_hal_dma.c ****   *           + IO operation functions
  10:../../../core/ST/STM32L4xx_HAL_Driver/Src/stm32l4xx_hal_dma.c ****   *           + Peripheral State and errors functions
  11:../../../core/ST/STM32L4xx_HAL_Driver/Src/stm32l4xx_hal_dma.c ****   @verbatim
  12:../../../core/ST/STM32L4xx_HAL_Driver/Src/stm32l4xx_hal_dma.c ****   ==============================================================================
  13:../../../core/ST/STM32L4xx_HAL_Driver/Src/stm32l4xx_hal_dma.c ****                         ##### How to use this driver #####
  14:../../../core/ST/STM32L4xx_HAL_Driver/Src/stm32l4xx_hal_dma.c ****   ==============================================================================
  15:../../../core/ST/STM32L4xx_HAL_Driver/Src/stm32l4xx_hal_dma.c ****   [..]
  16:../../../core/ST/STM32L4xx_HAL_Driver/Src/stm32l4xx_hal_dma.c ****    (#) Enable and configure the peripheral to be connected to the DMA Channel
  17:../../../core/ST/STM32L4xx_HAL_Driver/Src/stm32l4xx_hal_dma.c ****        (except for internal SRAM / FLASH memories: no initialization is
  18:../../../core/ST/STM32L4xx_HAL_Driver/Src/stm32l4xx_hal_dma.c ****        necessary). Please refer to the Reference manual for connection between peripherals
  19:../../../core/ST/STM32L4xx_HAL_Driver/Src/stm32l4xx_hal_dma.c ****        and DMA requests.
  20:../../../core/ST/STM32L4xx_HAL_Driver/Src/stm32l4xx_hal_dma.c **** 
  21:../../../core/ST/STM32L4xx_HAL_Driver/Src/stm32l4xx_hal_dma.c ****    (#) For a given Channel, program the required configuration through the following parameters:
  22:../../../core/ST/STM32L4xx_HAL_Driver/Src/stm32l4xx_hal_dma.c ****        Channel request, Transfer Direction, Source and Destination data formats,
  23:../../../core/ST/STM32L4xx_HAL_Driver/Src/stm32l4xx_hal_dma.c ****        Circular or Normal mode, Channel Priority level, Source and Destination Increment mode
  24:../../../core/ST/STM32L4xx_HAL_Driver/Src/stm32l4xx_hal_dma.c ****        using HAL_DMA_Init() function.
  25:../../../core/ST/STM32L4xx_HAL_Driver/Src/stm32l4xx_hal_dma.c **** 
  26:../../../core/ST/STM32L4xx_HAL_Driver/Src/stm32l4xx_hal_dma.c ****        Prior to HAL_DMA_Init the peripheral clock shall be enabled for both DMA & DMAMUX
  27:../../../core/ST/STM32L4xx_HAL_Driver/Src/stm32l4xx_hal_dma.c ****        thanks to:
  28:../../../core/ST/STM32L4xx_HAL_Driver/Src/stm32l4xx_hal_dma.c ****       (##) DMA1 or DMA2: __HAL_RCC_DMA1_CLK_ENABLE() or  __HAL_RCC_DMA2_CLK_ENABLE() ;
  29:../../../core/ST/STM32L4xx_HAL_Driver/Src/stm32l4xx_hal_dma.c ****       (##) DMAMUX1:      __HAL_RCC_DMAMUX1_CLK_ENABLE();
  30:../../../core/ST/STM32L4xx_HAL_Driver/Src/stm32l4xx_hal_dma.c **** 
ARM GAS  C:\Users\tijsv\AppData\Local\Temp\cc0UGmBk.s 			page 2


  31:../../../core/ST/STM32L4xx_HAL_Driver/Src/stm32l4xx_hal_dma.c ****    (#) Use HAL_DMA_GetState() function to return the DMA state and HAL_DMA_GetError() in case of er
  32:../../../core/ST/STM32L4xx_HAL_Driver/Src/stm32l4xx_hal_dma.c ****        detection.
  33:../../../core/ST/STM32L4xx_HAL_Driver/Src/stm32l4xx_hal_dma.c **** 
  34:../../../core/ST/STM32L4xx_HAL_Driver/Src/stm32l4xx_hal_dma.c ****    (#) Use HAL_DMA_Abort() function to abort the current transfer
  35:../../../core/ST/STM32L4xx_HAL_Driver/Src/stm32l4xx_hal_dma.c **** 
  36:../../../core/ST/STM32L4xx_HAL_Driver/Src/stm32l4xx_hal_dma.c ****      -@-   In Memory-to-Memory transfer mode, Circular mode is not allowed.
  37:../../../core/ST/STM32L4xx_HAL_Driver/Src/stm32l4xx_hal_dma.c **** 
  38:../../../core/ST/STM32L4xx_HAL_Driver/Src/stm32l4xx_hal_dma.c ****      *** Polling mode IO operation ***
  39:../../../core/ST/STM32L4xx_HAL_Driver/Src/stm32l4xx_hal_dma.c ****      =================================
  40:../../../core/ST/STM32L4xx_HAL_Driver/Src/stm32l4xx_hal_dma.c ****     [..]
  41:../../../core/ST/STM32L4xx_HAL_Driver/Src/stm32l4xx_hal_dma.c ****           (+) Use HAL_DMA_Start() to start DMA transfer after the configuration of Source
  42:../../../core/ST/STM32L4xx_HAL_Driver/Src/stm32l4xx_hal_dma.c ****               address and destination address and the Length of data to be transferred
  43:../../../core/ST/STM32L4xx_HAL_Driver/Src/stm32l4xx_hal_dma.c ****           (+) Use HAL_DMA_PollForTransfer() to poll for the end of current transfer, in this
  44:../../../core/ST/STM32L4xx_HAL_Driver/Src/stm32l4xx_hal_dma.c ****               case a fixed Timeout can be configured by User depending from his application.
  45:../../../core/ST/STM32L4xx_HAL_Driver/Src/stm32l4xx_hal_dma.c **** 
  46:../../../core/ST/STM32L4xx_HAL_Driver/Src/stm32l4xx_hal_dma.c ****      *** Interrupt mode IO operation ***
  47:../../../core/ST/STM32L4xx_HAL_Driver/Src/stm32l4xx_hal_dma.c ****      ===================================
  48:../../../core/ST/STM32L4xx_HAL_Driver/Src/stm32l4xx_hal_dma.c ****     [..]
  49:../../../core/ST/STM32L4xx_HAL_Driver/Src/stm32l4xx_hal_dma.c ****           (+) Configure the DMA interrupt priority using HAL_NVIC_SetPriority()
  50:../../../core/ST/STM32L4xx_HAL_Driver/Src/stm32l4xx_hal_dma.c ****           (+) Enable the DMA IRQ handler using HAL_NVIC_EnableIRQ()
  51:../../../core/ST/STM32L4xx_HAL_Driver/Src/stm32l4xx_hal_dma.c ****           (+) Use HAL_DMA_Start_IT() to start DMA transfer after the configuration of
  52:../../../core/ST/STM32L4xx_HAL_Driver/Src/stm32l4xx_hal_dma.c ****               Source address and destination address and the Length of data to be transferred.
  53:../../../core/ST/STM32L4xx_HAL_Driver/Src/stm32l4xx_hal_dma.c ****               In this case the DMA interrupt is configured
  54:../../../core/ST/STM32L4xx_HAL_Driver/Src/stm32l4xx_hal_dma.c ****           (+) Use HAL_DMA_IRQHandler() called under DMA_IRQHandler() Interrupt subroutine
  55:../../../core/ST/STM32L4xx_HAL_Driver/Src/stm32l4xx_hal_dma.c ****           (+) At the end of data transfer HAL_DMA_IRQHandler() function is executed and user can
  56:../../../core/ST/STM32L4xx_HAL_Driver/Src/stm32l4xx_hal_dma.c ****               add his own function to register callbacks with HAL_DMA_RegisterCallback().
  57:../../../core/ST/STM32L4xx_HAL_Driver/Src/stm32l4xx_hal_dma.c **** 
  58:../../../core/ST/STM32L4xx_HAL_Driver/Src/stm32l4xx_hal_dma.c ****      *** DMA HAL driver macros list ***
  59:../../../core/ST/STM32L4xx_HAL_Driver/Src/stm32l4xx_hal_dma.c ****      =============================================
  60:../../../core/ST/STM32L4xx_HAL_Driver/Src/stm32l4xx_hal_dma.c ****       [..]
  61:../../../core/ST/STM32L4xx_HAL_Driver/Src/stm32l4xx_hal_dma.c ****        Below the list of macros in DMA HAL driver.
  62:../../../core/ST/STM32L4xx_HAL_Driver/Src/stm32l4xx_hal_dma.c **** 
  63:../../../core/ST/STM32L4xx_HAL_Driver/Src/stm32l4xx_hal_dma.c ****        (+) __HAL_DMA_ENABLE: Enable the specified DMA Channel.
  64:../../../core/ST/STM32L4xx_HAL_Driver/Src/stm32l4xx_hal_dma.c ****        (+) __HAL_DMA_DISABLE: Disable the specified DMA Channel.
  65:../../../core/ST/STM32L4xx_HAL_Driver/Src/stm32l4xx_hal_dma.c ****        (+) __HAL_DMA_GET_FLAG: Get the DMA Channel pending flags.
  66:../../../core/ST/STM32L4xx_HAL_Driver/Src/stm32l4xx_hal_dma.c ****        (+) __HAL_DMA_CLEAR_FLAG: Clear the DMA Channel pending flags.
  67:../../../core/ST/STM32L4xx_HAL_Driver/Src/stm32l4xx_hal_dma.c ****        (+) __HAL_DMA_ENABLE_IT: Enable the specified DMA Channel interrupts.
  68:../../../core/ST/STM32L4xx_HAL_Driver/Src/stm32l4xx_hal_dma.c ****        (+) __HAL_DMA_DISABLE_IT: Disable the specified DMA Channel interrupts.
  69:../../../core/ST/STM32L4xx_HAL_Driver/Src/stm32l4xx_hal_dma.c ****        (+) __HAL_DMA_GET_IT_SOURCE: Check whether the specified DMA Channel interrupt has occurred 
  70:../../../core/ST/STM32L4xx_HAL_Driver/Src/stm32l4xx_hal_dma.c **** 
  71:../../../core/ST/STM32L4xx_HAL_Driver/Src/stm32l4xx_hal_dma.c ****      [..]
  72:../../../core/ST/STM32L4xx_HAL_Driver/Src/stm32l4xx_hal_dma.c ****       (@) You can refer to the DMA HAL driver header file for more useful macros
  73:../../../core/ST/STM32L4xx_HAL_Driver/Src/stm32l4xx_hal_dma.c **** 
  74:../../../core/ST/STM32L4xx_HAL_Driver/Src/stm32l4xx_hal_dma.c ****   @endverbatim
  75:../../../core/ST/STM32L4xx_HAL_Driver/Src/stm32l4xx_hal_dma.c ****   ******************************************************************************
  76:../../../core/ST/STM32L4xx_HAL_Driver/Src/stm32l4xx_hal_dma.c ****   * @attention
  77:../../../core/ST/STM32L4xx_HAL_Driver/Src/stm32l4xx_hal_dma.c ****   *
  78:../../../core/ST/STM32L4xx_HAL_Driver/Src/stm32l4xx_hal_dma.c ****   * <h2><center>&copy; COPYRIGHT(c) 2017 STMicroelectronics</center></h2>
  79:../../../core/ST/STM32L4xx_HAL_Driver/Src/stm32l4xx_hal_dma.c ****   *
  80:../../../core/ST/STM32L4xx_HAL_Driver/Src/stm32l4xx_hal_dma.c ****   * Redistribution and use in source and binary forms, with or without modification,
  81:../../../core/ST/STM32L4xx_HAL_Driver/Src/stm32l4xx_hal_dma.c ****   * are permitted provided that the following conditions are met:
  82:../../../core/ST/STM32L4xx_HAL_Driver/Src/stm32l4xx_hal_dma.c ****   *   1. Redistributions of source code must retain the above copyright notice,
  83:../../../core/ST/STM32L4xx_HAL_Driver/Src/stm32l4xx_hal_dma.c ****   *      this list of conditions and the following disclaimer.
  84:../../../core/ST/STM32L4xx_HAL_Driver/Src/stm32l4xx_hal_dma.c ****   *   2. Redistributions in binary form must reproduce the above copyright notice,
  85:../../../core/ST/STM32L4xx_HAL_Driver/Src/stm32l4xx_hal_dma.c ****   *      this list of conditions and the following disclaimer in the documentation
  86:../../../core/ST/STM32L4xx_HAL_Driver/Src/stm32l4xx_hal_dma.c ****   *      and/or other materials provided with the distribution.
  87:../../../core/ST/STM32L4xx_HAL_Driver/Src/stm32l4xx_hal_dma.c ****   *   3. Neither the name of STMicroelectronics nor the names of its contributors
ARM GAS  C:\Users\tijsv\AppData\Local\Temp\cc0UGmBk.s 			page 3


  88:../../../core/ST/STM32L4xx_HAL_Driver/Src/stm32l4xx_hal_dma.c ****   *      may be used to endorse or promote products derived from this software
  89:../../../core/ST/STM32L4xx_HAL_Driver/Src/stm32l4xx_hal_dma.c ****   *      without specific prior written permission.
  90:../../../core/ST/STM32L4xx_HAL_Driver/Src/stm32l4xx_hal_dma.c ****   *
  91:../../../core/ST/STM32L4xx_HAL_Driver/Src/stm32l4xx_hal_dma.c ****   * THIS SOFTWARE IS PROVIDED BY THE COPYRIGHT HOLDERS AND CONTRIBUTORS "AS IS"
  92:../../../core/ST/STM32L4xx_HAL_Driver/Src/stm32l4xx_hal_dma.c ****   * AND ANY EXPRESS OR IMPLIED WARRANTIES, INCLUDING, BUT NOT LIMITED TO, THE
  93:../../../core/ST/STM32L4xx_HAL_Driver/Src/stm32l4xx_hal_dma.c ****   * IMPLIED WARRANTIES OF MERCHANTABILITY AND FITNESS FOR A PARTICULAR PURPOSE ARE
  94:../../../core/ST/STM32L4xx_HAL_Driver/Src/stm32l4xx_hal_dma.c ****   * DISCLAIMED. IN NO EVENT SHALL THE COPYRIGHT HOLDER OR CONTRIBUTORS BE LIABLE
  95:../../../core/ST/STM32L4xx_HAL_Driver/Src/stm32l4xx_hal_dma.c ****   * FOR ANY DIRECT, INDIRECT, INCIDENTAL, SPECIAL, EXEMPLARY, OR CONSEQUENTIAL
  96:../../../core/ST/STM32L4xx_HAL_Driver/Src/stm32l4xx_hal_dma.c ****   * DAMAGES (INCLUDING, BUT NOT LIMITED TO, PROCUREMENT OF SUBSTITUTE GOODS OR
  97:../../../core/ST/STM32L4xx_HAL_Driver/Src/stm32l4xx_hal_dma.c ****   * SERVICES; LOSS OF USE, DATA, OR PROFITS; OR BUSINESS INTERRUPTION) HOWEVER
  98:../../../core/ST/STM32L4xx_HAL_Driver/Src/stm32l4xx_hal_dma.c ****   * CAUSED AND ON ANY THEORY OF LIABILITY, WHETHER IN CONTRACT, STRICT LIABILITY,
  99:../../../core/ST/STM32L4xx_HAL_Driver/Src/stm32l4xx_hal_dma.c ****   * OR TORT (INCLUDING NEGLIGENCE OR OTHERWISE) ARISING IN ANY WAY OUT OF THE USE
 100:../../../core/ST/STM32L4xx_HAL_Driver/Src/stm32l4xx_hal_dma.c ****   * OF THIS SOFTWARE, EVEN IF ADVISED OF THE POSSIBILITY OF SUCH DAMAGE.
 101:../../../core/ST/STM32L4xx_HAL_Driver/Src/stm32l4xx_hal_dma.c ****   *
 102:../../../core/ST/STM32L4xx_HAL_Driver/Src/stm32l4xx_hal_dma.c ****   ******************************************************************************
 103:../../../core/ST/STM32L4xx_HAL_Driver/Src/stm32l4xx_hal_dma.c ****   */
 104:../../../core/ST/STM32L4xx_HAL_Driver/Src/stm32l4xx_hal_dma.c **** 
 105:../../../core/ST/STM32L4xx_HAL_Driver/Src/stm32l4xx_hal_dma.c **** /* Includes ------------------------------------------------------------------*/
 106:../../../core/ST/STM32L4xx_HAL_Driver/Src/stm32l4xx_hal_dma.c **** #include "stm32l4xx_hal.h"
 107:../../../core/ST/STM32L4xx_HAL_Driver/Src/stm32l4xx_hal_dma.c **** 
 108:../../../core/ST/STM32L4xx_HAL_Driver/Src/stm32l4xx_hal_dma.c **** /** @addtogroup STM32L4xx_HAL_Driver
 109:../../../core/ST/STM32L4xx_HAL_Driver/Src/stm32l4xx_hal_dma.c ****   * @{
 110:../../../core/ST/STM32L4xx_HAL_Driver/Src/stm32l4xx_hal_dma.c ****   */
 111:../../../core/ST/STM32L4xx_HAL_Driver/Src/stm32l4xx_hal_dma.c **** 
 112:../../../core/ST/STM32L4xx_HAL_Driver/Src/stm32l4xx_hal_dma.c **** /** @defgroup DMA DMA
 113:../../../core/ST/STM32L4xx_HAL_Driver/Src/stm32l4xx_hal_dma.c ****   * @brief DMA HAL module driver
 114:../../../core/ST/STM32L4xx_HAL_Driver/Src/stm32l4xx_hal_dma.c ****   * @{
 115:../../../core/ST/STM32L4xx_HAL_Driver/Src/stm32l4xx_hal_dma.c ****   */
 116:../../../core/ST/STM32L4xx_HAL_Driver/Src/stm32l4xx_hal_dma.c **** 
 117:../../../core/ST/STM32L4xx_HAL_Driver/Src/stm32l4xx_hal_dma.c **** #ifdef HAL_DMA_MODULE_ENABLED
 118:../../../core/ST/STM32L4xx_HAL_Driver/Src/stm32l4xx_hal_dma.c **** 
 119:../../../core/ST/STM32L4xx_HAL_Driver/Src/stm32l4xx_hal_dma.c **** /* Private typedef -----------------------------------------------------------*/
 120:../../../core/ST/STM32L4xx_HAL_Driver/Src/stm32l4xx_hal_dma.c **** /* Private define ------------------------------------------------------------*/
 121:../../../core/ST/STM32L4xx_HAL_Driver/Src/stm32l4xx_hal_dma.c **** /* Private macro -------------------------------------------------------------*/
 122:../../../core/ST/STM32L4xx_HAL_Driver/Src/stm32l4xx_hal_dma.c **** /* Private variables ---------------------------------------------------------*/
 123:../../../core/ST/STM32L4xx_HAL_Driver/Src/stm32l4xx_hal_dma.c **** /* Private function prototypes -----------------------------------------------*/
 124:../../../core/ST/STM32L4xx_HAL_Driver/Src/stm32l4xx_hal_dma.c **** /** @defgroup DMA_Private_Functions DMA Private Functions
 125:../../../core/ST/STM32L4xx_HAL_Driver/Src/stm32l4xx_hal_dma.c ****   * @{
 126:../../../core/ST/STM32L4xx_HAL_Driver/Src/stm32l4xx_hal_dma.c ****   */
 127:../../../core/ST/STM32L4xx_HAL_Driver/Src/stm32l4xx_hal_dma.c **** static void DMA_SetConfig(DMA_HandleTypeDef *hdma, uint32_t SrcAddress, uint32_t DstAddress, uint32
 128:../../../core/ST/STM32L4xx_HAL_Driver/Src/stm32l4xx_hal_dma.c **** #if defined(DMAMUX1)
 129:../../../core/ST/STM32L4xx_HAL_Driver/Src/stm32l4xx_hal_dma.c **** static void DMA_CalcDMAMUXChannelBaseAndMask(DMA_HandleTypeDef *hdma);
 130:../../../core/ST/STM32L4xx_HAL_Driver/Src/stm32l4xx_hal_dma.c **** static void DMA_CalcDMAMUXRequestGenBaseAndMask(DMA_HandleTypeDef *hdma);
 131:../../../core/ST/STM32L4xx_HAL_Driver/Src/stm32l4xx_hal_dma.c **** #endif /* DMAMUX1 */
 132:../../../core/ST/STM32L4xx_HAL_Driver/Src/stm32l4xx_hal_dma.c **** 
 133:../../../core/ST/STM32L4xx_HAL_Driver/Src/stm32l4xx_hal_dma.c **** /**
 134:../../../core/ST/STM32L4xx_HAL_Driver/Src/stm32l4xx_hal_dma.c ****   * @}
 135:../../../core/ST/STM32L4xx_HAL_Driver/Src/stm32l4xx_hal_dma.c ****   */
 136:../../../core/ST/STM32L4xx_HAL_Driver/Src/stm32l4xx_hal_dma.c **** 
 137:../../../core/ST/STM32L4xx_HAL_Driver/Src/stm32l4xx_hal_dma.c **** /* Exported functions ---------------------------------------------------------*/
 138:../../../core/ST/STM32L4xx_HAL_Driver/Src/stm32l4xx_hal_dma.c **** 
 139:../../../core/ST/STM32L4xx_HAL_Driver/Src/stm32l4xx_hal_dma.c **** /** @defgroup DMA_Exported_Functions DMA Exported Functions
 140:../../../core/ST/STM32L4xx_HAL_Driver/Src/stm32l4xx_hal_dma.c ****   * @{
 141:../../../core/ST/STM32L4xx_HAL_Driver/Src/stm32l4xx_hal_dma.c ****   */
 142:../../../core/ST/STM32L4xx_HAL_Driver/Src/stm32l4xx_hal_dma.c **** 
 143:../../../core/ST/STM32L4xx_HAL_Driver/Src/stm32l4xx_hal_dma.c **** /** @defgroup DMA_Exported_Functions_Group1 Initialization and de-initialization functions
 144:../../../core/ST/STM32L4xx_HAL_Driver/Src/stm32l4xx_hal_dma.c ****  *  @brief   Initialization and de-initialization functions
ARM GAS  C:\Users\tijsv\AppData\Local\Temp\cc0UGmBk.s 			page 4


 145:../../../core/ST/STM32L4xx_HAL_Driver/Src/stm32l4xx_hal_dma.c ****  *
 146:../../../core/ST/STM32L4xx_HAL_Driver/Src/stm32l4xx_hal_dma.c **** @verbatim
 147:../../../core/ST/STM32L4xx_HAL_Driver/Src/stm32l4xx_hal_dma.c ****  ===============================================================================
 148:../../../core/ST/STM32L4xx_HAL_Driver/Src/stm32l4xx_hal_dma.c ****              ##### Initialization and de-initialization functions  #####
 149:../../../core/ST/STM32L4xx_HAL_Driver/Src/stm32l4xx_hal_dma.c ****  ===============================================================================
 150:../../../core/ST/STM32L4xx_HAL_Driver/Src/stm32l4xx_hal_dma.c ****     [..]
 151:../../../core/ST/STM32L4xx_HAL_Driver/Src/stm32l4xx_hal_dma.c ****     This section provides functions allowing to initialize the DMA Channel source
 152:../../../core/ST/STM32L4xx_HAL_Driver/Src/stm32l4xx_hal_dma.c ****     and destination addresses, incrementation and data sizes, transfer direction,
 153:../../../core/ST/STM32L4xx_HAL_Driver/Src/stm32l4xx_hal_dma.c ****     circular/normal mode selection, memory-to-memory mode selection and Channel priority value.
 154:../../../core/ST/STM32L4xx_HAL_Driver/Src/stm32l4xx_hal_dma.c ****     [..]
 155:../../../core/ST/STM32L4xx_HAL_Driver/Src/stm32l4xx_hal_dma.c ****     The HAL_DMA_Init() function follows the DMA configuration procedures as described in
 156:../../../core/ST/STM32L4xx_HAL_Driver/Src/stm32l4xx_hal_dma.c ****     reference manual.
 157:../../../core/ST/STM32L4xx_HAL_Driver/Src/stm32l4xx_hal_dma.c **** 
 158:../../../core/ST/STM32L4xx_HAL_Driver/Src/stm32l4xx_hal_dma.c **** @endverbatim
 159:../../../core/ST/STM32L4xx_HAL_Driver/Src/stm32l4xx_hal_dma.c ****   * @{
 160:../../../core/ST/STM32L4xx_HAL_Driver/Src/stm32l4xx_hal_dma.c ****   */
 161:../../../core/ST/STM32L4xx_HAL_Driver/Src/stm32l4xx_hal_dma.c **** 
 162:../../../core/ST/STM32L4xx_HAL_Driver/Src/stm32l4xx_hal_dma.c **** /**
 163:../../../core/ST/STM32L4xx_HAL_Driver/Src/stm32l4xx_hal_dma.c ****   * @brief  Initialize the DMA according to the specified
 164:../../../core/ST/STM32L4xx_HAL_Driver/Src/stm32l4xx_hal_dma.c ****   *         parameters in the DMA_InitTypeDef and initialize the associated handle.
 165:../../../core/ST/STM32L4xx_HAL_Driver/Src/stm32l4xx_hal_dma.c ****   * @param  hdma Pointer to a DMA_HandleTypeDef structure that contains
 166:../../../core/ST/STM32L4xx_HAL_Driver/Src/stm32l4xx_hal_dma.c ****   *               the configuration information for the specified DMA Channel.
 167:../../../core/ST/STM32L4xx_HAL_Driver/Src/stm32l4xx_hal_dma.c ****   * @retval HAL status
 168:../../../core/ST/STM32L4xx_HAL_Driver/Src/stm32l4xx_hal_dma.c ****   */
 169:../../../core/ST/STM32L4xx_HAL_Driver/Src/stm32l4xx_hal_dma.c **** HAL_StatusTypeDef HAL_DMA_Init(DMA_HandleTypeDef *hdma)
 170:../../../core/ST/STM32L4xx_HAL_Driver/Src/stm32l4xx_hal_dma.c **** {
 171:../../../core/ST/STM32L4xx_HAL_Driver/Src/stm32l4xx_hal_dma.c ****   uint32_t tmp;
 172:../../../core/ST/STM32L4xx_HAL_Driver/Src/stm32l4xx_hal_dma.c **** 
 173:../../../core/ST/STM32L4xx_HAL_Driver/Src/stm32l4xx_hal_dma.c ****   /* Check the DMA handle allocation */
 174:../../../core/ST/STM32L4xx_HAL_Driver/Src/stm32l4xx_hal_dma.c ****   if(hdma == NULL)
 175:../../../core/ST/STM32L4xx_HAL_Driver/Src/stm32l4xx_hal_dma.c ****   {
 176:../../../core/ST/STM32L4xx_HAL_Driver/Src/stm32l4xx_hal_dma.c ****     return HAL_ERROR;
 177:../../../core/ST/STM32L4xx_HAL_Driver/Src/stm32l4xx_hal_dma.c ****   }
 178:../../../core/ST/STM32L4xx_HAL_Driver/Src/stm32l4xx_hal_dma.c **** 
 179:../../../core/ST/STM32L4xx_HAL_Driver/Src/stm32l4xx_hal_dma.c ****   /* Check the parameters */
 180:../../../core/ST/STM32L4xx_HAL_Driver/Src/stm32l4xx_hal_dma.c ****   assert_param(IS_DMA_ALL_INSTANCE(hdma->Instance));
 181:../../../core/ST/STM32L4xx_HAL_Driver/Src/stm32l4xx_hal_dma.c ****   assert_param(IS_DMA_DIRECTION(hdma->Init.Direction));
 182:../../../core/ST/STM32L4xx_HAL_Driver/Src/stm32l4xx_hal_dma.c ****   assert_param(IS_DMA_PERIPHERAL_INC_STATE(hdma->Init.PeriphInc));
 183:../../../core/ST/STM32L4xx_HAL_Driver/Src/stm32l4xx_hal_dma.c ****   assert_param(IS_DMA_MEMORY_INC_STATE(hdma->Init.MemInc));
 184:../../../core/ST/STM32L4xx_HAL_Driver/Src/stm32l4xx_hal_dma.c ****   assert_param(IS_DMA_PERIPHERAL_DATA_SIZE(hdma->Init.PeriphDataAlignment));
 185:../../../core/ST/STM32L4xx_HAL_Driver/Src/stm32l4xx_hal_dma.c ****   assert_param(IS_DMA_MEMORY_DATA_SIZE(hdma->Init.MemDataAlignment));
 186:../../../core/ST/STM32L4xx_HAL_Driver/Src/stm32l4xx_hal_dma.c ****   assert_param(IS_DMA_MODE(hdma->Init.Mode));
 187:../../../core/ST/STM32L4xx_HAL_Driver/Src/stm32l4xx_hal_dma.c ****   assert_param(IS_DMA_PRIORITY(hdma->Init.Priority));
 188:../../../core/ST/STM32L4xx_HAL_Driver/Src/stm32l4xx_hal_dma.c **** 
 189:../../../core/ST/STM32L4xx_HAL_Driver/Src/stm32l4xx_hal_dma.c ****   assert_param(IS_DMA_ALL_REQUEST(hdma->Init.Request));
 190:../../../core/ST/STM32L4xx_HAL_Driver/Src/stm32l4xx_hal_dma.c **** 
 191:../../../core/ST/STM32L4xx_HAL_Driver/Src/stm32l4xx_hal_dma.c ****   /* Compute the channel index */
 192:../../../core/ST/STM32L4xx_HAL_Driver/Src/stm32l4xx_hal_dma.c ****   if ((uint32_t)(hdma->Instance) < (uint32_t)(DMA2_Channel1))
 193:../../../core/ST/STM32L4xx_HAL_Driver/Src/stm32l4xx_hal_dma.c ****   {
 194:../../../core/ST/STM32L4xx_HAL_Driver/Src/stm32l4xx_hal_dma.c ****     /* DMA1 */
 195:../../../core/ST/STM32L4xx_HAL_Driver/Src/stm32l4xx_hal_dma.c ****     hdma->ChannelIndex = (((uint32_t)hdma->Instance - (uint32_t)DMA1_Channel1) / ((uint32_t)DMA1_Ch
 196:../../../core/ST/STM32L4xx_HAL_Driver/Src/stm32l4xx_hal_dma.c ****     hdma->DmaBaseAddress = DMA1;
 197:../../../core/ST/STM32L4xx_HAL_Driver/Src/stm32l4xx_hal_dma.c ****   }
 198:../../../core/ST/STM32L4xx_HAL_Driver/Src/stm32l4xx_hal_dma.c ****   else
 199:../../../core/ST/STM32L4xx_HAL_Driver/Src/stm32l4xx_hal_dma.c ****   {
 200:../../../core/ST/STM32L4xx_HAL_Driver/Src/stm32l4xx_hal_dma.c ****     /* DMA2 */
 201:../../../core/ST/STM32L4xx_HAL_Driver/Src/stm32l4xx_hal_dma.c ****     hdma->ChannelIndex = (((uint32_t)hdma->Instance - (uint32_t)DMA2_Channel1) / ((uint32_t)DMA2_Ch
ARM GAS  C:\Users\tijsv\AppData\Local\Temp\cc0UGmBk.s 			page 5


 202:../../../core/ST/STM32L4xx_HAL_Driver/Src/stm32l4xx_hal_dma.c ****     hdma->DmaBaseAddress = DMA2;
 203:../../../core/ST/STM32L4xx_HAL_Driver/Src/stm32l4xx_hal_dma.c ****   }
 204:../../../core/ST/STM32L4xx_HAL_Driver/Src/stm32l4xx_hal_dma.c **** 
 205:../../../core/ST/STM32L4xx_HAL_Driver/Src/stm32l4xx_hal_dma.c ****   /* Change DMA peripheral state */
 206:../../../core/ST/STM32L4xx_HAL_Driver/Src/stm32l4xx_hal_dma.c ****   hdma->State = HAL_DMA_STATE_BUSY;
 207:../../../core/ST/STM32L4xx_HAL_Driver/Src/stm32l4xx_hal_dma.c **** 
 208:../../../core/ST/STM32L4xx_HAL_Driver/Src/stm32l4xx_hal_dma.c ****   /* Get the CR register value */
 209:../../../core/ST/STM32L4xx_HAL_Driver/Src/stm32l4xx_hal_dma.c ****   tmp = hdma->Instance->CCR;
 210:../../../core/ST/STM32L4xx_HAL_Driver/Src/stm32l4xx_hal_dma.c **** 
 211:../../../core/ST/STM32L4xx_HAL_Driver/Src/stm32l4xx_hal_dma.c ****   /* Clear PL, MSIZE, PSIZE, MINC, PINC, CIRC, DIR and MEM2MEM bits */
 212:../../../core/ST/STM32L4xx_HAL_Driver/Src/stm32l4xx_hal_dma.c ****   tmp &= ((uint32_t)~(DMA_CCR_PL    | DMA_CCR_MSIZE  | DMA_CCR_PSIZE  |
 213:../../../core/ST/STM32L4xx_HAL_Driver/Src/stm32l4xx_hal_dma.c ****                       DMA_CCR_MINC  | DMA_CCR_PINC   | DMA_CCR_CIRC   |
 214:../../../core/ST/STM32L4xx_HAL_Driver/Src/stm32l4xx_hal_dma.c ****                       DMA_CCR_DIR   | DMA_CCR_MEM2MEM));
 215:../../../core/ST/STM32L4xx_HAL_Driver/Src/stm32l4xx_hal_dma.c **** 
 216:../../../core/ST/STM32L4xx_HAL_Driver/Src/stm32l4xx_hal_dma.c ****   /* Prepare the DMA Channel configuration */
 217:../../../core/ST/STM32L4xx_HAL_Driver/Src/stm32l4xx_hal_dma.c ****   tmp |=  hdma->Init.Direction        |
 218:../../../core/ST/STM32L4xx_HAL_Driver/Src/stm32l4xx_hal_dma.c ****           hdma->Init.PeriphInc           | hdma->Init.MemInc           |
 219:../../../core/ST/STM32L4xx_HAL_Driver/Src/stm32l4xx_hal_dma.c ****           hdma->Init.PeriphDataAlignment | hdma->Init.MemDataAlignment |
 220:../../../core/ST/STM32L4xx_HAL_Driver/Src/stm32l4xx_hal_dma.c ****           hdma->Init.Mode                | hdma->Init.Priority;
 221:../../../core/ST/STM32L4xx_HAL_Driver/Src/stm32l4xx_hal_dma.c **** 
 222:../../../core/ST/STM32L4xx_HAL_Driver/Src/stm32l4xx_hal_dma.c ****   /* Write to DMA Channel CR register */
 223:../../../core/ST/STM32L4xx_HAL_Driver/Src/stm32l4xx_hal_dma.c ****   hdma->Instance->CCR = tmp;
 224:../../../core/ST/STM32L4xx_HAL_Driver/Src/stm32l4xx_hal_dma.c **** 
 225:../../../core/ST/STM32L4xx_HAL_Driver/Src/stm32l4xx_hal_dma.c **** 
 226:../../../core/ST/STM32L4xx_HAL_Driver/Src/stm32l4xx_hal_dma.c **** #if defined(DMAMUX1)
 227:../../../core/ST/STM32L4xx_HAL_Driver/Src/stm32l4xx_hal_dma.c ****   /* Initialize parameters for DMAMUX channel :
 228:../../../core/ST/STM32L4xx_HAL_Driver/Src/stm32l4xx_hal_dma.c ****      DMAmuxChannel, DMAmuxChannelStatus and DMAmuxChannelStatusMask
 229:../../../core/ST/STM32L4xx_HAL_Driver/Src/stm32l4xx_hal_dma.c ****   */
 230:../../../core/ST/STM32L4xx_HAL_Driver/Src/stm32l4xx_hal_dma.c ****   DMA_CalcDMAMUXChannelBaseAndMask(hdma);
 231:../../../core/ST/STM32L4xx_HAL_Driver/Src/stm32l4xx_hal_dma.c **** 
 232:../../../core/ST/STM32L4xx_HAL_Driver/Src/stm32l4xx_hal_dma.c ****   if(hdma->Init.Direction == DMA_MEMORY_TO_MEMORY)
 233:../../../core/ST/STM32L4xx_HAL_Driver/Src/stm32l4xx_hal_dma.c ****   {
 234:../../../core/ST/STM32L4xx_HAL_Driver/Src/stm32l4xx_hal_dma.c ****     /* if memory to memory force the request to 0*/
 235:../../../core/ST/STM32L4xx_HAL_Driver/Src/stm32l4xx_hal_dma.c ****     hdma->Init.Request = DMA_REQUEST_MEM2MEM;
 236:../../../core/ST/STM32L4xx_HAL_Driver/Src/stm32l4xx_hal_dma.c ****   }
 237:../../../core/ST/STM32L4xx_HAL_Driver/Src/stm32l4xx_hal_dma.c **** 
 238:../../../core/ST/STM32L4xx_HAL_Driver/Src/stm32l4xx_hal_dma.c ****   /* Set peripheral request  to DMAMUX channel */
 239:../../../core/ST/STM32L4xx_HAL_Driver/Src/stm32l4xx_hal_dma.c ****   hdma->DMAmuxChannel->CCR = (hdma->Init.Request & DMAMUX_CxCR_DMAREQ_ID);
 240:../../../core/ST/STM32L4xx_HAL_Driver/Src/stm32l4xx_hal_dma.c **** 
 241:../../../core/ST/STM32L4xx_HAL_Driver/Src/stm32l4xx_hal_dma.c ****   /* Clear the DMAMUX synchro overrun flag */
 242:../../../core/ST/STM32L4xx_HAL_Driver/Src/stm32l4xx_hal_dma.c ****   hdma->DMAmuxChannelStatus->CFR = hdma->DMAmuxChannelStatusMask;
 243:../../../core/ST/STM32L4xx_HAL_Driver/Src/stm32l4xx_hal_dma.c **** 
 244:../../../core/ST/STM32L4xx_HAL_Driver/Src/stm32l4xx_hal_dma.c ****   if(((hdma->Init.Request > 0U) && (hdma->Init.Request <= DMA_REQUEST_GENERATOR3)))
 245:../../../core/ST/STM32L4xx_HAL_Driver/Src/stm32l4xx_hal_dma.c ****   {
 246:../../../core/ST/STM32L4xx_HAL_Driver/Src/stm32l4xx_hal_dma.c ****     /* Initialize parameters for DMAMUX request generator :
 247:../../../core/ST/STM32L4xx_HAL_Driver/Src/stm32l4xx_hal_dma.c ****        DMAmuxRequestGen, DMAmuxRequestGenStatus and DMAmuxRequestGenStatusMask
 248:../../../core/ST/STM32L4xx_HAL_Driver/Src/stm32l4xx_hal_dma.c ****     */
 249:../../../core/ST/STM32L4xx_HAL_Driver/Src/stm32l4xx_hal_dma.c ****     DMA_CalcDMAMUXRequestGenBaseAndMask(hdma);
 250:../../../core/ST/STM32L4xx_HAL_Driver/Src/stm32l4xx_hal_dma.c **** 
 251:../../../core/ST/STM32L4xx_HAL_Driver/Src/stm32l4xx_hal_dma.c ****     /* Reset the DMAMUX request generator register*/
 252:../../../core/ST/STM32L4xx_HAL_Driver/Src/stm32l4xx_hal_dma.c ****     hdma->DMAmuxRequestGen->RGCR = 0U;
 253:../../../core/ST/STM32L4xx_HAL_Driver/Src/stm32l4xx_hal_dma.c **** 
 254:../../../core/ST/STM32L4xx_HAL_Driver/Src/stm32l4xx_hal_dma.c ****     /* Clear the DMAMUX request generator overrun flag */
 255:../../../core/ST/STM32L4xx_HAL_Driver/Src/stm32l4xx_hal_dma.c ****     hdma->DMAmuxRequestGenStatus->RGCFR = hdma->DMAmuxRequestGenStatusMask;
 256:../../../core/ST/STM32L4xx_HAL_Driver/Src/stm32l4xx_hal_dma.c ****   }
 257:../../../core/ST/STM32L4xx_HAL_Driver/Src/stm32l4xx_hal_dma.c ****   else
 258:../../../core/ST/STM32L4xx_HAL_Driver/Src/stm32l4xx_hal_dma.c ****   {
ARM GAS  C:\Users\tijsv\AppData\Local\Temp\cc0UGmBk.s 			page 6


 259:../../../core/ST/STM32L4xx_HAL_Driver/Src/stm32l4xx_hal_dma.c ****     hdma->DMAmuxRequestGen = 0U;
 260:../../../core/ST/STM32L4xx_HAL_Driver/Src/stm32l4xx_hal_dma.c ****     hdma->DMAmuxRequestGenStatus = 0U;
 261:../../../core/ST/STM32L4xx_HAL_Driver/Src/stm32l4xx_hal_dma.c ****     hdma->DMAmuxRequestGenStatusMask = 0U;
 262:../../../core/ST/STM32L4xx_HAL_Driver/Src/stm32l4xx_hal_dma.c ****   }
 263:../../../core/ST/STM32L4xx_HAL_Driver/Src/stm32l4xx_hal_dma.c **** #endif /* DMAMUX1 */
 264:../../../core/ST/STM32L4xx_HAL_Driver/Src/stm32l4xx_hal_dma.c **** 
 265:../../../core/ST/STM32L4xx_HAL_Driver/Src/stm32l4xx_hal_dma.c **** #if !defined (DMAMUX1)
 266:../../../core/ST/STM32L4xx_HAL_Driver/Src/stm32l4xx_hal_dma.c **** 
 267:../../../core/ST/STM32L4xx_HAL_Driver/Src/stm32l4xx_hal_dma.c ****   /* Set request selection */
 268:../../../core/ST/STM32L4xx_HAL_Driver/Src/stm32l4xx_hal_dma.c ****   if(hdma->Init.Direction != DMA_MEMORY_TO_MEMORY)
 269:../../../core/ST/STM32L4xx_HAL_Driver/Src/stm32l4xx_hal_dma.c ****   {
 270:../../../core/ST/STM32L4xx_HAL_Driver/Src/stm32l4xx_hal_dma.c ****     /* Write to DMA channel selection register */
 271:../../../core/ST/STM32L4xx_HAL_Driver/Src/stm32l4xx_hal_dma.c ****     if (DMA1 == hdma->DmaBaseAddress)
 272:../../../core/ST/STM32L4xx_HAL_Driver/Src/stm32l4xx_hal_dma.c ****     {
 273:../../../core/ST/STM32L4xx_HAL_Driver/Src/stm32l4xx_hal_dma.c ****       /* Reset request selection for DMA1 Channelx */
 274:../../../core/ST/STM32L4xx_HAL_Driver/Src/stm32l4xx_hal_dma.c ****       DMA1_CSELR->CSELR &= ~(DMA_CSELR_C1S << (hdma->ChannelIndex & 0x1cU));
 275:../../../core/ST/STM32L4xx_HAL_Driver/Src/stm32l4xx_hal_dma.c **** 
 276:../../../core/ST/STM32L4xx_HAL_Driver/Src/stm32l4xx_hal_dma.c ****       /* Configure request selection for DMA1 Channelx */
 277:../../../core/ST/STM32L4xx_HAL_Driver/Src/stm32l4xx_hal_dma.c ****       DMA1_CSELR->CSELR |= (uint32_t) (hdma->Init.Request << (hdma->ChannelIndex & 0x1cU));
 278:../../../core/ST/STM32L4xx_HAL_Driver/Src/stm32l4xx_hal_dma.c ****     }
 279:../../../core/ST/STM32L4xx_HAL_Driver/Src/stm32l4xx_hal_dma.c ****     else /* DMA2 */
 280:../../../core/ST/STM32L4xx_HAL_Driver/Src/stm32l4xx_hal_dma.c ****     {
 281:../../../core/ST/STM32L4xx_HAL_Driver/Src/stm32l4xx_hal_dma.c ****       /* Reset request selection for DMA2 Channelx */
 282:../../../core/ST/STM32L4xx_HAL_Driver/Src/stm32l4xx_hal_dma.c ****       DMA2_CSELR->CSELR &= ~(DMA_CSELR_C1S << (hdma->ChannelIndex & 0x1cU));
 283:../../../core/ST/STM32L4xx_HAL_Driver/Src/stm32l4xx_hal_dma.c **** 
 284:../../../core/ST/STM32L4xx_HAL_Driver/Src/stm32l4xx_hal_dma.c ****       /* Configure request selection for DMA2 Channelx */
 285:../../../core/ST/STM32L4xx_HAL_Driver/Src/stm32l4xx_hal_dma.c ****       DMA2_CSELR->CSELR |= (uint32_t) (hdma->Init.Request << (hdma->ChannelIndex & 0x1cU));
 286:../../../core/ST/STM32L4xx_HAL_Driver/Src/stm32l4xx_hal_dma.c ****     }
 287:../../../core/ST/STM32L4xx_HAL_Driver/Src/stm32l4xx_hal_dma.c ****   }
 288:../../../core/ST/STM32L4xx_HAL_Driver/Src/stm32l4xx_hal_dma.c **** 
 289:../../../core/ST/STM32L4xx_HAL_Driver/Src/stm32l4xx_hal_dma.c **** #endif /* STM32L431xx || STM32L432xx || STM32L433xx || STM32L442xx || STM32L443xx */
 290:../../../core/ST/STM32L4xx_HAL_Driver/Src/stm32l4xx_hal_dma.c ****        /* STM32L471xx || STM32L475xx || STM32L476xx || STM32L442xx || STM32L486xx */
 291:../../../core/ST/STM32L4xx_HAL_Driver/Src/stm32l4xx_hal_dma.c ****        /* STM32L496xx || STM32L4A6xx                                              */
 292:../../../core/ST/STM32L4xx_HAL_Driver/Src/stm32l4xx_hal_dma.c **** 
 293:../../../core/ST/STM32L4xx_HAL_Driver/Src/stm32l4xx_hal_dma.c ****   /* Initialise the error code */
 294:../../../core/ST/STM32L4xx_HAL_Driver/Src/stm32l4xx_hal_dma.c ****   hdma->ErrorCode = HAL_DMA_ERROR_NONE;
 295:../../../core/ST/STM32L4xx_HAL_Driver/Src/stm32l4xx_hal_dma.c **** 
 296:../../../core/ST/STM32L4xx_HAL_Driver/Src/stm32l4xx_hal_dma.c ****   /* Initialize the DMA state*/
 297:../../../core/ST/STM32L4xx_HAL_Driver/Src/stm32l4xx_hal_dma.c ****   hdma->State  = HAL_DMA_STATE_READY;
 298:../../../core/ST/STM32L4xx_HAL_Driver/Src/stm32l4xx_hal_dma.c **** 
 299:../../../core/ST/STM32L4xx_HAL_Driver/Src/stm32l4xx_hal_dma.c ****   /* Allocate lock resource and initialize it */
 300:../../../core/ST/STM32L4xx_HAL_Driver/Src/stm32l4xx_hal_dma.c ****   hdma->Lock = HAL_UNLOCKED;
 301:../../../core/ST/STM32L4xx_HAL_Driver/Src/stm32l4xx_hal_dma.c **** 
 302:../../../core/ST/STM32L4xx_HAL_Driver/Src/stm32l4xx_hal_dma.c ****   return HAL_OK;
 303:../../../core/ST/STM32L4xx_HAL_Driver/Src/stm32l4xx_hal_dma.c **** }
 304:../../../core/ST/STM32L4xx_HAL_Driver/Src/stm32l4xx_hal_dma.c **** 
 305:../../../core/ST/STM32L4xx_HAL_Driver/Src/stm32l4xx_hal_dma.c **** /**
 306:../../../core/ST/STM32L4xx_HAL_Driver/Src/stm32l4xx_hal_dma.c ****   * @brief  DeInitialize the DMA peripheral.
 307:../../../core/ST/STM32L4xx_HAL_Driver/Src/stm32l4xx_hal_dma.c ****   * @param  hdma pointer to a DMA_HandleTypeDef structure that contains
 308:../../../core/ST/STM32L4xx_HAL_Driver/Src/stm32l4xx_hal_dma.c ****   *               the configuration information for the specified DMA Channel.
 309:../../../core/ST/STM32L4xx_HAL_Driver/Src/stm32l4xx_hal_dma.c ****   * @retval HAL status
 310:../../../core/ST/STM32L4xx_HAL_Driver/Src/stm32l4xx_hal_dma.c ****   */
 311:../../../core/ST/STM32L4xx_HAL_Driver/Src/stm32l4xx_hal_dma.c **** HAL_StatusTypeDef HAL_DMA_DeInit(DMA_HandleTypeDef *hdma)
 312:../../../core/ST/STM32L4xx_HAL_Driver/Src/stm32l4xx_hal_dma.c **** {
 313:../../../core/ST/STM32L4xx_HAL_Driver/Src/stm32l4xx_hal_dma.c **** 
 314:../../../core/ST/STM32L4xx_HAL_Driver/Src/stm32l4xx_hal_dma.c ****   /* Check the DMA handle allocation */
 315:../../../core/ST/STM32L4xx_HAL_Driver/Src/stm32l4xx_hal_dma.c ****   if (NULL == hdma )
ARM GAS  C:\Users\tijsv\AppData\Local\Temp\cc0UGmBk.s 			page 7


 316:../../../core/ST/STM32L4xx_HAL_Driver/Src/stm32l4xx_hal_dma.c ****   {
 317:../../../core/ST/STM32L4xx_HAL_Driver/Src/stm32l4xx_hal_dma.c ****     return HAL_ERROR;
 318:../../../core/ST/STM32L4xx_HAL_Driver/Src/stm32l4xx_hal_dma.c ****   }
 319:../../../core/ST/STM32L4xx_HAL_Driver/Src/stm32l4xx_hal_dma.c **** 
 320:../../../core/ST/STM32L4xx_HAL_Driver/Src/stm32l4xx_hal_dma.c ****   /* Check the parameters */
 321:../../../core/ST/STM32L4xx_HAL_Driver/Src/stm32l4xx_hal_dma.c ****   assert_param(IS_DMA_ALL_INSTANCE(hdma->Instance));
 322:../../../core/ST/STM32L4xx_HAL_Driver/Src/stm32l4xx_hal_dma.c **** 
 323:../../../core/ST/STM32L4xx_HAL_Driver/Src/stm32l4xx_hal_dma.c ****   /* Disable the selected DMA Channelx */
 324:../../../core/ST/STM32L4xx_HAL_Driver/Src/stm32l4xx_hal_dma.c ****   __HAL_DMA_DISABLE(hdma);
 325:../../../core/ST/STM32L4xx_HAL_Driver/Src/stm32l4xx_hal_dma.c **** 
 326:../../../core/ST/STM32L4xx_HAL_Driver/Src/stm32l4xx_hal_dma.c ****   /* Compute the channel index */
 327:../../../core/ST/STM32L4xx_HAL_Driver/Src/stm32l4xx_hal_dma.c ****   if ((uint32_t)(hdma->Instance) < (uint32_t)(DMA2_Channel1))
 328:../../../core/ST/STM32L4xx_HAL_Driver/Src/stm32l4xx_hal_dma.c ****   {
 329:../../../core/ST/STM32L4xx_HAL_Driver/Src/stm32l4xx_hal_dma.c ****     /* DMA1 */
 330:../../../core/ST/STM32L4xx_HAL_Driver/Src/stm32l4xx_hal_dma.c ****     hdma->ChannelIndex = (((uint32_t)hdma->Instance - (uint32_t)DMA1_Channel1) / ((uint32_t)DMA1_Ch
 331:../../../core/ST/STM32L4xx_HAL_Driver/Src/stm32l4xx_hal_dma.c ****     hdma->DmaBaseAddress = DMA1;
 332:../../../core/ST/STM32L4xx_HAL_Driver/Src/stm32l4xx_hal_dma.c ****   }
 333:../../../core/ST/STM32L4xx_HAL_Driver/Src/stm32l4xx_hal_dma.c ****   else
 334:../../../core/ST/STM32L4xx_HAL_Driver/Src/stm32l4xx_hal_dma.c ****   {
 335:../../../core/ST/STM32L4xx_HAL_Driver/Src/stm32l4xx_hal_dma.c ****     /* DMA2 */
 336:../../../core/ST/STM32L4xx_HAL_Driver/Src/stm32l4xx_hal_dma.c ****     hdma->ChannelIndex = (((uint32_t)hdma->Instance - (uint32_t)DMA2_Channel1) / ((uint32_t)DMA2_Ch
 337:../../../core/ST/STM32L4xx_HAL_Driver/Src/stm32l4xx_hal_dma.c ****     hdma->DmaBaseAddress = DMA2;
 338:../../../core/ST/STM32L4xx_HAL_Driver/Src/stm32l4xx_hal_dma.c ****   }
 339:../../../core/ST/STM32L4xx_HAL_Driver/Src/stm32l4xx_hal_dma.c **** 
 340:../../../core/ST/STM32L4xx_HAL_Driver/Src/stm32l4xx_hal_dma.c ****   /* Reset DMA Channel control register */
 341:../../../core/ST/STM32L4xx_HAL_Driver/Src/stm32l4xx_hal_dma.c ****   hdma->Instance->CCR  = 0;
 342:../../../core/ST/STM32L4xx_HAL_Driver/Src/stm32l4xx_hal_dma.c **** 
 343:../../../core/ST/STM32L4xx_HAL_Driver/Src/stm32l4xx_hal_dma.c ****   /* Clear all flags */
 344:../../../core/ST/STM32L4xx_HAL_Driver/Src/stm32l4xx_hal_dma.c ****   hdma->DmaBaseAddress->IFCR = (DMA_ISR_GIF1 << (hdma->ChannelIndex & 0x1cU));
 345:../../../core/ST/STM32L4xx_HAL_Driver/Src/stm32l4xx_hal_dma.c **** 
 346:../../../core/ST/STM32L4xx_HAL_Driver/Src/stm32l4xx_hal_dma.c **** #if !defined (DMAMUX1)
 347:../../../core/ST/STM32L4xx_HAL_Driver/Src/stm32l4xx_hal_dma.c **** 
 348:../../../core/ST/STM32L4xx_HAL_Driver/Src/stm32l4xx_hal_dma.c ****   /* Reset DMA channel selection register */
 349:../../../core/ST/STM32L4xx_HAL_Driver/Src/stm32l4xx_hal_dma.c ****   if (DMA1 == hdma->DmaBaseAddress)
 350:../../../core/ST/STM32L4xx_HAL_Driver/Src/stm32l4xx_hal_dma.c ****   {
 351:../../../core/ST/STM32L4xx_HAL_Driver/Src/stm32l4xx_hal_dma.c ****     /* DMA1 */
 352:../../../core/ST/STM32L4xx_HAL_Driver/Src/stm32l4xx_hal_dma.c ****     DMA1_CSELR->CSELR &= ~(DMA_CSELR_C1S << (hdma->ChannelIndex & 0x1cU));
 353:../../../core/ST/STM32L4xx_HAL_Driver/Src/stm32l4xx_hal_dma.c ****   }
 354:../../../core/ST/STM32L4xx_HAL_Driver/Src/stm32l4xx_hal_dma.c ****   else
 355:../../../core/ST/STM32L4xx_HAL_Driver/Src/stm32l4xx_hal_dma.c ****   {
 356:../../../core/ST/STM32L4xx_HAL_Driver/Src/stm32l4xx_hal_dma.c ****     /* DMA2 */
 357:../../../core/ST/STM32L4xx_HAL_Driver/Src/stm32l4xx_hal_dma.c ****     DMA2_CSELR->CSELR &= ~(DMA_CSELR_C1S << (hdma->ChannelIndex & 0x1cU));
 358:../../../core/ST/STM32L4xx_HAL_Driver/Src/stm32l4xx_hal_dma.c ****   }
 359:../../../core/ST/STM32L4xx_HAL_Driver/Src/stm32l4xx_hal_dma.c **** #endif /* STM32L431xx || STM32L432xx || STM32L433xx || STM32L442xx || STM32L443xx */
 360:../../../core/ST/STM32L4xx_HAL_Driver/Src/stm32l4xx_hal_dma.c ****        /* STM32L471xx || STM32L475xx || STM32L476xx || STM32L442xx || STM32L486xx */
 361:../../../core/ST/STM32L4xx_HAL_Driver/Src/stm32l4xx_hal_dma.c ****        /* STM32L496xx || STM32L4A6xx                                              */
 362:../../../core/ST/STM32L4xx_HAL_Driver/Src/stm32l4xx_hal_dma.c **** 
 363:../../../core/ST/STM32L4xx_HAL_Driver/Src/stm32l4xx_hal_dma.c **** #if defined(DMAMUX1)
 364:../../../core/ST/STM32L4xx_HAL_Driver/Src/stm32l4xx_hal_dma.c **** 
 365:../../../core/ST/STM32L4xx_HAL_Driver/Src/stm32l4xx_hal_dma.c ****   /* Initialize parameters for DMAMUX channel :
 366:../../../core/ST/STM32L4xx_HAL_Driver/Src/stm32l4xx_hal_dma.c ****      DMAmuxChannel, DMAmuxChannelStatus and DMAmuxChannelStatusMask */
 367:../../../core/ST/STM32L4xx_HAL_Driver/Src/stm32l4xx_hal_dma.c **** 
 368:../../../core/ST/STM32L4xx_HAL_Driver/Src/stm32l4xx_hal_dma.c ****   DMA_CalcDMAMUXChannelBaseAndMask(hdma);
 369:../../../core/ST/STM32L4xx_HAL_Driver/Src/stm32l4xx_hal_dma.c **** 
 370:../../../core/ST/STM32L4xx_HAL_Driver/Src/stm32l4xx_hal_dma.c ****   /* Reset the DMAMUX channel that corresponds to the DMA channel */
 371:../../../core/ST/STM32L4xx_HAL_Driver/Src/stm32l4xx_hal_dma.c ****   hdma->DMAmuxChannel->CCR = 0;
 372:../../../core/ST/STM32L4xx_HAL_Driver/Src/stm32l4xx_hal_dma.c **** 
ARM GAS  C:\Users\tijsv\AppData\Local\Temp\cc0UGmBk.s 			page 8


 373:../../../core/ST/STM32L4xx_HAL_Driver/Src/stm32l4xx_hal_dma.c ****   /* Clear the DMAMUX synchro overrun flag */
 374:../../../core/ST/STM32L4xx_HAL_Driver/Src/stm32l4xx_hal_dma.c ****   hdma->DMAmuxChannelStatus->CFR = hdma->DMAmuxChannelStatusMask;
 375:../../../core/ST/STM32L4xx_HAL_Driver/Src/stm32l4xx_hal_dma.c **** 
 376:../../../core/ST/STM32L4xx_HAL_Driver/Src/stm32l4xx_hal_dma.c ****   /* Reset Request generator parameters if any */
 377:../../../core/ST/STM32L4xx_HAL_Driver/Src/stm32l4xx_hal_dma.c ****   if(((hdma->Init.Request >  0U) && (hdma->Init.Request <= DMA_REQUEST_GENERATOR3)))
 378:../../../core/ST/STM32L4xx_HAL_Driver/Src/stm32l4xx_hal_dma.c ****   {
 379:../../../core/ST/STM32L4xx_HAL_Driver/Src/stm32l4xx_hal_dma.c ****     /* Initialize parameters for DMAMUX request generator :
 380:../../../core/ST/STM32L4xx_HAL_Driver/Src/stm32l4xx_hal_dma.c ****        DMAmuxRequestGen, DMAmuxRequestGenStatus and DMAmuxRequestGenStatusMask
 381:../../../core/ST/STM32L4xx_HAL_Driver/Src/stm32l4xx_hal_dma.c ****     */
 382:../../../core/ST/STM32L4xx_HAL_Driver/Src/stm32l4xx_hal_dma.c ****     DMA_CalcDMAMUXRequestGenBaseAndMask(hdma);
 383:../../../core/ST/STM32L4xx_HAL_Driver/Src/stm32l4xx_hal_dma.c **** 
 384:../../../core/ST/STM32L4xx_HAL_Driver/Src/stm32l4xx_hal_dma.c ****     /* Reset the DMAMUX request generator register*/
 385:../../../core/ST/STM32L4xx_HAL_Driver/Src/stm32l4xx_hal_dma.c ****     hdma->DMAmuxRequestGen->RGCR = 0U;
 386:../../../core/ST/STM32L4xx_HAL_Driver/Src/stm32l4xx_hal_dma.c **** 
 387:../../../core/ST/STM32L4xx_HAL_Driver/Src/stm32l4xx_hal_dma.c ****     /* Clear the DMAMUX request generator overrun flag */
 388:../../../core/ST/STM32L4xx_HAL_Driver/Src/stm32l4xx_hal_dma.c ****     hdma->DMAmuxRequestGenStatus->RGCFR = hdma->DMAmuxRequestGenStatusMask;
 389:../../../core/ST/STM32L4xx_HAL_Driver/Src/stm32l4xx_hal_dma.c ****   }
 390:../../../core/ST/STM32L4xx_HAL_Driver/Src/stm32l4xx_hal_dma.c **** 
 391:../../../core/ST/STM32L4xx_HAL_Driver/Src/stm32l4xx_hal_dma.c ****   hdma->DMAmuxRequestGen = 0U;
 392:../../../core/ST/STM32L4xx_HAL_Driver/Src/stm32l4xx_hal_dma.c ****   hdma->DMAmuxRequestGenStatus = 0U;
 393:../../../core/ST/STM32L4xx_HAL_Driver/Src/stm32l4xx_hal_dma.c ****   hdma->DMAmuxRequestGenStatusMask = 0U;
 394:../../../core/ST/STM32L4xx_HAL_Driver/Src/stm32l4xx_hal_dma.c **** 
 395:../../../core/ST/STM32L4xx_HAL_Driver/Src/stm32l4xx_hal_dma.c **** #endif /* DMAMUX1 */
 396:../../../core/ST/STM32L4xx_HAL_Driver/Src/stm32l4xx_hal_dma.c **** 
 397:../../../core/ST/STM32L4xx_HAL_Driver/Src/stm32l4xx_hal_dma.c ****   /* Clean callbacks */
 398:../../../core/ST/STM32L4xx_HAL_Driver/Src/stm32l4xx_hal_dma.c ****   hdma->XferCpltCallback = NULL;
 399:../../../core/ST/STM32L4xx_HAL_Driver/Src/stm32l4xx_hal_dma.c ****   hdma->XferHalfCpltCallback = NULL;
 400:../../../core/ST/STM32L4xx_HAL_Driver/Src/stm32l4xx_hal_dma.c ****   hdma->XferErrorCallback = NULL;
 401:../../../core/ST/STM32L4xx_HAL_Driver/Src/stm32l4xx_hal_dma.c ****   hdma->XferAbortCallback = NULL;
 402:../../../core/ST/STM32L4xx_HAL_Driver/Src/stm32l4xx_hal_dma.c **** 
 403:../../../core/ST/STM32L4xx_HAL_Driver/Src/stm32l4xx_hal_dma.c ****   /* Initialise the error code */
 404:../../../core/ST/STM32L4xx_HAL_Driver/Src/stm32l4xx_hal_dma.c ****   hdma->ErrorCode = HAL_DMA_ERROR_NONE;
 405:../../../core/ST/STM32L4xx_HAL_Driver/Src/stm32l4xx_hal_dma.c **** 
 406:../../../core/ST/STM32L4xx_HAL_Driver/Src/stm32l4xx_hal_dma.c ****   /* Initialize the DMA state */
 407:../../../core/ST/STM32L4xx_HAL_Driver/Src/stm32l4xx_hal_dma.c ****   hdma->State = HAL_DMA_STATE_RESET;
 408:../../../core/ST/STM32L4xx_HAL_Driver/Src/stm32l4xx_hal_dma.c **** 
 409:../../../core/ST/STM32L4xx_HAL_Driver/Src/stm32l4xx_hal_dma.c ****   /* Release Lock */
 410:../../../core/ST/STM32L4xx_HAL_Driver/Src/stm32l4xx_hal_dma.c ****   __HAL_UNLOCK(hdma);
 411:../../../core/ST/STM32L4xx_HAL_Driver/Src/stm32l4xx_hal_dma.c **** 
 412:../../../core/ST/STM32L4xx_HAL_Driver/Src/stm32l4xx_hal_dma.c ****   return HAL_OK;
 413:../../../core/ST/STM32L4xx_HAL_Driver/Src/stm32l4xx_hal_dma.c **** }
 414:../../../core/ST/STM32L4xx_HAL_Driver/Src/stm32l4xx_hal_dma.c **** 
 415:../../../core/ST/STM32L4xx_HAL_Driver/Src/stm32l4xx_hal_dma.c **** /**
 416:../../../core/ST/STM32L4xx_HAL_Driver/Src/stm32l4xx_hal_dma.c ****   * @}
 417:../../../core/ST/STM32L4xx_HAL_Driver/Src/stm32l4xx_hal_dma.c ****   */
 418:../../../core/ST/STM32L4xx_HAL_Driver/Src/stm32l4xx_hal_dma.c **** 
 419:../../../core/ST/STM32L4xx_HAL_Driver/Src/stm32l4xx_hal_dma.c **** /** @defgroup DMA_Exported_Functions_Group2 Input and Output operation functions
 420:../../../core/ST/STM32L4xx_HAL_Driver/Src/stm32l4xx_hal_dma.c ****  *  @brief   Input and Output operation functions
 421:../../../core/ST/STM32L4xx_HAL_Driver/Src/stm32l4xx_hal_dma.c ****  *
 422:../../../core/ST/STM32L4xx_HAL_Driver/Src/stm32l4xx_hal_dma.c **** @verbatim
 423:../../../core/ST/STM32L4xx_HAL_Driver/Src/stm32l4xx_hal_dma.c ****  ===============================================================================
 424:../../../core/ST/STM32L4xx_HAL_Driver/Src/stm32l4xx_hal_dma.c ****                       #####  IO operation functions  #####
 425:../../../core/ST/STM32L4xx_HAL_Driver/Src/stm32l4xx_hal_dma.c ****  ===============================================================================
 426:../../../core/ST/STM32L4xx_HAL_Driver/Src/stm32l4xx_hal_dma.c ****     [..]  This section provides functions allowing to:
 427:../../../core/ST/STM32L4xx_HAL_Driver/Src/stm32l4xx_hal_dma.c ****       (+) Configure the source, destination address and data length and Start DMA transfer
 428:../../../core/ST/STM32L4xx_HAL_Driver/Src/stm32l4xx_hal_dma.c ****       (+) Configure the source, destination address and data length and
 429:../../../core/ST/STM32L4xx_HAL_Driver/Src/stm32l4xx_hal_dma.c ****           Start DMA transfer with interrupt
ARM GAS  C:\Users\tijsv\AppData\Local\Temp\cc0UGmBk.s 			page 9


 430:../../../core/ST/STM32L4xx_HAL_Driver/Src/stm32l4xx_hal_dma.c ****       (+) Abort DMA transfer
 431:../../../core/ST/STM32L4xx_HAL_Driver/Src/stm32l4xx_hal_dma.c ****       (+) Poll for transfer complete
 432:../../../core/ST/STM32L4xx_HAL_Driver/Src/stm32l4xx_hal_dma.c ****       (+) Handle DMA interrupt request
 433:../../../core/ST/STM32L4xx_HAL_Driver/Src/stm32l4xx_hal_dma.c **** 
 434:../../../core/ST/STM32L4xx_HAL_Driver/Src/stm32l4xx_hal_dma.c **** @endverbatim
 435:../../../core/ST/STM32L4xx_HAL_Driver/Src/stm32l4xx_hal_dma.c ****   * @{
 436:../../../core/ST/STM32L4xx_HAL_Driver/Src/stm32l4xx_hal_dma.c ****   */
 437:../../../core/ST/STM32L4xx_HAL_Driver/Src/stm32l4xx_hal_dma.c **** 
 438:../../../core/ST/STM32L4xx_HAL_Driver/Src/stm32l4xx_hal_dma.c **** /**
 439:../../../core/ST/STM32L4xx_HAL_Driver/Src/stm32l4xx_hal_dma.c ****   * @brief  Start the DMA Transfer.
 440:../../../core/ST/STM32L4xx_HAL_Driver/Src/stm32l4xx_hal_dma.c ****   * @param  hdma pointer to a DMA_HandleTypeDef structure that contains
 441:../../../core/ST/STM32L4xx_HAL_Driver/Src/stm32l4xx_hal_dma.c ****   *               the configuration information for the specified DMA Channel.
 442:../../../core/ST/STM32L4xx_HAL_Driver/Src/stm32l4xx_hal_dma.c ****   * @param  SrcAddress The source memory Buffer address
 443:../../../core/ST/STM32L4xx_HAL_Driver/Src/stm32l4xx_hal_dma.c ****   * @param  DstAddress The destination memory Buffer address
 444:../../../core/ST/STM32L4xx_HAL_Driver/Src/stm32l4xx_hal_dma.c ****   * @param  DataLength The length of data to be transferred from source to destination
 445:../../../core/ST/STM32L4xx_HAL_Driver/Src/stm32l4xx_hal_dma.c ****   * @retval HAL status
 446:../../../core/ST/STM32L4xx_HAL_Driver/Src/stm32l4xx_hal_dma.c ****   */
 447:../../../core/ST/STM32L4xx_HAL_Driver/Src/stm32l4xx_hal_dma.c **** HAL_StatusTypeDef HAL_DMA_Start(DMA_HandleTypeDef *hdma, uint32_t SrcAddress, uint32_t DstAddress, 
 448:../../../core/ST/STM32L4xx_HAL_Driver/Src/stm32l4xx_hal_dma.c **** {
 449:../../../core/ST/STM32L4xx_HAL_Driver/Src/stm32l4xx_hal_dma.c ****   HAL_StatusTypeDef status = HAL_OK;
 450:../../../core/ST/STM32L4xx_HAL_Driver/Src/stm32l4xx_hal_dma.c **** 
 451:../../../core/ST/STM32L4xx_HAL_Driver/Src/stm32l4xx_hal_dma.c ****   /* Check the parameters */
 452:../../../core/ST/STM32L4xx_HAL_Driver/Src/stm32l4xx_hal_dma.c ****   assert_param(IS_DMA_BUFFER_SIZE(DataLength));
 453:../../../core/ST/STM32L4xx_HAL_Driver/Src/stm32l4xx_hal_dma.c **** 
 454:../../../core/ST/STM32L4xx_HAL_Driver/Src/stm32l4xx_hal_dma.c ****   /* Process locked */
 455:../../../core/ST/STM32L4xx_HAL_Driver/Src/stm32l4xx_hal_dma.c ****   __HAL_LOCK(hdma);
 456:../../../core/ST/STM32L4xx_HAL_Driver/Src/stm32l4xx_hal_dma.c **** 
 457:../../../core/ST/STM32L4xx_HAL_Driver/Src/stm32l4xx_hal_dma.c ****   if(HAL_DMA_STATE_READY == hdma->State)
 458:../../../core/ST/STM32L4xx_HAL_Driver/Src/stm32l4xx_hal_dma.c ****   {
 459:../../../core/ST/STM32L4xx_HAL_Driver/Src/stm32l4xx_hal_dma.c ****     /* Change DMA peripheral state */
 460:../../../core/ST/STM32L4xx_HAL_Driver/Src/stm32l4xx_hal_dma.c ****     hdma->State = HAL_DMA_STATE_BUSY;
 461:../../../core/ST/STM32L4xx_HAL_Driver/Src/stm32l4xx_hal_dma.c ****     hdma->ErrorCode = HAL_DMA_ERROR_NONE;
 462:../../../core/ST/STM32L4xx_HAL_Driver/Src/stm32l4xx_hal_dma.c **** 
 463:../../../core/ST/STM32L4xx_HAL_Driver/Src/stm32l4xx_hal_dma.c ****     /* Disable the peripheral */
 464:../../../core/ST/STM32L4xx_HAL_Driver/Src/stm32l4xx_hal_dma.c ****     __HAL_DMA_DISABLE(hdma);
 465:../../../core/ST/STM32L4xx_HAL_Driver/Src/stm32l4xx_hal_dma.c **** 
 466:../../../core/ST/STM32L4xx_HAL_Driver/Src/stm32l4xx_hal_dma.c ****     /* Configure the source, destination address and the data length & clear flags*/
 467:../../../core/ST/STM32L4xx_HAL_Driver/Src/stm32l4xx_hal_dma.c ****     DMA_SetConfig(hdma, SrcAddress, DstAddress, DataLength);
 468:../../../core/ST/STM32L4xx_HAL_Driver/Src/stm32l4xx_hal_dma.c **** 
 469:../../../core/ST/STM32L4xx_HAL_Driver/Src/stm32l4xx_hal_dma.c ****     /* Enable the Peripheral */
 470:../../../core/ST/STM32L4xx_HAL_Driver/Src/stm32l4xx_hal_dma.c ****     __HAL_DMA_ENABLE(hdma);
 471:../../../core/ST/STM32L4xx_HAL_Driver/Src/stm32l4xx_hal_dma.c ****   }
 472:../../../core/ST/STM32L4xx_HAL_Driver/Src/stm32l4xx_hal_dma.c ****   else
 473:../../../core/ST/STM32L4xx_HAL_Driver/Src/stm32l4xx_hal_dma.c ****   {
 474:../../../core/ST/STM32L4xx_HAL_Driver/Src/stm32l4xx_hal_dma.c ****     /* Process Unlocked */
 475:../../../core/ST/STM32L4xx_HAL_Driver/Src/stm32l4xx_hal_dma.c ****     __HAL_UNLOCK(hdma);
 476:../../../core/ST/STM32L4xx_HAL_Driver/Src/stm32l4xx_hal_dma.c ****     status = HAL_BUSY;
 477:../../../core/ST/STM32L4xx_HAL_Driver/Src/stm32l4xx_hal_dma.c ****   }
 478:../../../core/ST/STM32L4xx_HAL_Driver/Src/stm32l4xx_hal_dma.c ****   return status;
 479:../../../core/ST/STM32L4xx_HAL_Driver/Src/stm32l4xx_hal_dma.c **** }
 480:../../../core/ST/STM32L4xx_HAL_Driver/Src/stm32l4xx_hal_dma.c **** 
 481:../../../core/ST/STM32L4xx_HAL_Driver/Src/stm32l4xx_hal_dma.c **** /**
 482:../../../core/ST/STM32L4xx_HAL_Driver/Src/stm32l4xx_hal_dma.c ****   * @brief  Start the DMA Transfer with interrupt enabled.
 483:../../../core/ST/STM32L4xx_HAL_Driver/Src/stm32l4xx_hal_dma.c ****   * @param  hdma pointer to a DMA_HandleTypeDef structure that contains
 484:../../../core/ST/STM32L4xx_HAL_Driver/Src/stm32l4xx_hal_dma.c ****   *               the configuration information for the specified DMA Channel.
 485:../../../core/ST/STM32L4xx_HAL_Driver/Src/stm32l4xx_hal_dma.c ****   * @param  SrcAddress The source memory Buffer address
 486:../../../core/ST/STM32L4xx_HAL_Driver/Src/stm32l4xx_hal_dma.c ****   * @param  DstAddress The destination memory Buffer address
ARM GAS  C:\Users\tijsv\AppData\Local\Temp\cc0UGmBk.s 			page 10


 487:../../../core/ST/STM32L4xx_HAL_Driver/Src/stm32l4xx_hal_dma.c ****   * @param  DataLength The length of data to be transferred from source to destination
 488:../../../core/ST/STM32L4xx_HAL_Driver/Src/stm32l4xx_hal_dma.c ****   * @retval HAL status
 489:../../../core/ST/STM32L4xx_HAL_Driver/Src/stm32l4xx_hal_dma.c ****   */
 490:../../../core/ST/STM32L4xx_HAL_Driver/Src/stm32l4xx_hal_dma.c **** HAL_StatusTypeDef HAL_DMA_Start_IT(DMA_HandleTypeDef *hdma, uint32_t SrcAddress, uint32_t DstAddres
 491:../../../core/ST/STM32L4xx_HAL_Driver/Src/stm32l4xx_hal_dma.c **** {
 492:../../../core/ST/STM32L4xx_HAL_Driver/Src/stm32l4xx_hal_dma.c ****   HAL_StatusTypeDef status = HAL_OK;
 493:../../../core/ST/STM32L4xx_HAL_Driver/Src/stm32l4xx_hal_dma.c **** 
 494:../../../core/ST/STM32L4xx_HAL_Driver/Src/stm32l4xx_hal_dma.c ****   /* Check the parameters */
 495:../../../core/ST/STM32L4xx_HAL_Driver/Src/stm32l4xx_hal_dma.c ****   assert_param(IS_DMA_BUFFER_SIZE(DataLength));
 496:../../../core/ST/STM32L4xx_HAL_Driver/Src/stm32l4xx_hal_dma.c **** 
 497:../../../core/ST/STM32L4xx_HAL_Driver/Src/stm32l4xx_hal_dma.c ****   /* Process locked */
 498:../../../core/ST/STM32L4xx_HAL_Driver/Src/stm32l4xx_hal_dma.c ****   __HAL_LOCK(hdma);
 499:../../../core/ST/STM32L4xx_HAL_Driver/Src/stm32l4xx_hal_dma.c **** 
 500:../../../core/ST/STM32L4xx_HAL_Driver/Src/stm32l4xx_hal_dma.c ****   if(HAL_DMA_STATE_READY == hdma->State)
 501:../../../core/ST/STM32L4xx_HAL_Driver/Src/stm32l4xx_hal_dma.c ****   {
 502:../../../core/ST/STM32L4xx_HAL_Driver/Src/stm32l4xx_hal_dma.c ****     /* Change DMA peripheral state */
 503:../../../core/ST/STM32L4xx_HAL_Driver/Src/stm32l4xx_hal_dma.c ****     hdma->State = HAL_DMA_STATE_BUSY;
 504:../../../core/ST/STM32L4xx_HAL_Driver/Src/stm32l4xx_hal_dma.c ****     hdma->ErrorCode = HAL_DMA_ERROR_NONE;
 505:../../../core/ST/STM32L4xx_HAL_Driver/Src/stm32l4xx_hal_dma.c **** 
 506:../../../core/ST/STM32L4xx_HAL_Driver/Src/stm32l4xx_hal_dma.c ****     /* Disable the peripheral */
 507:../../../core/ST/STM32L4xx_HAL_Driver/Src/stm32l4xx_hal_dma.c ****     __HAL_DMA_DISABLE(hdma);
 508:../../../core/ST/STM32L4xx_HAL_Driver/Src/stm32l4xx_hal_dma.c **** 
 509:../../../core/ST/STM32L4xx_HAL_Driver/Src/stm32l4xx_hal_dma.c ****     /* Configure the source, destination address and the data length & clear flags*/
 510:../../../core/ST/STM32L4xx_HAL_Driver/Src/stm32l4xx_hal_dma.c ****     DMA_SetConfig(hdma, SrcAddress, DstAddress, DataLength);
 511:../../../core/ST/STM32L4xx_HAL_Driver/Src/stm32l4xx_hal_dma.c **** 
 512:../../../core/ST/STM32L4xx_HAL_Driver/Src/stm32l4xx_hal_dma.c ****     /* Enable the transfer complete interrupt */
 513:../../../core/ST/STM32L4xx_HAL_Driver/Src/stm32l4xx_hal_dma.c ****     /* Enable the transfer Error interrupt */
 514:../../../core/ST/STM32L4xx_HAL_Driver/Src/stm32l4xx_hal_dma.c ****     if(NULL != hdma->XferHalfCpltCallback )
 515:../../../core/ST/STM32L4xx_HAL_Driver/Src/stm32l4xx_hal_dma.c ****     {
 516:../../../core/ST/STM32L4xx_HAL_Driver/Src/stm32l4xx_hal_dma.c ****       /* Enable the Half transfer complete interrupt as well */
 517:../../../core/ST/STM32L4xx_HAL_Driver/Src/stm32l4xx_hal_dma.c ****       __HAL_DMA_ENABLE_IT(hdma, (DMA_IT_TC | DMA_IT_HT | DMA_IT_TE));
 518:../../../core/ST/STM32L4xx_HAL_Driver/Src/stm32l4xx_hal_dma.c ****     }
 519:../../../core/ST/STM32L4xx_HAL_Driver/Src/stm32l4xx_hal_dma.c ****     else
 520:../../../core/ST/STM32L4xx_HAL_Driver/Src/stm32l4xx_hal_dma.c ****     {
 521:../../../core/ST/STM32L4xx_HAL_Driver/Src/stm32l4xx_hal_dma.c ****       __HAL_DMA_DISABLE_IT(hdma, DMA_IT_HT);
 522:../../../core/ST/STM32L4xx_HAL_Driver/Src/stm32l4xx_hal_dma.c ****       __HAL_DMA_ENABLE_IT(hdma, (DMA_IT_TC | DMA_IT_TE));
 523:../../../core/ST/STM32L4xx_HAL_Driver/Src/stm32l4xx_hal_dma.c ****     }
 524:../../../core/ST/STM32L4xx_HAL_Driver/Src/stm32l4xx_hal_dma.c **** 
 525:../../../core/ST/STM32L4xx_HAL_Driver/Src/stm32l4xx_hal_dma.c **** #ifdef DMAMUX1
 526:../../../core/ST/STM32L4xx_HAL_Driver/Src/stm32l4xx_hal_dma.c **** 
 527:../../../core/ST/STM32L4xx_HAL_Driver/Src/stm32l4xx_hal_dma.c ****     /* Check if DMAMUX Synchronization is enabled*/
 528:../../../core/ST/STM32L4xx_HAL_Driver/Src/stm32l4xx_hal_dma.c ****     if((hdma->DMAmuxChannel->CCR & DMAMUX_CxCR_SE) != 0U)
 529:../../../core/ST/STM32L4xx_HAL_Driver/Src/stm32l4xx_hal_dma.c ****     {
 530:../../../core/ST/STM32L4xx_HAL_Driver/Src/stm32l4xx_hal_dma.c ****       /* Enable DMAMUX sync overrun IT*/
 531:../../../core/ST/STM32L4xx_HAL_Driver/Src/stm32l4xx_hal_dma.c ****       hdma->DMAmuxChannel->CCR |= DMAMUX_CxCR_SOIE;
 532:../../../core/ST/STM32L4xx_HAL_Driver/Src/stm32l4xx_hal_dma.c ****     }
 533:../../../core/ST/STM32L4xx_HAL_Driver/Src/stm32l4xx_hal_dma.c **** 
 534:../../../core/ST/STM32L4xx_HAL_Driver/Src/stm32l4xx_hal_dma.c ****     if(hdma->DMAmuxRequestGen != 0U)
 535:../../../core/ST/STM32L4xx_HAL_Driver/Src/stm32l4xx_hal_dma.c ****     {
 536:../../../core/ST/STM32L4xx_HAL_Driver/Src/stm32l4xx_hal_dma.c ****       /* if using DMAMUX request generator, enable the DMAMUX request generator overrun IT*/
 537:../../../core/ST/STM32L4xx_HAL_Driver/Src/stm32l4xx_hal_dma.c ****       /* enable the request gen overrun IT*/
 538:../../../core/ST/STM32L4xx_HAL_Driver/Src/stm32l4xx_hal_dma.c ****       hdma->DMAmuxRequestGen->RGCR |= DMAMUX_RGxCR_OIE;
 539:../../../core/ST/STM32L4xx_HAL_Driver/Src/stm32l4xx_hal_dma.c ****     }
 540:../../../core/ST/STM32L4xx_HAL_Driver/Src/stm32l4xx_hal_dma.c **** 
 541:../../../core/ST/STM32L4xx_HAL_Driver/Src/stm32l4xx_hal_dma.c **** #endif /* DMAMUX1 */
 542:../../../core/ST/STM32L4xx_HAL_Driver/Src/stm32l4xx_hal_dma.c **** 
 543:../../../core/ST/STM32L4xx_HAL_Driver/Src/stm32l4xx_hal_dma.c ****     /* Enable the Peripheral */
ARM GAS  C:\Users\tijsv\AppData\Local\Temp\cc0UGmBk.s 			page 11


 544:../../../core/ST/STM32L4xx_HAL_Driver/Src/stm32l4xx_hal_dma.c ****     __HAL_DMA_ENABLE(hdma);
 545:../../../core/ST/STM32L4xx_HAL_Driver/Src/stm32l4xx_hal_dma.c ****   }
 546:../../../core/ST/STM32L4xx_HAL_Driver/Src/stm32l4xx_hal_dma.c ****   else
 547:../../../core/ST/STM32L4xx_HAL_Driver/Src/stm32l4xx_hal_dma.c ****   {
 548:../../../core/ST/STM32L4xx_HAL_Driver/Src/stm32l4xx_hal_dma.c ****     /* Process Unlocked */
 549:../../../core/ST/STM32L4xx_HAL_Driver/Src/stm32l4xx_hal_dma.c ****     __HAL_UNLOCK(hdma);
 550:../../../core/ST/STM32L4xx_HAL_Driver/Src/stm32l4xx_hal_dma.c **** 
 551:../../../core/ST/STM32L4xx_HAL_Driver/Src/stm32l4xx_hal_dma.c ****     /* Remain BUSY */
 552:../../../core/ST/STM32L4xx_HAL_Driver/Src/stm32l4xx_hal_dma.c ****     status = HAL_BUSY;
 553:../../../core/ST/STM32L4xx_HAL_Driver/Src/stm32l4xx_hal_dma.c ****   }
 554:../../../core/ST/STM32L4xx_HAL_Driver/Src/stm32l4xx_hal_dma.c ****   return status;
 555:../../../core/ST/STM32L4xx_HAL_Driver/Src/stm32l4xx_hal_dma.c **** }
 556:../../../core/ST/STM32L4xx_HAL_Driver/Src/stm32l4xx_hal_dma.c **** 
 557:../../../core/ST/STM32L4xx_HAL_Driver/Src/stm32l4xx_hal_dma.c **** /**
 558:../../../core/ST/STM32L4xx_HAL_Driver/Src/stm32l4xx_hal_dma.c ****   * @brief  Abort the DMA Transfer.
 559:../../../core/ST/STM32L4xx_HAL_Driver/Src/stm32l4xx_hal_dma.c ****   * @param  hdma pointer to a DMA_HandleTypeDef structure that contains
 560:../../../core/ST/STM32L4xx_HAL_Driver/Src/stm32l4xx_hal_dma.c ****   *               the configuration information for the specified DMA Channel.
 561:../../../core/ST/STM32L4xx_HAL_Driver/Src/stm32l4xx_hal_dma.c ****     * @retval HAL status
 562:../../../core/ST/STM32L4xx_HAL_Driver/Src/stm32l4xx_hal_dma.c ****   */
 563:../../../core/ST/STM32L4xx_HAL_Driver/Src/stm32l4xx_hal_dma.c **** HAL_StatusTypeDef HAL_DMA_Abort(DMA_HandleTypeDef *hdma)
 564:../../../core/ST/STM32L4xx_HAL_Driver/Src/stm32l4xx_hal_dma.c **** {
 565:../../../core/ST/STM32L4xx_HAL_Driver/Src/stm32l4xx_hal_dma.c ****   HAL_StatusTypeDef status = HAL_OK;
 566:../../../core/ST/STM32L4xx_HAL_Driver/Src/stm32l4xx_hal_dma.c **** 
 567:../../../core/ST/STM32L4xx_HAL_Driver/Src/stm32l4xx_hal_dma.c ****   /* Check the DMA peripheral handle */
 568:../../../core/ST/STM32L4xx_HAL_Driver/Src/stm32l4xx_hal_dma.c ****   if(NULL == hdma)
 569:../../../core/ST/STM32L4xx_HAL_Driver/Src/stm32l4xx_hal_dma.c ****   {
 570:../../../core/ST/STM32L4xx_HAL_Driver/Src/stm32l4xx_hal_dma.c ****     return HAL_ERROR;
 571:../../../core/ST/STM32L4xx_HAL_Driver/Src/stm32l4xx_hal_dma.c ****   }
 572:../../../core/ST/STM32L4xx_HAL_Driver/Src/stm32l4xx_hal_dma.c **** 
 573:../../../core/ST/STM32L4xx_HAL_Driver/Src/stm32l4xx_hal_dma.c ****   /* Disable DMA IT */
 574:../../../core/ST/STM32L4xx_HAL_Driver/Src/stm32l4xx_hal_dma.c ****   __HAL_DMA_DISABLE_IT(hdma, (DMA_IT_TC | DMA_IT_HT | DMA_IT_TE));
 575:../../../core/ST/STM32L4xx_HAL_Driver/Src/stm32l4xx_hal_dma.c **** 
 576:../../../core/ST/STM32L4xx_HAL_Driver/Src/stm32l4xx_hal_dma.c **** #if defined(DMAMUX1)
 577:../../../core/ST/STM32L4xx_HAL_Driver/Src/stm32l4xx_hal_dma.c ****   /* disable the DMAMUX sync overrun IT*/
 578:../../../core/ST/STM32L4xx_HAL_Driver/Src/stm32l4xx_hal_dma.c ****   hdma->DMAmuxChannel->CCR &= ~DMAMUX_CxCR_SOIE;
 579:../../../core/ST/STM32L4xx_HAL_Driver/Src/stm32l4xx_hal_dma.c **** #endif /* DMAMUX1 */
 580:../../../core/ST/STM32L4xx_HAL_Driver/Src/stm32l4xx_hal_dma.c **** 
 581:../../../core/ST/STM32L4xx_HAL_Driver/Src/stm32l4xx_hal_dma.c ****   /* Disable the channel */
 582:../../../core/ST/STM32L4xx_HAL_Driver/Src/stm32l4xx_hal_dma.c ****   __HAL_DMA_DISABLE(hdma);
 583:../../../core/ST/STM32L4xx_HAL_Driver/Src/stm32l4xx_hal_dma.c **** 
 584:../../../core/ST/STM32L4xx_HAL_Driver/Src/stm32l4xx_hal_dma.c ****   /* Clear all flags */
 585:../../../core/ST/STM32L4xx_HAL_Driver/Src/stm32l4xx_hal_dma.c ****   hdma->DmaBaseAddress->IFCR = (DMA_ISR_GIF1 << (hdma->ChannelIndex & 0x1cU));
 586:../../../core/ST/STM32L4xx_HAL_Driver/Src/stm32l4xx_hal_dma.c **** 
 587:../../../core/ST/STM32L4xx_HAL_Driver/Src/stm32l4xx_hal_dma.c **** #if defined(DMAMUX1)
 588:../../../core/ST/STM32L4xx_HAL_Driver/Src/stm32l4xx_hal_dma.c ****   /* Clear the DMAMUX synchro overrun flag */
 589:../../../core/ST/STM32L4xx_HAL_Driver/Src/stm32l4xx_hal_dma.c ****   hdma->DMAmuxChannelStatus->CFR = hdma->DMAmuxChannelStatusMask;
 590:../../../core/ST/STM32L4xx_HAL_Driver/Src/stm32l4xx_hal_dma.c **** 
 591:../../../core/ST/STM32L4xx_HAL_Driver/Src/stm32l4xx_hal_dma.c ****   if(hdma->DMAmuxRequestGen != 0U)
 592:../../../core/ST/STM32L4xx_HAL_Driver/Src/stm32l4xx_hal_dma.c ****   {
 593:../../../core/ST/STM32L4xx_HAL_Driver/Src/stm32l4xx_hal_dma.c ****     /* if using DMAMUX request generator, disable the DMAMUX request generator overrun IT*/
 594:../../../core/ST/STM32L4xx_HAL_Driver/Src/stm32l4xx_hal_dma.c ****     /* disable the request gen overrun IT*/
 595:../../../core/ST/STM32L4xx_HAL_Driver/Src/stm32l4xx_hal_dma.c ****     hdma->DMAmuxRequestGen->RGCR &= ~DMAMUX_RGxCR_OIE;
 596:../../../core/ST/STM32L4xx_HAL_Driver/Src/stm32l4xx_hal_dma.c **** 
 597:../../../core/ST/STM32L4xx_HAL_Driver/Src/stm32l4xx_hal_dma.c ****     /* Clear the DMAMUX request generator overrun flag */
 598:../../../core/ST/STM32L4xx_HAL_Driver/Src/stm32l4xx_hal_dma.c ****     hdma->DMAmuxRequestGenStatus->RGCFR = hdma->DMAmuxRequestGenStatusMask;
 599:../../../core/ST/STM32L4xx_HAL_Driver/Src/stm32l4xx_hal_dma.c ****   }
 600:../../../core/ST/STM32L4xx_HAL_Driver/Src/stm32l4xx_hal_dma.c **** 
ARM GAS  C:\Users\tijsv\AppData\Local\Temp\cc0UGmBk.s 			page 12


 601:../../../core/ST/STM32L4xx_HAL_Driver/Src/stm32l4xx_hal_dma.c **** #endif /* DMAMUX1 */
 602:../../../core/ST/STM32L4xx_HAL_Driver/Src/stm32l4xx_hal_dma.c **** 
 603:../../../core/ST/STM32L4xx_HAL_Driver/Src/stm32l4xx_hal_dma.c ****   /* Change the DMA state */
 604:../../../core/ST/STM32L4xx_HAL_Driver/Src/stm32l4xx_hal_dma.c ****   hdma->State = HAL_DMA_STATE_READY;
 605:../../../core/ST/STM32L4xx_HAL_Driver/Src/stm32l4xx_hal_dma.c **** 
 606:../../../core/ST/STM32L4xx_HAL_Driver/Src/stm32l4xx_hal_dma.c ****   /* Process Unlocked */
 607:../../../core/ST/STM32L4xx_HAL_Driver/Src/stm32l4xx_hal_dma.c ****   __HAL_UNLOCK(hdma);
 608:../../../core/ST/STM32L4xx_HAL_Driver/Src/stm32l4xx_hal_dma.c **** 
 609:../../../core/ST/STM32L4xx_HAL_Driver/Src/stm32l4xx_hal_dma.c ****   return status;
 610:../../../core/ST/STM32L4xx_HAL_Driver/Src/stm32l4xx_hal_dma.c **** }
 611:../../../core/ST/STM32L4xx_HAL_Driver/Src/stm32l4xx_hal_dma.c **** 
 612:../../../core/ST/STM32L4xx_HAL_Driver/Src/stm32l4xx_hal_dma.c **** /**
 613:../../../core/ST/STM32L4xx_HAL_Driver/Src/stm32l4xx_hal_dma.c ****   * @brief  Aborts the DMA Transfer in Interrupt mode.
 614:../../../core/ST/STM32L4xx_HAL_Driver/Src/stm32l4xx_hal_dma.c ****   * @param  hdma pointer to a DMA_HandleTypeDef structure that contains
 615:../../../core/ST/STM32L4xx_HAL_Driver/Src/stm32l4xx_hal_dma.c ****   *                 the configuration information for the specified DMA Channel.
 616:../../../core/ST/STM32L4xx_HAL_Driver/Src/stm32l4xx_hal_dma.c ****   * @retval HAL status
 617:../../../core/ST/STM32L4xx_HAL_Driver/Src/stm32l4xx_hal_dma.c ****   */
 618:../../../core/ST/STM32L4xx_HAL_Driver/Src/stm32l4xx_hal_dma.c **** HAL_StatusTypeDef HAL_DMA_Abort_IT(DMA_HandleTypeDef *hdma)
 619:../../../core/ST/STM32L4xx_HAL_Driver/Src/stm32l4xx_hal_dma.c **** {
 620:../../../core/ST/STM32L4xx_HAL_Driver/Src/stm32l4xx_hal_dma.c ****   HAL_StatusTypeDef status = HAL_OK;
 621:../../../core/ST/STM32L4xx_HAL_Driver/Src/stm32l4xx_hal_dma.c **** 
 622:../../../core/ST/STM32L4xx_HAL_Driver/Src/stm32l4xx_hal_dma.c ****   if(HAL_DMA_STATE_BUSY != hdma->State)
 623:../../../core/ST/STM32L4xx_HAL_Driver/Src/stm32l4xx_hal_dma.c ****   {
 624:../../../core/ST/STM32L4xx_HAL_Driver/Src/stm32l4xx_hal_dma.c ****     /* no transfer ongoing */
 625:../../../core/ST/STM32L4xx_HAL_Driver/Src/stm32l4xx_hal_dma.c ****     hdma->ErrorCode = HAL_DMA_ERROR_NO_XFER;
 626:../../../core/ST/STM32L4xx_HAL_Driver/Src/stm32l4xx_hal_dma.c **** 
 627:../../../core/ST/STM32L4xx_HAL_Driver/Src/stm32l4xx_hal_dma.c ****     status = HAL_ERROR;
 628:../../../core/ST/STM32L4xx_HAL_Driver/Src/stm32l4xx_hal_dma.c ****   }
 629:../../../core/ST/STM32L4xx_HAL_Driver/Src/stm32l4xx_hal_dma.c ****   else
 630:../../../core/ST/STM32L4xx_HAL_Driver/Src/stm32l4xx_hal_dma.c ****   {
 631:../../../core/ST/STM32L4xx_HAL_Driver/Src/stm32l4xx_hal_dma.c ****     /* Disable DMA IT */
 632:../../../core/ST/STM32L4xx_HAL_Driver/Src/stm32l4xx_hal_dma.c ****     __HAL_DMA_DISABLE_IT(hdma, (DMA_IT_TC | DMA_IT_HT | DMA_IT_TE));
 633:../../../core/ST/STM32L4xx_HAL_Driver/Src/stm32l4xx_hal_dma.c **** 
 634:../../../core/ST/STM32L4xx_HAL_Driver/Src/stm32l4xx_hal_dma.c ****     /* Disable the channel */
 635:../../../core/ST/STM32L4xx_HAL_Driver/Src/stm32l4xx_hal_dma.c ****     __HAL_DMA_DISABLE(hdma);
 636:../../../core/ST/STM32L4xx_HAL_Driver/Src/stm32l4xx_hal_dma.c **** 
 637:../../../core/ST/STM32L4xx_HAL_Driver/Src/stm32l4xx_hal_dma.c **** #if defined(DMAMUX1)
 638:../../../core/ST/STM32L4xx_HAL_Driver/Src/stm32l4xx_hal_dma.c ****     /* disable the DMAMUX sync overrun IT*/
 639:../../../core/ST/STM32L4xx_HAL_Driver/Src/stm32l4xx_hal_dma.c ****     hdma->DMAmuxChannel->CCR &= ~DMAMUX_CxCR_SOIE;
 640:../../../core/ST/STM32L4xx_HAL_Driver/Src/stm32l4xx_hal_dma.c **** 
 641:../../../core/ST/STM32L4xx_HAL_Driver/Src/stm32l4xx_hal_dma.c ****     /* Clear all flags */
 642:../../../core/ST/STM32L4xx_HAL_Driver/Src/stm32l4xx_hal_dma.c ****     hdma->DmaBaseAddress->IFCR = (DMA_ISR_GIF1 << (hdma->ChannelIndex & 0x1cU));
 643:../../../core/ST/STM32L4xx_HAL_Driver/Src/stm32l4xx_hal_dma.c **** 
 644:../../../core/ST/STM32L4xx_HAL_Driver/Src/stm32l4xx_hal_dma.c ****     /* Clear the DMAMUX synchro overrun flag */
 645:../../../core/ST/STM32L4xx_HAL_Driver/Src/stm32l4xx_hal_dma.c ****     hdma->DMAmuxChannelStatus->CFR = hdma->DMAmuxChannelStatusMask;
 646:../../../core/ST/STM32L4xx_HAL_Driver/Src/stm32l4xx_hal_dma.c **** 
 647:../../../core/ST/STM32L4xx_HAL_Driver/Src/stm32l4xx_hal_dma.c ****     if(hdma->DMAmuxRequestGen != 0U)
 648:../../../core/ST/STM32L4xx_HAL_Driver/Src/stm32l4xx_hal_dma.c ****     {
 649:../../../core/ST/STM32L4xx_HAL_Driver/Src/stm32l4xx_hal_dma.c ****       /* if using DMAMUX request generator, disable the DMAMUX request generator overrun IT*/
 650:../../../core/ST/STM32L4xx_HAL_Driver/Src/stm32l4xx_hal_dma.c ****       /* disable the request gen overrun IT*/
 651:../../../core/ST/STM32L4xx_HAL_Driver/Src/stm32l4xx_hal_dma.c ****       hdma->DMAmuxRequestGen->RGCR &= ~DMAMUX_RGxCR_OIE;
 652:../../../core/ST/STM32L4xx_HAL_Driver/Src/stm32l4xx_hal_dma.c **** 
 653:../../../core/ST/STM32L4xx_HAL_Driver/Src/stm32l4xx_hal_dma.c ****       /* Clear the DMAMUX request generator overrun flag */
 654:../../../core/ST/STM32L4xx_HAL_Driver/Src/stm32l4xx_hal_dma.c ****       hdma->DMAmuxRequestGenStatus->RGCFR = hdma->DMAmuxRequestGenStatusMask;
 655:../../../core/ST/STM32L4xx_HAL_Driver/Src/stm32l4xx_hal_dma.c ****     }
 656:../../../core/ST/STM32L4xx_HAL_Driver/Src/stm32l4xx_hal_dma.c **** 
 657:../../../core/ST/STM32L4xx_HAL_Driver/Src/stm32l4xx_hal_dma.c **** #else
ARM GAS  C:\Users\tijsv\AppData\Local\Temp\cc0UGmBk.s 			page 13


 658:../../../core/ST/STM32L4xx_HAL_Driver/Src/stm32l4xx_hal_dma.c ****     /* Clear all flags */
 659:../../../core/ST/STM32L4xx_HAL_Driver/Src/stm32l4xx_hal_dma.c ****     hdma->DmaBaseAddress->IFCR = (DMA_ISR_GIF1 << (hdma->ChannelIndex & 0x1cU));
 660:../../../core/ST/STM32L4xx_HAL_Driver/Src/stm32l4xx_hal_dma.c **** #endif /* DMAMUX1 */
 661:../../../core/ST/STM32L4xx_HAL_Driver/Src/stm32l4xx_hal_dma.c **** 
 662:../../../core/ST/STM32L4xx_HAL_Driver/Src/stm32l4xx_hal_dma.c ****     /* Change the DMA state */
 663:../../../core/ST/STM32L4xx_HAL_Driver/Src/stm32l4xx_hal_dma.c ****     hdma->State = HAL_DMA_STATE_READY;
 664:../../../core/ST/STM32L4xx_HAL_Driver/Src/stm32l4xx_hal_dma.c **** 
 665:../../../core/ST/STM32L4xx_HAL_Driver/Src/stm32l4xx_hal_dma.c ****     /* Process Unlocked */
 666:../../../core/ST/STM32L4xx_HAL_Driver/Src/stm32l4xx_hal_dma.c ****     __HAL_UNLOCK(hdma);
 667:../../../core/ST/STM32L4xx_HAL_Driver/Src/stm32l4xx_hal_dma.c **** 
 668:../../../core/ST/STM32L4xx_HAL_Driver/Src/stm32l4xx_hal_dma.c ****     /* Call User Abort callback */
 669:../../../core/ST/STM32L4xx_HAL_Driver/Src/stm32l4xx_hal_dma.c ****     if(hdma->XferAbortCallback != NULL)
 670:../../../core/ST/STM32L4xx_HAL_Driver/Src/stm32l4xx_hal_dma.c ****     {
 671:../../../core/ST/STM32L4xx_HAL_Driver/Src/stm32l4xx_hal_dma.c ****       hdma->XferAbortCallback(hdma);
 672:../../../core/ST/STM32L4xx_HAL_Driver/Src/stm32l4xx_hal_dma.c ****     }
 673:../../../core/ST/STM32L4xx_HAL_Driver/Src/stm32l4xx_hal_dma.c ****   }
 674:../../../core/ST/STM32L4xx_HAL_Driver/Src/stm32l4xx_hal_dma.c ****   return status;
 675:../../../core/ST/STM32L4xx_HAL_Driver/Src/stm32l4xx_hal_dma.c **** }
 676:../../../core/ST/STM32L4xx_HAL_Driver/Src/stm32l4xx_hal_dma.c **** 
 677:../../../core/ST/STM32L4xx_HAL_Driver/Src/stm32l4xx_hal_dma.c **** /**
 678:../../../core/ST/STM32L4xx_HAL_Driver/Src/stm32l4xx_hal_dma.c ****   * @brief  Polling for transfer complete.
 679:../../../core/ST/STM32L4xx_HAL_Driver/Src/stm32l4xx_hal_dma.c ****   * @param  hdma pointer to a DMA_HandleTypeDef structure that contains
 680:../../../core/ST/STM32L4xx_HAL_Driver/Src/stm32l4xx_hal_dma.c ****   *                  the configuration information for the specified DMA Channel.
 681:../../../core/ST/STM32L4xx_HAL_Driver/Src/stm32l4xx_hal_dma.c ****   * @param  CompleteLevel Specifies the DMA level complete.
 682:../../../core/ST/STM32L4xx_HAL_Driver/Src/stm32l4xx_hal_dma.c ****   * @param  Timeout       Timeout duration.
 683:../../../core/ST/STM32L4xx_HAL_Driver/Src/stm32l4xx_hal_dma.c ****   * @retval HAL status
 684:../../../core/ST/STM32L4xx_HAL_Driver/Src/stm32l4xx_hal_dma.c ****   */
 685:../../../core/ST/STM32L4xx_HAL_Driver/Src/stm32l4xx_hal_dma.c **** HAL_StatusTypeDef HAL_DMA_PollForTransfer(DMA_HandleTypeDef *hdma, HAL_DMA_LevelCompleteTypeDef Com
 686:../../../core/ST/STM32L4xx_HAL_Driver/Src/stm32l4xx_hal_dma.c **** {
 687:../../../core/ST/STM32L4xx_HAL_Driver/Src/stm32l4xx_hal_dma.c ****   uint32_t temp;
 688:../../../core/ST/STM32L4xx_HAL_Driver/Src/stm32l4xx_hal_dma.c ****   uint32_t tickstart;
 689:../../../core/ST/STM32L4xx_HAL_Driver/Src/stm32l4xx_hal_dma.c **** 
 690:../../../core/ST/STM32L4xx_HAL_Driver/Src/stm32l4xx_hal_dma.c ****   if(HAL_DMA_STATE_BUSY != hdma->State)
 691:../../../core/ST/STM32L4xx_HAL_Driver/Src/stm32l4xx_hal_dma.c ****   {
 692:../../../core/ST/STM32L4xx_HAL_Driver/Src/stm32l4xx_hal_dma.c ****     /* no transfer ongoing */
 693:../../../core/ST/STM32L4xx_HAL_Driver/Src/stm32l4xx_hal_dma.c ****     hdma->ErrorCode = HAL_DMA_ERROR_NO_XFER;
 694:../../../core/ST/STM32L4xx_HAL_Driver/Src/stm32l4xx_hal_dma.c ****     __HAL_UNLOCK(hdma);
 695:../../../core/ST/STM32L4xx_HAL_Driver/Src/stm32l4xx_hal_dma.c ****     return HAL_ERROR;
 696:../../../core/ST/STM32L4xx_HAL_Driver/Src/stm32l4xx_hal_dma.c ****   }
 697:../../../core/ST/STM32L4xx_HAL_Driver/Src/stm32l4xx_hal_dma.c **** 
 698:../../../core/ST/STM32L4xx_HAL_Driver/Src/stm32l4xx_hal_dma.c ****   /* Polling mode not supported in circular mode */
 699:../../../core/ST/STM32L4xx_HAL_Driver/Src/stm32l4xx_hal_dma.c ****   if (0U != (hdma->Instance->CCR & DMA_CCR_CIRC))
 700:../../../core/ST/STM32L4xx_HAL_Driver/Src/stm32l4xx_hal_dma.c ****   {
 701:../../../core/ST/STM32L4xx_HAL_Driver/Src/stm32l4xx_hal_dma.c ****     hdma->ErrorCode = HAL_DMA_ERROR_NOT_SUPPORTED;
 702:../../../core/ST/STM32L4xx_HAL_Driver/Src/stm32l4xx_hal_dma.c ****     return HAL_ERROR;
 703:../../../core/ST/STM32L4xx_HAL_Driver/Src/stm32l4xx_hal_dma.c ****   }
 704:../../../core/ST/STM32L4xx_HAL_Driver/Src/stm32l4xx_hal_dma.c **** 
 705:../../../core/ST/STM32L4xx_HAL_Driver/Src/stm32l4xx_hal_dma.c ****   /* Get the level transfer complete flag */
 706:../../../core/ST/STM32L4xx_HAL_Driver/Src/stm32l4xx_hal_dma.c ****   if (HAL_DMA_FULL_TRANSFER == CompleteLevel)
 707:../../../core/ST/STM32L4xx_HAL_Driver/Src/stm32l4xx_hal_dma.c ****   {
 708:../../../core/ST/STM32L4xx_HAL_Driver/Src/stm32l4xx_hal_dma.c ****     /* Transfer Complete flag */
 709:../../../core/ST/STM32L4xx_HAL_Driver/Src/stm32l4xx_hal_dma.c ****     temp = DMA_FLAG_TC1 << (hdma->ChannelIndex & 0x1cU);
 710:../../../core/ST/STM32L4xx_HAL_Driver/Src/stm32l4xx_hal_dma.c ****   }
 711:../../../core/ST/STM32L4xx_HAL_Driver/Src/stm32l4xx_hal_dma.c ****   else
 712:../../../core/ST/STM32L4xx_HAL_Driver/Src/stm32l4xx_hal_dma.c ****   {
 713:../../../core/ST/STM32L4xx_HAL_Driver/Src/stm32l4xx_hal_dma.c ****     /* Half Transfer Complete flag */
 714:../../../core/ST/STM32L4xx_HAL_Driver/Src/stm32l4xx_hal_dma.c ****     temp = DMA_FLAG_HT1 << (hdma->ChannelIndex & 0x1cU);
ARM GAS  C:\Users\tijsv\AppData\Local\Temp\cc0UGmBk.s 			page 14


 715:../../../core/ST/STM32L4xx_HAL_Driver/Src/stm32l4xx_hal_dma.c ****   }
 716:../../../core/ST/STM32L4xx_HAL_Driver/Src/stm32l4xx_hal_dma.c **** 
 717:../../../core/ST/STM32L4xx_HAL_Driver/Src/stm32l4xx_hal_dma.c ****   /* Get tick */
 718:../../../core/ST/STM32L4xx_HAL_Driver/Src/stm32l4xx_hal_dma.c ****   tickstart = HAL_GetTick();
 719:../../../core/ST/STM32L4xx_HAL_Driver/Src/stm32l4xx_hal_dma.c **** 
 720:../../../core/ST/STM32L4xx_HAL_Driver/Src/stm32l4xx_hal_dma.c ****   while(0U == (hdma->DmaBaseAddress->ISR & temp))
 721:../../../core/ST/STM32L4xx_HAL_Driver/Src/stm32l4xx_hal_dma.c ****   {
 722:../../../core/ST/STM32L4xx_HAL_Driver/Src/stm32l4xx_hal_dma.c ****     if((0U != (hdma->DmaBaseAddress->ISR & (DMA_FLAG_TE1 << (hdma->ChannelIndex& 0x1cU)))))
 723:../../../core/ST/STM32L4xx_HAL_Driver/Src/stm32l4xx_hal_dma.c ****     {
 724:../../../core/ST/STM32L4xx_HAL_Driver/Src/stm32l4xx_hal_dma.c ****       /* When a DMA transfer error occurs */
 725:../../../core/ST/STM32L4xx_HAL_Driver/Src/stm32l4xx_hal_dma.c ****       /* A hardware clear of its EN bits is performed */
 726:../../../core/ST/STM32L4xx_HAL_Driver/Src/stm32l4xx_hal_dma.c ****       /* Clear all flags */
 727:../../../core/ST/STM32L4xx_HAL_Driver/Src/stm32l4xx_hal_dma.c ****       hdma->DmaBaseAddress->IFCR = (DMA_ISR_GIF1 << (hdma->ChannelIndex & 0x1cU));
 728:../../../core/ST/STM32L4xx_HAL_Driver/Src/stm32l4xx_hal_dma.c **** 
 729:../../../core/ST/STM32L4xx_HAL_Driver/Src/stm32l4xx_hal_dma.c ****       /* Update error code */
 730:../../../core/ST/STM32L4xx_HAL_Driver/Src/stm32l4xx_hal_dma.c ****       hdma->ErrorCode = HAL_DMA_ERROR_TE;
 731:../../../core/ST/STM32L4xx_HAL_Driver/Src/stm32l4xx_hal_dma.c **** 
 732:../../../core/ST/STM32L4xx_HAL_Driver/Src/stm32l4xx_hal_dma.c ****       /* Change the DMA state */
 733:../../../core/ST/STM32L4xx_HAL_Driver/Src/stm32l4xx_hal_dma.c ****       hdma->State= HAL_DMA_STATE_READY;
 734:../../../core/ST/STM32L4xx_HAL_Driver/Src/stm32l4xx_hal_dma.c **** 
 735:../../../core/ST/STM32L4xx_HAL_Driver/Src/stm32l4xx_hal_dma.c ****       /* Process Unlocked */
 736:../../../core/ST/STM32L4xx_HAL_Driver/Src/stm32l4xx_hal_dma.c ****       __HAL_UNLOCK(hdma);
 737:../../../core/ST/STM32L4xx_HAL_Driver/Src/stm32l4xx_hal_dma.c **** 
 738:../../../core/ST/STM32L4xx_HAL_Driver/Src/stm32l4xx_hal_dma.c ****       return HAL_ERROR;
 739:../../../core/ST/STM32L4xx_HAL_Driver/Src/stm32l4xx_hal_dma.c ****     }
 740:../../../core/ST/STM32L4xx_HAL_Driver/Src/stm32l4xx_hal_dma.c ****     /* Check for the Timeout */
 741:../../../core/ST/STM32L4xx_HAL_Driver/Src/stm32l4xx_hal_dma.c ****     if(Timeout != HAL_MAX_DELAY)
 742:../../../core/ST/STM32L4xx_HAL_Driver/Src/stm32l4xx_hal_dma.c ****     {
 743:../../../core/ST/STM32L4xx_HAL_Driver/Src/stm32l4xx_hal_dma.c ****       if(((HAL_GetTick() - tickstart) > Timeout) ||  (Timeout == 0U))
 744:../../../core/ST/STM32L4xx_HAL_Driver/Src/stm32l4xx_hal_dma.c ****       {
 745:../../../core/ST/STM32L4xx_HAL_Driver/Src/stm32l4xx_hal_dma.c ****         /* Update error code */
 746:../../../core/ST/STM32L4xx_HAL_Driver/Src/stm32l4xx_hal_dma.c ****         hdma->ErrorCode = HAL_DMA_ERROR_TIMEOUT;
 747:../../../core/ST/STM32L4xx_HAL_Driver/Src/stm32l4xx_hal_dma.c **** 
 748:../../../core/ST/STM32L4xx_HAL_Driver/Src/stm32l4xx_hal_dma.c ****         /* Change the DMA state */
 749:../../../core/ST/STM32L4xx_HAL_Driver/Src/stm32l4xx_hal_dma.c ****         hdma->State = HAL_DMA_STATE_READY;
 750:../../../core/ST/STM32L4xx_HAL_Driver/Src/stm32l4xx_hal_dma.c **** 
 751:../../../core/ST/STM32L4xx_HAL_Driver/Src/stm32l4xx_hal_dma.c ****         /* Process Unlocked */
 752:../../../core/ST/STM32L4xx_HAL_Driver/Src/stm32l4xx_hal_dma.c ****         __HAL_UNLOCK(hdma);
 753:../../../core/ST/STM32L4xx_HAL_Driver/Src/stm32l4xx_hal_dma.c **** 
 754:../../../core/ST/STM32L4xx_HAL_Driver/Src/stm32l4xx_hal_dma.c ****         return HAL_ERROR;
 755:../../../core/ST/STM32L4xx_HAL_Driver/Src/stm32l4xx_hal_dma.c ****       }
 756:../../../core/ST/STM32L4xx_HAL_Driver/Src/stm32l4xx_hal_dma.c ****     }
 757:../../../core/ST/STM32L4xx_HAL_Driver/Src/stm32l4xx_hal_dma.c ****   }
 758:../../../core/ST/STM32L4xx_HAL_Driver/Src/stm32l4xx_hal_dma.c **** 
 759:../../../core/ST/STM32L4xx_HAL_Driver/Src/stm32l4xx_hal_dma.c **** #if defined(DMAMUX1)
 760:../../../core/ST/STM32L4xx_HAL_Driver/Src/stm32l4xx_hal_dma.c ****   /*Check for DMAMUX Request generator (if used) overrun status */
 761:../../../core/ST/STM32L4xx_HAL_Driver/Src/stm32l4xx_hal_dma.c ****   if(hdma->DMAmuxRequestGen != 0U)
 762:../../../core/ST/STM32L4xx_HAL_Driver/Src/stm32l4xx_hal_dma.c ****   {
 763:../../../core/ST/STM32L4xx_HAL_Driver/Src/stm32l4xx_hal_dma.c ****     /* if using DMAMUX request generator Check for DMAMUX request generator overrun */
 764:../../../core/ST/STM32L4xx_HAL_Driver/Src/stm32l4xx_hal_dma.c ****     if((hdma->DMAmuxRequestGenStatus->RGSR & hdma->DMAmuxRequestGenStatusMask) != 0U)
 765:../../../core/ST/STM32L4xx_HAL_Driver/Src/stm32l4xx_hal_dma.c ****     {
 766:../../../core/ST/STM32L4xx_HAL_Driver/Src/stm32l4xx_hal_dma.c ****       /* Disable the request gen overrun interrupt */
 767:../../../core/ST/STM32L4xx_HAL_Driver/Src/stm32l4xx_hal_dma.c ****       hdma->DMAmuxRequestGen->RGCR |= DMAMUX_RGxCR_OIE;
 768:../../../core/ST/STM32L4xx_HAL_Driver/Src/stm32l4xx_hal_dma.c **** 
 769:../../../core/ST/STM32L4xx_HAL_Driver/Src/stm32l4xx_hal_dma.c ****       /* Clear the DMAMUX request generator overrun flag */
 770:../../../core/ST/STM32L4xx_HAL_Driver/Src/stm32l4xx_hal_dma.c ****       hdma->DMAmuxRequestGenStatus->RGCFR = hdma->DMAmuxRequestGenStatusMask;
 771:../../../core/ST/STM32L4xx_HAL_Driver/Src/stm32l4xx_hal_dma.c **** 
ARM GAS  C:\Users\tijsv\AppData\Local\Temp\cc0UGmBk.s 			page 15


 772:../../../core/ST/STM32L4xx_HAL_Driver/Src/stm32l4xx_hal_dma.c ****       /* Update error code */
 773:../../../core/ST/STM32L4xx_HAL_Driver/Src/stm32l4xx_hal_dma.c ****       hdma->ErrorCode |= HAL_DMA_ERROR_REQGEN;
 774:../../../core/ST/STM32L4xx_HAL_Driver/Src/stm32l4xx_hal_dma.c ****     }
 775:../../../core/ST/STM32L4xx_HAL_Driver/Src/stm32l4xx_hal_dma.c ****   }
 776:../../../core/ST/STM32L4xx_HAL_Driver/Src/stm32l4xx_hal_dma.c **** 
 777:../../../core/ST/STM32L4xx_HAL_Driver/Src/stm32l4xx_hal_dma.c ****   /* Check for DMAMUX Synchronization overrun */
 778:../../../core/ST/STM32L4xx_HAL_Driver/Src/stm32l4xx_hal_dma.c ****   if((hdma->DMAmuxChannelStatus->CSR & hdma->DMAmuxChannelStatusMask) != 0U)
 779:../../../core/ST/STM32L4xx_HAL_Driver/Src/stm32l4xx_hal_dma.c ****   {
 780:../../../core/ST/STM32L4xx_HAL_Driver/Src/stm32l4xx_hal_dma.c ****     /* Clear the DMAMUX synchro overrun flag */
 781:../../../core/ST/STM32L4xx_HAL_Driver/Src/stm32l4xx_hal_dma.c ****     hdma->DMAmuxChannelStatus->CFR = hdma->DMAmuxChannelStatusMask;
 782:../../../core/ST/STM32L4xx_HAL_Driver/Src/stm32l4xx_hal_dma.c **** 
 783:../../../core/ST/STM32L4xx_HAL_Driver/Src/stm32l4xx_hal_dma.c ****     /* Update error code */
 784:../../../core/ST/STM32L4xx_HAL_Driver/Src/stm32l4xx_hal_dma.c ****     hdma->ErrorCode |= HAL_DMA_ERROR_SYNC;
 785:../../../core/ST/STM32L4xx_HAL_Driver/Src/stm32l4xx_hal_dma.c ****   }
 786:../../../core/ST/STM32L4xx_HAL_Driver/Src/stm32l4xx_hal_dma.c **** #endif /* DMAMUX1 */
 787:../../../core/ST/STM32L4xx_HAL_Driver/Src/stm32l4xx_hal_dma.c **** 
 788:../../../core/ST/STM32L4xx_HAL_Driver/Src/stm32l4xx_hal_dma.c ****   if(HAL_DMA_FULL_TRANSFER == CompleteLevel)
 789:../../../core/ST/STM32L4xx_HAL_Driver/Src/stm32l4xx_hal_dma.c ****   {
 790:../../../core/ST/STM32L4xx_HAL_Driver/Src/stm32l4xx_hal_dma.c ****     /* Clear the transfer complete flag */
 791:../../../core/ST/STM32L4xx_HAL_Driver/Src/stm32l4xx_hal_dma.c ****     hdma->DmaBaseAddress->IFCR = (DMA_FLAG_TC1 << (hdma->ChannelIndex& 0x1cU));
 792:../../../core/ST/STM32L4xx_HAL_Driver/Src/stm32l4xx_hal_dma.c **** 
 793:../../../core/ST/STM32L4xx_HAL_Driver/Src/stm32l4xx_hal_dma.c ****     /* The selected Channelx EN bit is cleared (DMA is disabled and
 794:../../../core/ST/STM32L4xx_HAL_Driver/Src/stm32l4xx_hal_dma.c ****     all transfers are complete) */
 795:../../../core/ST/STM32L4xx_HAL_Driver/Src/stm32l4xx_hal_dma.c ****     hdma->State = HAL_DMA_STATE_READY;
 796:../../../core/ST/STM32L4xx_HAL_Driver/Src/stm32l4xx_hal_dma.c ****   }
 797:../../../core/ST/STM32L4xx_HAL_Driver/Src/stm32l4xx_hal_dma.c ****   else
 798:../../../core/ST/STM32L4xx_HAL_Driver/Src/stm32l4xx_hal_dma.c ****   {
 799:../../../core/ST/STM32L4xx_HAL_Driver/Src/stm32l4xx_hal_dma.c ****     /* Clear the half transfer complete flag */
 800:../../../core/ST/STM32L4xx_HAL_Driver/Src/stm32l4xx_hal_dma.c ****     hdma->DmaBaseAddress->IFCR = (DMA_FLAG_HT1 << (hdma->ChannelIndex & 0x1cU));
 801:../../../core/ST/STM32L4xx_HAL_Driver/Src/stm32l4xx_hal_dma.c ****   }
 802:../../../core/ST/STM32L4xx_HAL_Driver/Src/stm32l4xx_hal_dma.c **** 
 803:../../../core/ST/STM32L4xx_HAL_Driver/Src/stm32l4xx_hal_dma.c ****   /* Process unlocked */
 804:../../../core/ST/STM32L4xx_HAL_Driver/Src/stm32l4xx_hal_dma.c ****   __HAL_UNLOCK(hdma);
 805:../../../core/ST/STM32L4xx_HAL_Driver/Src/stm32l4xx_hal_dma.c **** 
 806:../../../core/ST/STM32L4xx_HAL_Driver/Src/stm32l4xx_hal_dma.c ****   return HAL_OK;
 807:../../../core/ST/STM32L4xx_HAL_Driver/Src/stm32l4xx_hal_dma.c **** }
 808:../../../core/ST/STM32L4xx_HAL_Driver/Src/stm32l4xx_hal_dma.c **** 
 809:../../../core/ST/STM32L4xx_HAL_Driver/Src/stm32l4xx_hal_dma.c **** /**
 810:../../../core/ST/STM32L4xx_HAL_Driver/Src/stm32l4xx_hal_dma.c ****   * @brief  Handle DMA interrupt request.
 811:../../../core/ST/STM32L4xx_HAL_Driver/Src/stm32l4xx_hal_dma.c ****   * @param  hdma pointer to a DMA_HandleTypeDef structure that contains
 812:../../../core/ST/STM32L4xx_HAL_Driver/Src/stm32l4xx_hal_dma.c ****   *               the configuration information for the specified DMA Channel.
 813:../../../core/ST/STM32L4xx_HAL_Driver/Src/stm32l4xx_hal_dma.c ****   * @retval None
 814:../../../core/ST/STM32L4xx_HAL_Driver/Src/stm32l4xx_hal_dma.c ****   */
 815:../../../core/ST/STM32L4xx_HAL_Driver/Src/stm32l4xx_hal_dma.c **** void HAL_DMA_IRQHandler(DMA_HandleTypeDef *hdma)
 816:../../../core/ST/STM32L4xx_HAL_Driver/Src/stm32l4xx_hal_dma.c **** {
 817:../../../core/ST/STM32L4xx_HAL_Driver/Src/stm32l4xx_hal_dma.c ****   uint32_t flag_it = hdma->DmaBaseAddress->ISR;
 818:../../../core/ST/STM32L4xx_HAL_Driver/Src/stm32l4xx_hal_dma.c ****   uint32_t source_it = hdma->Instance->CCR;
 819:../../../core/ST/STM32L4xx_HAL_Driver/Src/stm32l4xx_hal_dma.c **** 
 820:../../../core/ST/STM32L4xx_HAL_Driver/Src/stm32l4xx_hal_dma.c ****   /* Half Transfer Complete Interrupt management ******************************/
 821:../../../core/ST/STM32L4xx_HAL_Driver/Src/stm32l4xx_hal_dma.c ****   if ((0U != (flag_it & (DMA_FLAG_HT1 << (hdma->ChannelIndex & 0x1cU)))) && (0U != (source_it & DMA
 822:../../../core/ST/STM32L4xx_HAL_Driver/Src/stm32l4xx_hal_dma.c ****   {
 823:../../../core/ST/STM32L4xx_HAL_Driver/Src/stm32l4xx_hal_dma.c ****       /* Disable the half transfer interrupt if the DMA mode is not CIRCULAR */
 824:../../../core/ST/STM32L4xx_HAL_Driver/Src/stm32l4xx_hal_dma.c ****       if((hdma->Instance->CCR & DMA_CCR_CIRC) == 0U)
 825:../../../core/ST/STM32L4xx_HAL_Driver/Src/stm32l4xx_hal_dma.c ****       {
 826:../../../core/ST/STM32L4xx_HAL_Driver/Src/stm32l4xx_hal_dma.c ****         /* Disable the half transfer interrupt */
 827:../../../core/ST/STM32L4xx_HAL_Driver/Src/stm32l4xx_hal_dma.c ****         __HAL_DMA_DISABLE_IT(hdma, DMA_IT_HT);
 828:../../../core/ST/STM32L4xx_HAL_Driver/Src/stm32l4xx_hal_dma.c ****       }
ARM GAS  C:\Users\tijsv\AppData\Local\Temp\cc0UGmBk.s 			page 16


 829:../../../core/ST/STM32L4xx_HAL_Driver/Src/stm32l4xx_hal_dma.c ****       /* Clear the half transfer complete flag */
 830:../../../core/ST/STM32L4xx_HAL_Driver/Src/stm32l4xx_hal_dma.c ****       hdma->DmaBaseAddress->IFCR = DMA_ISR_HTIF1 << (hdma->ChannelIndex & 0x1cU);
 831:../../../core/ST/STM32L4xx_HAL_Driver/Src/stm32l4xx_hal_dma.c **** 
 832:../../../core/ST/STM32L4xx_HAL_Driver/Src/stm32l4xx_hal_dma.c ****       /* DMA peripheral state is not updated in Half Transfer */
 833:../../../core/ST/STM32L4xx_HAL_Driver/Src/stm32l4xx_hal_dma.c ****       /* but in Transfer Complete case */
 834:../../../core/ST/STM32L4xx_HAL_Driver/Src/stm32l4xx_hal_dma.c **** 
 835:../../../core/ST/STM32L4xx_HAL_Driver/Src/stm32l4xx_hal_dma.c ****      if(hdma->XferHalfCpltCallback != NULL)
 836:../../../core/ST/STM32L4xx_HAL_Driver/Src/stm32l4xx_hal_dma.c ****       {
 837:../../../core/ST/STM32L4xx_HAL_Driver/Src/stm32l4xx_hal_dma.c ****         /* Half transfer callback */
 838:../../../core/ST/STM32L4xx_HAL_Driver/Src/stm32l4xx_hal_dma.c ****         hdma->XferHalfCpltCallback(hdma);
 839:../../../core/ST/STM32L4xx_HAL_Driver/Src/stm32l4xx_hal_dma.c ****       }
 840:../../../core/ST/STM32L4xx_HAL_Driver/Src/stm32l4xx_hal_dma.c ****   }
 841:../../../core/ST/STM32L4xx_HAL_Driver/Src/stm32l4xx_hal_dma.c **** 
 842:../../../core/ST/STM32L4xx_HAL_Driver/Src/stm32l4xx_hal_dma.c ****   /* Transfer Complete Interrupt management ***********************************/
 843:../../../core/ST/STM32L4xx_HAL_Driver/Src/stm32l4xx_hal_dma.c ****   else if ((0U != (flag_it & (DMA_FLAG_TC1 << (hdma->ChannelIndex & 0x1cU)))) && (0U != (source_it 
 844:../../../core/ST/STM32L4xx_HAL_Driver/Src/stm32l4xx_hal_dma.c ****   {
 845:../../../core/ST/STM32L4xx_HAL_Driver/Src/stm32l4xx_hal_dma.c ****     if((hdma->Instance->CCR & DMA_CCR_CIRC) == 0U)
 846:../../../core/ST/STM32L4xx_HAL_Driver/Src/stm32l4xx_hal_dma.c ****     {
 847:../../../core/ST/STM32L4xx_HAL_Driver/Src/stm32l4xx_hal_dma.c ****       /* Disable the transfer complete and error interrupt */
 848:../../../core/ST/STM32L4xx_HAL_Driver/Src/stm32l4xx_hal_dma.c ****       __HAL_DMA_DISABLE_IT(hdma, DMA_IT_TE | DMA_IT_TC);
 849:../../../core/ST/STM32L4xx_HAL_Driver/Src/stm32l4xx_hal_dma.c **** 
 850:../../../core/ST/STM32L4xx_HAL_Driver/Src/stm32l4xx_hal_dma.c ****       /* Change the DMA state */
 851:../../../core/ST/STM32L4xx_HAL_Driver/Src/stm32l4xx_hal_dma.c ****       hdma->State = HAL_DMA_STATE_READY;
 852:../../../core/ST/STM32L4xx_HAL_Driver/Src/stm32l4xx_hal_dma.c ****     }
 853:../../../core/ST/STM32L4xx_HAL_Driver/Src/stm32l4xx_hal_dma.c ****     /* Clear the transfer complete flag */
 854:../../../core/ST/STM32L4xx_HAL_Driver/Src/stm32l4xx_hal_dma.c ****     hdma->DmaBaseAddress->IFCR = (DMA_ISR_TCIF1 << (hdma->ChannelIndex & 0x1cU));
 855:../../../core/ST/STM32L4xx_HAL_Driver/Src/stm32l4xx_hal_dma.c **** 
 856:../../../core/ST/STM32L4xx_HAL_Driver/Src/stm32l4xx_hal_dma.c ****     /* Process Unlocked */
 857:../../../core/ST/STM32L4xx_HAL_Driver/Src/stm32l4xx_hal_dma.c ****     __HAL_UNLOCK(hdma);
 858:../../../core/ST/STM32L4xx_HAL_Driver/Src/stm32l4xx_hal_dma.c **** 
 859:../../../core/ST/STM32L4xx_HAL_Driver/Src/stm32l4xx_hal_dma.c ****     if(hdma->XferCpltCallback != NULL)
 860:../../../core/ST/STM32L4xx_HAL_Driver/Src/stm32l4xx_hal_dma.c ****     {
 861:../../../core/ST/STM32L4xx_HAL_Driver/Src/stm32l4xx_hal_dma.c ****       /* Transfer complete callback */
 862:../../../core/ST/STM32L4xx_HAL_Driver/Src/stm32l4xx_hal_dma.c ****       hdma->XferCpltCallback(hdma);
 863:../../../core/ST/STM32L4xx_HAL_Driver/Src/stm32l4xx_hal_dma.c ****     }
 864:../../../core/ST/STM32L4xx_HAL_Driver/Src/stm32l4xx_hal_dma.c ****   }
 865:../../../core/ST/STM32L4xx_HAL_Driver/Src/stm32l4xx_hal_dma.c **** 
 866:../../../core/ST/STM32L4xx_HAL_Driver/Src/stm32l4xx_hal_dma.c ****   /* Transfer Error Interrupt management **************************************/
 867:../../../core/ST/STM32L4xx_HAL_Driver/Src/stm32l4xx_hal_dma.c ****   else if ((0U != (flag_it & (DMA_FLAG_TE1 << (hdma->ChannelIndex & 0x1cU)))) && (0U != (source_it 
 868:../../../core/ST/STM32L4xx_HAL_Driver/Src/stm32l4xx_hal_dma.c ****   {
 869:../../../core/ST/STM32L4xx_HAL_Driver/Src/stm32l4xx_hal_dma.c ****     /* When a DMA transfer error occurs */
 870:../../../core/ST/STM32L4xx_HAL_Driver/Src/stm32l4xx_hal_dma.c ****     /* A hardware clear of its EN bits is performed */
 871:../../../core/ST/STM32L4xx_HAL_Driver/Src/stm32l4xx_hal_dma.c ****     /* Disable ALL DMA IT */
 872:../../../core/ST/STM32L4xx_HAL_Driver/Src/stm32l4xx_hal_dma.c ****     __HAL_DMA_DISABLE_IT(hdma, (DMA_IT_TC | DMA_IT_HT | DMA_IT_TE));
 873:../../../core/ST/STM32L4xx_HAL_Driver/Src/stm32l4xx_hal_dma.c **** 
 874:../../../core/ST/STM32L4xx_HAL_Driver/Src/stm32l4xx_hal_dma.c ****     /* Clear all flags */
 875:../../../core/ST/STM32L4xx_HAL_Driver/Src/stm32l4xx_hal_dma.c ****     hdma->DmaBaseAddress->IFCR = (DMA_ISR_GIF1 << (hdma->ChannelIndex & 0x1cU));
 876:../../../core/ST/STM32L4xx_HAL_Driver/Src/stm32l4xx_hal_dma.c **** 
 877:../../../core/ST/STM32L4xx_HAL_Driver/Src/stm32l4xx_hal_dma.c ****     /* Update error code */
 878:../../../core/ST/STM32L4xx_HAL_Driver/Src/stm32l4xx_hal_dma.c ****     hdma->ErrorCode = HAL_DMA_ERROR_TE;
 879:../../../core/ST/STM32L4xx_HAL_Driver/Src/stm32l4xx_hal_dma.c **** 
 880:../../../core/ST/STM32L4xx_HAL_Driver/Src/stm32l4xx_hal_dma.c ****     /* Change the DMA state */
 881:../../../core/ST/STM32L4xx_HAL_Driver/Src/stm32l4xx_hal_dma.c ****     hdma->State = HAL_DMA_STATE_READY;
 882:../../../core/ST/STM32L4xx_HAL_Driver/Src/stm32l4xx_hal_dma.c **** 
 883:../../../core/ST/STM32L4xx_HAL_Driver/Src/stm32l4xx_hal_dma.c ****     /* Process Unlocked */
 884:../../../core/ST/STM32L4xx_HAL_Driver/Src/stm32l4xx_hal_dma.c ****     __HAL_UNLOCK(hdma);
 885:../../../core/ST/STM32L4xx_HAL_Driver/Src/stm32l4xx_hal_dma.c **** 
ARM GAS  C:\Users\tijsv\AppData\Local\Temp\cc0UGmBk.s 			page 17


 886:../../../core/ST/STM32L4xx_HAL_Driver/Src/stm32l4xx_hal_dma.c ****     if (hdma->XferErrorCallback != NULL)
 887:../../../core/ST/STM32L4xx_HAL_Driver/Src/stm32l4xx_hal_dma.c ****     {
 888:../../../core/ST/STM32L4xx_HAL_Driver/Src/stm32l4xx_hal_dma.c ****       /* Transfer error callback */
 889:../../../core/ST/STM32L4xx_HAL_Driver/Src/stm32l4xx_hal_dma.c ****       hdma->XferErrorCallback(hdma);
 890:../../../core/ST/STM32L4xx_HAL_Driver/Src/stm32l4xx_hal_dma.c ****     }
 891:../../../core/ST/STM32L4xx_HAL_Driver/Src/stm32l4xx_hal_dma.c ****   }
 892:../../../core/ST/STM32L4xx_HAL_Driver/Src/stm32l4xx_hal_dma.c ****   else
 893:../../../core/ST/STM32L4xx_HAL_Driver/Src/stm32l4xx_hal_dma.c ****   {
 894:../../../core/ST/STM32L4xx_HAL_Driver/Src/stm32l4xx_hal_dma.c ****     /* Nothing To Do */
 895:../../../core/ST/STM32L4xx_HAL_Driver/Src/stm32l4xx_hal_dma.c ****   }
 896:../../../core/ST/STM32L4xx_HAL_Driver/Src/stm32l4xx_hal_dma.c ****   return;
 897:../../../core/ST/STM32L4xx_HAL_Driver/Src/stm32l4xx_hal_dma.c **** }
 898:../../../core/ST/STM32L4xx_HAL_Driver/Src/stm32l4xx_hal_dma.c **** 
 899:../../../core/ST/STM32L4xx_HAL_Driver/Src/stm32l4xx_hal_dma.c **** /**
 900:../../../core/ST/STM32L4xx_HAL_Driver/Src/stm32l4xx_hal_dma.c ****   * @brief  Register callbacks
 901:../../../core/ST/STM32L4xx_HAL_Driver/Src/stm32l4xx_hal_dma.c ****   * @param  hdma                 pointer to a DMA_HandleTypeDef structure that contains
 902:../../../core/ST/STM32L4xx_HAL_Driver/Src/stm32l4xx_hal_dma.c ****   *                               the configuration information for the specified DMA Channel.
 903:../../../core/ST/STM32L4xx_HAL_Driver/Src/stm32l4xx_hal_dma.c ****   * @param  CallbackID           User Callback identifer
 904:../../../core/ST/STM32L4xx_HAL_Driver/Src/stm32l4xx_hal_dma.c ****   *                               a HAL_DMA_CallbackIDTypeDef ENUM as parameter.
 905:../../../core/ST/STM32L4xx_HAL_Driver/Src/stm32l4xx_hal_dma.c ****   * @param  pCallback            pointer to private callbacsk function which has pointer to
 906:../../../core/ST/STM32L4xx_HAL_Driver/Src/stm32l4xx_hal_dma.c ****   *                               a DMA_HandleTypeDef structure as parameter.
 907:../../../core/ST/STM32L4xx_HAL_Driver/Src/stm32l4xx_hal_dma.c ****   * @retval HAL status
 908:../../../core/ST/STM32L4xx_HAL_Driver/Src/stm32l4xx_hal_dma.c ****   */
 909:../../../core/ST/STM32L4xx_HAL_Driver/Src/stm32l4xx_hal_dma.c **** HAL_StatusTypeDef HAL_DMA_RegisterCallback(DMA_HandleTypeDef *hdma, HAL_DMA_CallbackIDTypeDef Callb
 910:../../../core/ST/STM32L4xx_HAL_Driver/Src/stm32l4xx_hal_dma.c **** {
 911:../../../core/ST/STM32L4xx_HAL_Driver/Src/stm32l4xx_hal_dma.c ****   HAL_StatusTypeDef status = HAL_OK;
 912:../../../core/ST/STM32L4xx_HAL_Driver/Src/stm32l4xx_hal_dma.c **** 
 913:../../../core/ST/STM32L4xx_HAL_Driver/Src/stm32l4xx_hal_dma.c ****   /* Process locked */
 914:../../../core/ST/STM32L4xx_HAL_Driver/Src/stm32l4xx_hal_dma.c ****   __HAL_LOCK(hdma);
 915:../../../core/ST/STM32L4xx_HAL_Driver/Src/stm32l4xx_hal_dma.c **** 
 916:../../../core/ST/STM32L4xx_HAL_Driver/Src/stm32l4xx_hal_dma.c ****   if(HAL_DMA_STATE_READY == hdma->State)
 917:../../../core/ST/STM32L4xx_HAL_Driver/Src/stm32l4xx_hal_dma.c ****   {
 918:../../../core/ST/STM32L4xx_HAL_Driver/Src/stm32l4xx_hal_dma.c ****     switch (CallbackID)
 919:../../../core/ST/STM32L4xx_HAL_Driver/Src/stm32l4xx_hal_dma.c ****     {
 920:../../../core/ST/STM32L4xx_HAL_Driver/Src/stm32l4xx_hal_dma.c ****      case  HAL_DMA_XFER_CPLT_CB_ID:
 921:../../../core/ST/STM32L4xx_HAL_Driver/Src/stm32l4xx_hal_dma.c ****            hdma->XferCpltCallback = pCallback;
 922:../../../core/ST/STM32L4xx_HAL_Driver/Src/stm32l4xx_hal_dma.c ****            break;
 923:../../../core/ST/STM32L4xx_HAL_Driver/Src/stm32l4xx_hal_dma.c **** 
 924:../../../core/ST/STM32L4xx_HAL_Driver/Src/stm32l4xx_hal_dma.c ****      case  HAL_DMA_XFER_HALFCPLT_CB_ID:
 925:../../../core/ST/STM32L4xx_HAL_Driver/Src/stm32l4xx_hal_dma.c ****            hdma->XferHalfCpltCallback = pCallback;
 926:../../../core/ST/STM32L4xx_HAL_Driver/Src/stm32l4xx_hal_dma.c ****            break;
 927:../../../core/ST/STM32L4xx_HAL_Driver/Src/stm32l4xx_hal_dma.c **** 
 928:../../../core/ST/STM32L4xx_HAL_Driver/Src/stm32l4xx_hal_dma.c ****      case  HAL_DMA_XFER_ERROR_CB_ID:
 929:../../../core/ST/STM32L4xx_HAL_Driver/Src/stm32l4xx_hal_dma.c ****            hdma->XferErrorCallback = pCallback;
 930:../../../core/ST/STM32L4xx_HAL_Driver/Src/stm32l4xx_hal_dma.c ****            break;
 931:../../../core/ST/STM32L4xx_HAL_Driver/Src/stm32l4xx_hal_dma.c **** 
 932:../../../core/ST/STM32L4xx_HAL_Driver/Src/stm32l4xx_hal_dma.c ****      case  HAL_DMA_XFER_ABORT_CB_ID:
 933:../../../core/ST/STM32L4xx_HAL_Driver/Src/stm32l4xx_hal_dma.c ****            hdma->XferAbortCallback = pCallback;
 934:../../../core/ST/STM32L4xx_HAL_Driver/Src/stm32l4xx_hal_dma.c ****            break;
 935:../../../core/ST/STM32L4xx_HAL_Driver/Src/stm32l4xx_hal_dma.c **** 
 936:../../../core/ST/STM32L4xx_HAL_Driver/Src/stm32l4xx_hal_dma.c ****      default:
 937:../../../core/ST/STM32L4xx_HAL_Driver/Src/stm32l4xx_hal_dma.c ****            status = HAL_ERROR;
 938:../../../core/ST/STM32L4xx_HAL_Driver/Src/stm32l4xx_hal_dma.c ****            break;
 939:../../../core/ST/STM32L4xx_HAL_Driver/Src/stm32l4xx_hal_dma.c ****     }
 940:../../../core/ST/STM32L4xx_HAL_Driver/Src/stm32l4xx_hal_dma.c ****   }
 941:../../../core/ST/STM32L4xx_HAL_Driver/Src/stm32l4xx_hal_dma.c ****   else
 942:../../../core/ST/STM32L4xx_HAL_Driver/Src/stm32l4xx_hal_dma.c ****   {
ARM GAS  C:\Users\tijsv\AppData\Local\Temp\cc0UGmBk.s 			page 18


 943:../../../core/ST/STM32L4xx_HAL_Driver/Src/stm32l4xx_hal_dma.c ****     status = HAL_ERROR;
 944:../../../core/ST/STM32L4xx_HAL_Driver/Src/stm32l4xx_hal_dma.c ****   }
 945:../../../core/ST/STM32L4xx_HAL_Driver/Src/stm32l4xx_hal_dma.c **** 
 946:../../../core/ST/STM32L4xx_HAL_Driver/Src/stm32l4xx_hal_dma.c ****   /* Release Lock */
 947:../../../core/ST/STM32L4xx_HAL_Driver/Src/stm32l4xx_hal_dma.c ****   __HAL_UNLOCK(hdma);
 948:../../../core/ST/STM32L4xx_HAL_Driver/Src/stm32l4xx_hal_dma.c **** 
 949:../../../core/ST/STM32L4xx_HAL_Driver/Src/stm32l4xx_hal_dma.c ****   return status;
 950:../../../core/ST/STM32L4xx_HAL_Driver/Src/stm32l4xx_hal_dma.c **** }
 951:../../../core/ST/STM32L4xx_HAL_Driver/Src/stm32l4xx_hal_dma.c **** 
 952:../../../core/ST/STM32L4xx_HAL_Driver/Src/stm32l4xx_hal_dma.c **** /**
 953:../../../core/ST/STM32L4xx_HAL_Driver/Src/stm32l4xx_hal_dma.c ****   * @brief  UnRegister callbacks
 954:../../../core/ST/STM32L4xx_HAL_Driver/Src/stm32l4xx_hal_dma.c ****   * @param  hdma                 pointer to a DMA_HandleTypeDef structure that contains
 955:../../../core/ST/STM32L4xx_HAL_Driver/Src/stm32l4xx_hal_dma.c ****   *                               the configuration information for the specified DMA Channel.
 956:../../../core/ST/STM32L4xx_HAL_Driver/Src/stm32l4xx_hal_dma.c ****   * @param  CallbackID           User Callback identifer
 957:../../../core/ST/STM32L4xx_HAL_Driver/Src/stm32l4xx_hal_dma.c ****   *                               a HAL_DMA_CallbackIDTypeDef ENUM as parameter.
 958:../../../core/ST/STM32L4xx_HAL_Driver/Src/stm32l4xx_hal_dma.c ****   * @retval HAL status
 959:../../../core/ST/STM32L4xx_HAL_Driver/Src/stm32l4xx_hal_dma.c ****   */
 960:../../../core/ST/STM32L4xx_HAL_Driver/Src/stm32l4xx_hal_dma.c **** HAL_StatusTypeDef HAL_DMA_UnRegisterCallback(DMA_HandleTypeDef *hdma, HAL_DMA_CallbackIDTypeDef Cal
 961:../../../core/ST/STM32L4xx_HAL_Driver/Src/stm32l4xx_hal_dma.c **** {
 962:../../../core/ST/STM32L4xx_HAL_Driver/Src/stm32l4xx_hal_dma.c ****   HAL_StatusTypeDef status = HAL_OK;
 963:../../../core/ST/STM32L4xx_HAL_Driver/Src/stm32l4xx_hal_dma.c **** 
 964:../../../core/ST/STM32L4xx_HAL_Driver/Src/stm32l4xx_hal_dma.c ****     /* Process locked */
 965:../../../core/ST/STM32L4xx_HAL_Driver/Src/stm32l4xx_hal_dma.c ****   __HAL_LOCK(hdma);
 966:../../../core/ST/STM32L4xx_HAL_Driver/Src/stm32l4xx_hal_dma.c **** 
 967:../../../core/ST/STM32L4xx_HAL_Driver/Src/stm32l4xx_hal_dma.c ****   if(HAL_DMA_STATE_READY == hdma->State)
 968:../../../core/ST/STM32L4xx_HAL_Driver/Src/stm32l4xx_hal_dma.c ****   {
 969:../../../core/ST/STM32L4xx_HAL_Driver/Src/stm32l4xx_hal_dma.c ****     switch (CallbackID)
 970:../../../core/ST/STM32L4xx_HAL_Driver/Src/stm32l4xx_hal_dma.c ****     {
 971:../../../core/ST/STM32L4xx_HAL_Driver/Src/stm32l4xx_hal_dma.c ****      case  HAL_DMA_XFER_CPLT_CB_ID:
 972:../../../core/ST/STM32L4xx_HAL_Driver/Src/stm32l4xx_hal_dma.c ****            hdma->XferCpltCallback = NULL;
 973:../../../core/ST/STM32L4xx_HAL_Driver/Src/stm32l4xx_hal_dma.c ****            break;
 974:../../../core/ST/STM32L4xx_HAL_Driver/Src/stm32l4xx_hal_dma.c **** 
 975:../../../core/ST/STM32L4xx_HAL_Driver/Src/stm32l4xx_hal_dma.c ****      case  HAL_DMA_XFER_HALFCPLT_CB_ID:
 976:../../../core/ST/STM32L4xx_HAL_Driver/Src/stm32l4xx_hal_dma.c ****            hdma->XferHalfCpltCallback = NULL;
 977:../../../core/ST/STM32L4xx_HAL_Driver/Src/stm32l4xx_hal_dma.c ****            break;
 978:../../../core/ST/STM32L4xx_HAL_Driver/Src/stm32l4xx_hal_dma.c **** 
 979:../../../core/ST/STM32L4xx_HAL_Driver/Src/stm32l4xx_hal_dma.c ****      case  HAL_DMA_XFER_ERROR_CB_ID:
 980:../../../core/ST/STM32L4xx_HAL_Driver/Src/stm32l4xx_hal_dma.c ****            hdma->XferErrorCallback = NULL;
 981:../../../core/ST/STM32L4xx_HAL_Driver/Src/stm32l4xx_hal_dma.c ****            break;
 982:../../../core/ST/STM32L4xx_HAL_Driver/Src/stm32l4xx_hal_dma.c **** 
 983:../../../core/ST/STM32L4xx_HAL_Driver/Src/stm32l4xx_hal_dma.c ****      case  HAL_DMA_XFER_ABORT_CB_ID:
 984:../../../core/ST/STM32L4xx_HAL_Driver/Src/stm32l4xx_hal_dma.c ****            hdma->XferAbortCallback = NULL;
 985:../../../core/ST/STM32L4xx_HAL_Driver/Src/stm32l4xx_hal_dma.c ****            break;
 986:../../../core/ST/STM32L4xx_HAL_Driver/Src/stm32l4xx_hal_dma.c **** 
 987:../../../core/ST/STM32L4xx_HAL_Driver/Src/stm32l4xx_hal_dma.c ****     case   HAL_DMA_XFER_ALL_CB_ID:
 988:../../../core/ST/STM32L4xx_HAL_Driver/Src/stm32l4xx_hal_dma.c ****            hdma->XferCpltCallback = NULL;
 989:../../../core/ST/STM32L4xx_HAL_Driver/Src/stm32l4xx_hal_dma.c ****            hdma->XferHalfCpltCallback = NULL;
 990:../../../core/ST/STM32L4xx_HAL_Driver/Src/stm32l4xx_hal_dma.c ****            hdma->XferErrorCallback = NULL;
 991:../../../core/ST/STM32L4xx_HAL_Driver/Src/stm32l4xx_hal_dma.c ****            hdma->XferAbortCallback = NULL;
 992:../../../core/ST/STM32L4xx_HAL_Driver/Src/stm32l4xx_hal_dma.c ****            break;
 993:../../../core/ST/STM32L4xx_HAL_Driver/Src/stm32l4xx_hal_dma.c **** 
 994:../../../core/ST/STM32L4xx_HAL_Driver/Src/stm32l4xx_hal_dma.c ****     default:
 995:../../../core/ST/STM32L4xx_HAL_Driver/Src/stm32l4xx_hal_dma.c ****            status = HAL_ERROR;
 996:../../../core/ST/STM32L4xx_HAL_Driver/Src/stm32l4xx_hal_dma.c ****            break;
 997:../../../core/ST/STM32L4xx_HAL_Driver/Src/stm32l4xx_hal_dma.c ****     }
 998:../../../core/ST/STM32L4xx_HAL_Driver/Src/stm32l4xx_hal_dma.c ****   }
 999:../../../core/ST/STM32L4xx_HAL_Driver/Src/stm32l4xx_hal_dma.c ****   else
ARM GAS  C:\Users\tijsv\AppData\Local\Temp\cc0UGmBk.s 			page 19


1000:../../../core/ST/STM32L4xx_HAL_Driver/Src/stm32l4xx_hal_dma.c ****   {
1001:../../../core/ST/STM32L4xx_HAL_Driver/Src/stm32l4xx_hal_dma.c ****     status = HAL_ERROR;
1002:../../../core/ST/STM32L4xx_HAL_Driver/Src/stm32l4xx_hal_dma.c ****   }
1003:../../../core/ST/STM32L4xx_HAL_Driver/Src/stm32l4xx_hal_dma.c **** 
1004:../../../core/ST/STM32L4xx_HAL_Driver/Src/stm32l4xx_hal_dma.c ****   /* Release Lock */
1005:../../../core/ST/STM32L4xx_HAL_Driver/Src/stm32l4xx_hal_dma.c ****   __HAL_UNLOCK(hdma);
1006:../../../core/ST/STM32L4xx_HAL_Driver/Src/stm32l4xx_hal_dma.c **** 
1007:../../../core/ST/STM32L4xx_HAL_Driver/Src/stm32l4xx_hal_dma.c ****   return status;
1008:../../../core/ST/STM32L4xx_HAL_Driver/Src/stm32l4xx_hal_dma.c **** }
1009:../../../core/ST/STM32L4xx_HAL_Driver/Src/stm32l4xx_hal_dma.c **** 
1010:../../../core/ST/STM32L4xx_HAL_Driver/Src/stm32l4xx_hal_dma.c **** /**
1011:../../../core/ST/STM32L4xx_HAL_Driver/Src/stm32l4xx_hal_dma.c ****   * @}
1012:../../../core/ST/STM32L4xx_HAL_Driver/Src/stm32l4xx_hal_dma.c ****   */
1013:../../../core/ST/STM32L4xx_HAL_Driver/Src/stm32l4xx_hal_dma.c **** 
1014:../../../core/ST/STM32L4xx_HAL_Driver/Src/stm32l4xx_hal_dma.c **** 
1015:../../../core/ST/STM32L4xx_HAL_Driver/Src/stm32l4xx_hal_dma.c **** 
1016:../../../core/ST/STM32L4xx_HAL_Driver/Src/stm32l4xx_hal_dma.c **** /** @defgroup DMA_Exported_Functions_Group3 Peripheral State and Errors functions
1017:../../../core/ST/STM32L4xx_HAL_Driver/Src/stm32l4xx_hal_dma.c ****  *  @brief    Peripheral State and Errors functions
1018:../../../core/ST/STM32L4xx_HAL_Driver/Src/stm32l4xx_hal_dma.c ****  *
1019:../../../core/ST/STM32L4xx_HAL_Driver/Src/stm32l4xx_hal_dma.c **** @verbatim
1020:../../../core/ST/STM32L4xx_HAL_Driver/Src/stm32l4xx_hal_dma.c ****  ===============================================================================
1021:../../../core/ST/STM32L4xx_HAL_Driver/Src/stm32l4xx_hal_dma.c ****             ##### Peripheral State and Errors functions #####
1022:../../../core/ST/STM32L4xx_HAL_Driver/Src/stm32l4xx_hal_dma.c ****  ===============================================================================
1023:../../../core/ST/STM32L4xx_HAL_Driver/Src/stm32l4xx_hal_dma.c ****     [..]
1024:../../../core/ST/STM32L4xx_HAL_Driver/Src/stm32l4xx_hal_dma.c ****     This subsection provides functions allowing to
1025:../../../core/ST/STM32L4xx_HAL_Driver/Src/stm32l4xx_hal_dma.c ****       (+) Check the DMA state
1026:../../../core/ST/STM32L4xx_HAL_Driver/Src/stm32l4xx_hal_dma.c ****       (+) Get error code
1027:../../../core/ST/STM32L4xx_HAL_Driver/Src/stm32l4xx_hal_dma.c **** 
1028:../../../core/ST/STM32L4xx_HAL_Driver/Src/stm32l4xx_hal_dma.c **** @endverbatim
1029:../../../core/ST/STM32L4xx_HAL_Driver/Src/stm32l4xx_hal_dma.c ****   * @{
1030:../../../core/ST/STM32L4xx_HAL_Driver/Src/stm32l4xx_hal_dma.c ****   */
1031:../../../core/ST/STM32L4xx_HAL_Driver/Src/stm32l4xx_hal_dma.c **** 
1032:../../../core/ST/STM32L4xx_HAL_Driver/Src/stm32l4xx_hal_dma.c **** /**
1033:../../../core/ST/STM32L4xx_HAL_Driver/Src/stm32l4xx_hal_dma.c ****   * @brief  Return the DMA hande state.
1034:../../../core/ST/STM32L4xx_HAL_Driver/Src/stm32l4xx_hal_dma.c ****   * @param  hdma pointer to a DMA_HandleTypeDef structure that contains
1035:../../../core/ST/STM32L4xx_HAL_Driver/Src/stm32l4xx_hal_dma.c ****   *               the configuration information for the specified DMA Channel.
1036:../../../core/ST/STM32L4xx_HAL_Driver/Src/stm32l4xx_hal_dma.c ****   * @retval HAL state
1037:../../../core/ST/STM32L4xx_HAL_Driver/Src/stm32l4xx_hal_dma.c ****   */
1038:../../../core/ST/STM32L4xx_HAL_Driver/Src/stm32l4xx_hal_dma.c **** HAL_DMA_StateTypeDef HAL_DMA_GetState(DMA_HandleTypeDef *hdma)
1039:../../../core/ST/STM32L4xx_HAL_Driver/Src/stm32l4xx_hal_dma.c **** {
1040:../../../core/ST/STM32L4xx_HAL_Driver/Src/stm32l4xx_hal_dma.c ****   /* Return DMA handle state */
1041:../../../core/ST/STM32L4xx_HAL_Driver/Src/stm32l4xx_hal_dma.c ****   return hdma->State;
1042:../../../core/ST/STM32L4xx_HAL_Driver/Src/stm32l4xx_hal_dma.c **** }
1043:../../../core/ST/STM32L4xx_HAL_Driver/Src/stm32l4xx_hal_dma.c **** 
1044:../../../core/ST/STM32L4xx_HAL_Driver/Src/stm32l4xx_hal_dma.c **** /**
1045:../../../core/ST/STM32L4xx_HAL_Driver/Src/stm32l4xx_hal_dma.c ****   * @brief  Return the DMA error code.
1046:../../../core/ST/STM32L4xx_HAL_Driver/Src/stm32l4xx_hal_dma.c ****   * @param  hdma : pointer to a DMA_HandleTypeDef structure that contains
1047:../../../core/ST/STM32L4xx_HAL_Driver/Src/stm32l4xx_hal_dma.c ****   *              the configuration information for the specified DMA Channel.
1048:../../../core/ST/STM32L4xx_HAL_Driver/Src/stm32l4xx_hal_dma.c ****   * @retval DMA Error Code
1049:../../../core/ST/STM32L4xx_HAL_Driver/Src/stm32l4xx_hal_dma.c ****   */
1050:../../../core/ST/STM32L4xx_HAL_Driver/Src/stm32l4xx_hal_dma.c **** uint32_t HAL_DMA_GetError(DMA_HandleTypeDef *hdma)
1051:../../../core/ST/STM32L4xx_HAL_Driver/Src/stm32l4xx_hal_dma.c **** {
1052:../../../core/ST/STM32L4xx_HAL_Driver/Src/stm32l4xx_hal_dma.c ****   return hdma->ErrorCode;
1053:../../../core/ST/STM32L4xx_HAL_Driver/Src/stm32l4xx_hal_dma.c **** }
1054:../../../core/ST/STM32L4xx_HAL_Driver/Src/stm32l4xx_hal_dma.c **** 
1055:../../../core/ST/STM32L4xx_HAL_Driver/Src/stm32l4xx_hal_dma.c **** /**
1056:../../../core/ST/STM32L4xx_HAL_Driver/Src/stm32l4xx_hal_dma.c ****   * @}
ARM GAS  C:\Users\tijsv\AppData\Local\Temp\cc0UGmBk.s 			page 20


1057:../../../core/ST/STM32L4xx_HAL_Driver/Src/stm32l4xx_hal_dma.c ****   */
1058:../../../core/ST/STM32L4xx_HAL_Driver/Src/stm32l4xx_hal_dma.c **** 
1059:../../../core/ST/STM32L4xx_HAL_Driver/Src/stm32l4xx_hal_dma.c **** /**
1060:../../../core/ST/STM32L4xx_HAL_Driver/Src/stm32l4xx_hal_dma.c ****   * @}
1061:../../../core/ST/STM32L4xx_HAL_Driver/Src/stm32l4xx_hal_dma.c ****   */
1062:../../../core/ST/STM32L4xx_HAL_Driver/Src/stm32l4xx_hal_dma.c **** 
1063:../../../core/ST/STM32L4xx_HAL_Driver/Src/stm32l4xx_hal_dma.c **** /** @addtogroup DMA_Private_Functions
1064:../../../core/ST/STM32L4xx_HAL_Driver/Src/stm32l4xx_hal_dma.c ****   * @{
1065:../../../core/ST/STM32L4xx_HAL_Driver/Src/stm32l4xx_hal_dma.c ****   */
1066:../../../core/ST/STM32L4xx_HAL_Driver/Src/stm32l4xx_hal_dma.c **** 
1067:../../../core/ST/STM32L4xx_HAL_Driver/Src/stm32l4xx_hal_dma.c **** /**
1068:../../../core/ST/STM32L4xx_HAL_Driver/Src/stm32l4xx_hal_dma.c ****   * @brief  Sets the DMA Transfer parameter.
1069:../../../core/ST/STM32L4xx_HAL_Driver/Src/stm32l4xx_hal_dma.c ****   * @param  hdma       pointer to a DMA_HandleTypeDef structure that contains
1070:../../../core/ST/STM32L4xx_HAL_Driver/Src/stm32l4xx_hal_dma.c ****   *                     the configuration information for the specified DMA Channel.
1071:../../../core/ST/STM32L4xx_HAL_Driver/Src/stm32l4xx_hal_dma.c ****   * @param  SrcAddress The source memory Buffer address
1072:../../../core/ST/STM32L4xx_HAL_Driver/Src/stm32l4xx_hal_dma.c ****   * @param  DstAddress The destination memory Buffer address
1073:../../../core/ST/STM32L4xx_HAL_Driver/Src/stm32l4xx_hal_dma.c ****   * @param  DataLength The length of data to be transferred from source to destination
1074:../../../core/ST/STM32L4xx_HAL_Driver/Src/stm32l4xx_hal_dma.c ****   * @retval HAL status
1075:../../../core/ST/STM32L4xx_HAL_Driver/Src/stm32l4xx_hal_dma.c ****   */
1076:../../../core/ST/STM32L4xx_HAL_Driver/Src/stm32l4xx_hal_dma.c **** static void DMA_SetConfig(DMA_HandleTypeDef *hdma, uint32_t SrcAddress, uint32_t DstAddress, uint32
1077:../../../core/ST/STM32L4xx_HAL_Driver/Src/stm32l4xx_hal_dma.c **** {
  29              		.loc 1 1077 1 view -0
  30              		.cfi_startproc
  31              		@ args = 0, pretend = 0, frame = 0
  32              		@ frame_needed = 0, uses_anonymous_args = 0
  33              		@ link register save eliminated.
  34              		.loc 1 1077 1 is_stmt 0 view .LVU1
  35 0000 70B4     		push	{r4, r5, r6}
  36              	.LCFI0:
  37              		.cfi_def_cfa_offset 12
  38              		.cfi_offset 4, -12
  39              		.cfi_offset 5, -8
  40              		.cfi_offset 6, -4
1078:../../../core/ST/STM32L4xx_HAL_Driver/Src/stm32l4xx_hal_dma.c **** #if defined(DMAMUX1)
1079:../../../core/ST/STM32L4xx_HAL_Driver/Src/stm32l4xx_hal_dma.c ****   /* Clear the DMAMUX synchro overrun flag */
1080:../../../core/ST/STM32L4xx_HAL_Driver/Src/stm32l4xx_hal_dma.c ****   hdma->DMAmuxChannelStatus->CFR = hdma->DMAmuxChannelStatusMask;
1081:../../../core/ST/STM32L4xx_HAL_Driver/Src/stm32l4xx_hal_dma.c **** 
1082:../../../core/ST/STM32L4xx_HAL_Driver/Src/stm32l4xx_hal_dma.c ****   if(hdma->DMAmuxRequestGen != 0U)
1083:../../../core/ST/STM32L4xx_HAL_Driver/Src/stm32l4xx_hal_dma.c ****   {
1084:../../../core/ST/STM32L4xx_HAL_Driver/Src/stm32l4xx_hal_dma.c ****     /* Clear the DMAMUX request generator overrun flag */
1085:../../../core/ST/STM32L4xx_HAL_Driver/Src/stm32l4xx_hal_dma.c ****     hdma->DMAmuxRequestGenStatus->RGCFR = hdma->DMAmuxRequestGenStatusMask;
1086:../../../core/ST/STM32L4xx_HAL_Driver/Src/stm32l4xx_hal_dma.c ****   }
1087:../../../core/ST/STM32L4xx_HAL_Driver/Src/stm32l4xx_hal_dma.c **** #endif
1088:../../../core/ST/STM32L4xx_HAL_Driver/Src/stm32l4xx_hal_dma.c **** 
1089:../../../core/ST/STM32L4xx_HAL_Driver/Src/stm32l4xx_hal_dma.c ****   /* Clear all flags */
1090:../../../core/ST/STM32L4xx_HAL_Driver/Src/stm32l4xx_hal_dma.c ****   hdma->DmaBaseAddress->IFCR = (DMA_ISR_GIF1 << (hdma->ChannelIndex & 0x1cU));
  41              		.loc 1 1090 3 is_stmt 1 view .LVU2
  42              		.loc 1 1090 54 is_stmt 0 view .LVU3
  43 0002 446C     		ldr	r4, [r0, #68]
  44              		.loc 1 1090 69 view .LVU4
  45 0004 04F01C05 		and	r5, r4, #28
  46              		.loc 1 1090 7 view .LVU5
  47 0008 066C     		ldr	r6, [r0, #64]
  48              		.loc 1 1090 46 view .LVU6
  49 000a 0124     		movs	r4, #1
  50 000c AC40     		lsls	r4, r4, r5
  51              		.loc 1 1090 30 view .LVU7
ARM GAS  C:\Users\tijsv\AppData\Local\Temp\cc0UGmBk.s 			page 21


  52 000e 7460     		str	r4, [r6, #4]
1091:../../../core/ST/STM32L4xx_HAL_Driver/Src/stm32l4xx_hal_dma.c **** 
1092:../../../core/ST/STM32L4xx_HAL_Driver/Src/stm32l4xx_hal_dma.c ****   /* Configure DMA Channel data length */
1093:../../../core/ST/STM32L4xx_HAL_Driver/Src/stm32l4xx_hal_dma.c ****   hdma->Instance->CNDTR = DataLength;
  53              		.loc 1 1093 3 is_stmt 1 view .LVU8
  54              		.loc 1 1093 7 is_stmt 0 view .LVU9
  55 0010 0468     		ldr	r4, [r0]
  56              		.loc 1 1093 25 view .LVU10
  57 0012 6360     		str	r3, [r4, #4]
1094:../../../core/ST/STM32L4xx_HAL_Driver/Src/stm32l4xx_hal_dma.c **** 
1095:../../../core/ST/STM32L4xx_HAL_Driver/Src/stm32l4xx_hal_dma.c ****   /* Memory to Peripheral */
1096:../../../core/ST/STM32L4xx_HAL_Driver/Src/stm32l4xx_hal_dma.c ****   if((hdma->Init.Direction) == DMA_MEMORY_TO_PERIPH)
  58              		.loc 1 1096 3 is_stmt 1 view .LVU11
  59              		.loc 1 1096 17 is_stmt 0 view .LVU12
  60 0014 8368     		ldr	r3, [r0, #8]
  61              	.LVL1:
  62              		.loc 1 1096 5 view .LVU13
  63 0016 102B     		cmp	r3, #16
  64 0018 05D0     		beq	.L5
1097:../../../core/ST/STM32L4xx_HAL_Driver/Src/stm32l4xx_hal_dma.c ****   {
1098:../../../core/ST/STM32L4xx_HAL_Driver/Src/stm32l4xx_hal_dma.c ****     /* Configure DMA Channel destination address */
1099:../../../core/ST/STM32L4xx_HAL_Driver/Src/stm32l4xx_hal_dma.c ****     hdma->Instance->CPAR = DstAddress;
1100:../../../core/ST/STM32L4xx_HAL_Driver/Src/stm32l4xx_hal_dma.c **** 
1101:../../../core/ST/STM32L4xx_HAL_Driver/Src/stm32l4xx_hal_dma.c ****     /* Configure DMA Channel source address */
1102:../../../core/ST/STM32L4xx_HAL_Driver/Src/stm32l4xx_hal_dma.c ****     hdma->Instance->CMAR = SrcAddress;
1103:../../../core/ST/STM32L4xx_HAL_Driver/Src/stm32l4xx_hal_dma.c ****   }
1104:../../../core/ST/STM32L4xx_HAL_Driver/Src/stm32l4xx_hal_dma.c ****   /* Peripheral to Memory */
1105:../../../core/ST/STM32L4xx_HAL_Driver/Src/stm32l4xx_hal_dma.c ****   else
1106:../../../core/ST/STM32L4xx_HAL_Driver/Src/stm32l4xx_hal_dma.c ****   {
1107:../../../core/ST/STM32L4xx_HAL_Driver/Src/stm32l4xx_hal_dma.c ****     /* Configure DMA Channel source address */
1108:../../../core/ST/STM32L4xx_HAL_Driver/Src/stm32l4xx_hal_dma.c ****     hdma->Instance->CPAR = SrcAddress;
  65              		.loc 1 1108 5 is_stmt 1 view .LVU14
  66              		.loc 1 1108 9 is_stmt 0 view .LVU15
  67 001a 0368     		ldr	r3, [r0]
  68              		.loc 1 1108 26 view .LVU16
  69 001c 9960     		str	r1, [r3, #8]
  70              	.LVL2:
1109:../../../core/ST/STM32L4xx_HAL_Driver/Src/stm32l4xx_hal_dma.c **** 
1110:../../../core/ST/STM32L4xx_HAL_Driver/Src/stm32l4xx_hal_dma.c ****     /* Configure DMA Channel destination address */
1111:../../../core/ST/STM32L4xx_HAL_Driver/Src/stm32l4xx_hal_dma.c ****     hdma->Instance->CMAR = DstAddress;
  71              		.loc 1 1111 5 is_stmt 1 view .LVU17
  72              		.loc 1 1111 9 is_stmt 0 view .LVU18
  73 001e 0368     		ldr	r3, [r0]
  74              		.loc 1 1111 26 view .LVU19
  75 0020 DA60     		str	r2, [r3, #12]
  76              	.L1:
1112:../../../core/ST/STM32L4xx_HAL_Driver/Src/stm32l4xx_hal_dma.c ****   }
1113:../../../core/ST/STM32L4xx_HAL_Driver/Src/stm32l4xx_hal_dma.c **** }
  77              		.loc 1 1113 1 view .LVU20
  78 0022 70BC     		pop	{r4, r5, r6}
  79              	.LCFI1:
  80              		.cfi_remember_state
  81              		.cfi_restore 6
  82              		.cfi_restore 5
  83              		.cfi_restore 4
  84              		.cfi_def_cfa_offset 0
  85 0024 7047     		bx	lr
ARM GAS  C:\Users\tijsv\AppData\Local\Temp\cc0UGmBk.s 			page 22


  86              	.LVL3:
  87              	.L5:
  88              	.LCFI2:
  89              		.cfi_restore_state
1099:../../../core/ST/STM32L4xx_HAL_Driver/Src/stm32l4xx_hal_dma.c **** 
  90              		.loc 1 1099 5 is_stmt 1 view .LVU21
1099:../../../core/ST/STM32L4xx_HAL_Driver/Src/stm32l4xx_hal_dma.c **** 
  91              		.loc 1 1099 9 is_stmt 0 view .LVU22
  92 0026 0368     		ldr	r3, [r0]
1099:../../../core/ST/STM32L4xx_HAL_Driver/Src/stm32l4xx_hal_dma.c **** 
  93              		.loc 1 1099 26 view .LVU23
  94 0028 9A60     		str	r2, [r3, #8]
  95              	.LVL4:
1102:../../../core/ST/STM32L4xx_HAL_Driver/Src/stm32l4xx_hal_dma.c ****   }
  96              		.loc 1 1102 5 is_stmt 1 view .LVU24
1102:../../../core/ST/STM32L4xx_HAL_Driver/Src/stm32l4xx_hal_dma.c ****   }
  97              		.loc 1 1102 9 is_stmt 0 view .LVU25
  98 002a 0368     		ldr	r3, [r0]
1102:../../../core/ST/STM32L4xx_HAL_Driver/Src/stm32l4xx_hal_dma.c ****   }
  99              		.loc 1 1102 26 view .LVU26
 100 002c D960     		str	r1, [r3, #12]
 101 002e F8E7     		b	.L1
 102              		.cfi_endproc
 103              	.LFE135:
 105              		.section	.rodata.HAL_DMA_Init.str1.4,"aMS",%progbits,1
 106              		.align	2
 107              	.LC0:
 108 0000 2E2E2F2E 		.ascii	"../../../core/ST/STM32L4xx_HAL_Driver/Src/stm32l4xx"
 108      2E2F2E2E 
 108      2F636F72 
 108      652F5354 
 108      2F53544D 
 109 0033 5F68616C 		.ascii	"_hal_dma.c\000"
 109      5F646D61 
 109      2E6300
 110              		.section	.text.HAL_DMA_Init,"ax",%progbits
 111              		.align	1
 112              		.global	HAL_DMA_Init
 113              		.syntax unified
 114              		.thumb
 115              		.thumb_func
 116              		.fpu fpv4-sp-d16
 118              	HAL_DMA_Init:
 119              	.LVL5:
 120              	.LFB123:
 170:../../../core/ST/STM32L4xx_HAL_Driver/Src/stm32l4xx_hal_dma.c ****   uint32_t tmp;
 121              		.loc 1 170 1 is_stmt 1 view -0
 122              		.cfi_startproc
 123              		@ args = 0, pretend = 0, frame = 0
 124              		@ frame_needed = 0, uses_anonymous_args = 0
 171:../../../core/ST/STM32L4xx_HAL_Driver/Src/stm32l4xx_hal_dma.c **** 
 125              		.loc 1 171 3 view .LVU28
 174:../../../core/ST/STM32L4xx_HAL_Driver/Src/stm32l4xx_hal_dma.c ****   {
 126              		.loc 1 174 3 view .LVU29
 174:../../../core/ST/STM32L4xx_HAL_Driver/Src/stm32l4xx_hal_dma.c ****   {
 127              		.loc 1 174 5 is_stmt 0 view .LVU30
 128 0000 0028     		cmp	r0, #0
ARM GAS  C:\Users\tijsv\AppData\Local\Temp\cc0UGmBk.s 			page 23


 129 0002 00F0F280 		beq	.L21
 170:../../../core/ST/STM32L4xx_HAL_Driver/Src/stm32l4xx_hal_dma.c ****   uint32_t tmp;
 130              		.loc 1 170 1 view .LVU31
 131 0006 10B5     		push	{r4, lr}
 132              	.LCFI3:
 133              		.cfi_def_cfa_offset 8
 134              		.cfi_offset 4, -8
 135              		.cfi_offset 14, -4
 136 0008 0446     		mov	r4, r0
 180:../../../core/ST/STM32L4xx_HAL_Driver/Src/stm32l4xx_hal_dma.c ****   assert_param(IS_DMA_DIRECTION(hdma->Init.Direction));
 137              		.loc 1 180 3 is_stmt 1 view .LVU32
 138 000a 0368     		ldr	r3, [r0]
 139 000c 784A     		ldr	r2, .L35
 140 000e 9342     		cmp	r3, r2
 141 0010 2BD0     		beq	.L8
 180:../../../core/ST/STM32L4xx_HAL_Driver/Src/stm32l4xx_hal_dma.c ****   assert_param(IS_DMA_DIRECTION(hdma->Init.Direction));
 142              		.loc 1 180 3 is_stmt 0 discriminator 1 view .LVU33
 143 0012 1432     		adds	r2, r2, #20
 144 0014 9342     		cmp	r3, r2
 145 0016 28D0     		beq	.L8
 180:../../../core/ST/STM32L4xx_HAL_Driver/Src/stm32l4xx_hal_dma.c ****   assert_param(IS_DMA_DIRECTION(hdma->Init.Direction));
 146              		.loc 1 180 3 discriminator 2 view .LVU34
 147 0018 1432     		adds	r2, r2, #20
 148 001a 9342     		cmp	r3, r2
 149 001c 25D0     		beq	.L8
 180:../../../core/ST/STM32L4xx_HAL_Driver/Src/stm32l4xx_hal_dma.c ****   assert_param(IS_DMA_DIRECTION(hdma->Init.Direction));
 150              		.loc 1 180 3 discriminator 3 view .LVU35
 151 001e 1432     		adds	r2, r2, #20
 152 0020 9342     		cmp	r3, r2
 153 0022 22D0     		beq	.L8
 180:../../../core/ST/STM32L4xx_HAL_Driver/Src/stm32l4xx_hal_dma.c ****   assert_param(IS_DMA_DIRECTION(hdma->Init.Direction));
 154              		.loc 1 180 3 discriminator 4 view .LVU36
 155 0024 1432     		adds	r2, r2, #20
 156 0026 9342     		cmp	r3, r2
 157 0028 1FD0     		beq	.L8
 180:../../../core/ST/STM32L4xx_HAL_Driver/Src/stm32l4xx_hal_dma.c ****   assert_param(IS_DMA_DIRECTION(hdma->Init.Direction));
 158              		.loc 1 180 3 discriminator 5 view .LVU37
 159 002a 1432     		adds	r2, r2, #20
 160 002c 9342     		cmp	r3, r2
 161 002e 1CD0     		beq	.L8
 180:../../../core/ST/STM32L4xx_HAL_Driver/Src/stm32l4xx_hal_dma.c ****   assert_param(IS_DMA_DIRECTION(hdma->Init.Direction));
 162              		.loc 1 180 3 discriminator 6 view .LVU38
 163 0030 1432     		adds	r2, r2, #20
 164 0032 9342     		cmp	r3, r2
 165 0034 19D0     		beq	.L8
 180:../../../core/ST/STM32L4xx_HAL_Driver/Src/stm32l4xx_hal_dma.c ****   assert_param(IS_DMA_DIRECTION(hdma->Init.Direction));
 166              		.loc 1 180 3 discriminator 7 view .LVU39
 167 0036 02F56272 		add	r2, r2, #904
 168 003a 9342     		cmp	r3, r2
 169 003c 15D0     		beq	.L8
 180:../../../core/ST/STM32L4xx_HAL_Driver/Src/stm32l4xx_hal_dma.c ****   assert_param(IS_DMA_DIRECTION(hdma->Init.Direction));
 170              		.loc 1 180 3 discriminator 8 view .LVU40
 171 003e 1432     		adds	r2, r2, #20
 172 0040 9342     		cmp	r3, r2
 173 0042 12D0     		beq	.L8
 180:../../../core/ST/STM32L4xx_HAL_Driver/Src/stm32l4xx_hal_dma.c ****   assert_param(IS_DMA_DIRECTION(hdma->Init.Direction));
 174              		.loc 1 180 3 discriminator 9 view .LVU41
ARM GAS  C:\Users\tijsv\AppData\Local\Temp\cc0UGmBk.s 			page 24


 175 0044 1432     		adds	r2, r2, #20
 176 0046 9342     		cmp	r3, r2
 177 0048 0FD0     		beq	.L8
 180:../../../core/ST/STM32L4xx_HAL_Driver/Src/stm32l4xx_hal_dma.c ****   assert_param(IS_DMA_DIRECTION(hdma->Init.Direction));
 178              		.loc 1 180 3 discriminator 10 view .LVU42
 179 004a 1432     		adds	r2, r2, #20
 180 004c 9342     		cmp	r3, r2
 181 004e 0CD0     		beq	.L8
 180:../../../core/ST/STM32L4xx_HAL_Driver/Src/stm32l4xx_hal_dma.c ****   assert_param(IS_DMA_DIRECTION(hdma->Init.Direction));
 182              		.loc 1 180 3 discriminator 11 view .LVU43
 183 0050 1432     		adds	r2, r2, #20
 184 0052 9342     		cmp	r3, r2
 185 0054 09D0     		beq	.L8
 180:../../../core/ST/STM32L4xx_HAL_Driver/Src/stm32l4xx_hal_dma.c ****   assert_param(IS_DMA_DIRECTION(hdma->Init.Direction));
 186              		.loc 1 180 3 discriminator 12 view .LVU44
 187 0056 1432     		adds	r2, r2, #20
 188 0058 9342     		cmp	r3, r2
 189 005a 06D0     		beq	.L8
 180:../../../core/ST/STM32L4xx_HAL_Driver/Src/stm32l4xx_hal_dma.c ****   assert_param(IS_DMA_DIRECTION(hdma->Init.Direction));
 190              		.loc 1 180 3 discriminator 13 view .LVU45
 191 005c 1432     		adds	r2, r2, #20
 192 005e 9342     		cmp	r3, r2
 193 0060 03D0     		beq	.L8
 180:../../../core/ST/STM32L4xx_HAL_Driver/Src/stm32l4xx_hal_dma.c ****   assert_param(IS_DMA_DIRECTION(hdma->Init.Direction));
 194              		.loc 1 180 3 discriminator 14 view .LVU46
 195 0062 B421     		movs	r1, #180
 196 0064 6348     		ldr	r0, .L35+4
 197              	.LVL6:
 180:../../../core/ST/STM32L4xx_HAL_Driver/Src/stm32l4xx_hal_dma.c ****   assert_param(IS_DMA_DIRECTION(hdma->Init.Direction));
 198              		.loc 1 180 3 discriminator 14 view .LVU47
 199 0066 FFF7FEFF 		bl	assert_failed
 200              	.LVL7:
 201              	.L8:
 181:../../../core/ST/STM32L4xx_HAL_Driver/Src/stm32l4xx_hal_dma.c ****   assert_param(IS_DMA_PERIPHERAL_INC_STATE(hdma->Init.PeriphInc));
 202              		.loc 1 181 3 is_stmt 1 view .LVU48
 203 006a A368     		ldr	r3, [r4, #8]
 204 006c 23B1     		cbz	r3, .L9
 181:../../../core/ST/STM32L4xx_HAL_Driver/Src/stm32l4xx_hal_dma.c ****   assert_param(IS_DMA_PERIPHERAL_INC_STATE(hdma->Init.PeriphInc));
 205              		.loc 1 181 3 is_stmt 0 discriminator 1 view .LVU49
 206 006e 102B     		cmp	r3, #16
 207 0070 02D0     		beq	.L9
 181:../../../core/ST/STM32L4xx_HAL_Driver/Src/stm32l4xx_hal_dma.c ****   assert_param(IS_DMA_PERIPHERAL_INC_STATE(hdma->Init.PeriphInc));
 208              		.loc 1 181 3 discriminator 2 view .LVU50
 209 0072 B3F5804F 		cmp	r3, #16384
 210 0076 72D1     		bne	.L26
 211              	.L9:
 182:../../../core/ST/STM32L4xx_HAL_Driver/Src/stm32l4xx_hal_dma.c ****   assert_param(IS_DMA_MEMORY_INC_STATE(hdma->Init.MemInc));
 212              		.loc 1 182 3 is_stmt 1 view .LVU51
 213 0078 E368     		ldr	r3, [r4, #12]
 214 007a 402B     		cmp	r3, #64
 215 007c 01D0     		beq	.L10
 182:../../../core/ST/STM32L4xx_HAL_Driver/Src/stm32l4xx_hal_dma.c ****   assert_param(IS_DMA_MEMORY_INC_STATE(hdma->Init.MemInc));
 216              		.loc 1 182 3 is_stmt 0 discriminator 1 view .LVU52
 217 007e 002B     		cmp	r3, #0
 218 0080 72D1     		bne	.L27
 219              	.L10:
 183:../../../core/ST/STM32L4xx_HAL_Driver/Src/stm32l4xx_hal_dma.c ****   assert_param(IS_DMA_PERIPHERAL_DATA_SIZE(hdma->Init.PeriphDataAlignment));
ARM GAS  C:\Users\tijsv\AppData\Local\Temp\cc0UGmBk.s 			page 25


 220              		.loc 1 183 3 is_stmt 1 view .LVU53
 221 0082 2369     		ldr	r3, [r4, #16]
 222 0084 802B     		cmp	r3, #128
 223 0086 01D0     		beq	.L11
 183:../../../core/ST/STM32L4xx_HAL_Driver/Src/stm32l4xx_hal_dma.c ****   assert_param(IS_DMA_PERIPHERAL_DATA_SIZE(hdma->Init.PeriphDataAlignment));
 224              		.loc 1 183 3 is_stmt 0 discriminator 1 view .LVU54
 225 0088 002B     		cmp	r3, #0
 226 008a 72D1     		bne	.L28
 227              	.L11:
 184:../../../core/ST/STM32L4xx_HAL_Driver/Src/stm32l4xx_hal_dma.c ****   assert_param(IS_DMA_MEMORY_DATA_SIZE(hdma->Init.MemDataAlignment));
 228              		.loc 1 184 3 is_stmt 1 view .LVU55
 229 008c 6369     		ldr	r3, [r4, #20]
 230 008e 2BB1     		cbz	r3, .L12
 184:../../../core/ST/STM32L4xx_HAL_Driver/Src/stm32l4xx_hal_dma.c ****   assert_param(IS_DMA_MEMORY_DATA_SIZE(hdma->Init.MemDataAlignment));
 231              		.loc 1 184 3 is_stmt 0 discriminator 1 view .LVU56
 232 0090 B3F5807F 		cmp	r3, #256
 233 0094 02D0     		beq	.L12
 184:../../../core/ST/STM32L4xx_HAL_Driver/Src/stm32l4xx_hal_dma.c ****   assert_param(IS_DMA_MEMORY_DATA_SIZE(hdma->Init.MemDataAlignment));
 234              		.loc 1 184 3 discriminator 2 view .LVU57
 235 0096 B3F5007F 		cmp	r3, #512
 236 009a 6FD1     		bne	.L29
 237              	.L12:
 185:../../../core/ST/STM32L4xx_HAL_Driver/Src/stm32l4xx_hal_dma.c ****   assert_param(IS_DMA_MODE(hdma->Init.Mode));
 238              		.loc 1 185 3 is_stmt 1 view .LVU58
 239 009c A369     		ldr	r3, [r4, #24]
 240 009e 2BB1     		cbz	r3, .L13
 185:../../../core/ST/STM32L4xx_HAL_Driver/Src/stm32l4xx_hal_dma.c ****   assert_param(IS_DMA_MODE(hdma->Init.Mode));
 241              		.loc 1 185 3 is_stmt 0 discriminator 1 view .LVU59
 242 00a0 B3F5806F 		cmp	r3, #1024
 243 00a4 02D0     		beq	.L13
 185:../../../core/ST/STM32L4xx_HAL_Driver/Src/stm32l4xx_hal_dma.c ****   assert_param(IS_DMA_MODE(hdma->Init.Mode));
 244              		.loc 1 185 3 discriminator 2 view .LVU60
 245 00a6 B3F5006F 		cmp	r3, #2048
 246 00aa 6CD1     		bne	.L30
 247              	.L13:
 186:../../../core/ST/STM32L4xx_HAL_Driver/Src/stm32l4xx_hal_dma.c ****   assert_param(IS_DMA_PRIORITY(hdma->Init.Priority));
 248              		.loc 1 186 3 is_stmt 1 view .LVU61
 249 00ac E369     		ldr	r3, [r4, #28]
 250 00ae 0BB1     		cbz	r3, .L14
 186:../../../core/ST/STM32L4xx_HAL_Driver/Src/stm32l4xx_hal_dma.c ****   assert_param(IS_DMA_PRIORITY(hdma->Init.Priority));
 251              		.loc 1 186 3 is_stmt 0 discriminator 1 view .LVU62
 252 00b0 202B     		cmp	r3, #32
 253 00b2 6DD1     		bne	.L31
 254              	.L14:
 187:../../../core/ST/STM32L4xx_HAL_Driver/Src/stm32l4xx_hal_dma.c **** 
 255              		.loc 1 187 3 is_stmt 1 view .LVU63
 256 00b4 236A     		ldr	r3, [r4, #32]
 257 00b6 43B1     		cbz	r3, .L15
 187:../../../core/ST/STM32L4xx_HAL_Driver/Src/stm32l4xx_hal_dma.c **** 
 258              		.loc 1 187 3 is_stmt 0 discriminator 1 view .LVU64
 259 00b8 B3F5805F 		cmp	r3, #4096
 260 00bc 05D0     		beq	.L15
 187:../../../core/ST/STM32L4xx_HAL_Driver/Src/stm32l4xx_hal_dma.c **** 
 261              		.loc 1 187 3 discriminator 2 view .LVU65
 262 00be B3F5005F 		cmp	r3, #8192
 263 00c2 02D0     		beq	.L15
 187:../../../core/ST/STM32L4xx_HAL_Driver/Src/stm32l4xx_hal_dma.c **** 
ARM GAS  C:\Users\tijsv\AppData\Local\Temp\cc0UGmBk.s 			page 26


 264              		.loc 1 187 3 discriminator 3 view .LVU66
 265 00c4 B3F5405F 		cmp	r3, #12288
 266 00c8 67D1     		bne	.L32
 267              	.L15:
 189:../../../core/ST/STM32L4xx_HAL_Driver/Src/stm32l4xx_hal_dma.c **** 
 268              		.loc 1 189 3 is_stmt 1 view .LVU67
 269 00ca 6368     		ldr	r3, [r4, #4]
 270 00cc 072B     		cmp	r3, #7
 271 00ce 69D8     		bhi	.L33
 272              	.L16:
 192:../../../core/ST/STM32L4xx_HAL_Driver/Src/stm32l4xx_hal_dma.c ****   {
 273              		.loc 1 192 3 view .LVU68
 192:../../../core/ST/STM32L4xx_HAL_Driver/Src/stm32l4xx_hal_dma.c ****   {
 274              		.loc 1 192 22 is_stmt 0 view .LVU69
 275 00d0 2168     		ldr	r1, [r4]
 192:../../../core/ST/STM32L4xx_HAL_Driver/Src/stm32l4xx_hal_dma.c ****   {
 276              		.loc 1 192 6 view .LVU70
 277 00d2 494B     		ldr	r3, .L35+8
 278 00d4 9942     		cmp	r1, r3
 279 00d6 6AD8     		bhi	.L17
 195:../../../core/ST/STM32L4xx_HAL_Driver/Src/stm32l4xx_hal_dma.c ****     hdma->DmaBaseAddress = DMA1;
 280              		.loc 1 195 5 is_stmt 1 view .LVU71
 195:../../../core/ST/STM32L4xx_HAL_Driver/Src/stm32l4xx_hal_dma.c ****     hdma->DmaBaseAddress = DMA1;
 281              		.loc 1 195 53 is_stmt 0 view .LVU72
 282 00d8 484B     		ldr	r3, .L35+12
 283 00da 0B44     		add	r3, r3, r1
 195:../../../core/ST/STM32L4xx_HAL_Driver/Src/stm32l4xx_hal_dma.c ****     hdma->DmaBaseAddress = DMA1;
 284              		.loc 1 195 80 view .LVU73
 285 00dc 484A     		ldr	r2, .L35+16
 286 00de A2FB0323 		umull	r2, r3, r2, r3
 287 00e2 1B09     		lsrs	r3, r3, #4
 195:../../../core/ST/STM32L4xx_HAL_Driver/Src/stm32l4xx_hal_dma.c ****     hdma->DmaBaseAddress = DMA1;
 288              		.loc 1 195 135 view .LVU74
 289 00e4 9B00     		lsls	r3, r3, #2
 195:../../../core/ST/STM32L4xx_HAL_Driver/Src/stm32l4xx_hal_dma.c ****     hdma->DmaBaseAddress = DMA1;
 290              		.loc 1 195 24 view .LVU75
 291 00e6 6364     		str	r3, [r4, #68]
 196:../../../core/ST/STM32L4xx_HAL_Driver/Src/stm32l4xx_hal_dma.c ****   }
 292              		.loc 1 196 5 is_stmt 1 view .LVU76
 196:../../../core/ST/STM32L4xx_HAL_Driver/Src/stm32l4xx_hal_dma.c ****   }
 293              		.loc 1 196 26 is_stmt 0 view .LVU77
 294 00e8 464B     		ldr	r3, .L35+20
 295 00ea 2364     		str	r3, [r4, #64]
 296              	.L18:
 206:../../../core/ST/STM32L4xx_HAL_Driver/Src/stm32l4xx_hal_dma.c **** 
 297              		.loc 1 206 3 is_stmt 1 view .LVU78
 206:../../../core/ST/STM32L4xx_HAL_Driver/Src/stm32l4xx_hal_dma.c **** 
 298              		.loc 1 206 15 is_stmt 0 view .LVU79
 299 00ec 0223     		movs	r3, #2
 300 00ee 84F82530 		strb	r3, [r4, #37]
 209:../../../core/ST/STM32L4xx_HAL_Driver/Src/stm32l4xx_hal_dma.c **** 
 301              		.loc 1 209 3 is_stmt 1 view .LVU80
 209:../../../core/ST/STM32L4xx_HAL_Driver/Src/stm32l4xx_hal_dma.c **** 
 302              		.loc 1 209 7 is_stmt 0 view .LVU81
 303 00f2 0A68     		ldr	r2, [r1]
 304              	.LVL8:
 212:../../../core/ST/STM32L4xx_HAL_Driver/Src/stm32l4xx_hal_dma.c ****                       DMA_CCR_MINC  | DMA_CCR_PINC   | DMA_CCR_CIRC   |
ARM GAS  C:\Users\tijsv\AppData\Local\Temp\cc0UGmBk.s 			page 27


 305              		.loc 1 212 3 is_stmt 1 view .LVU82
 212:../../../core/ST/STM32L4xx_HAL_Driver/Src/stm32l4xx_hal_dma.c ****                       DMA_CCR_MINC  | DMA_CCR_PINC   | DMA_CCR_CIRC   |
 306              		.loc 1 212 7 is_stmt 0 view .LVU83
 307 00f4 22F4FF42 		bic	r2, r2, #32640
 308              	.LVL9:
 212:../../../core/ST/STM32L4xx_HAL_Driver/Src/stm32l4xx_hal_dma.c ****                       DMA_CCR_MINC  | DMA_CCR_PINC   | DMA_CCR_CIRC   |
 309              		.loc 1 212 7 view .LVU84
 310 00f8 22F07002 		bic	r2, r2, #112
 311              	.LVL10:
 217:../../../core/ST/STM32L4xx_HAL_Driver/Src/stm32l4xx_hal_dma.c ****           hdma->Init.PeriphInc           | hdma->Init.MemInc           |
 312              		.loc 1 217 3 is_stmt 1 view .LVU85
 217:../../../core/ST/STM32L4xx_HAL_Driver/Src/stm32l4xx_hal_dma.c ****           hdma->Init.PeriphInc           | hdma->Init.MemInc           |
 313              		.loc 1 217 21 is_stmt 0 view .LVU86
 314 00fc A368     		ldr	r3, [r4, #8]
 218:../../../core/ST/STM32L4xx_HAL_Driver/Src/stm32l4xx_hal_dma.c ****           hdma->Init.PeriphDataAlignment | hdma->Init.MemDataAlignment |
 315              		.loc 1 218 21 view .LVU87
 316 00fe E068     		ldr	r0, [r4, #12]
 217:../../../core/ST/STM32L4xx_HAL_Driver/Src/stm32l4xx_hal_dma.c ****           hdma->Init.PeriphInc           | hdma->Init.MemInc           |
 317              		.loc 1 217 39 view .LVU88
 318 0100 0343     		orrs	r3, r3, r0
 218:../../../core/ST/STM32L4xx_HAL_Driver/Src/stm32l4xx_hal_dma.c ****           hdma->Init.PeriphDataAlignment | hdma->Init.MemDataAlignment |
 319              		.loc 1 218 54 view .LVU89
 320 0102 2069     		ldr	r0, [r4, #16]
 218:../../../core/ST/STM32L4xx_HAL_Driver/Src/stm32l4xx_hal_dma.c ****           hdma->Init.PeriphDataAlignment | hdma->Init.MemDataAlignment |
 321              		.loc 1 218 42 view .LVU90
 322 0104 0343     		orrs	r3, r3, r0
 219:../../../core/ST/STM32L4xx_HAL_Driver/Src/stm32l4xx_hal_dma.c ****           hdma->Init.Mode                | hdma->Init.Priority;
 323              		.loc 1 219 21 view .LVU91
 324 0106 6069     		ldr	r0, [r4, #20]
 218:../../../core/ST/STM32L4xx_HAL_Driver/Src/stm32l4xx_hal_dma.c ****           hdma->Init.PeriphDataAlignment | hdma->Init.MemDataAlignment |
 325              		.loc 1 218 72 view .LVU92
 326 0108 0343     		orrs	r3, r3, r0
 219:../../../core/ST/STM32L4xx_HAL_Driver/Src/stm32l4xx_hal_dma.c ****           hdma->Init.Mode                | hdma->Init.Priority;
 327              		.loc 1 219 54 view .LVU93
 328 010a A069     		ldr	r0, [r4, #24]
 219:../../../core/ST/STM32L4xx_HAL_Driver/Src/stm32l4xx_hal_dma.c ****           hdma->Init.Mode                | hdma->Init.Priority;
 329              		.loc 1 219 42 view .LVU94
 330 010c 0343     		orrs	r3, r3, r0
 220:../../../core/ST/STM32L4xx_HAL_Driver/Src/stm32l4xx_hal_dma.c **** 
 331              		.loc 1 220 21 view .LVU95
 332 010e E069     		ldr	r0, [r4, #28]
 219:../../../core/ST/STM32L4xx_HAL_Driver/Src/stm32l4xx_hal_dma.c ****           hdma->Init.Mode                | hdma->Init.Priority;
 333              		.loc 1 219 72 view .LVU96
 334 0110 0343     		orrs	r3, r3, r0
 220:../../../core/ST/STM32L4xx_HAL_Driver/Src/stm32l4xx_hal_dma.c **** 
 335              		.loc 1 220 54 view .LVU97
 336 0112 206A     		ldr	r0, [r4, #32]
 220:../../../core/ST/STM32L4xx_HAL_Driver/Src/stm32l4xx_hal_dma.c **** 
 337              		.loc 1 220 42 view .LVU98
 338 0114 0343     		orrs	r3, r3, r0
 217:../../../core/ST/STM32L4xx_HAL_Driver/Src/stm32l4xx_hal_dma.c ****           hdma->Init.PeriphInc           | hdma->Init.MemInc           |
 339              		.loc 1 217 7 view .LVU99
 340 0116 1343     		orrs	r3, r3, r2
 341              	.LVL11:
 223:../../../core/ST/STM32L4xx_HAL_Driver/Src/stm32l4xx_hal_dma.c **** 
 342              		.loc 1 223 3 is_stmt 1 view .LVU100
 223:../../../core/ST/STM32L4xx_HAL_Driver/Src/stm32l4xx_hal_dma.c **** 
ARM GAS  C:\Users\tijsv\AppData\Local\Temp\cc0UGmBk.s 			page 28


 343              		.loc 1 223 23 is_stmt 0 view .LVU101
 344 0118 0B60     		str	r3, [r1]
 268:../../../core/ST/STM32L4xx_HAL_Driver/Src/stm32l4xx_hal_dma.c ****   {
 345              		.loc 1 268 3 is_stmt 1 view .LVU102
 268:../../../core/ST/STM32L4xx_HAL_Driver/Src/stm32l4xx_hal_dma.c ****   {
 346              		.loc 1 268 16 is_stmt 0 view .LVU103
 347 011a A368     		ldr	r3, [r4, #8]
 348              	.LVL12:
 268:../../../core/ST/STM32L4xx_HAL_Driver/Src/stm32l4xx_hal_dma.c ****   {
 349              		.loc 1 268 5 view .LVU104
 350 011c B3F5804F 		cmp	r3, #16384
 351 0120 15D0     		beq	.L19
 271:../../../core/ST/STM32L4xx_HAL_Driver/Src/stm32l4xx_hal_dma.c ****     {
 352              		.loc 1 271 5 is_stmt 1 view .LVU105
 271:../../../core/ST/STM32L4xx_HAL_Driver/Src/stm32l4xx_hal_dma.c ****     {
 353              		.loc 1 271 21 is_stmt 0 view .LVU106
 354 0122 226C     		ldr	r2, [r4, #64]
 271:../../../core/ST/STM32L4xx_HAL_Driver/Src/stm32l4xx_hal_dma.c ****     {
 355              		.loc 1 271 8 view .LVU107
 356 0124 374B     		ldr	r3, .L35+20
 357 0126 9A42     		cmp	r2, r3
 358 0128 4CD0     		beq	.L34
 282:../../../core/ST/STM32L4xx_HAL_Driver/Src/stm32l4xx_hal_dma.c **** 
 359              		.loc 1 282 7 is_stmt 1 view .LVU108
 282:../../../core/ST/STM32L4xx_HAL_Driver/Src/stm32l4xx_hal_dma.c **** 
 360              		.loc 1 282 25 is_stmt 0 view .LVU109
 361 012a 374B     		ldr	r3, .L35+24
 362 012c 1A68     		ldr	r2, [r3]
 282:../../../core/ST/STM32L4xx_HAL_Driver/Src/stm32l4xx_hal_dma.c **** 
 363              		.loc 1 282 52 view .LVU110
 364 012e 616C     		ldr	r1, [r4, #68]
 365              	.LVL13:
 282:../../../core/ST/STM32L4xx_HAL_Driver/Src/stm32l4xx_hal_dma.c **** 
 366              		.loc 1 282 67 view .LVU111
 367 0130 01F01C00 		and	r0, r1, #28
 282:../../../core/ST/STM32L4xx_HAL_Driver/Src/stm32l4xx_hal_dma.c **** 
 368              		.loc 1 282 44 view .LVU112
 369 0134 0F21     		movs	r1, #15
 370 0136 8140     		lsls	r1, r1, r0
 282:../../../core/ST/STM32L4xx_HAL_Driver/Src/stm32l4xx_hal_dma.c **** 
 371              		.loc 1 282 25 view .LVU113
 372 0138 22EA0102 		bic	r2, r2, r1
 373 013c 1A60     		str	r2, [r3]
 285:../../../core/ST/STM32L4xx_HAL_Driver/Src/stm32l4xx_hal_dma.c ****     }
 374              		.loc 1 285 7 is_stmt 1 view .LVU114
 285:../../../core/ST/STM32L4xx_HAL_Driver/Src/stm32l4xx_hal_dma.c ****     }
 375              		.loc 1 285 25 is_stmt 0 view .LVU115
 376 013e 1A68     		ldr	r2, [r3]
 285:../../../core/ST/STM32L4xx_HAL_Driver/Src/stm32l4xx_hal_dma.c ****     }
 377              		.loc 1 285 50 view .LVU116
 378 0140 6168     		ldr	r1, [r4, #4]
 285:../../../core/ST/STM32L4xx_HAL_Driver/Src/stm32l4xx_hal_dma.c ****     }
 379              		.loc 1 285 67 view .LVU117
 380 0142 606C     		ldr	r0, [r4, #68]
 285:../../../core/ST/STM32L4xx_HAL_Driver/Src/stm32l4xx_hal_dma.c ****     }
 381              		.loc 1 285 82 view .LVU118
 382 0144 00F01C00 		and	r0, r0, #28
ARM GAS  C:\Users\tijsv\AppData\Local\Temp\cc0UGmBk.s 			page 29


 285:../../../core/ST/STM32L4xx_HAL_Driver/Src/stm32l4xx_hal_dma.c ****     }
 383              		.loc 1 285 59 view .LVU119
 384 0148 8140     		lsls	r1, r1, r0
 285:../../../core/ST/STM32L4xx_HAL_Driver/Src/stm32l4xx_hal_dma.c ****     }
 385              		.loc 1 285 25 view .LVU120
 386 014a 0A43     		orrs	r2, r2, r1
 387 014c 1A60     		str	r2, [r3]
 388              	.L19:
 294:../../../core/ST/STM32L4xx_HAL_Driver/Src/stm32l4xx_hal_dma.c **** 
 389              		.loc 1 294 3 is_stmt 1 view .LVU121
 294:../../../core/ST/STM32L4xx_HAL_Driver/Src/stm32l4xx_hal_dma.c **** 
 390              		.loc 1 294 19 is_stmt 0 view .LVU122
 391 014e 0020     		movs	r0, #0
 392 0150 E063     		str	r0, [r4, #60]
 297:../../../core/ST/STM32L4xx_HAL_Driver/Src/stm32l4xx_hal_dma.c **** 
 393              		.loc 1 297 3 is_stmt 1 view .LVU123
 297:../../../core/ST/STM32L4xx_HAL_Driver/Src/stm32l4xx_hal_dma.c **** 
 394              		.loc 1 297 16 is_stmt 0 view .LVU124
 395 0152 0123     		movs	r3, #1
 396 0154 84F82530 		strb	r3, [r4, #37]
 300:../../../core/ST/STM32L4xx_HAL_Driver/Src/stm32l4xx_hal_dma.c **** 
 397              		.loc 1 300 3 is_stmt 1 view .LVU125
 300:../../../core/ST/STM32L4xx_HAL_Driver/Src/stm32l4xx_hal_dma.c **** 
 398              		.loc 1 300 14 is_stmt 0 view .LVU126
 399 0158 84F82400 		strb	r0, [r4, #36]
 302:../../../core/ST/STM32L4xx_HAL_Driver/Src/stm32l4xx_hal_dma.c **** }
 400              		.loc 1 302 3 is_stmt 1 view .LVU127
 303:../../../core/ST/STM32L4xx_HAL_Driver/Src/stm32l4xx_hal_dma.c **** 
 401              		.loc 1 303 1 is_stmt 0 view .LVU128
 402 015c 10BD     		pop	{r4, pc}
 403              	.LVL14:
 404              	.L26:
 181:../../../core/ST/STM32L4xx_HAL_Driver/Src/stm32l4xx_hal_dma.c ****   assert_param(IS_DMA_PERIPHERAL_INC_STATE(hdma->Init.PeriphInc));
 405              		.loc 1 181 3 discriminator 3 view .LVU129
 406 015e B521     		movs	r1, #181
 407 0160 2448     		ldr	r0, .L35+4
 408 0162 FFF7FEFF 		bl	assert_failed
 409              	.LVL15:
 410 0166 87E7     		b	.L9
 411              	.L27:
 182:../../../core/ST/STM32L4xx_HAL_Driver/Src/stm32l4xx_hal_dma.c ****   assert_param(IS_DMA_MEMORY_INC_STATE(hdma->Init.MemInc));
 412              		.loc 1 182 3 discriminator 2 view .LVU130
 413 0168 B621     		movs	r1, #182
 414 016a 2248     		ldr	r0, .L35+4
 415 016c FFF7FEFF 		bl	assert_failed
 416              	.LVL16:
 417 0170 87E7     		b	.L10
 418              	.L28:
 183:../../../core/ST/STM32L4xx_HAL_Driver/Src/stm32l4xx_hal_dma.c ****   assert_param(IS_DMA_PERIPHERAL_DATA_SIZE(hdma->Init.PeriphDataAlignment));
 419              		.loc 1 183 3 discriminator 2 view .LVU131
 420 0172 B721     		movs	r1, #183
 421 0174 1F48     		ldr	r0, .L35+4
 422 0176 FFF7FEFF 		bl	assert_failed
 423              	.LVL17:
 424 017a 87E7     		b	.L11
 425              	.L29:
 184:../../../core/ST/STM32L4xx_HAL_Driver/Src/stm32l4xx_hal_dma.c ****   assert_param(IS_DMA_MEMORY_DATA_SIZE(hdma->Init.MemDataAlignment));
ARM GAS  C:\Users\tijsv\AppData\Local\Temp\cc0UGmBk.s 			page 30


 426              		.loc 1 184 3 discriminator 3 view .LVU132
 427 017c B821     		movs	r1, #184
 428 017e 1D48     		ldr	r0, .L35+4
 429 0180 FFF7FEFF 		bl	assert_failed
 430              	.LVL18:
 431 0184 8AE7     		b	.L12
 432              	.L30:
 185:../../../core/ST/STM32L4xx_HAL_Driver/Src/stm32l4xx_hal_dma.c ****   assert_param(IS_DMA_MODE(hdma->Init.Mode));
 433              		.loc 1 185 3 discriminator 3 view .LVU133
 434 0186 B921     		movs	r1, #185
 435 0188 1A48     		ldr	r0, .L35+4
 436 018a FFF7FEFF 		bl	assert_failed
 437              	.LVL19:
 438 018e 8DE7     		b	.L13
 439              	.L31:
 186:../../../core/ST/STM32L4xx_HAL_Driver/Src/stm32l4xx_hal_dma.c ****   assert_param(IS_DMA_PRIORITY(hdma->Init.Priority));
 440              		.loc 1 186 3 discriminator 2 view .LVU134
 441 0190 BA21     		movs	r1, #186
 442 0192 1848     		ldr	r0, .L35+4
 443 0194 FFF7FEFF 		bl	assert_failed
 444              	.LVL20:
 445 0198 8CE7     		b	.L14
 446              	.L32:
 187:../../../core/ST/STM32L4xx_HAL_Driver/Src/stm32l4xx_hal_dma.c **** 
 447              		.loc 1 187 3 discriminator 4 view .LVU135
 448 019a BB21     		movs	r1, #187
 449 019c 1548     		ldr	r0, .L35+4
 450 019e FFF7FEFF 		bl	assert_failed
 451              	.LVL21:
 452 01a2 92E7     		b	.L15
 453              	.L33:
 189:../../../core/ST/STM32L4xx_HAL_Driver/Src/stm32l4xx_hal_dma.c **** 
 454              		.loc 1 189 3 discriminator 1 view .LVU136
 455 01a4 BD21     		movs	r1, #189
 456 01a6 1348     		ldr	r0, .L35+4
 457 01a8 FFF7FEFF 		bl	assert_failed
 458              	.LVL22:
 459 01ac 90E7     		b	.L16
 460              	.L17:
 201:../../../core/ST/STM32L4xx_HAL_Driver/Src/stm32l4xx_hal_dma.c ****     hdma->DmaBaseAddress = DMA2;
 461              		.loc 1 201 5 is_stmt 1 view .LVU137
 201:../../../core/ST/STM32L4xx_HAL_Driver/Src/stm32l4xx_hal_dma.c ****     hdma->DmaBaseAddress = DMA2;
 462              		.loc 1 201 53 is_stmt 0 view .LVU138
 463 01ae 174B     		ldr	r3, .L35+28
 464 01b0 0B44     		add	r3, r3, r1
 201:../../../core/ST/STM32L4xx_HAL_Driver/Src/stm32l4xx_hal_dma.c ****     hdma->DmaBaseAddress = DMA2;
 465              		.loc 1 201 80 view .LVU139
 466 01b2 134A     		ldr	r2, .L35+16
 467 01b4 A2FB0323 		umull	r2, r3, r2, r3
 468 01b8 1B09     		lsrs	r3, r3, #4
 201:../../../core/ST/STM32L4xx_HAL_Driver/Src/stm32l4xx_hal_dma.c ****     hdma->DmaBaseAddress = DMA2;
 469              		.loc 1 201 135 view .LVU140
 470 01ba 9B00     		lsls	r3, r3, #2
 201:../../../core/ST/STM32L4xx_HAL_Driver/Src/stm32l4xx_hal_dma.c ****     hdma->DmaBaseAddress = DMA2;
 471              		.loc 1 201 24 view .LVU141
 472 01bc 6364     		str	r3, [r4, #68]
 202:../../../core/ST/STM32L4xx_HAL_Driver/Src/stm32l4xx_hal_dma.c ****   }
ARM GAS  C:\Users\tijsv\AppData\Local\Temp\cc0UGmBk.s 			page 31


 473              		.loc 1 202 5 is_stmt 1 view .LVU142
 202:../../../core/ST/STM32L4xx_HAL_Driver/Src/stm32l4xx_hal_dma.c ****   }
 474              		.loc 1 202 26 is_stmt 0 view .LVU143
 475 01be 144B     		ldr	r3, .L35+32
 476 01c0 2364     		str	r3, [r4, #64]
 477 01c2 93E7     		b	.L18
 478              	.LVL23:
 479              	.L34:
 274:../../../core/ST/STM32L4xx_HAL_Driver/Src/stm32l4xx_hal_dma.c **** 
 480              		.loc 1 274 7 is_stmt 1 view .LVU144
 274:../../../core/ST/STM32L4xx_HAL_Driver/Src/stm32l4xx_hal_dma.c **** 
 481              		.loc 1 274 25 is_stmt 0 view .LVU145
 482 01c4 A833     		adds	r3, r3, #168
 483 01c6 1A68     		ldr	r2, [r3]
 274:../../../core/ST/STM32L4xx_HAL_Driver/Src/stm32l4xx_hal_dma.c **** 
 484              		.loc 1 274 52 view .LVU146
 485 01c8 616C     		ldr	r1, [r4, #68]
 486              	.LVL24:
 274:../../../core/ST/STM32L4xx_HAL_Driver/Src/stm32l4xx_hal_dma.c **** 
 487              		.loc 1 274 67 view .LVU147
 488 01ca 01F01C00 		and	r0, r1, #28
 274:../../../core/ST/STM32L4xx_HAL_Driver/Src/stm32l4xx_hal_dma.c **** 
 489              		.loc 1 274 44 view .LVU148
 490 01ce 0F21     		movs	r1, #15
 491 01d0 8140     		lsls	r1, r1, r0
 274:../../../core/ST/STM32L4xx_HAL_Driver/Src/stm32l4xx_hal_dma.c **** 
 492              		.loc 1 274 25 view .LVU149
 493 01d2 22EA0102 		bic	r2, r2, r1
 494 01d6 1A60     		str	r2, [r3]
 277:../../../core/ST/STM32L4xx_HAL_Driver/Src/stm32l4xx_hal_dma.c ****     }
 495              		.loc 1 277 7 is_stmt 1 view .LVU150
 277:../../../core/ST/STM32L4xx_HAL_Driver/Src/stm32l4xx_hal_dma.c ****     }
 496              		.loc 1 277 25 is_stmt 0 view .LVU151
 497 01d8 1A68     		ldr	r2, [r3]
 277:../../../core/ST/STM32L4xx_HAL_Driver/Src/stm32l4xx_hal_dma.c ****     }
 498              		.loc 1 277 50 view .LVU152
 499 01da 6168     		ldr	r1, [r4, #4]
 277:../../../core/ST/STM32L4xx_HAL_Driver/Src/stm32l4xx_hal_dma.c ****     }
 500              		.loc 1 277 67 view .LVU153
 501 01dc 606C     		ldr	r0, [r4, #68]
 277:../../../core/ST/STM32L4xx_HAL_Driver/Src/stm32l4xx_hal_dma.c ****     }
 502              		.loc 1 277 82 view .LVU154
 503 01de 00F01C00 		and	r0, r0, #28
 277:../../../core/ST/STM32L4xx_HAL_Driver/Src/stm32l4xx_hal_dma.c ****     }
 504              		.loc 1 277 59 view .LVU155
 505 01e2 8140     		lsls	r1, r1, r0
 277:../../../core/ST/STM32L4xx_HAL_Driver/Src/stm32l4xx_hal_dma.c ****     }
 506              		.loc 1 277 25 view .LVU156
 507 01e4 0A43     		orrs	r2, r2, r1
 508 01e6 1A60     		str	r2, [r3]
 509 01e8 B1E7     		b	.L19
 510              	.LVL25:
 511              	.L21:
 512              	.LCFI4:
 513              		.cfi_def_cfa_offset 0
 514              		.cfi_restore 4
 515              		.cfi_restore 14
ARM GAS  C:\Users\tijsv\AppData\Local\Temp\cc0UGmBk.s 			page 32


 176:../../../core/ST/STM32L4xx_HAL_Driver/Src/stm32l4xx_hal_dma.c ****   }
 516              		.loc 1 176 12 view .LVU157
 517 01ea 0120     		movs	r0, #1
 518              	.LVL26:
 303:../../../core/ST/STM32L4xx_HAL_Driver/Src/stm32l4xx_hal_dma.c **** 
 519              		.loc 1 303 1 view .LVU158
 520 01ec 7047     		bx	lr
 521              	.L36:
 522 01ee 00BF     		.align	2
 523              	.L35:
 524 01f0 08000240 		.word	1073872904
 525 01f4 00000000 		.word	.LC0
 526 01f8 07040240 		.word	1073873927
 527 01fc F8FFFDBF 		.word	-1073872904
 528 0200 CDCCCCCC 		.word	-858993459
 529 0204 00000240 		.word	1073872896
 530 0208 A8040240 		.word	1073874088
 531 020c F8FBFDBF 		.word	-1073873928
 532 0210 00040240 		.word	1073873920
 533              		.cfi_endproc
 534              	.LFE123:
 536              		.section	.text.HAL_DMA_DeInit,"ax",%progbits
 537              		.align	1
 538              		.global	HAL_DMA_DeInit
 539              		.syntax unified
 540              		.thumb
 541              		.thumb_func
 542              		.fpu fpv4-sp-d16
 544              	HAL_DMA_DeInit:
 545              	.LVL27:
 546              	.LFB124:
 312:../../../core/ST/STM32L4xx_HAL_Driver/Src/stm32l4xx_hal_dma.c **** 
 547              		.loc 1 312 1 is_stmt 1 view -0
 548              		.cfi_startproc
 549              		@ args = 0, pretend = 0, frame = 0
 550              		@ frame_needed = 0, uses_anonymous_args = 0
 315:../../../core/ST/STM32L4xx_HAL_Driver/Src/stm32l4xx_hal_dma.c ****   {
 551              		.loc 1 315 3 view .LVU160
 315:../../../core/ST/STM32L4xx_HAL_Driver/Src/stm32l4xx_hal_dma.c ****   {
 552              		.loc 1 315 6 is_stmt 0 view .LVU161
 553 0000 0028     		cmp	r0, #0
 554 0002 7DD0     		beq	.L44
 312:../../../core/ST/STM32L4xx_HAL_Driver/Src/stm32l4xx_hal_dma.c **** 
 555              		.loc 1 312 1 view .LVU162
 556 0004 10B5     		push	{r4, lr}
 557              	.LCFI5:
 558              		.cfi_def_cfa_offset 8
 559              		.cfi_offset 4, -8
 560              		.cfi_offset 14, -4
 561 0006 0446     		mov	r4, r0
 321:../../../core/ST/STM32L4xx_HAL_Driver/Src/stm32l4xx_hal_dma.c **** 
 562              		.loc 1 321 3 is_stmt 1 view .LVU163
 563 0008 0368     		ldr	r3, [r0]
 564 000a 3E4A     		ldr	r2, .L50
 565 000c 9342     		cmp	r3, r2
 566 000e 2CD0     		beq	.L39
 321:../../../core/ST/STM32L4xx_HAL_Driver/Src/stm32l4xx_hal_dma.c **** 
ARM GAS  C:\Users\tijsv\AppData\Local\Temp\cc0UGmBk.s 			page 33


 567              		.loc 1 321 3 is_stmt 0 discriminator 1 view .LVU164
 568 0010 1432     		adds	r2, r2, #20
 569 0012 9342     		cmp	r3, r2
 570 0014 29D0     		beq	.L39
 321:../../../core/ST/STM32L4xx_HAL_Driver/Src/stm32l4xx_hal_dma.c **** 
 571              		.loc 1 321 3 discriminator 2 view .LVU165
 572 0016 1432     		adds	r2, r2, #20
 573 0018 9342     		cmp	r3, r2
 574 001a 26D0     		beq	.L39
 321:../../../core/ST/STM32L4xx_HAL_Driver/Src/stm32l4xx_hal_dma.c **** 
 575              		.loc 1 321 3 discriminator 3 view .LVU166
 576 001c 1432     		adds	r2, r2, #20
 577 001e 9342     		cmp	r3, r2
 578 0020 23D0     		beq	.L39
 321:../../../core/ST/STM32L4xx_HAL_Driver/Src/stm32l4xx_hal_dma.c **** 
 579              		.loc 1 321 3 discriminator 4 view .LVU167
 580 0022 1432     		adds	r2, r2, #20
 581 0024 9342     		cmp	r3, r2
 582 0026 20D0     		beq	.L39
 321:../../../core/ST/STM32L4xx_HAL_Driver/Src/stm32l4xx_hal_dma.c **** 
 583              		.loc 1 321 3 discriminator 5 view .LVU168
 584 0028 1432     		adds	r2, r2, #20
 585 002a 9342     		cmp	r3, r2
 586 002c 1DD0     		beq	.L39
 321:../../../core/ST/STM32L4xx_HAL_Driver/Src/stm32l4xx_hal_dma.c **** 
 587              		.loc 1 321 3 discriminator 6 view .LVU169
 588 002e 1432     		adds	r2, r2, #20
 589 0030 9342     		cmp	r3, r2
 590 0032 1AD0     		beq	.L39
 321:../../../core/ST/STM32L4xx_HAL_Driver/Src/stm32l4xx_hal_dma.c **** 
 591              		.loc 1 321 3 discriminator 7 view .LVU170
 592 0034 02F56272 		add	r2, r2, #904
 593 0038 9342     		cmp	r3, r2
 594 003a 16D0     		beq	.L39
 321:../../../core/ST/STM32L4xx_HAL_Driver/Src/stm32l4xx_hal_dma.c **** 
 595              		.loc 1 321 3 discriminator 8 view .LVU171
 596 003c 1432     		adds	r2, r2, #20
 597 003e 9342     		cmp	r3, r2
 598 0040 13D0     		beq	.L39
 321:../../../core/ST/STM32L4xx_HAL_Driver/Src/stm32l4xx_hal_dma.c **** 
 599              		.loc 1 321 3 discriminator 9 view .LVU172
 600 0042 1432     		adds	r2, r2, #20
 601 0044 9342     		cmp	r3, r2
 602 0046 10D0     		beq	.L39
 321:../../../core/ST/STM32L4xx_HAL_Driver/Src/stm32l4xx_hal_dma.c **** 
 603              		.loc 1 321 3 discriminator 10 view .LVU173
 604 0048 1432     		adds	r2, r2, #20
 605 004a 9342     		cmp	r3, r2
 606 004c 0DD0     		beq	.L39
 321:../../../core/ST/STM32L4xx_HAL_Driver/Src/stm32l4xx_hal_dma.c **** 
 607              		.loc 1 321 3 discriminator 11 view .LVU174
 608 004e 1432     		adds	r2, r2, #20
 609 0050 9342     		cmp	r3, r2
 610 0052 0AD0     		beq	.L39
 321:../../../core/ST/STM32L4xx_HAL_Driver/Src/stm32l4xx_hal_dma.c **** 
 611              		.loc 1 321 3 discriminator 12 view .LVU175
 612 0054 1432     		adds	r2, r2, #20
ARM GAS  C:\Users\tijsv\AppData\Local\Temp\cc0UGmBk.s 			page 34


 613 0056 9342     		cmp	r3, r2
 614 0058 07D0     		beq	.L39
 321:../../../core/ST/STM32L4xx_HAL_Driver/Src/stm32l4xx_hal_dma.c **** 
 615              		.loc 1 321 3 discriminator 13 view .LVU176
 616 005a 1432     		adds	r2, r2, #20
 617 005c 9342     		cmp	r3, r2
 618 005e 04D0     		beq	.L39
 321:../../../core/ST/STM32L4xx_HAL_Driver/Src/stm32l4xx_hal_dma.c **** 
 619              		.loc 1 321 3 discriminator 14 view .LVU177
 620 0060 40F24111 		movw	r1, #321
 621 0064 2848     		ldr	r0, .L50+4
 622              	.LVL28:
 321:../../../core/ST/STM32L4xx_HAL_Driver/Src/stm32l4xx_hal_dma.c **** 
 623              		.loc 1 321 3 discriminator 14 view .LVU178
 624 0066 FFF7FEFF 		bl	assert_failed
 625              	.LVL29:
 626              	.L39:
 324:../../../core/ST/STM32L4xx_HAL_Driver/Src/stm32l4xx_hal_dma.c **** 
 627              		.loc 1 324 3 is_stmt 1 view .LVU179
 628 006a 2268     		ldr	r2, [r4]
 629 006c 1368     		ldr	r3, [r2]
 630 006e 23F00103 		bic	r3, r3, #1
 631 0072 1360     		str	r3, [r2]
 327:../../../core/ST/STM32L4xx_HAL_Driver/Src/stm32l4xx_hal_dma.c ****   {
 632              		.loc 1 327 3 view .LVU180
 327:../../../core/ST/STM32L4xx_HAL_Driver/Src/stm32l4xx_hal_dma.c ****   {
 633              		.loc 1 327 22 is_stmt 0 view .LVU181
 634 0074 2268     		ldr	r2, [r4]
 327:../../../core/ST/STM32L4xx_HAL_Driver/Src/stm32l4xx_hal_dma.c ****   {
 635              		.loc 1 327 6 view .LVU182
 636 0076 254B     		ldr	r3, .L50+8
 637 0078 9A42     		cmp	r2, r3
 638 007a 2BD8     		bhi	.L40
 330:../../../core/ST/STM32L4xx_HAL_Driver/Src/stm32l4xx_hal_dma.c ****     hdma->DmaBaseAddress = DMA1;
 639              		.loc 1 330 5 is_stmt 1 view .LVU183
 330:../../../core/ST/STM32L4xx_HAL_Driver/Src/stm32l4xx_hal_dma.c ****     hdma->DmaBaseAddress = DMA1;
 640              		.loc 1 330 53 is_stmt 0 view .LVU184
 641 007c 244B     		ldr	r3, .L50+12
 642 007e 1344     		add	r3, r3, r2
 330:../../../core/ST/STM32L4xx_HAL_Driver/Src/stm32l4xx_hal_dma.c ****     hdma->DmaBaseAddress = DMA1;
 643              		.loc 1 330 80 view .LVU185
 644 0080 2449     		ldr	r1, .L50+16
 645 0082 A1FB0313 		umull	r1, r3, r1, r3
 646 0086 1B09     		lsrs	r3, r3, #4
 330:../../../core/ST/STM32L4xx_HAL_Driver/Src/stm32l4xx_hal_dma.c ****     hdma->DmaBaseAddress = DMA1;
 647              		.loc 1 330 135 view .LVU186
 648 0088 9B00     		lsls	r3, r3, #2
 330:../../../core/ST/STM32L4xx_HAL_Driver/Src/stm32l4xx_hal_dma.c ****     hdma->DmaBaseAddress = DMA1;
 649              		.loc 1 330 24 view .LVU187
 650 008a 6364     		str	r3, [r4, #68]
 331:../../../core/ST/STM32L4xx_HAL_Driver/Src/stm32l4xx_hal_dma.c ****   }
 651              		.loc 1 331 5 is_stmt 1 view .LVU188
 331:../../../core/ST/STM32L4xx_HAL_Driver/Src/stm32l4xx_hal_dma.c ****   }
 652              		.loc 1 331 26 is_stmt 0 view .LVU189
 653 008c 224B     		ldr	r3, .L50+20
 654 008e 2364     		str	r3, [r4, #64]
 655              	.L41:
ARM GAS  C:\Users\tijsv\AppData\Local\Temp\cc0UGmBk.s 			page 35


 341:../../../core/ST/STM32L4xx_HAL_Driver/Src/stm32l4xx_hal_dma.c **** 
 656              		.loc 1 341 3 is_stmt 1 view .LVU190
 341:../../../core/ST/STM32L4xx_HAL_Driver/Src/stm32l4xx_hal_dma.c **** 
 657              		.loc 1 341 24 is_stmt 0 view .LVU191
 658 0090 0023     		movs	r3, #0
 659 0092 1360     		str	r3, [r2]
 344:../../../core/ST/STM32L4xx_HAL_Driver/Src/stm32l4xx_hal_dma.c **** 
 660              		.loc 1 344 3 is_stmt 1 view .LVU192
 344:../../../core/ST/STM32L4xx_HAL_Driver/Src/stm32l4xx_hal_dma.c **** 
 661              		.loc 1 344 54 is_stmt 0 view .LVU193
 662 0094 636C     		ldr	r3, [r4, #68]
 344:../../../core/ST/STM32L4xx_HAL_Driver/Src/stm32l4xx_hal_dma.c **** 
 663              		.loc 1 344 69 view .LVU194
 664 0096 03F01C02 		and	r2, r3, #28
 344:../../../core/ST/STM32L4xx_HAL_Driver/Src/stm32l4xx_hal_dma.c **** 
 665              		.loc 1 344 7 view .LVU195
 666 009a 216C     		ldr	r1, [r4, #64]
 344:../../../core/ST/STM32L4xx_HAL_Driver/Src/stm32l4xx_hal_dma.c **** 
 667              		.loc 1 344 46 view .LVU196
 668 009c 0123     		movs	r3, #1
 669 009e 9340     		lsls	r3, r3, r2
 344:../../../core/ST/STM32L4xx_HAL_Driver/Src/stm32l4xx_hal_dma.c **** 
 670              		.loc 1 344 30 view .LVU197
 671 00a0 4B60     		str	r3, [r1, #4]
 349:../../../core/ST/STM32L4xx_HAL_Driver/Src/stm32l4xx_hal_dma.c ****   {
 672              		.loc 1 349 3 is_stmt 1 view .LVU198
 349:../../../core/ST/STM32L4xx_HAL_Driver/Src/stm32l4xx_hal_dma.c ****   {
 673              		.loc 1 349 19 is_stmt 0 view .LVU199
 674 00a2 226C     		ldr	r2, [r4, #64]
 349:../../../core/ST/STM32L4xx_HAL_Driver/Src/stm32l4xx_hal_dma.c ****   {
 675              		.loc 1 349 6 view .LVU200
 676 00a4 1C4B     		ldr	r3, .L50+20
 677 00a6 9A42     		cmp	r2, r3
 678 00a8 1FD0     		beq	.L49
 357:../../../core/ST/STM32L4xx_HAL_Driver/Src/stm32l4xx_hal_dma.c ****   }
 679              		.loc 1 357 5 is_stmt 1 view .LVU201
 357:../../../core/ST/STM32L4xx_HAL_Driver/Src/stm32l4xx_hal_dma.c ****   }
 680              		.loc 1 357 23 is_stmt 0 view .LVU202
 681 00aa 1C48     		ldr	r0, .L50+24
 682 00ac 0368     		ldr	r3, [r0]
 357:../../../core/ST/STM32L4xx_HAL_Driver/Src/stm32l4xx_hal_dma.c ****   }
 683              		.loc 1 357 50 view .LVU203
 684 00ae 626C     		ldr	r2, [r4, #68]
 357:../../../core/ST/STM32L4xx_HAL_Driver/Src/stm32l4xx_hal_dma.c ****   }
 685              		.loc 1 357 65 view .LVU204
 686 00b0 02F01C01 		and	r1, r2, #28
 357:../../../core/ST/STM32L4xx_HAL_Driver/Src/stm32l4xx_hal_dma.c ****   }
 687              		.loc 1 357 42 view .LVU205
 688 00b4 0F22     		movs	r2, #15
 689 00b6 8A40     		lsls	r2, r2, r1
 357:../../../core/ST/STM32L4xx_HAL_Driver/Src/stm32l4xx_hal_dma.c ****   }
 690              		.loc 1 357 23 view .LVU206
 691 00b8 23EA0203 		bic	r3, r3, r2
 692 00bc 0360     		str	r3, [r0]
 693              	.L43:
 398:../../../core/ST/STM32L4xx_HAL_Driver/Src/stm32l4xx_hal_dma.c ****   hdma->XferHalfCpltCallback = NULL;
 694              		.loc 1 398 3 is_stmt 1 view .LVU207
ARM GAS  C:\Users\tijsv\AppData\Local\Temp\cc0UGmBk.s 			page 36


 398:../../../core/ST/STM32L4xx_HAL_Driver/Src/stm32l4xx_hal_dma.c ****   hdma->XferHalfCpltCallback = NULL;
 695              		.loc 1 398 26 is_stmt 0 view .LVU208
 696 00be 0020     		movs	r0, #0
 697 00c0 E062     		str	r0, [r4, #44]
 399:../../../core/ST/STM32L4xx_HAL_Driver/Src/stm32l4xx_hal_dma.c ****   hdma->XferErrorCallback = NULL;
 698              		.loc 1 399 3 is_stmt 1 view .LVU209
 399:../../../core/ST/STM32L4xx_HAL_Driver/Src/stm32l4xx_hal_dma.c ****   hdma->XferErrorCallback = NULL;
 699              		.loc 1 399 30 is_stmt 0 view .LVU210
 700 00c2 2063     		str	r0, [r4, #48]
 400:../../../core/ST/STM32L4xx_HAL_Driver/Src/stm32l4xx_hal_dma.c ****   hdma->XferAbortCallback = NULL;
 701              		.loc 1 400 3 is_stmt 1 view .LVU211
 400:../../../core/ST/STM32L4xx_HAL_Driver/Src/stm32l4xx_hal_dma.c ****   hdma->XferAbortCallback = NULL;
 702              		.loc 1 400 27 is_stmt 0 view .LVU212
 703 00c4 6063     		str	r0, [r4, #52]
 401:../../../core/ST/STM32L4xx_HAL_Driver/Src/stm32l4xx_hal_dma.c **** 
 704              		.loc 1 401 3 is_stmt 1 view .LVU213
 401:../../../core/ST/STM32L4xx_HAL_Driver/Src/stm32l4xx_hal_dma.c **** 
 705              		.loc 1 401 27 is_stmt 0 view .LVU214
 706 00c6 A063     		str	r0, [r4, #56]
 404:../../../core/ST/STM32L4xx_HAL_Driver/Src/stm32l4xx_hal_dma.c **** 
 707              		.loc 1 404 3 is_stmt 1 view .LVU215
 404:../../../core/ST/STM32L4xx_HAL_Driver/Src/stm32l4xx_hal_dma.c **** 
 708              		.loc 1 404 19 is_stmt 0 view .LVU216
 709 00c8 E063     		str	r0, [r4, #60]
 407:../../../core/ST/STM32L4xx_HAL_Driver/Src/stm32l4xx_hal_dma.c **** 
 710              		.loc 1 407 3 is_stmt 1 view .LVU217
 407:../../../core/ST/STM32L4xx_HAL_Driver/Src/stm32l4xx_hal_dma.c **** 
 711              		.loc 1 407 15 is_stmt 0 view .LVU218
 712 00ca 84F82500 		strb	r0, [r4, #37]
 410:../../../core/ST/STM32L4xx_HAL_Driver/Src/stm32l4xx_hal_dma.c **** 
 713              		.loc 1 410 3 is_stmt 1 view .LVU219
 410:../../../core/ST/STM32L4xx_HAL_Driver/Src/stm32l4xx_hal_dma.c **** 
 714              		.loc 1 410 3 view .LVU220
 715 00ce 84F82400 		strb	r0, [r4, #36]
 410:../../../core/ST/STM32L4xx_HAL_Driver/Src/stm32l4xx_hal_dma.c **** 
 716              		.loc 1 410 3 view .LVU221
 412:../../../core/ST/STM32L4xx_HAL_Driver/Src/stm32l4xx_hal_dma.c **** }
 717              		.loc 1 412 3 view .LVU222
 413:../../../core/ST/STM32L4xx_HAL_Driver/Src/stm32l4xx_hal_dma.c **** 
 718              		.loc 1 413 1 is_stmt 0 view .LVU223
 719 00d2 10BD     		pop	{r4, pc}
 720              	.LVL30:
 721              	.L40:
 336:../../../core/ST/STM32L4xx_HAL_Driver/Src/stm32l4xx_hal_dma.c ****     hdma->DmaBaseAddress = DMA2;
 722              		.loc 1 336 5 is_stmt 1 view .LVU224
 336:../../../core/ST/STM32L4xx_HAL_Driver/Src/stm32l4xx_hal_dma.c ****     hdma->DmaBaseAddress = DMA2;
 723              		.loc 1 336 53 is_stmt 0 view .LVU225
 724 00d4 124B     		ldr	r3, .L50+28
 725 00d6 1344     		add	r3, r3, r2
 336:../../../core/ST/STM32L4xx_HAL_Driver/Src/stm32l4xx_hal_dma.c ****     hdma->DmaBaseAddress = DMA2;
 726              		.loc 1 336 80 view .LVU226
 727 00d8 0E49     		ldr	r1, .L50+16
 728 00da A1FB0313 		umull	r1, r3, r1, r3
 729 00de 1B09     		lsrs	r3, r3, #4
 336:../../../core/ST/STM32L4xx_HAL_Driver/Src/stm32l4xx_hal_dma.c ****     hdma->DmaBaseAddress = DMA2;
 730              		.loc 1 336 135 view .LVU227
 731 00e0 9B00     		lsls	r3, r3, #2
ARM GAS  C:\Users\tijsv\AppData\Local\Temp\cc0UGmBk.s 			page 37


 336:../../../core/ST/STM32L4xx_HAL_Driver/Src/stm32l4xx_hal_dma.c ****     hdma->DmaBaseAddress = DMA2;
 732              		.loc 1 336 24 view .LVU228
 733 00e2 6364     		str	r3, [r4, #68]
 337:../../../core/ST/STM32L4xx_HAL_Driver/Src/stm32l4xx_hal_dma.c ****   }
 734              		.loc 1 337 5 is_stmt 1 view .LVU229
 337:../../../core/ST/STM32L4xx_HAL_Driver/Src/stm32l4xx_hal_dma.c ****   }
 735              		.loc 1 337 26 is_stmt 0 view .LVU230
 736 00e4 0F4B     		ldr	r3, .L50+32
 737 00e6 2364     		str	r3, [r4, #64]
 738 00e8 D2E7     		b	.L41
 739              	.L49:
 352:../../../core/ST/STM32L4xx_HAL_Driver/Src/stm32l4xx_hal_dma.c ****   }
 740              		.loc 1 352 5 is_stmt 1 view .LVU231
 352:../../../core/ST/STM32L4xx_HAL_Driver/Src/stm32l4xx_hal_dma.c ****   }
 741              		.loc 1 352 23 is_stmt 0 view .LVU232
 742 00ea 0F48     		ldr	r0, .L50+36
 743 00ec 0368     		ldr	r3, [r0]
 352:../../../core/ST/STM32L4xx_HAL_Driver/Src/stm32l4xx_hal_dma.c ****   }
 744              		.loc 1 352 50 view .LVU233
 745 00ee 626C     		ldr	r2, [r4, #68]
 352:../../../core/ST/STM32L4xx_HAL_Driver/Src/stm32l4xx_hal_dma.c ****   }
 746              		.loc 1 352 65 view .LVU234
 747 00f0 02F01C01 		and	r1, r2, #28
 352:../../../core/ST/STM32L4xx_HAL_Driver/Src/stm32l4xx_hal_dma.c ****   }
 748              		.loc 1 352 42 view .LVU235
 749 00f4 0F22     		movs	r2, #15
 750 00f6 8A40     		lsls	r2, r2, r1
 352:../../../core/ST/STM32L4xx_HAL_Driver/Src/stm32l4xx_hal_dma.c ****   }
 751              		.loc 1 352 23 view .LVU236
 752 00f8 23EA0203 		bic	r3, r3, r2
 753 00fc 0360     		str	r3, [r0]
 754 00fe DEE7     		b	.L43
 755              	.LVL31:
 756              	.L44:
 757              	.LCFI6:
 758              		.cfi_def_cfa_offset 0
 759              		.cfi_restore 4
 760              		.cfi_restore 14
 317:../../../core/ST/STM32L4xx_HAL_Driver/Src/stm32l4xx_hal_dma.c ****   }
 761              		.loc 1 317 12 view .LVU237
 762 0100 0120     		movs	r0, #1
 763              	.LVL32:
 413:../../../core/ST/STM32L4xx_HAL_Driver/Src/stm32l4xx_hal_dma.c **** 
 764              		.loc 1 413 1 view .LVU238
 765 0102 7047     		bx	lr
 766              	.L51:
 767              		.align	2
 768              	.L50:
 769 0104 08000240 		.word	1073872904
 770 0108 00000000 		.word	.LC0
 771 010c 07040240 		.word	1073873927
 772 0110 F8FFFDBF 		.word	-1073872904
 773 0114 CDCCCCCC 		.word	-858993459
 774 0118 00000240 		.word	1073872896
 775 011c A8040240 		.word	1073874088
 776 0120 F8FBFDBF 		.word	-1073873928
 777 0124 00040240 		.word	1073873920
ARM GAS  C:\Users\tijsv\AppData\Local\Temp\cc0UGmBk.s 			page 38


 778 0128 A8000240 		.word	1073873064
 779              		.cfi_endproc
 780              	.LFE124:
 782              		.section	.text.HAL_DMA_Start,"ax",%progbits
 783              		.align	1
 784              		.global	HAL_DMA_Start
 785              		.syntax unified
 786              		.thumb
 787              		.thumb_func
 788              		.fpu fpv4-sp-d16
 790              	HAL_DMA_Start:
 791              	.LVL33:
 792              	.LFB125:
 448:../../../core/ST/STM32L4xx_HAL_Driver/Src/stm32l4xx_hal_dma.c ****   HAL_StatusTypeDef status = HAL_OK;
 793              		.loc 1 448 1 is_stmt 1 view -0
 794              		.cfi_startproc
 795              		@ args = 0, pretend = 0, frame = 0
 796              		@ frame_needed = 0, uses_anonymous_args = 0
 448:../../../core/ST/STM32L4xx_HAL_Driver/Src/stm32l4xx_hal_dma.c ****   HAL_StatusTypeDef status = HAL_OK;
 797              		.loc 1 448 1 is_stmt 0 view .LVU240
 798 0000 2DE9F041 		push	{r4, r5, r6, r7, r8, lr}
 799              	.LCFI7:
 800              		.cfi_def_cfa_offset 24
 801              		.cfi_offset 4, -24
 802              		.cfi_offset 5, -20
 803              		.cfi_offset 6, -16
 804              		.cfi_offset 7, -12
 805              		.cfi_offset 8, -8
 806              		.cfi_offset 14, -4
 807 0004 0446     		mov	r4, r0
 808 0006 0E46     		mov	r6, r1
 809 0008 1746     		mov	r7, r2
 810 000a 1D46     		mov	r5, r3
 449:../../../core/ST/STM32L4xx_HAL_Driver/Src/stm32l4xx_hal_dma.c **** 
 811              		.loc 1 449 3 is_stmt 1 view .LVU241
 812              	.LVL34:
 452:../../../core/ST/STM32L4xx_HAL_Driver/Src/stm32l4xx_hal_dma.c **** 
 813              		.loc 1 452 3 view .LVU242
 814 000c 5A1E     		subs	r2, r3, #1
 815              	.LVL35:
 452:../../../core/ST/STM32L4xx_HAL_Driver/Src/stm32l4xx_hal_dma.c **** 
 816              		.loc 1 452 3 is_stmt 0 view .LVU243
 817 000e 4FF6FE73 		movw	r3, #65534
 818              	.LVL36:
 452:../../../core/ST/STM32L4xx_HAL_Driver/Src/stm32l4xx_hal_dma.c **** 
 819              		.loc 1 452 3 view .LVU244
 820 0012 9A42     		cmp	r2, r3
 821 0014 11D8     		bhi	.L58
 822              	.LVL37:
 823              	.L53:
 455:../../../core/ST/STM32L4xx_HAL_Driver/Src/stm32l4xx_hal_dma.c **** 
 824              		.loc 1 455 3 is_stmt 1 view .LVU245
 455:../../../core/ST/STM32L4xx_HAL_Driver/Src/stm32l4xx_hal_dma.c **** 
 825              		.loc 1 455 3 view .LVU246
 826 0016 94F82430 		ldrb	r3, [r4, #36]	@ zero_extendqisi2
 827 001a 012B     		cmp	r3, #1
 828 001c 2CD0     		beq	.L56
ARM GAS  C:\Users\tijsv\AppData\Local\Temp\cc0UGmBk.s 			page 39


 455:../../../core/ST/STM32L4xx_HAL_Driver/Src/stm32l4xx_hal_dma.c **** 
 829              		.loc 1 455 3 discriminator 2 view .LVU247
 830 001e 0123     		movs	r3, #1
 831 0020 84F82430 		strb	r3, [r4, #36]
 455:../../../core/ST/STM32L4xx_HAL_Driver/Src/stm32l4xx_hal_dma.c **** 
 832              		.loc 1 455 3 discriminator 2 view .LVU248
 457:../../../core/ST/STM32L4xx_HAL_Driver/Src/stm32l4xx_hal_dma.c ****   {
 833              		.loc 1 457 3 discriminator 2 view .LVU249
 457:../../../core/ST/STM32L4xx_HAL_Driver/Src/stm32l4xx_hal_dma.c ****   {
 834              		.loc 1 457 33 is_stmt 0 discriminator 2 view .LVU250
 835 0024 94F82530 		ldrb	r3, [r4, #37]	@ zero_extendqisi2
 836 0028 DBB2     		uxtb	r3, r3
 457:../../../core/ST/STM32L4xx_HAL_Driver/Src/stm32l4xx_hal_dma.c ****   {
 837              		.loc 1 457 5 discriminator 2 view .LVU251
 838 002a 012B     		cmp	r3, #1
 839 002c 0BD0     		beq	.L59
 475:../../../core/ST/STM32L4xx_HAL_Driver/Src/stm32l4xx_hal_dma.c ****     status = HAL_BUSY;
 840              		.loc 1 475 5 is_stmt 1 view .LVU252
 475:../../../core/ST/STM32L4xx_HAL_Driver/Src/stm32l4xx_hal_dma.c ****     status = HAL_BUSY;
 841              		.loc 1 475 5 view .LVU253
 842 002e 0023     		movs	r3, #0
 843 0030 84F82430 		strb	r3, [r4, #36]
 475:../../../core/ST/STM32L4xx_HAL_Driver/Src/stm32l4xx_hal_dma.c ****     status = HAL_BUSY;
 844              		.loc 1 475 5 view .LVU254
 476:../../../core/ST/STM32L4xx_HAL_Driver/Src/stm32l4xx_hal_dma.c ****   }
 845              		.loc 1 476 5 view .LVU255
 846              	.LVL38:
 476:../../../core/ST/STM32L4xx_HAL_Driver/Src/stm32l4xx_hal_dma.c ****   }
 847              		.loc 1 476 12 is_stmt 0 view .LVU256
 848 0034 0220     		movs	r0, #2
 849              	.LVL39:
 850              	.L54:
 479:../../../core/ST/STM32L4xx_HAL_Driver/Src/stm32l4xx_hal_dma.c **** 
 851              		.loc 1 479 1 view .LVU257
 852 0036 BDE8F081 		pop	{r4, r5, r6, r7, r8, pc}
 853              	.LVL40:
 854              	.L58:
 452:../../../core/ST/STM32L4xx_HAL_Driver/Src/stm32l4xx_hal_dma.c **** 
 855              		.loc 1 452 3 discriminator 1 view .LVU258
 856 003a 4FF4E271 		mov	r1, #452
 857              	.LVL41:
 452:../../../core/ST/STM32L4xx_HAL_Driver/Src/stm32l4xx_hal_dma.c **** 
 858              		.loc 1 452 3 discriminator 1 view .LVU259
 859 003e 0F48     		ldr	r0, .L60
 860              	.LVL42:
 452:../../../core/ST/STM32L4xx_HAL_Driver/Src/stm32l4xx_hal_dma.c **** 
 861              		.loc 1 452 3 discriminator 1 view .LVU260
 862 0040 FFF7FEFF 		bl	assert_failed
 863              	.LVL43:
 864 0044 E7E7     		b	.L53
 865              	.L59:
 460:../../../core/ST/STM32L4xx_HAL_Driver/Src/stm32l4xx_hal_dma.c ****     hdma->ErrorCode = HAL_DMA_ERROR_NONE;
 866              		.loc 1 460 5 is_stmt 1 view .LVU261
 460:../../../core/ST/STM32L4xx_HAL_Driver/Src/stm32l4xx_hal_dma.c ****     hdma->ErrorCode = HAL_DMA_ERROR_NONE;
 867              		.loc 1 460 17 is_stmt 0 view .LVU262
 868 0046 0223     		movs	r3, #2
 869 0048 84F82530 		strb	r3, [r4, #37]
ARM GAS  C:\Users\tijsv\AppData\Local\Temp\cc0UGmBk.s 			page 40


 461:../../../core/ST/STM32L4xx_HAL_Driver/Src/stm32l4xx_hal_dma.c **** 
 870              		.loc 1 461 5 is_stmt 1 view .LVU263
 461:../../../core/ST/STM32L4xx_HAL_Driver/Src/stm32l4xx_hal_dma.c **** 
 871              		.loc 1 461 21 is_stmt 0 view .LVU264
 872 004c 4FF00008 		mov	r8, #0
 873 0050 C4F83C80 		str	r8, [r4, #60]
 464:../../../core/ST/STM32L4xx_HAL_Driver/Src/stm32l4xx_hal_dma.c **** 
 874              		.loc 1 464 5 is_stmt 1 view .LVU265
 875 0054 2268     		ldr	r2, [r4]
 876 0056 1368     		ldr	r3, [r2]
 877 0058 23F00103 		bic	r3, r3, #1
 878 005c 1360     		str	r3, [r2]
 467:../../../core/ST/STM32L4xx_HAL_Driver/Src/stm32l4xx_hal_dma.c **** 
 879              		.loc 1 467 5 view .LVU266
 880 005e 2B46     		mov	r3, r5
 881 0060 3A46     		mov	r2, r7
 882 0062 3146     		mov	r1, r6
 883 0064 2046     		mov	r0, r4
 884 0066 FFF7FEFF 		bl	DMA_SetConfig
 885              	.LVL44:
 470:../../../core/ST/STM32L4xx_HAL_Driver/Src/stm32l4xx_hal_dma.c ****   }
 886              		.loc 1 470 5 view .LVU267
 887 006a 2268     		ldr	r2, [r4]
 888 006c 1368     		ldr	r3, [r2]
 889 006e 43F00103 		orr	r3, r3, #1
 890 0072 1360     		str	r3, [r2]
 449:../../../core/ST/STM32L4xx_HAL_Driver/Src/stm32l4xx_hal_dma.c **** 
 891              		.loc 1 449 21 is_stmt 0 view .LVU268
 892 0074 4046     		mov	r0, r8
 893 0076 DEE7     		b	.L54
 894              	.L56:
 455:../../../core/ST/STM32L4xx_HAL_Driver/Src/stm32l4xx_hal_dma.c **** 
 895              		.loc 1 455 3 view .LVU269
 896 0078 0220     		movs	r0, #2
 897 007a DCE7     		b	.L54
 898              	.L61:
 899              		.align	2
 900              	.L60:
 901 007c 00000000 		.word	.LC0
 902              		.cfi_endproc
 903              	.LFE125:
 905              		.section	.text.HAL_DMA_Start_IT,"ax",%progbits
 906              		.align	1
 907              		.global	HAL_DMA_Start_IT
 908              		.syntax unified
 909              		.thumb
 910              		.thumb_func
 911              		.fpu fpv4-sp-d16
 913              	HAL_DMA_Start_IT:
 914              	.LVL45:
 915              	.LFB126:
 491:../../../core/ST/STM32L4xx_HAL_Driver/Src/stm32l4xx_hal_dma.c ****   HAL_StatusTypeDef status = HAL_OK;
 916              		.loc 1 491 1 is_stmt 1 view -0
 917              		.cfi_startproc
 918              		@ args = 0, pretend = 0, frame = 0
 919              		@ frame_needed = 0, uses_anonymous_args = 0
 491:../../../core/ST/STM32L4xx_HAL_Driver/Src/stm32l4xx_hal_dma.c ****   HAL_StatusTypeDef status = HAL_OK;
ARM GAS  C:\Users\tijsv\AppData\Local\Temp\cc0UGmBk.s 			page 41


 920              		.loc 1 491 1 is_stmt 0 view .LVU271
 921 0000 F8B5     		push	{r3, r4, r5, r6, r7, lr}
 922              	.LCFI8:
 923              		.cfi_def_cfa_offset 24
 924              		.cfi_offset 3, -24
 925              		.cfi_offset 4, -20
 926              		.cfi_offset 5, -16
 927              		.cfi_offset 6, -12
 928              		.cfi_offset 7, -8
 929              		.cfi_offset 14, -4
 930 0002 0446     		mov	r4, r0
 931 0004 0E46     		mov	r6, r1
 932 0006 1746     		mov	r7, r2
 933 0008 1D46     		mov	r5, r3
 492:../../../core/ST/STM32L4xx_HAL_Driver/Src/stm32l4xx_hal_dma.c **** 
 934              		.loc 1 492 3 is_stmt 1 view .LVU272
 935              	.LVL46:
 495:../../../core/ST/STM32L4xx_HAL_Driver/Src/stm32l4xx_hal_dma.c **** 
 936              		.loc 1 495 3 view .LVU273
 937 000a 5A1E     		subs	r2, r3, #1
 938              	.LVL47:
 495:../../../core/ST/STM32L4xx_HAL_Driver/Src/stm32l4xx_hal_dma.c **** 
 939              		.loc 1 495 3 is_stmt 0 view .LVU274
 940 000c 4FF6FE73 		movw	r3, #65534
 941              	.LVL48:
 495:../../../core/ST/STM32L4xx_HAL_Driver/Src/stm32l4xx_hal_dma.c **** 
 942              		.loc 1 495 3 view .LVU275
 943 0010 9A42     		cmp	r2, r3
 944 0012 10D8     		bhi	.L70
 945              	.LVL49:
 946              	.L63:
 498:../../../core/ST/STM32L4xx_HAL_Driver/Src/stm32l4xx_hal_dma.c **** 
 947              		.loc 1 498 3 is_stmt 1 view .LVU276
 498:../../../core/ST/STM32L4xx_HAL_Driver/Src/stm32l4xx_hal_dma.c **** 
 948              		.loc 1 498 3 view .LVU277
 949 0014 94F82430 		ldrb	r3, [r4, #36]	@ zero_extendqisi2
 950 0018 012B     		cmp	r3, #1
 951 001a 3BD0     		beq	.L68
 498:../../../core/ST/STM32L4xx_HAL_Driver/Src/stm32l4xx_hal_dma.c **** 
 952              		.loc 1 498 3 discriminator 2 view .LVU278
 953 001c 0123     		movs	r3, #1
 954 001e 84F82430 		strb	r3, [r4, #36]
 498:../../../core/ST/STM32L4xx_HAL_Driver/Src/stm32l4xx_hal_dma.c **** 
 955              		.loc 1 498 3 discriminator 2 view .LVU279
 500:../../../core/ST/STM32L4xx_HAL_Driver/Src/stm32l4xx_hal_dma.c ****   {
 956              		.loc 1 500 3 discriminator 2 view .LVU280
 500:../../../core/ST/STM32L4xx_HAL_Driver/Src/stm32l4xx_hal_dma.c ****   {
 957              		.loc 1 500 33 is_stmt 0 discriminator 2 view .LVU281
 958 0022 94F82530 		ldrb	r3, [r4, #37]	@ zero_extendqisi2
 959 0026 DBB2     		uxtb	r3, r3
 500:../../../core/ST/STM32L4xx_HAL_Driver/Src/stm32l4xx_hal_dma.c ****   {
 960              		.loc 1 500 5 discriminator 2 view .LVU282
 961 0028 012B     		cmp	r3, #1
 962 002a 0AD0     		beq	.L71
 549:../../../core/ST/STM32L4xx_HAL_Driver/Src/stm32l4xx_hal_dma.c **** 
 963              		.loc 1 549 5 is_stmt 1 view .LVU283
 549:../../../core/ST/STM32L4xx_HAL_Driver/Src/stm32l4xx_hal_dma.c **** 
ARM GAS  C:\Users\tijsv\AppData\Local\Temp\cc0UGmBk.s 			page 42


 964              		.loc 1 549 5 view .LVU284
 965 002c 0023     		movs	r3, #0
 966 002e 84F82430 		strb	r3, [r4, #36]
 549:../../../core/ST/STM32L4xx_HAL_Driver/Src/stm32l4xx_hal_dma.c **** 
 967              		.loc 1 549 5 view .LVU285
 552:../../../core/ST/STM32L4xx_HAL_Driver/Src/stm32l4xx_hal_dma.c ****   }
 968              		.loc 1 552 5 view .LVU286
 969              	.LVL50:
 552:../../../core/ST/STM32L4xx_HAL_Driver/Src/stm32l4xx_hal_dma.c ****   }
 970              		.loc 1 552 12 is_stmt 0 view .LVU287
 971 0032 0220     		movs	r0, #2
 972              	.LVL51:
 973              	.L64:
 555:../../../core/ST/STM32L4xx_HAL_Driver/Src/stm32l4xx_hal_dma.c **** 
 974              		.loc 1 555 1 view .LVU288
 975 0034 F8BD     		pop	{r3, r4, r5, r6, r7, pc}
 976              	.LVL52:
 977              	.L70:
 495:../../../core/ST/STM32L4xx_HAL_Driver/Src/stm32l4xx_hal_dma.c **** 
 978              		.loc 1 495 3 discriminator 1 view .LVU289
 979 0036 40F2EF11 		movw	r1, #495
 980              	.LVL53:
 495:../../../core/ST/STM32L4xx_HAL_Driver/Src/stm32l4xx_hal_dma.c **** 
 981              		.loc 1 495 3 discriminator 1 view .LVU290
 982 003a 1748     		ldr	r0, .L72
 983              	.LVL54:
 495:../../../core/ST/STM32L4xx_HAL_Driver/Src/stm32l4xx_hal_dma.c **** 
 984              		.loc 1 495 3 discriminator 1 view .LVU291
 985 003c FFF7FEFF 		bl	assert_failed
 986              	.LVL55:
 987 0040 E8E7     		b	.L63
 988              	.L71:
 503:../../../core/ST/STM32L4xx_HAL_Driver/Src/stm32l4xx_hal_dma.c ****     hdma->ErrorCode = HAL_DMA_ERROR_NONE;
 989              		.loc 1 503 5 is_stmt 1 view .LVU292
 503:../../../core/ST/STM32L4xx_HAL_Driver/Src/stm32l4xx_hal_dma.c ****     hdma->ErrorCode = HAL_DMA_ERROR_NONE;
 990              		.loc 1 503 17 is_stmt 0 view .LVU293
 991 0042 0223     		movs	r3, #2
 992 0044 84F82530 		strb	r3, [r4, #37]
 504:../../../core/ST/STM32L4xx_HAL_Driver/Src/stm32l4xx_hal_dma.c **** 
 993              		.loc 1 504 5 is_stmt 1 view .LVU294
 504:../../../core/ST/STM32L4xx_HAL_Driver/Src/stm32l4xx_hal_dma.c **** 
 994              		.loc 1 504 21 is_stmt 0 view .LVU295
 995 0048 0023     		movs	r3, #0
 996 004a E363     		str	r3, [r4, #60]
 507:../../../core/ST/STM32L4xx_HAL_Driver/Src/stm32l4xx_hal_dma.c **** 
 997              		.loc 1 507 5 is_stmt 1 view .LVU296
 998 004c 2268     		ldr	r2, [r4]
 999 004e 1368     		ldr	r3, [r2]
 1000 0050 23F00103 		bic	r3, r3, #1
 1001 0054 1360     		str	r3, [r2]
 510:../../../core/ST/STM32L4xx_HAL_Driver/Src/stm32l4xx_hal_dma.c **** 
 1002              		.loc 1 510 5 view .LVU297
 1003 0056 2B46     		mov	r3, r5
 1004 0058 3A46     		mov	r2, r7
 1005 005a 3146     		mov	r1, r6
 1006 005c 2046     		mov	r0, r4
 1007 005e FFF7FEFF 		bl	DMA_SetConfig
ARM GAS  C:\Users\tijsv\AppData\Local\Temp\cc0UGmBk.s 			page 43


 1008              	.LVL56:
 514:../../../core/ST/STM32L4xx_HAL_Driver/Src/stm32l4xx_hal_dma.c ****     {
 1009              		.loc 1 514 5 view .LVU298
 514:../../../core/ST/STM32L4xx_HAL_Driver/Src/stm32l4xx_hal_dma.c ****     {
 1010              		.loc 1 514 20 is_stmt 0 view .LVU299
 1011 0062 236B     		ldr	r3, [r4, #48]
 514:../../../core/ST/STM32L4xx_HAL_Driver/Src/stm32l4xx_hal_dma.c ****     {
 1012              		.loc 1 514 7 view .LVU300
 1013 0064 5BB1     		cbz	r3, .L66
 517:../../../core/ST/STM32L4xx_HAL_Driver/Src/stm32l4xx_hal_dma.c ****     }
 1014              		.loc 1 517 7 is_stmt 1 view .LVU301
 1015 0066 2268     		ldr	r2, [r4]
 1016 0068 1368     		ldr	r3, [r2]
 1017 006a 43F00E03 		orr	r3, r3, #14
 1018 006e 1360     		str	r3, [r2]
 1019              	.L67:
 544:../../../core/ST/STM32L4xx_HAL_Driver/Src/stm32l4xx_hal_dma.c ****   }
 1020              		.loc 1 544 5 view .LVU302
 1021 0070 2268     		ldr	r2, [r4]
 1022 0072 1368     		ldr	r3, [r2]
 1023 0074 43F00103 		orr	r3, r3, #1
 1024 0078 1360     		str	r3, [r2]
 492:../../../core/ST/STM32L4xx_HAL_Driver/Src/stm32l4xx_hal_dma.c **** 
 1025              		.loc 1 492 21 is_stmt 0 view .LVU303
 1026 007a 0020     		movs	r0, #0
 1027 007c DAE7     		b	.L64
 1028              	.L66:
 521:../../../core/ST/STM32L4xx_HAL_Driver/Src/stm32l4xx_hal_dma.c ****       __HAL_DMA_ENABLE_IT(hdma, (DMA_IT_TC | DMA_IT_TE));
 1029              		.loc 1 521 7 is_stmt 1 view .LVU304
 1030 007e 2268     		ldr	r2, [r4]
 1031 0080 1368     		ldr	r3, [r2]
 1032 0082 23F00403 		bic	r3, r3, #4
 1033 0086 1360     		str	r3, [r2]
 522:../../../core/ST/STM32L4xx_HAL_Driver/Src/stm32l4xx_hal_dma.c ****     }
 1034              		.loc 1 522 7 view .LVU305
 1035 0088 2268     		ldr	r2, [r4]
 1036 008a 1368     		ldr	r3, [r2]
 1037 008c 43F00A03 		orr	r3, r3, #10
 1038 0090 1360     		str	r3, [r2]
 1039 0092 EDE7     		b	.L67
 1040              	.L68:
 498:../../../core/ST/STM32L4xx_HAL_Driver/Src/stm32l4xx_hal_dma.c **** 
 1041              		.loc 1 498 3 is_stmt 0 view .LVU306
 1042 0094 0220     		movs	r0, #2
 1043 0096 CDE7     		b	.L64
 1044              	.L73:
 1045              		.align	2
 1046              	.L72:
 1047 0098 00000000 		.word	.LC0
 1048              		.cfi_endproc
 1049              	.LFE126:
 1051              		.section	.text.HAL_DMA_Abort,"ax",%progbits
 1052              		.align	1
 1053              		.global	HAL_DMA_Abort
 1054              		.syntax unified
 1055              		.thumb
 1056              		.thumb_func
ARM GAS  C:\Users\tijsv\AppData\Local\Temp\cc0UGmBk.s 			page 44


 1057              		.fpu fpv4-sp-d16
 1059              	HAL_DMA_Abort:
 1060              	.LVL57:
 1061              	.LFB127:
 564:../../../core/ST/STM32L4xx_HAL_Driver/Src/stm32l4xx_hal_dma.c ****   HAL_StatusTypeDef status = HAL_OK;
 1062              		.loc 1 564 1 is_stmt 1 view -0
 1063              		.cfi_startproc
 1064              		@ args = 0, pretend = 0, frame = 0
 1065              		@ frame_needed = 0, uses_anonymous_args = 0
 1066              		@ link register save eliminated.
 565:../../../core/ST/STM32L4xx_HAL_Driver/Src/stm32l4xx_hal_dma.c **** 
 1067              		.loc 1 565 3 view .LVU308
 568:../../../core/ST/STM32L4xx_HAL_Driver/Src/stm32l4xx_hal_dma.c ****   {
 1068              		.loc 1 568 3 view .LVU309
 568:../../../core/ST/STM32L4xx_HAL_Driver/Src/stm32l4xx_hal_dma.c ****   {
 1069              		.loc 1 568 5 is_stmt 0 view .LVU310
 1070 0000 0346     		mov	r3, r0
 1071 0002 B8B1     		cbz	r0, .L76
 574:../../../core/ST/STM32L4xx_HAL_Driver/Src/stm32l4xx_hal_dma.c **** 
 1072              		.loc 1 574 3 is_stmt 1 view .LVU311
 1073 0004 0168     		ldr	r1, [r0]
 1074 0006 0A68     		ldr	r2, [r1]
 1075 0008 22F00E02 		bic	r2, r2, #14
 1076 000c 0A60     		str	r2, [r1]
 582:../../../core/ST/STM32L4xx_HAL_Driver/Src/stm32l4xx_hal_dma.c **** 
 1077              		.loc 1 582 3 view .LVU312
 1078 000e 0168     		ldr	r1, [r0]
 1079 0010 0A68     		ldr	r2, [r1]
 1080 0012 22F00102 		bic	r2, r2, #1
 1081 0016 0A60     		str	r2, [r1]
 585:../../../core/ST/STM32L4xx_HAL_Driver/Src/stm32l4xx_hal_dma.c **** 
 1082              		.loc 1 585 3 view .LVU313
 585:../../../core/ST/STM32L4xx_HAL_Driver/Src/stm32l4xx_hal_dma.c **** 
 1083              		.loc 1 585 54 is_stmt 0 view .LVU314
 1084 0018 426C     		ldr	r2, [r0, #68]
 585:../../../core/ST/STM32L4xx_HAL_Driver/Src/stm32l4xx_hal_dma.c **** 
 1085              		.loc 1 585 69 view .LVU315
 1086 001a 02F01C02 		and	r2, r2, #28
 585:../../../core/ST/STM32L4xx_HAL_Driver/Src/stm32l4xx_hal_dma.c **** 
 1087              		.loc 1 585 7 view .LVU316
 1088 001e 006C     		ldr	r0, [r0, #64]
 1089              	.LVL58:
 585:../../../core/ST/STM32L4xx_HAL_Driver/Src/stm32l4xx_hal_dma.c **** 
 1090              		.loc 1 585 46 view .LVU317
 1091 0020 0121     		movs	r1, #1
 1092 0022 01FA02F2 		lsl	r2, r1, r2
 585:../../../core/ST/STM32L4xx_HAL_Driver/Src/stm32l4xx_hal_dma.c **** 
 1093              		.loc 1 585 30 view .LVU318
 1094 0026 4260     		str	r2, [r0, #4]
 604:../../../core/ST/STM32L4xx_HAL_Driver/Src/stm32l4xx_hal_dma.c **** 
 1095              		.loc 1 604 3 is_stmt 1 view .LVU319
 604:../../../core/ST/STM32L4xx_HAL_Driver/Src/stm32l4xx_hal_dma.c **** 
 1096              		.loc 1 604 15 is_stmt 0 view .LVU320
 1097 0028 83F82510 		strb	r1, [r3, #37]
 607:../../../core/ST/STM32L4xx_HAL_Driver/Src/stm32l4xx_hal_dma.c **** 
 1098              		.loc 1 607 3 is_stmt 1 view .LVU321
 607:../../../core/ST/STM32L4xx_HAL_Driver/Src/stm32l4xx_hal_dma.c **** 
ARM GAS  C:\Users\tijsv\AppData\Local\Temp\cc0UGmBk.s 			page 45


 1099              		.loc 1 607 3 view .LVU322
 1100 002c 0020     		movs	r0, #0
 1101 002e 83F82400 		strb	r0, [r3, #36]
 607:../../../core/ST/STM32L4xx_HAL_Driver/Src/stm32l4xx_hal_dma.c **** 
 1102              		.loc 1 607 3 view .LVU323
 609:../../../core/ST/STM32L4xx_HAL_Driver/Src/stm32l4xx_hal_dma.c **** }
 1103              		.loc 1 609 3 view .LVU324
 609:../../../core/ST/STM32L4xx_HAL_Driver/Src/stm32l4xx_hal_dma.c **** }
 1104              		.loc 1 609 10 is_stmt 0 view .LVU325
 1105 0032 7047     		bx	lr
 1106              	.LVL59:
 1107              	.L76:
 570:../../../core/ST/STM32L4xx_HAL_Driver/Src/stm32l4xx_hal_dma.c ****   }
 1108              		.loc 1 570 12 view .LVU326
 1109 0034 0120     		movs	r0, #1
 1110              	.LVL60:
 610:../../../core/ST/STM32L4xx_HAL_Driver/Src/stm32l4xx_hal_dma.c **** 
 1111              		.loc 1 610 1 view .LVU327
 1112 0036 7047     		bx	lr
 1113              		.cfi_endproc
 1114              	.LFE127:
 1116              		.section	.text.HAL_DMA_Abort_IT,"ax",%progbits
 1117              		.align	1
 1118              		.global	HAL_DMA_Abort_IT
 1119              		.syntax unified
 1120              		.thumb
 1121              		.thumb_func
 1122              		.fpu fpv4-sp-d16
 1124              	HAL_DMA_Abort_IT:
 1125              	.LVL61:
 1126              	.LFB128:
 619:../../../core/ST/STM32L4xx_HAL_Driver/Src/stm32l4xx_hal_dma.c ****   HAL_StatusTypeDef status = HAL_OK;
 1127              		.loc 1 619 1 is_stmt 1 view -0
 1128              		.cfi_startproc
 1129              		@ args = 0, pretend = 0, frame = 0
 1130              		@ frame_needed = 0, uses_anonymous_args = 0
 619:../../../core/ST/STM32L4xx_HAL_Driver/Src/stm32l4xx_hal_dma.c ****   HAL_StatusTypeDef status = HAL_OK;
 1131              		.loc 1 619 1 is_stmt 0 view .LVU329
 1132 0000 08B5     		push	{r3, lr}
 1133              	.LCFI9:
 1134              		.cfi_def_cfa_offset 8
 1135              		.cfi_offset 3, -8
 1136              		.cfi_offset 14, -4
 620:../../../core/ST/STM32L4xx_HAL_Driver/Src/stm32l4xx_hal_dma.c **** 
 1137              		.loc 1 620 3 is_stmt 1 view .LVU330
 1138              	.LVL62:
 622:../../../core/ST/STM32L4xx_HAL_Driver/Src/stm32l4xx_hal_dma.c ****   {
 1139              		.loc 1 622 3 view .LVU331
 622:../../../core/ST/STM32L4xx_HAL_Driver/Src/stm32l4xx_hal_dma.c ****   {
 1140              		.loc 1 622 32 is_stmt 0 view .LVU332
 1141 0002 90F82530 		ldrb	r3, [r0, #37]	@ zero_extendqisi2
 1142 0006 DBB2     		uxtb	r3, r3
 622:../../../core/ST/STM32L4xx_HAL_Driver/Src/stm32l4xx_hal_dma.c ****   {
 1143              		.loc 1 622 5 view .LVU333
 1144 0008 022B     		cmp	r3, #2
 1145 000a 03D0     		beq	.L78
 625:../../../core/ST/STM32L4xx_HAL_Driver/Src/stm32l4xx_hal_dma.c **** 
ARM GAS  C:\Users\tijsv\AppData\Local\Temp\cc0UGmBk.s 			page 46


 1146              		.loc 1 625 5 is_stmt 1 view .LVU334
 625:../../../core/ST/STM32L4xx_HAL_Driver/Src/stm32l4xx_hal_dma.c **** 
 1147              		.loc 1 625 21 is_stmt 0 view .LVU335
 1148 000c 0423     		movs	r3, #4
 1149 000e C363     		str	r3, [r0, #60]
 627:../../../core/ST/STM32L4xx_HAL_Driver/Src/stm32l4xx_hal_dma.c ****   }
 1150              		.loc 1 627 5 is_stmt 1 view .LVU336
 1151              	.LVL63:
 627:../../../core/ST/STM32L4xx_HAL_Driver/Src/stm32l4xx_hal_dma.c ****   }
 1152              		.loc 1 627 12 is_stmt 0 view .LVU337
 1153 0010 0120     		movs	r0, #1
 1154              	.LVL64:
 1155              	.L79:
 674:../../../core/ST/STM32L4xx_HAL_Driver/Src/stm32l4xx_hal_dma.c **** }
 1156              		.loc 1 674 3 is_stmt 1 view .LVU338
 675:../../../core/ST/STM32L4xx_HAL_Driver/Src/stm32l4xx_hal_dma.c **** 
 1157              		.loc 1 675 1 is_stmt 0 view .LVU339
 1158 0012 08BD     		pop	{r3, pc}
 1159              	.LVL65:
 1160              	.L78:
 632:../../../core/ST/STM32L4xx_HAL_Driver/Src/stm32l4xx_hal_dma.c **** 
 1161              		.loc 1 632 5 is_stmt 1 view .LVU340
 1162 0014 0268     		ldr	r2, [r0]
 1163 0016 1368     		ldr	r3, [r2]
 1164 0018 23F00E03 		bic	r3, r3, #14
 1165 001c 1360     		str	r3, [r2]
 635:../../../core/ST/STM32L4xx_HAL_Driver/Src/stm32l4xx_hal_dma.c **** 
 1166              		.loc 1 635 5 view .LVU341
 1167 001e 0268     		ldr	r2, [r0]
 1168 0020 1368     		ldr	r3, [r2]
 1169 0022 23F00103 		bic	r3, r3, #1
 1170 0026 1360     		str	r3, [r2]
 659:../../../core/ST/STM32L4xx_HAL_Driver/Src/stm32l4xx_hal_dma.c **** #endif /* DMAMUX1 */
 1171              		.loc 1 659 5 view .LVU342
 659:../../../core/ST/STM32L4xx_HAL_Driver/Src/stm32l4xx_hal_dma.c **** #endif /* DMAMUX1 */
 1172              		.loc 1 659 56 is_stmt 0 view .LVU343
 1173 0028 436C     		ldr	r3, [r0, #68]
 659:../../../core/ST/STM32L4xx_HAL_Driver/Src/stm32l4xx_hal_dma.c **** #endif /* DMAMUX1 */
 1174              		.loc 1 659 71 view .LVU344
 1175 002a 03F01C03 		and	r3, r3, #28
 659:../../../core/ST/STM32L4xx_HAL_Driver/Src/stm32l4xx_hal_dma.c **** #endif /* DMAMUX1 */
 1176              		.loc 1 659 9 view .LVU345
 1177 002e 016C     		ldr	r1, [r0, #64]
 659:../../../core/ST/STM32L4xx_HAL_Driver/Src/stm32l4xx_hal_dma.c **** #endif /* DMAMUX1 */
 1178              		.loc 1 659 48 view .LVU346
 1179 0030 0122     		movs	r2, #1
 1180 0032 02FA03F3 		lsl	r3, r2, r3
 659:../../../core/ST/STM32L4xx_HAL_Driver/Src/stm32l4xx_hal_dma.c **** #endif /* DMAMUX1 */
 1181              		.loc 1 659 32 view .LVU347
 1182 0036 4B60     		str	r3, [r1, #4]
 663:../../../core/ST/STM32L4xx_HAL_Driver/Src/stm32l4xx_hal_dma.c **** 
 1183              		.loc 1 663 5 is_stmt 1 view .LVU348
 663:../../../core/ST/STM32L4xx_HAL_Driver/Src/stm32l4xx_hal_dma.c **** 
 1184              		.loc 1 663 17 is_stmt 0 view .LVU349
 1185 0038 80F82520 		strb	r2, [r0, #37]
 666:../../../core/ST/STM32L4xx_HAL_Driver/Src/stm32l4xx_hal_dma.c **** 
 1186              		.loc 1 666 5 is_stmt 1 view .LVU350
ARM GAS  C:\Users\tijsv\AppData\Local\Temp\cc0UGmBk.s 			page 47


 666:../../../core/ST/STM32L4xx_HAL_Driver/Src/stm32l4xx_hal_dma.c **** 
 1187              		.loc 1 666 5 view .LVU351
 1188 003c 0023     		movs	r3, #0
 1189 003e 80F82430 		strb	r3, [r0, #36]
 666:../../../core/ST/STM32L4xx_HAL_Driver/Src/stm32l4xx_hal_dma.c **** 
 1190              		.loc 1 666 5 view .LVU352
 669:../../../core/ST/STM32L4xx_HAL_Driver/Src/stm32l4xx_hal_dma.c ****     {
 1191              		.loc 1 669 5 view .LVU353
 669:../../../core/ST/STM32L4xx_HAL_Driver/Src/stm32l4xx_hal_dma.c ****     {
 1192              		.loc 1 669 12 is_stmt 0 view .LVU354
 1193 0042 836B     		ldr	r3, [r0, #56]
 669:../../../core/ST/STM32L4xx_HAL_Driver/Src/stm32l4xx_hal_dma.c ****     {
 1194              		.loc 1 669 7 view .LVU355
 1195 0044 13B1     		cbz	r3, .L80
 671:../../../core/ST/STM32L4xx_HAL_Driver/Src/stm32l4xx_hal_dma.c ****     }
 1196              		.loc 1 671 7 is_stmt 1 view .LVU356
 1197 0046 9847     		blx	r3
 1198              	.LVL66:
 620:../../../core/ST/STM32L4xx_HAL_Driver/Src/stm32l4xx_hal_dma.c **** 
 1199              		.loc 1 620 21 is_stmt 0 view .LVU357
 1200 0048 0020     		movs	r0, #0
 1201 004a E2E7     		b	.L79
 1202              	.LVL67:
 1203              	.L80:
 620:../../../core/ST/STM32L4xx_HAL_Driver/Src/stm32l4xx_hal_dma.c **** 
 1204              		.loc 1 620 21 view .LVU358
 1205 004c 0020     		movs	r0, #0
 1206              	.LVL68:
 620:../../../core/ST/STM32L4xx_HAL_Driver/Src/stm32l4xx_hal_dma.c **** 
 1207              		.loc 1 620 21 view .LVU359
 1208 004e E0E7     		b	.L79
 1209              		.cfi_endproc
 1210              	.LFE128:
 1212              		.section	.text.HAL_DMA_PollForTransfer,"ax",%progbits
 1213              		.align	1
 1214              		.global	HAL_DMA_PollForTransfer
 1215              		.syntax unified
 1216              		.thumb
 1217              		.thumb_func
 1218              		.fpu fpv4-sp-d16
 1220              	HAL_DMA_PollForTransfer:
 1221              	.LVL69:
 1222              	.LFB129:
 686:../../../core/ST/STM32L4xx_HAL_Driver/Src/stm32l4xx_hal_dma.c ****   uint32_t temp;
 1223              		.loc 1 686 1 is_stmt 1 view -0
 1224              		.cfi_startproc
 1225              		@ args = 0, pretend = 0, frame = 0
 1226              		@ frame_needed = 0, uses_anonymous_args = 0
 686:../../../core/ST/STM32L4xx_HAL_Driver/Src/stm32l4xx_hal_dma.c ****   uint32_t temp;
 1227              		.loc 1 686 1 is_stmt 0 view .LVU361
 1228 0000 2DE9F843 		push	{r3, r4, r5, r6, r7, r8, r9, lr}
 1229              	.LCFI10:
 1230              		.cfi_def_cfa_offset 32
 1231              		.cfi_offset 3, -32
 1232              		.cfi_offset 4, -28
 1233              		.cfi_offset 5, -24
 1234              		.cfi_offset 6, -20
ARM GAS  C:\Users\tijsv\AppData\Local\Temp\cc0UGmBk.s 			page 48


 1235              		.cfi_offset 7, -16
 1236              		.cfi_offset 8, -12
 1237              		.cfi_offset 9, -8
 1238              		.cfi_offset 14, -4
 1239 0004 0546     		mov	r5, r0
 687:../../../core/ST/STM32L4xx_HAL_Driver/Src/stm32l4xx_hal_dma.c ****   uint32_t tickstart;
 1240              		.loc 1 687 3 is_stmt 1 view .LVU362
 688:../../../core/ST/STM32L4xx_HAL_Driver/Src/stm32l4xx_hal_dma.c **** 
 1241              		.loc 1 688 3 view .LVU363
 690:../../../core/ST/STM32L4xx_HAL_Driver/Src/stm32l4xx_hal_dma.c ****   {
 1242              		.loc 1 690 3 view .LVU364
 690:../../../core/ST/STM32L4xx_HAL_Driver/Src/stm32l4xx_hal_dma.c ****   {
 1243              		.loc 1 690 32 is_stmt 0 view .LVU365
 1244 0006 90F82530 		ldrb	r3, [r0, #37]	@ zero_extendqisi2
 1245 000a DBB2     		uxtb	r3, r3
 690:../../../core/ST/STM32L4xx_HAL_Driver/Src/stm32l4xx_hal_dma.c ****   {
 1246              		.loc 1 690 5 view .LVU366
 1247 000c 022B     		cmp	r3, #2
 1248 000e 07D0     		beq	.L83
 693:../../../core/ST/STM32L4xx_HAL_Driver/Src/stm32l4xx_hal_dma.c ****     __HAL_UNLOCK(hdma);
 1249              		.loc 1 693 5 is_stmt 1 view .LVU367
 693:../../../core/ST/STM32L4xx_HAL_Driver/Src/stm32l4xx_hal_dma.c ****     __HAL_UNLOCK(hdma);
 1250              		.loc 1 693 21 is_stmt 0 view .LVU368
 1251 0010 0423     		movs	r3, #4
 1252 0012 C363     		str	r3, [r0, #60]
 694:../../../core/ST/STM32L4xx_HAL_Driver/Src/stm32l4xx_hal_dma.c ****     return HAL_ERROR;
 1253              		.loc 1 694 5 is_stmt 1 view .LVU369
 694:../../../core/ST/STM32L4xx_HAL_Driver/Src/stm32l4xx_hal_dma.c ****     return HAL_ERROR;
 1254              		.loc 1 694 5 view .LVU370
 1255 0014 0023     		movs	r3, #0
 1256 0016 80F82430 		strb	r3, [r0, #36]
 694:../../../core/ST/STM32L4xx_HAL_Driver/Src/stm32l4xx_hal_dma.c ****     return HAL_ERROR;
 1257              		.loc 1 694 5 view .LVU371
 695:../../../core/ST/STM32L4xx_HAL_Driver/Src/stm32l4xx_hal_dma.c ****   }
 1258              		.loc 1 695 5 view .LVU372
 695:../../../core/ST/STM32L4xx_HAL_Driver/Src/stm32l4xx_hal_dma.c ****   }
 1259              		.loc 1 695 12 is_stmt 0 view .LVU373
 1260 001a 0120     		movs	r0, #1
 1261              	.LVL70:
 1262              	.L84:
 807:../../../core/ST/STM32L4xx_HAL_Driver/Src/stm32l4xx_hal_dma.c **** 
 1263              		.loc 1 807 1 view .LVU374
 1264 001c BDE8F883 		pop	{r3, r4, r5, r6, r7, r8, r9, pc}
 1265              	.LVL71:
 1266              	.L83:
 807:../../../core/ST/STM32L4xx_HAL_Driver/Src/stm32l4xx_hal_dma.c **** 
 1267              		.loc 1 807 1 view .LVU375
 1268 0020 8846     		mov	r8, r1
 1269 0022 1646     		mov	r6, r2
 699:../../../core/ST/STM32L4xx_HAL_Driver/Src/stm32l4xx_hal_dma.c ****   {
 1270              		.loc 1 699 3 is_stmt 1 view .LVU376
 699:../../../core/ST/STM32L4xx_HAL_Driver/Src/stm32l4xx_hal_dma.c ****   {
 1271              		.loc 1 699 18 is_stmt 0 view .LVU377
 1272 0024 0368     		ldr	r3, [r0]
 699:../../../core/ST/STM32L4xx_HAL_Driver/Src/stm32l4xx_hal_dma.c ****   {
 1273              		.loc 1 699 28 view .LVU378
 1274 0026 1B68     		ldr	r3, [r3]
ARM GAS  C:\Users\tijsv\AppData\Local\Temp\cc0UGmBk.s 			page 49


 699:../../../core/ST/STM32L4xx_HAL_Driver/Src/stm32l4xx_hal_dma.c ****   {
 1275              		.loc 1 699 6 view .LVU379
 1276 0028 13F0200F 		tst	r3, #32
 1277 002c 29D1     		bne	.L96
 706:../../../core/ST/STM32L4xx_HAL_Driver/Src/stm32l4xx_hal_dma.c ****   {
 1278              		.loc 1 706 3 is_stmt 1 view .LVU380
 706:../../../core/ST/STM32L4xx_HAL_Driver/Src/stm32l4xx_hal_dma.c ****   {
 1279              		.loc 1 706 6 is_stmt 0 view .LVU381
 1280 002e 69BB     		cbnz	r1, .L86
 709:../../../core/ST/STM32L4xx_HAL_Driver/Src/stm32l4xx_hal_dma.c ****   }
 1281              		.loc 1 709 5 is_stmt 1 view .LVU382
 709:../../../core/ST/STM32L4xx_HAL_Driver/Src/stm32l4xx_hal_dma.c ****   }
 1282              		.loc 1 709 33 is_stmt 0 view .LVU383
 1283 0030 476C     		ldr	r7, [r0, #68]
 709:../../../core/ST/STM32L4xx_HAL_Driver/Src/stm32l4xx_hal_dma.c ****   }
 1284              		.loc 1 709 48 view .LVU384
 1285 0032 07F01C07 		and	r7, r7, #28
 709:../../../core/ST/STM32L4xx_HAL_Driver/Src/stm32l4xx_hal_dma.c ****   }
 1286              		.loc 1 709 10 view .LVU385
 1287 0036 0223     		movs	r3, #2
 1288 0038 03FA07F7 		lsl	r7, r3, r7
 1289              	.LVL72:
 1290              	.L87:
 718:../../../core/ST/STM32L4xx_HAL_Driver/Src/stm32l4xx_hal_dma.c **** 
 1291              		.loc 1 718 3 is_stmt 1 view .LVU386
 718:../../../core/ST/STM32L4xx_HAL_Driver/Src/stm32l4xx_hal_dma.c **** 
 1292              		.loc 1 718 15 is_stmt 0 view .LVU387
 1293 003c FFF7FEFF 		bl	HAL_GetTick
 1294              	.LVL73:
 718:../../../core/ST/STM32L4xx_HAL_Driver/Src/stm32l4xx_hal_dma.c **** 
 1295              		.loc 1 718 15 view .LVU388
 1296 0040 8146     		mov	r9, r0
 1297              	.LVL74:
 720:../../../core/ST/STM32L4xx_HAL_Driver/Src/stm32l4xx_hal_dma.c ****   {
 1298              		.loc 1 720 3 is_stmt 1 view .LVU389
 1299              	.L90:
 720:../../../core/ST/STM32L4xx_HAL_Driver/Src/stm32l4xx_hal_dma.c ****   {
 1300              		.loc 1 720 8 view .LVU390
 720:../../../core/ST/STM32L4xx_HAL_Driver/Src/stm32l4xx_hal_dma.c ****   {
 1301              		.loc 1 720 20 is_stmt 0 view .LVU391
 1302 0042 2A6C     		ldr	r2, [r5, #64]
 720:../../../core/ST/STM32L4xx_HAL_Driver/Src/stm32l4xx_hal_dma.c ****   {
 1303              		.loc 1 720 36 view .LVU392
 1304 0044 1368     		ldr	r3, [r2]
 720:../../../core/ST/STM32L4xx_HAL_Driver/Src/stm32l4xx_hal_dma.c ****   {
 1305              		.loc 1 720 8 view .LVU393
 1306 0046 3B42     		tst	r3, r7
 1307 0048 32D1     		bne	.L97
 722:../../../core/ST/STM32L4xx_HAL_Driver/Src/stm32l4xx_hal_dma.c ****     {
 1308              		.loc 1 722 5 is_stmt 1 view .LVU394
 722:../../../core/ST/STM32L4xx_HAL_Driver/Src/stm32l4xx_hal_dma.c ****     {
 1309              		.loc 1 722 36 is_stmt 0 view .LVU395
 1310 004a 1168     		ldr	r1, [r2]
 722:../../../core/ST/STM32L4xx_HAL_Driver/Src/stm32l4xx_hal_dma.c ****     {
 1311              		.loc 1 722 66 view .LVU396
 1312 004c 6B6C     		ldr	r3, [r5, #68]
 722:../../../core/ST/STM32L4xx_HAL_Driver/Src/stm32l4xx_hal_dma.c ****     {
ARM GAS  C:\Users\tijsv\AppData\Local\Temp\cc0UGmBk.s 			page 50


 1313              		.loc 1 722 80 view .LVU397
 1314 004e 03F01C03 		and	r3, r3, #28
 722:../../../core/ST/STM32L4xx_HAL_Driver/Src/stm32l4xx_hal_dma.c ****     {
 1315              		.loc 1 722 58 view .LVU398
 1316 0052 0824     		movs	r4, #8
 1317 0054 9C40     		lsls	r4, r4, r3
 722:../../../core/ST/STM32L4xx_HAL_Driver/Src/stm32l4xx_hal_dma.c ****     {
 1318              		.loc 1 722 7 view .LVU399
 1319 0056 2142     		tst	r1, r4
 1320 0058 1FD1     		bne	.L98
 741:../../../core/ST/STM32L4xx_HAL_Driver/Src/stm32l4xx_hal_dma.c ****     {
 1321              		.loc 1 741 5 is_stmt 1 view .LVU400
 741:../../../core/ST/STM32L4xx_HAL_Driver/Src/stm32l4xx_hal_dma.c ****     {
 1322              		.loc 1 741 7 is_stmt 0 view .LVU401
 1323 005a B6F1FF3F 		cmp	r6, #-1
 1324 005e F0D0     		beq	.L90
 743:../../../core/ST/STM32L4xx_HAL_Driver/Src/stm32l4xx_hal_dma.c ****       {
 1325              		.loc 1 743 7 is_stmt 1 view .LVU402
 743:../../../core/ST/STM32L4xx_HAL_Driver/Src/stm32l4xx_hal_dma.c ****       {
 1326              		.loc 1 743 12 is_stmt 0 view .LVU403
 1327 0060 FFF7FEFF 		bl	HAL_GetTick
 1328              	.LVL75:
 743:../../../core/ST/STM32L4xx_HAL_Driver/Src/stm32l4xx_hal_dma.c ****       {
 1329              		.loc 1 743 26 view .LVU404
 1330 0064 A0EB0900 		sub	r0, r0, r9
 743:../../../core/ST/STM32L4xx_HAL_Driver/Src/stm32l4xx_hal_dma.c ****       {
 1331              		.loc 1 743 9 view .LVU405
 1332 0068 B042     		cmp	r0, r6
 1333 006a 01D8     		bhi	.L91
 743:../../../core/ST/STM32L4xx_HAL_Driver/Src/stm32l4xx_hal_dma.c ****       {
 1334              		.loc 1 743 50 discriminator 1 view .LVU406
 1335 006c 002E     		cmp	r6, #0
 1336 006e E8D1     		bne	.L90
 1337              	.L91:
 746:../../../core/ST/STM32L4xx_HAL_Driver/Src/stm32l4xx_hal_dma.c **** 
 1338              		.loc 1 746 9 is_stmt 1 view .LVU407
 746:../../../core/ST/STM32L4xx_HAL_Driver/Src/stm32l4xx_hal_dma.c **** 
 1339              		.loc 1 746 25 is_stmt 0 view .LVU408
 1340 0070 2023     		movs	r3, #32
 1341 0072 EB63     		str	r3, [r5, #60]
 749:../../../core/ST/STM32L4xx_HAL_Driver/Src/stm32l4xx_hal_dma.c **** 
 1342              		.loc 1 749 9 is_stmt 1 view .LVU409
 749:../../../core/ST/STM32L4xx_HAL_Driver/Src/stm32l4xx_hal_dma.c **** 
 1343              		.loc 1 749 21 is_stmt 0 view .LVU410
 1344 0074 0120     		movs	r0, #1
 1345 0076 85F82500 		strb	r0, [r5, #37]
 752:../../../core/ST/STM32L4xx_HAL_Driver/Src/stm32l4xx_hal_dma.c **** 
 1346              		.loc 1 752 9 is_stmt 1 view .LVU411
 752:../../../core/ST/STM32L4xx_HAL_Driver/Src/stm32l4xx_hal_dma.c **** 
 1347              		.loc 1 752 9 view .LVU412
 1348 007a 0023     		movs	r3, #0
 1349 007c 85F82430 		strb	r3, [r5, #36]
 752:../../../core/ST/STM32L4xx_HAL_Driver/Src/stm32l4xx_hal_dma.c **** 
 1350              		.loc 1 752 9 view .LVU413
 754:../../../core/ST/STM32L4xx_HAL_Driver/Src/stm32l4xx_hal_dma.c ****       }
 1351              		.loc 1 754 9 view .LVU414
 754:../../../core/ST/STM32L4xx_HAL_Driver/Src/stm32l4xx_hal_dma.c ****       }
ARM GAS  C:\Users\tijsv\AppData\Local\Temp\cc0UGmBk.s 			page 51


 1352              		.loc 1 754 16 is_stmt 0 view .LVU415
 1353 0080 CCE7     		b	.L84
 1354              	.LVL76:
 1355              	.L96:
 701:../../../core/ST/STM32L4xx_HAL_Driver/Src/stm32l4xx_hal_dma.c ****     return HAL_ERROR;
 1356              		.loc 1 701 5 is_stmt 1 view .LVU416
 701:../../../core/ST/STM32L4xx_HAL_Driver/Src/stm32l4xx_hal_dma.c ****     return HAL_ERROR;
 1357              		.loc 1 701 21 is_stmt 0 view .LVU417
 1358 0082 4FF48073 		mov	r3, #256
 1359 0086 C363     		str	r3, [r0, #60]
 702:../../../core/ST/STM32L4xx_HAL_Driver/Src/stm32l4xx_hal_dma.c ****   }
 1360              		.loc 1 702 5 is_stmt 1 view .LVU418
 702:../../../core/ST/STM32L4xx_HAL_Driver/Src/stm32l4xx_hal_dma.c ****   }
 1361              		.loc 1 702 12 is_stmt 0 view .LVU419
 1362 0088 0120     		movs	r0, #1
 1363              	.LVL77:
 702:../../../core/ST/STM32L4xx_HAL_Driver/Src/stm32l4xx_hal_dma.c ****   }
 1364              		.loc 1 702 12 view .LVU420
 1365 008a C7E7     		b	.L84
 1366              	.LVL78:
 1367              	.L86:
 714:../../../core/ST/STM32L4xx_HAL_Driver/Src/stm32l4xx_hal_dma.c ****   }
 1368              		.loc 1 714 5 is_stmt 1 view .LVU421
 714:../../../core/ST/STM32L4xx_HAL_Driver/Src/stm32l4xx_hal_dma.c ****   }
 1369              		.loc 1 714 33 is_stmt 0 view .LVU422
 1370 008c 476C     		ldr	r7, [r0, #68]
 714:../../../core/ST/STM32L4xx_HAL_Driver/Src/stm32l4xx_hal_dma.c ****   }
 1371              		.loc 1 714 48 view .LVU423
 1372 008e 07F01C07 		and	r7, r7, #28
 714:../../../core/ST/STM32L4xx_HAL_Driver/Src/stm32l4xx_hal_dma.c ****   }
 1373              		.loc 1 714 10 view .LVU424
 1374 0092 0423     		movs	r3, #4
 1375 0094 03FA07F7 		lsl	r7, r3, r7
 1376              	.LVL79:
 714:../../../core/ST/STM32L4xx_HAL_Driver/Src/stm32l4xx_hal_dma.c ****   }
 1377              		.loc 1 714 10 view .LVU425
 1378 0098 D0E7     		b	.L87
 1379              	.LVL80:
 1380              	.L98:
 727:../../../core/ST/STM32L4xx_HAL_Driver/Src/stm32l4xx_hal_dma.c **** 
 1381              		.loc 1 727 7 is_stmt 1 view .LVU426
 727:../../../core/ST/STM32L4xx_HAL_Driver/Src/stm32l4xx_hal_dma.c **** 
 1382              		.loc 1 727 50 is_stmt 0 view .LVU427
 1383 009a 0120     		movs	r0, #1
 1384 009c 00FA03F3 		lsl	r3, r0, r3
 727:../../../core/ST/STM32L4xx_HAL_Driver/Src/stm32l4xx_hal_dma.c **** 
 1385              		.loc 1 727 34 view .LVU428
 1386 00a0 5360     		str	r3, [r2, #4]
 730:../../../core/ST/STM32L4xx_HAL_Driver/Src/stm32l4xx_hal_dma.c **** 
 1387              		.loc 1 730 7 is_stmt 1 view .LVU429
 730:../../../core/ST/STM32L4xx_HAL_Driver/Src/stm32l4xx_hal_dma.c **** 
 1388              		.loc 1 730 23 is_stmt 0 view .LVU430
 1389 00a2 E863     		str	r0, [r5, #60]
 733:../../../core/ST/STM32L4xx_HAL_Driver/Src/stm32l4xx_hal_dma.c **** 
 1390              		.loc 1 733 7 is_stmt 1 view .LVU431
 733:../../../core/ST/STM32L4xx_HAL_Driver/Src/stm32l4xx_hal_dma.c **** 
 1391              		.loc 1 733 18 is_stmt 0 view .LVU432
ARM GAS  C:\Users\tijsv\AppData\Local\Temp\cc0UGmBk.s 			page 52


 1392 00a4 85F82500 		strb	r0, [r5, #37]
 736:../../../core/ST/STM32L4xx_HAL_Driver/Src/stm32l4xx_hal_dma.c **** 
 1393              		.loc 1 736 7 is_stmt 1 view .LVU433
 736:../../../core/ST/STM32L4xx_HAL_Driver/Src/stm32l4xx_hal_dma.c **** 
 1394              		.loc 1 736 7 view .LVU434
 1395 00a8 0023     		movs	r3, #0
 1396 00aa 85F82430 		strb	r3, [r5, #36]
 736:../../../core/ST/STM32L4xx_HAL_Driver/Src/stm32l4xx_hal_dma.c **** 
 1397              		.loc 1 736 7 view .LVU435
 738:../../../core/ST/STM32L4xx_HAL_Driver/Src/stm32l4xx_hal_dma.c ****     }
 1398              		.loc 1 738 7 view .LVU436
 738:../../../core/ST/STM32L4xx_HAL_Driver/Src/stm32l4xx_hal_dma.c ****     }
 1399              		.loc 1 738 14 is_stmt 0 view .LVU437
 1400 00ae B5E7     		b	.L84
 1401              	.L97:
 788:../../../core/ST/STM32L4xx_HAL_Driver/Src/stm32l4xx_hal_dma.c ****   {
 1402              		.loc 1 788 3 is_stmt 1 view .LVU438
 788:../../../core/ST/STM32L4xx_HAL_Driver/Src/stm32l4xx_hal_dma.c ****   {
 1403              		.loc 1 788 5 is_stmt 0 view .LVU439
 1404 00b0 B8F1000F 		cmp	r8, #0
 1405 00b4 0CD1     		bne	.L93
 791:../../../core/ST/STM32L4xx_HAL_Driver/Src/stm32l4xx_hal_dma.c **** 
 1406              		.loc 1 791 5 is_stmt 1 view .LVU440
 791:../../../core/ST/STM32L4xx_HAL_Driver/Src/stm32l4xx_hal_dma.c **** 
 1407              		.loc 1 791 56 is_stmt 0 view .LVU441
 1408 00b6 6B6C     		ldr	r3, [r5, #68]
 791:../../../core/ST/STM32L4xx_HAL_Driver/Src/stm32l4xx_hal_dma.c **** 
 1409              		.loc 1 791 70 view .LVU442
 1410 00b8 03F01C01 		and	r1, r3, #28
 791:../../../core/ST/STM32L4xx_HAL_Driver/Src/stm32l4xx_hal_dma.c **** 
 1411              		.loc 1 791 48 view .LVU443
 1412 00bc 0223     		movs	r3, #2
 1413 00be 8B40     		lsls	r3, r3, r1
 791:../../../core/ST/STM32L4xx_HAL_Driver/Src/stm32l4xx_hal_dma.c **** 
 1414              		.loc 1 791 32 view .LVU444
 1415 00c0 5360     		str	r3, [r2, #4]
 795:../../../core/ST/STM32L4xx_HAL_Driver/Src/stm32l4xx_hal_dma.c ****   }
 1416              		.loc 1 795 5 is_stmt 1 view .LVU445
 795:../../../core/ST/STM32L4xx_HAL_Driver/Src/stm32l4xx_hal_dma.c ****   }
 1417              		.loc 1 795 17 is_stmt 0 view .LVU446
 1418 00c2 0123     		movs	r3, #1
 1419 00c4 85F82530 		strb	r3, [r5, #37]
 1420              	.L94:
 804:../../../core/ST/STM32L4xx_HAL_Driver/Src/stm32l4xx_hal_dma.c **** 
 1421              		.loc 1 804 3 is_stmt 1 view .LVU447
 804:../../../core/ST/STM32L4xx_HAL_Driver/Src/stm32l4xx_hal_dma.c **** 
 1422              		.loc 1 804 3 view .LVU448
 1423 00c8 0020     		movs	r0, #0
 1424 00ca 85F82400 		strb	r0, [r5, #36]
 804:../../../core/ST/STM32L4xx_HAL_Driver/Src/stm32l4xx_hal_dma.c **** 
 1425              		.loc 1 804 3 view .LVU449
 806:../../../core/ST/STM32L4xx_HAL_Driver/Src/stm32l4xx_hal_dma.c **** }
 1426              		.loc 1 806 3 view .LVU450
 806:../../../core/ST/STM32L4xx_HAL_Driver/Src/stm32l4xx_hal_dma.c **** }
 1427              		.loc 1 806 10 is_stmt 0 view .LVU451
 1428 00ce A5E7     		b	.L84
 1429              	.L93:
ARM GAS  C:\Users\tijsv\AppData\Local\Temp\cc0UGmBk.s 			page 53


 800:../../../core/ST/STM32L4xx_HAL_Driver/Src/stm32l4xx_hal_dma.c ****   }
 1430              		.loc 1 800 5 is_stmt 1 view .LVU452
 800:../../../core/ST/STM32L4xx_HAL_Driver/Src/stm32l4xx_hal_dma.c ****   }
 1431              		.loc 1 800 56 is_stmt 0 view .LVU453
 1432 00d0 6B6C     		ldr	r3, [r5, #68]
 800:../../../core/ST/STM32L4xx_HAL_Driver/Src/stm32l4xx_hal_dma.c ****   }
 1433              		.loc 1 800 71 view .LVU454
 1434 00d2 03F01C01 		and	r1, r3, #28
 800:../../../core/ST/STM32L4xx_HAL_Driver/Src/stm32l4xx_hal_dma.c ****   }
 1435              		.loc 1 800 48 view .LVU455
 1436 00d6 0423     		movs	r3, #4
 1437 00d8 8B40     		lsls	r3, r3, r1
 800:../../../core/ST/STM32L4xx_HAL_Driver/Src/stm32l4xx_hal_dma.c ****   }
 1438              		.loc 1 800 32 view .LVU456
 1439 00da 5360     		str	r3, [r2, #4]
 1440 00dc F4E7     		b	.L94
 1441              		.cfi_endproc
 1442              	.LFE129:
 1444              		.section	.text.HAL_DMA_IRQHandler,"ax",%progbits
 1445              		.align	1
 1446              		.global	HAL_DMA_IRQHandler
 1447              		.syntax unified
 1448              		.thumb
 1449              		.thumb_func
 1450              		.fpu fpv4-sp-d16
 1452              	HAL_DMA_IRQHandler:
 1453              	.LVL81:
 1454              	.LFB130:
 816:../../../core/ST/STM32L4xx_HAL_Driver/Src/stm32l4xx_hal_dma.c ****   uint32_t flag_it = hdma->DmaBaseAddress->ISR;
 1455              		.loc 1 816 1 is_stmt 1 view -0
 1456              		.cfi_startproc
 1457              		@ args = 0, pretend = 0, frame = 0
 1458              		@ frame_needed = 0, uses_anonymous_args = 0
 816:../../../core/ST/STM32L4xx_HAL_Driver/Src/stm32l4xx_hal_dma.c ****   uint32_t flag_it = hdma->DmaBaseAddress->ISR;
 1459              		.loc 1 816 1 is_stmt 0 view .LVU458
 1460 0000 38B5     		push	{r3, r4, r5, lr}
 1461              	.LCFI11:
 1462              		.cfi_def_cfa_offset 16
 1463              		.cfi_offset 3, -16
 1464              		.cfi_offset 4, -12
 1465              		.cfi_offset 5, -8
 1466              		.cfi_offset 14, -4
 817:../../../core/ST/STM32L4xx_HAL_Driver/Src/stm32l4xx_hal_dma.c ****   uint32_t source_it = hdma->Instance->CCR;
 1467              		.loc 1 817 3 is_stmt 1 view .LVU459
 817:../../../core/ST/STM32L4xx_HAL_Driver/Src/stm32l4xx_hal_dma.c ****   uint32_t source_it = hdma->Instance->CCR;
 1468              		.loc 1 817 26 is_stmt 0 view .LVU460
 1469 0002 036C     		ldr	r3, [r0, #64]
 817:../../../core/ST/STM32L4xx_HAL_Driver/Src/stm32l4xx_hal_dma.c ****   uint32_t source_it = hdma->Instance->CCR;
 1470              		.loc 1 817 12 view .LVU461
 1471 0004 1968     		ldr	r1, [r3]
 1472              	.LVL82:
 818:../../../core/ST/STM32L4xx_HAL_Driver/Src/stm32l4xx_hal_dma.c **** 
 1473              		.loc 1 818 3 is_stmt 1 view .LVU462
 818:../../../core/ST/STM32L4xx_HAL_Driver/Src/stm32l4xx_hal_dma.c **** 
 1474              		.loc 1 818 28 is_stmt 0 view .LVU463
 1475 0006 0468     		ldr	r4, [r0]
 818:../../../core/ST/STM32L4xx_HAL_Driver/Src/stm32l4xx_hal_dma.c **** 
ARM GAS  C:\Users\tijsv\AppData\Local\Temp\cc0UGmBk.s 			page 54


 1476              		.loc 1 818 12 view .LVU464
 1477 0008 2568     		ldr	r5, [r4]
 1478              	.LVL83:
 821:../../../core/ST/STM32L4xx_HAL_Driver/Src/stm32l4xx_hal_dma.c ****   {
 1479              		.loc 1 821 3 is_stmt 1 view .LVU465
 821:../../../core/ST/STM32L4xx_HAL_Driver/Src/stm32l4xx_hal_dma.c ****   {
 1480              		.loc 1 821 47 is_stmt 0 view .LVU466
 1481 000a 436C     		ldr	r3, [r0, #68]
 821:../../../core/ST/STM32L4xx_HAL_Driver/Src/stm32l4xx_hal_dma.c ****   {
 1482              		.loc 1 821 62 view .LVU467
 1483 000c 03F01C03 		and	r3, r3, #28
 821:../../../core/ST/STM32L4xx_HAL_Driver/Src/stm32l4xx_hal_dma.c ****   {
 1484              		.loc 1 821 39 view .LVU468
 1485 0010 0422     		movs	r2, #4
 1486 0012 9A40     		lsls	r2, r2, r3
 821:../../../core/ST/STM32L4xx_HAL_Driver/Src/stm32l4xx_hal_dma.c ****   {
 1487              		.loc 1 821 6 view .LVU469
 1488 0014 0A42     		tst	r2, r1
 1489 0016 15D0     		beq	.L100
 821:../../../core/ST/STM32L4xx_HAL_Driver/Src/stm32l4xx_hal_dma.c ****   {
 1490              		.loc 1 821 74 discriminator 1 view .LVU470
 1491 0018 15F0040F 		tst	r5, #4
 1492 001c 12D0     		beq	.L100
 824:../../../core/ST/STM32L4xx_HAL_Driver/Src/stm32l4xx_hal_dma.c ****       {
 1493              		.loc 1 824 7 is_stmt 1 view .LVU471
 824:../../../core/ST/STM32L4xx_HAL_Driver/Src/stm32l4xx_hal_dma.c ****       {
 1494              		.loc 1 824 25 is_stmt 0 view .LVU472
 1495 001e 2368     		ldr	r3, [r4]
 824:../../../core/ST/STM32L4xx_HAL_Driver/Src/stm32l4xx_hal_dma.c ****       {
 1496              		.loc 1 824 9 view .LVU473
 1497 0020 13F0200F 		tst	r3, #32
 1498 0024 03D1     		bne	.L101
 827:../../../core/ST/STM32L4xx_HAL_Driver/Src/stm32l4xx_hal_dma.c ****       }
 1499              		.loc 1 827 9 is_stmt 1 view .LVU474
 1500 0026 2368     		ldr	r3, [r4]
 1501 0028 23F00403 		bic	r3, r3, #4
 1502 002c 2360     		str	r3, [r4]
 1503              	.L101:
 830:../../../core/ST/STM32L4xx_HAL_Driver/Src/stm32l4xx_hal_dma.c **** 
 1504              		.loc 1 830 7 view .LVU475
 830:../../../core/ST/STM32L4xx_HAL_Driver/Src/stm32l4xx_hal_dma.c **** 
 1505              		.loc 1 830 58 is_stmt 0 view .LVU476
 1506 002e 436C     		ldr	r3, [r0, #68]
 830:../../../core/ST/STM32L4xx_HAL_Driver/Src/stm32l4xx_hal_dma.c **** 
 1507              		.loc 1 830 73 view .LVU477
 1508 0030 03F01C02 		and	r2, r3, #28
 830:../../../core/ST/STM32L4xx_HAL_Driver/Src/stm32l4xx_hal_dma.c **** 
 1509              		.loc 1 830 11 view .LVU478
 1510 0034 016C     		ldr	r1, [r0, #64]
 1511              	.LVL84:
 830:../../../core/ST/STM32L4xx_HAL_Driver/Src/stm32l4xx_hal_dma.c **** 
 1512              		.loc 1 830 50 view .LVU479
 1513 0036 0423     		movs	r3, #4
 1514 0038 9340     		lsls	r3, r3, r2
 830:../../../core/ST/STM32L4xx_HAL_Driver/Src/stm32l4xx_hal_dma.c **** 
 1515              		.loc 1 830 34 view .LVU480
 1516 003a 4B60     		str	r3, [r1, #4]
ARM GAS  C:\Users\tijsv\AppData\Local\Temp\cc0UGmBk.s 			page 55


 835:../../../core/ST/STM32L4xx_HAL_Driver/Src/stm32l4xx_hal_dma.c ****       {
 1517              		.loc 1 835 6 is_stmt 1 view .LVU481
 835:../../../core/ST/STM32L4xx_HAL_Driver/Src/stm32l4xx_hal_dma.c ****       {
 1518              		.loc 1 835 13 is_stmt 0 view .LVU482
 1519 003c 036B     		ldr	r3, [r0, #48]
 835:../../../core/ST/STM32L4xx_HAL_Driver/Src/stm32l4xx_hal_dma.c ****       {
 1520              		.loc 1 835 8 view .LVU483
 1521 003e 03B1     		cbz	r3, .L99
 838:../../../core/ST/STM32L4xx_HAL_Driver/Src/stm32l4xx_hal_dma.c ****       }
 1522              		.loc 1 838 9 is_stmt 1 view .LVU484
 1523 0040 9847     		blx	r3
 1524              	.LVL85:
 1525              	.L99:
 897:../../../core/ST/STM32L4xx_HAL_Driver/Src/stm32l4xx_hal_dma.c **** 
 1526              		.loc 1 897 1 is_stmt 0 view .LVU485
 1527 0042 38BD     		pop	{r3, r4, r5, pc}
 1528              	.LVL86:
 1529              	.L100:
 843:../../../core/ST/STM32L4xx_HAL_Driver/Src/stm32l4xx_hal_dma.c ****   {
 1530              		.loc 1 843 8 is_stmt 1 view .LVU486
 843:../../../core/ST/STM32L4xx_HAL_Driver/Src/stm32l4xx_hal_dma.c ****   {
 1531              		.loc 1 843 44 is_stmt 0 view .LVU487
 1532 0044 0222     		movs	r2, #2
 1533 0046 9A40     		lsls	r2, r2, r3
 843:../../../core/ST/STM32L4xx_HAL_Driver/Src/stm32l4xx_hal_dma.c ****   {
 1534              		.loc 1 843 11 view .LVU488
 1535 0048 0A42     		tst	r2, r1
 1536 004a 1CD0     		beq	.L103
 843:../../../core/ST/STM32L4xx_HAL_Driver/Src/stm32l4xx_hal_dma.c ****   {
 1537              		.loc 1 843 79 discriminator 1 view .LVU489
 1538 004c 15F0020F 		tst	r5, #2
 1539 0050 19D0     		beq	.L103
 845:../../../core/ST/STM32L4xx_HAL_Driver/Src/stm32l4xx_hal_dma.c ****     {
 1540              		.loc 1 845 5 is_stmt 1 view .LVU490
 845:../../../core/ST/STM32L4xx_HAL_Driver/Src/stm32l4xx_hal_dma.c ****     {
 1541              		.loc 1 845 23 is_stmt 0 view .LVU491
 1542 0052 2368     		ldr	r3, [r4]
 845:../../../core/ST/STM32L4xx_HAL_Driver/Src/stm32l4xx_hal_dma.c ****     {
 1543              		.loc 1 845 7 view .LVU492
 1544 0054 13F0200F 		tst	r3, #32
 1545 0058 06D1     		bne	.L104
 848:../../../core/ST/STM32L4xx_HAL_Driver/Src/stm32l4xx_hal_dma.c **** 
 1546              		.loc 1 848 7 is_stmt 1 view .LVU493
 1547 005a 2368     		ldr	r3, [r4]
 1548 005c 23F00A03 		bic	r3, r3, #10
 1549 0060 2360     		str	r3, [r4]
 851:../../../core/ST/STM32L4xx_HAL_Driver/Src/stm32l4xx_hal_dma.c ****     }
 1550              		.loc 1 851 7 view .LVU494
 851:../../../core/ST/STM32L4xx_HAL_Driver/Src/stm32l4xx_hal_dma.c ****     }
 1551              		.loc 1 851 19 is_stmt 0 view .LVU495
 1552 0062 0123     		movs	r3, #1
 1553 0064 80F82530 		strb	r3, [r0, #37]
 1554              	.L104:
 854:../../../core/ST/STM32L4xx_HAL_Driver/Src/stm32l4xx_hal_dma.c **** 
 1555              		.loc 1 854 5 is_stmt 1 view .LVU496
 854:../../../core/ST/STM32L4xx_HAL_Driver/Src/stm32l4xx_hal_dma.c **** 
 1556              		.loc 1 854 57 is_stmt 0 view .LVU497
ARM GAS  C:\Users\tijsv\AppData\Local\Temp\cc0UGmBk.s 			page 56


 1557 0068 436C     		ldr	r3, [r0, #68]
 854:../../../core/ST/STM32L4xx_HAL_Driver/Src/stm32l4xx_hal_dma.c **** 
 1558              		.loc 1 854 72 view .LVU498
 1559 006a 03F01C02 		and	r2, r3, #28
 854:../../../core/ST/STM32L4xx_HAL_Driver/Src/stm32l4xx_hal_dma.c **** 
 1560              		.loc 1 854 9 view .LVU499
 1561 006e 016C     		ldr	r1, [r0, #64]
 1562              	.LVL87:
 854:../../../core/ST/STM32L4xx_HAL_Driver/Src/stm32l4xx_hal_dma.c **** 
 1563              		.loc 1 854 49 view .LVU500
 1564 0070 0223     		movs	r3, #2
 1565 0072 9340     		lsls	r3, r3, r2
 854:../../../core/ST/STM32L4xx_HAL_Driver/Src/stm32l4xx_hal_dma.c **** 
 1566              		.loc 1 854 32 view .LVU501
 1567 0074 4B60     		str	r3, [r1, #4]
 857:../../../core/ST/STM32L4xx_HAL_Driver/Src/stm32l4xx_hal_dma.c **** 
 1568              		.loc 1 857 5 is_stmt 1 view .LVU502
 857:../../../core/ST/STM32L4xx_HAL_Driver/Src/stm32l4xx_hal_dma.c **** 
 1569              		.loc 1 857 5 view .LVU503
 1570 0076 0023     		movs	r3, #0
 1571 0078 80F82430 		strb	r3, [r0, #36]
 857:../../../core/ST/STM32L4xx_HAL_Driver/Src/stm32l4xx_hal_dma.c **** 
 1572              		.loc 1 857 5 view .LVU504
 859:../../../core/ST/STM32L4xx_HAL_Driver/Src/stm32l4xx_hal_dma.c ****     {
 1573              		.loc 1 859 5 view .LVU505
 859:../../../core/ST/STM32L4xx_HAL_Driver/Src/stm32l4xx_hal_dma.c ****     {
 1574              		.loc 1 859 12 is_stmt 0 view .LVU506
 1575 007c C36A     		ldr	r3, [r0, #44]
 859:../../../core/ST/STM32L4xx_HAL_Driver/Src/stm32l4xx_hal_dma.c ****     {
 1576              		.loc 1 859 7 view .LVU507
 1577 007e 002B     		cmp	r3, #0
 1578 0080 DFD0     		beq	.L99
 862:../../../core/ST/STM32L4xx_HAL_Driver/Src/stm32l4xx_hal_dma.c ****     }
 1579              		.loc 1 862 7 is_stmt 1 view .LVU508
 1580 0082 9847     		blx	r3
 1581              	.LVL88:
 862:../../../core/ST/STM32L4xx_HAL_Driver/Src/stm32l4xx_hal_dma.c ****     }
 1582              		.loc 1 862 7 is_stmt 0 view .LVU509
 1583 0084 DDE7     		b	.L99
 1584              	.LVL89:
 1585              	.L103:
 867:../../../core/ST/STM32L4xx_HAL_Driver/Src/stm32l4xx_hal_dma.c ****   {
 1586              		.loc 1 867 8 is_stmt 1 view .LVU510
 867:../../../core/ST/STM32L4xx_HAL_Driver/Src/stm32l4xx_hal_dma.c ****   {
 1587              		.loc 1 867 44 is_stmt 0 view .LVU511
 1588 0086 0822     		movs	r2, #8
 1589 0088 02FA03F3 		lsl	r3, r2, r3
 867:../../../core/ST/STM32L4xx_HAL_Driver/Src/stm32l4xx_hal_dma.c ****   {
 1590              		.loc 1 867 11 view .LVU512
 1591 008c 0B42     		tst	r3, r1
 1592 008e D8D0     		beq	.L99
 867:../../../core/ST/STM32L4xx_HAL_Driver/Src/stm32l4xx_hal_dma.c ****   {
 1593              		.loc 1 867 79 discriminator 1 view .LVU513
 1594 0090 15F0080F 		tst	r5, #8
 1595 0094 D5D0     		beq	.L99
 872:../../../core/ST/STM32L4xx_HAL_Driver/Src/stm32l4xx_hal_dma.c **** 
 1596              		.loc 1 872 5 is_stmt 1 view .LVU514
ARM GAS  C:\Users\tijsv\AppData\Local\Temp\cc0UGmBk.s 			page 57


 1597 0096 2368     		ldr	r3, [r4]
 1598 0098 23F00E03 		bic	r3, r3, #14
 1599 009c 2360     		str	r3, [r4]
 875:../../../core/ST/STM32L4xx_HAL_Driver/Src/stm32l4xx_hal_dma.c **** 
 1600              		.loc 1 875 5 view .LVU515
 875:../../../core/ST/STM32L4xx_HAL_Driver/Src/stm32l4xx_hal_dma.c **** 
 1601              		.loc 1 875 56 is_stmt 0 view .LVU516
 1602 009e 436C     		ldr	r3, [r0, #68]
 875:../../../core/ST/STM32L4xx_HAL_Driver/Src/stm32l4xx_hal_dma.c **** 
 1603              		.loc 1 875 71 view .LVU517
 1604 00a0 03F01C03 		and	r3, r3, #28
 875:../../../core/ST/STM32L4xx_HAL_Driver/Src/stm32l4xx_hal_dma.c **** 
 1605              		.loc 1 875 9 view .LVU518
 1606 00a4 016C     		ldr	r1, [r0, #64]
 1607              	.LVL90:
 875:../../../core/ST/STM32L4xx_HAL_Driver/Src/stm32l4xx_hal_dma.c **** 
 1608              		.loc 1 875 48 view .LVU519
 1609 00a6 0122     		movs	r2, #1
 1610 00a8 02FA03F3 		lsl	r3, r2, r3
 875:../../../core/ST/STM32L4xx_HAL_Driver/Src/stm32l4xx_hal_dma.c **** 
 1611              		.loc 1 875 32 view .LVU520
 1612 00ac 4B60     		str	r3, [r1, #4]
 878:../../../core/ST/STM32L4xx_HAL_Driver/Src/stm32l4xx_hal_dma.c **** 
 1613              		.loc 1 878 5 is_stmt 1 view .LVU521
 878:../../../core/ST/STM32L4xx_HAL_Driver/Src/stm32l4xx_hal_dma.c **** 
 1614              		.loc 1 878 21 is_stmt 0 view .LVU522
 1615 00ae C263     		str	r2, [r0, #60]
 881:../../../core/ST/STM32L4xx_HAL_Driver/Src/stm32l4xx_hal_dma.c **** 
 1616              		.loc 1 881 5 is_stmt 1 view .LVU523
 881:../../../core/ST/STM32L4xx_HAL_Driver/Src/stm32l4xx_hal_dma.c **** 
 1617              		.loc 1 881 17 is_stmt 0 view .LVU524
 1618 00b0 80F82520 		strb	r2, [r0, #37]
 884:../../../core/ST/STM32L4xx_HAL_Driver/Src/stm32l4xx_hal_dma.c **** 
 1619              		.loc 1 884 5 is_stmt 1 view .LVU525
 884:../../../core/ST/STM32L4xx_HAL_Driver/Src/stm32l4xx_hal_dma.c **** 
 1620              		.loc 1 884 5 view .LVU526
 1621 00b4 0023     		movs	r3, #0
 1622 00b6 80F82430 		strb	r3, [r0, #36]
 884:../../../core/ST/STM32L4xx_HAL_Driver/Src/stm32l4xx_hal_dma.c **** 
 1623              		.loc 1 884 5 view .LVU527
 886:../../../core/ST/STM32L4xx_HAL_Driver/Src/stm32l4xx_hal_dma.c ****     {
 1624              		.loc 1 886 5 view .LVU528
 886:../../../core/ST/STM32L4xx_HAL_Driver/Src/stm32l4xx_hal_dma.c ****     {
 1625              		.loc 1 886 13 is_stmt 0 view .LVU529
 1626 00ba 436B     		ldr	r3, [r0, #52]
 886:../../../core/ST/STM32L4xx_HAL_Driver/Src/stm32l4xx_hal_dma.c ****     {
 1627              		.loc 1 886 8 view .LVU530
 1628 00bc 002B     		cmp	r3, #0
 1629 00be C0D0     		beq	.L99
 889:../../../core/ST/STM32L4xx_HAL_Driver/Src/stm32l4xx_hal_dma.c ****     }
 1630              		.loc 1 889 7 is_stmt 1 view .LVU531
 1631 00c0 9847     		blx	r3
 1632              	.LVL91:
 895:../../../core/ST/STM32L4xx_HAL_Driver/Src/stm32l4xx_hal_dma.c ****   return;
 1633              		.loc 1 895 3 view .LVU532
 896:../../../core/ST/STM32L4xx_HAL_Driver/Src/stm32l4xx_hal_dma.c **** }
 1634              		.loc 1 896 3 view .LVU533
ARM GAS  C:\Users\tijsv\AppData\Local\Temp\cc0UGmBk.s 			page 58


 1635 00c2 BEE7     		b	.L99
 1636              		.cfi_endproc
 1637              	.LFE130:
 1639              		.section	.text.HAL_DMA_RegisterCallback,"ax",%progbits
 1640              		.align	1
 1641              		.global	HAL_DMA_RegisterCallback
 1642              		.syntax unified
 1643              		.thumb
 1644              		.thumb_func
 1645              		.fpu fpv4-sp-d16
 1647              	HAL_DMA_RegisterCallback:
 1648              	.LVL92:
 1649              	.LFB131:
 910:../../../core/ST/STM32L4xx_HAL_Driver/Src/stm32l4xx_hal_dma.c ****   HAL_StatusTypeDef status = HAL_OK;
 1650              		.loc 1 910 1 view -0
 1651              		.cfi_startproc
 1652              		@ args = 0, pretend = 0, frame = 0
 1653              		@ frame_needed = 0, uses_anonymous_args = 0
 1654              		@ link register save eliminated.
 910:../../../core/ST/STM32L4xx_HAL_Driver/Src/stm32l4xx_hal_dma.c ****   HAL_StatusTypeDef status = HAL_OK;
 1655              		.loc 1 910 1 is_stmt 0 view .LVU535
 1656 0000 0346     		mov	r3, r0
 911:../../../core/ST/STM32L4xx_HAL_Driver/Src/stm32l4xx_hal_dma.c **** 
 1657              		.loc 1 911 3 is_stmt 1 view .LVU536
 1658              	.LVL93:
 914:../../../core/ST/STM32L4xx_HAL_Driver/Src/stm32l4xx_hal_dma.c **** 
 1659              		.loc 1 914 3 view .LVU537
 914:../../../core/ST/STM32L4xx_HAL_Driver/Src/stm32l4xx_hal_dma.c **** 
 1660              		.loc 1 914 3 view .LVU538
 1661 0002 90F82400 		ldrb	r0, [r0, #36]	@ zero_extendqisi2
 1662              	.LVL94:
 914:../../../core/ST/STM32L4xx_HAL_Driver/Src/stm32l4xx_hal_dma.c **** 
 1663              		.loc 1 914 3 is_stmt 0 view .LVU539
 1664 0006 0128     		cmp	r0, #1
 1665 0008 1BD0     		beq	.L114
 914:../../../core/ST/STM32L4xx_HAL_Driver/Src/stm32l4xx_hal_dma.c **** 
 1666              		.loc 1 914 3 is_stmt 1 discriminator 2 view .LVU540
 914:../../../core/ST/STM32L4xx_HAL_Driver/Src/stm32l4xx_hal_dma.c **** 
 1667              		.loc 1 914 3 discriminator 2 view .LVU541
 916:../../../core/ST/STM32L4xx_HAL_Driver/Src/stm32l4xx_hal_dma.c ****   {
 1668              		.loc 1 916 3 discriminator 2 view .LVU542
 916:../../../core/ST/STM32L4xx_HAL_Driver/Src/stm32l4xx_hal_dma.c ****   {
 1669              		.loc 1 916 33 is_stmt 0 discriminator 2 view .LVU543
 1670 000a 93F82500 		ldrb	r0, [r3, #37]	@ zero_extendqisi2
 1671 000e C0B2     		uxtb	r0, r0
 916:../../../core/ST/STM32L4xx_HAL_Driver/Src/stm32l4xx_hal_dma.c ****   {
 1672              		.loc 1 916 5 discriminator 2 view .LVU544
 1673 0010 0128     		cmp	r0, #1
 1674 0012 04D0     		beq	.L116
 943:../../../core/ST/STM32L4xx_HAL_Driver/Src/stm32l4xx_hal_dma.c ****   }
 1675              		.loc 1 943 12 view .LVU545
 1676 0014 0120     		movs	r0, #1
 1677              	.L108:
 1678              	.LVL95:
 947:../../../core/ST/STM32L4xx_HAL_Driver/Src/stm32l4xx_hal_dma.c **** 
 1679              		.loc 1 947 3 is_stmt 1 view .LVU546
 947:../../../core/ST/STM32L4xx_HAL_Driver/Src/stm32l4xx_hal_dma.c **** 
ARM GAS  C:\Users\tijsv\AppData\Local\Temp\cc0UGmBk.s 			page 59


 1680              		.loc 1 947 3 view .LVU547
 1681 0016 0022     		movs	r2, #0
 1682              	.LVL96:
 947:../../../core/ST/STM32L4xx_HAL_Driver/Src/stm32l4xx_hal_dma.c **** 
 1683              		.loc 1 947 3 is_stmt 0 view .LVU548
 1684 0018 83F82420 		strb	r2, [r3, #36]
 947:../../../core/ST/STM32L4xx_HAL_Driver/Src/stm32l4xx_hal_dma.c **** 
 1685              		.loc 1 947 3 is_stmt 1 view .LVU549
 949:../../../core/ST/STM32L4xx_HAL_Driver/Src/stm32l4xx_hal_dma.c **** }
 1686              		.loc 1 949 3 view .LVU550
 949:../../../core/ST/STM32L4xx_HAL_Driver/Src/stm32l4xx_hal_dma.c **** }
 1687              		.loc 1 949 10 is_stmt 0 view .LVU551
 1688 001c 7047     		bx	lr
 1689              	.LVL97:
 1690              	.L116:
 918:../../../core/ST/STM32L4xx_HAL_Driver/Src/stm32l4xx_hal_dma.c ****     {
 1691              		.loc 1 918 5 is_stmt 1 view .LVU552
 1692 001e 0329     		cmp	r1, #3
 1693 0020 F9D8     		bhi	.L108
 1694 0022 DFE801F0 		tbb	[pc, r1]
 1695              	.L110:
 1696 0026 02       		.byte	(.L113-.L110)/2
 1697 0027 05       		.byte	(.L112-.L110)/2
 1698 0028 08       		.byte	(.L111-.L110)/2
 1699 0029 0B       		.byte	(.L109-.L110)/2
 1700              		.p2align 1
 1701              	.L113:
 921:../../../core/ST/STM32L4xx_HAL_Driver/Src/stm32l4xx_hal_dma.c ****            break;
 1702              		.loc 1 921 12 view .LVU553
 921:../../../core/ST/STM32L4xx_HAL_Driver/Src/stm32l4xx_hal_dma.c ****            break;
 1703              		.loc 1 921 35 is_stmt 0 view .LVU554
 1704 002a DA62     		str	r2, [r3, #44]
 922:../../../core/ST/STM32L4xx_HAL_Driver/Src/stm32l4xx_hal_dma.c **** 
 1705              		.loc 1 922 12 is_stmt 1 view .LVU555
 911:../../../core/ST/STM32L4xx_HAL_Driver/Src/stm32l4xx_hal_dma.c **** 
 1706              		.loc 1 911 21 is_stmt 0 view .LVU556
 1707 002c 0846     		mov	r0, r1
 922:../../../core/ST/STM32L4xx_HAL_Driver/Src/stm32l4xx_hal_dma.c **** 
 1708              		.loc 1 922 12 view .LVU557
 1709 002e F2E7     		b	.L108
 1710              	.L112:
 925:../../../core/ST/STM32L4xx_HAL_Driver/Src/stm32l4xx_hal_dma.c ****            break;
 1711              		.loc 1 925 12 is_stmt 1 view .LVU558
 925:../../../core/ST/STM32L4xx_HAL_Driver/Src/stm32l4xx_hal_dma.c ****            break;
 1712              		.loc 1 925 39 is_stmt 0 view .LVU559
 1713 0030 1A63     		str	r2, [r3, #48]
 926:../../../core/ST/STM32L4xx_HAL_Driver/Src/stm32l4xx_hal_dma.c **** 
 1714              		.loc 1 926 12 is_stmt 1 view .LVU560
 911:../../../core/ST/STM32L4xx_HAL_Driver/Src/stm32l4xx_hal_dma.c **** 
 1715              		.loc 1 911 21 is_stmt 0 view .LVU561
 1716 0032 0020     		movs	r0, #0
 926:../../../core/ST/STM32L4xx_HAL_Driver/Src/stm32l4xx_hal_dma.c **** 
 1717              		.loc 1 926 12 view .LVU562
 1718 0034 EFE7     		b	.L108
 1719              	.L111:
 929:../../../core/ST/STM32L4xx_HAL_Driver/Src/stm32l4xx_hal_dma.c ****            break;
 1720              		.loc 1 929 12 is_stmt 1 view .LVU563
ARM GAS  C:\Users\tijsv\AppData\Local\Temp\cc0UGmBk.s 			page 60


 929:../../../core/ST/STM32L4xx_HAL_Driver/Src/stm32l4xx_hal_dma.c ****            break;
 1721              		.loc 1 929 36 is_stmt 0 view .LVU564
 1722 0036 5A63     		str	r2, [r3, #52]
 930:../../../core/ST/STM32L4xx_HAL_Driver/Src/stm32l4xx_hal_dma.c **** 
 1723              		.loc 1 930 12 is_stmt 1 view .LVU565
 911:../../../core/ST/STM32L4xx_HAL_Driver/Src/stm32l4xx_hal_dma.c **** 
 1724              		.loc 1 911 21 is_stmt 0 view .LVU566
 1725 0038 0020     		movs	r0, #0
 930:../../../core/ST/STM32L4xx_HAL_Driver/Src/stm32l4xx_hal_dma.c **** 
 1726              		.loc 1 930 12 view .LVU567
 1727 003a ECE7     		b	.L108
 1728              	.L109:
 933:../../../core/ST/STM32L4xx_HAL_Driver/Src/stm32l4xx_hal_dma.c ****            break;
 1729              		.loc 1 933 12 is_stmt 1 view .LVU568
 933:../../../core/ST/STM32L4xx_HAL_Driver/Src/stm32l4xx_hal_dma.c ****            break;
 1730              		.loc 1 933 36 is_stmt 0 view .LVU569
 1731 003c 9A63     		str	r2, [r3, #56]
 934:../../../core/ST/STM32L4xx_HAL_Driver/Src/stm32l4xx_hal_dma.c **** 
 1732              		.loc 1 934 12 is_stmt 1 view .LVU570
 911:../../../core/ST/STM32L4xx_HAL_Driver/Src/stm32l4xx_hal_dma.c **** 
 1733              		.loc 1 911 21 is_stmt 0 view .LVU571
 1734 003e 0020     		movs	r0, #0
 934:../../../core/ST/STM32L4xx_HAL_Driver/Src/stm32l4xx_hal_dma.c **** 
 1735              		.loc 1 934 12 view .LVU572
 1736 0040 E9E7     		b	.L108
 1737              	.L114:
 914:../../../core/ST/STM32L4xx_HAL_Driver/Src/stm32l4xx_hal_dma.c **** 
 1738              		.loc 1 914 3 view .LVU573
 1739 0042 0220     		movs	r0, #2
 950:../../../core/ST/STM32L4xx_HAL_Driver/Src/stm32l4xx_hal_dma.c **** 
 1740              		.loc 1 950 1 view .LVU574
 1741 0044 7047     		bx	lr
 1742              		.cfi_endproc
 1743              	.LFE131:
 1745              		.section	.text.HAL_DMA_UnRegisterCallback,"ax",%progbits
 1746              		.align	1
 1747              		.global	HAL_DMA_UnRegisterCallback
 1748              		.syntax unified
 1749              		.thumb
 1750              		.thumb_func
 1751              		.fpu fpv4-sp-d16
 1753              	HAL_DMA_UnRegisterCallback:
 1754              	.LVL98:
 1755              	.LFB132:
 961:../../../core/ST/STM32L4xx_HAL_Driver/Src/stm32l4xx_hal_dma.c ****   HAL_StatusTypeDef status = HAL_OK;
 1756              		.loc 1 961 1 is_stmt 1 view -0
 1757              		.cfi_startproc
 1758              		@ args = 0, pretend = 0, frame = 0
 1759              		@ frame_needed = 0, uses_anonymous_args = 0
 1760              		@ link register save eliminated.
 961:../../../core/ST/STM32L4xx_HAL_Driver/Src/stm32l4xx_hal_dma.c ****   HAL_StatusTypeDef status = HAL_OK;
 1761              		.loc 1 961 1 is_stmt 0 view .LVU576
 1762 0000 0346     		mov	r3, r0
 962:../../../core/ST/STM32L4xx_HAL_Driver/Src/stm32l4xx_hal_dma.c **** 
 1763              		.loc 1 962 3 is_stmt 1 view .LVU577
 1764              	.LVL99:
 965:../../../core/ST/STM32L4xx_HAL_Driver/Src/stm32l4xx_hal_dma.c **** 
ARM GAS  C:\Users\tijsv\AppData\Local\Temp\cc0UGmBk.s 			page 61


 1765              		.loc 1 965 3 view .LVU578
 965:../../../core/ST/STM32L4xx_HAL_Driver/Src/stm32l4xx_hal_dma.c **** 
 1766              		.loc 1 965 3 view .LVU579
 1767 0002 90F82420 		ldrb	r2, [r0, #36]	@ zero_extendqisi2
 1768 0006 012A     		cmp	r2, #1
 1769 0008 26D0     		beq	.L126
 965:../../../core/ST/STM32L4xx_HAL_Driver/Src/stm32l4xx_hal_dma.c **** 
 1770              		.loc 1 965 3 discriminator 2 view .LVU580
 1771 000a 0122     		movs	r2, #1
 1772 000c 80F82420 		strb	r2, [r0, #36]
 965:../../../core/ST/STM32L4xx_HAL_Driver/Src/stm32l4xx_hal_dma.c **** 
 1773              		.loc 1 965 3 discriminator 2 view .LVU581
 967:../../../core/ST/STM32L4xx_HAL_Driver/Src/stm32l4xx_hal_dma.c ****   {
 1774              		.loc 1 967 3 discriminator 2 view .LVU582
 967:../../../core/ST/STM32L4xx_HAL_Driver/Src/stm32l4xx_hal_dma.c ****   {
 1775              		.loc 1 967 33 is_stmt 0 discriminator 2 view .LVU583
 1776 0010 90F82500 		ldrb	r0, [r0, #37]	@ zero_extendqisi2
 1777              	.LVL100:
 967:../../../core/ST/STM32L4xx_HAL_Driver/Src/stm32l4xx_hal_dma.c ****   {
 1778              		.loc 1 967 33 discriminator 2 view .LVU584
 1779 0014 C0B2     		uxtb	r0, r0
 967:../../../core/ST/STM32L4xx_HAL_Driver/Src/stm32l4xx_hal_dma.c ****   {
 1780              		.loc 1 967 5 discriminator 2 view .LVU585
 1781 0016 9042     		cmp	r0, r2
 1782 0018 04D0     		beq	.L128
1001:../../../core/ST/STM32L4xx_HAL_Driver/Src/stm32l4xx_hal_dma.c ****   }
 1783              		.loc 1 1001 12 view .LVU586
 1784 001a 0120     		movs	r0, #1
 1785              	.L119:
 1786              	.LVL101:
1005:../../../core/ST/STM32L4xx_HAL_Driver/Src/stm32l4xx_hal_dma.c **** 
 1787              		.loc 1 1005 3 is_stmt 1 view .LVU587
1005:../../../core/ST/STM32L4xx_HAL_Driver/Src/stm32l4xx_hal_dma.c **** 
 1788              		.loc 1 1005 3 view .LVU588
 1789 001c 0022     		movs	r2, #0
 1790 001e 83F82420 		strb	r2, [r3, #36]
1005:../../../core/ST/STM32L4xx_HAL_Driver/Src/stm32l4xx_hal_dma.c **** 
 1791              		.loc 1 1005 3 view .LVU589
1007:../../../core/ST/STM32L4xx_HAL_Driver/Src/stm32l4xx_hal_dma.c **** }
 1792              		.loc 1 1007 3 view .LVU590
1007:../../../core/ST/STM32L4xx_HAL_Driver/Src/stm32l4xx_hal_dma.c **** }
 1793              		.loc 1 1007 10 is_stmt 0 view .LVU591
 1794 0022 7047     		bx	lr
 1795              	.LVL102:
 1796              	.L128:
 969:../../../core/ST/STM32L4xx_HAL_Driver/Src/stm32l4xx_hal_dma.c ****     {
 1797              		.loc 1 969 5 is_stmt 1 view .LVU592
 1798 0024 0429     		cmp	r1, #4
 1799 0026 F9D8     		bhi	.L119
 1800 0028 DFE801F0 		tbb	[pc, r1]
 1801              	.L121:
 1802 002c 03       		.byte	(.L125-.L121)/2
 1803 002d 07       		.byte	(.L124-.L121)/2
 1804 002e 0A       		.byte	(.L123-.L121)/2
 1805 002f 0D       		.byte	(.L122-.L121)/2
 1806 0030 10       		.byte	(.L120-.L121)/2
 1807 0031 00       		.p2align 1
ARM GAS  C:\Users\tijsv\AppData\Local\Temp\cc0UGmBk.s 			page 62


 1808              	.L125:
 972:../../../core/ST/STM32L4xx_HAL_Driver/Src/stm32l4xx_hal_dma.c ****            break;
 1809              		.loc 1 972 12 view .LVU593
 972:../../../core/ST/STM32L4xx_HAL_Driver/Src/stm32l4xx_hal_dma.c ****            break;
 1810              		.loc 1 972 35 is_stmt 0 view .LVU594
 1811 0032 0022     		movs	r2, #0
 1812 0034 DA62     		str	r2, [r3, #44]
 973:../../../core/ST/STM32L4xx_HAL_Driver/Src/stm32l4xx_hal_dma.c **** 
 1813              		.loc 1 973 12 is_stmt 1 view .LVU595
 962:../../../core/ST/STM32L4xx_HAL_Driver/Src/stm32l4xx_hal_dma.c **** 
 1814              		.loc 1 962 21 is_stmt 0 view .LVU596
 1815 0036 0846     		mov	r0, r1
 973:../../../core/ST/STM32L4xx_HAL_Driver/Src/stm32l4xx_hal_dma.c **** 
 1816              		.loc 1 973 12 view .LVU597
 1817 0038 F0E7     		b	.L119
 1818              	.L124:
 976:../../../core/ST/STM32L4xx_HAL_Driver/Src/stm32l4xx_hal_dma.c ****            break;
 1819              		.loc 1 976 12 is_stmt 1 view .LVU598
 976:../../../core/ST/STM32L4xx_HAL_Driver/Src/stm32l4xx_hal_dma.c ****            break;
 1820              		.loc 1 976 39 is_stmt 0 view .LVU599
 1821 003a 0020     		movs	r0, #0
 1822 003c 1863     		str	r0, [r3, #48]
 977:../../../core/ST/STM32L4xx_HAL_Driver/Src/stm32l4xx_hal_dma.c **** 
 1823              		.loc 1 977 12 is_stmt 1 view .LVU600
 1824 003e EDE7     		b	.L119
 1825              	.L123:
 980:../../../core/ST/STM32L4xx_HAL_Driver/Src/stm32l4xx_hal_dma.c ****            break;
 1826              		.loc 1 980 12 view .LVU601
 980:../../../core/ST/STM32L4xx_HAL_Driver/Src/stm32l4xx_hal_dma.c ****            break;
 1827              		.loc 1 980 36 is_stmt 0 view .LVU602
 1828 0040 0020     		movs	r0, #0
 1829 0042 5863     		str	r0, [r3, #52]
 981:../../../core/ST/STM32L4xx_HAL_Driver/Src/stm32l4xx_hal_dma.c **** 
 1830              		.loc 1 981 12 is_stmt 1 view .LVU603
 1831 0044 EAE7     		b	.L119
 1832              	.L122:
 984:../../../core/ST/STM32L4xx_HAL_Driver/Src/stm32l4xx_hal_dma.c ****            break;
 1833              		.loc 1 984 12 view .LVU604
 984:../../../core/ST/STM32L4xx_HAL_Driver/Src/stm32l4xx_hal_dma.c ****            break;
 1834              		.loc 1 984 36 is_stmt 0 view .LVU605
 1835 0046 0020     		movs	r0, #0
 1836 0048 9863     		str	r0, [r3, #56]
 985:../../../core/ST/STM32L4xx_HAL_Driver/Src/stm32l4xx_hal_dma.c **** 
 1837              		.loc 1 985 12 is_stmt 1 view .LVU606
 1838 004a E7E7     		b	.L119
 1839              	.L120:
 988:../../../core/ST/STM32L4xx_HAL_Driver/Src/stm32l4xx_hal_dma.c ****            hdma->XferHalfCpltCallback = NULL;
 1840              		.loc 1 988 12 view .LVU607
 988:../../../core/ST/STM32L4xx_HAL_Driver/Src/stm32l4xx_hal_dma.c ****            hdma->XferHalfCpltCallback = NULL;
 1841              		.loc 1 988 35 is_stmt 0 view .LVU608
 1842 004c 0020     		movs	r0, #0
 1843 004e D862     		str	r0, [r3, #44]
 989:../../../core/ST/STM32L4xx_HAL_Driver/Src/stm32l4xx_hal_dma.c ****            hdma->XferErrorCallback = NULL;
 1844              		.loc 1 989 12 is_stmt 1 view .LVU609
 989:../../../core/ST/STM32L4xx_HAL_Driver/Src/stm32l4xx_hal_dma.c ****            hdma->XferErrorCallback = NULL;
 1845              		.loc 1 989 39 is_stmt 0 view .LVU610
 1846 0050 1863     		str	r0, [r3, #48]
ARM GAS  C:\Users\tijsv\AppData\Local\Temp\cc0UGmBk.s 			page 63


 990:../../../core/ST/STM32L4xx_HAL_Driver/Src/stm32l4xx_hal_dma.c ****            hdma->XferAbortCallback = NULL;
 1847              		.loc 1 990 12 is_stmt 1 view .LVU611
 990:../../../core/ST/STM32L4xx_HAL_Driver/Src/stm32l4xx_hal_dma.c ****            hdma->XferAbortCallback = NULL;
 1848              		.loc 1 990 36 is_stmt 0 view .LVU612
 1849 0052 5863     		str	r0, [r3, #52]
 991:../../../core/ST/STM32L4xx_HAL_Driver/Src/stm32l4xx_hal_dma.c ****            break;
 1850              		.loc 1 991 12 is_stmt 1 view .LVU613
 991:../../../core/ST/STM32L4xx_HAL_Driver/Src/stm32l4xx_hal_dma.c ****            break;
 1851              		.loc 1 991 36 is_stmt 0 view .LVU614
 1852 0054 9863     		str	r0, [r3, #56]
 992:../../../core/ST/STM32L4xx_HAL_Driver/Src/stm32l4xx_hal_dma.c **** 
 1853              		.loc 1 992 12 is_stmt 1 view .LVU615
 1854 0056 E1E7     		b	.L119
 1855              	.LVL103:
 1856              	.L126:
 965:../../../core/ST/STM32L4xx_HAL_Driver/Src/stm32l4xx_hal_dma.c **** 
 1857              		.loc 1 965 3 is_stmt 0 view .LVU616
 1858 0058 0220     		movs	r0, #2
 1859              	.LVL104:
1008:../../../core/ST/STM32L4xx_HAL_Driver/Src/stm32l4xx_hal_dma.c **** 
 1860              		.loc 1 1008 1 view .LVU617
 1861 005a 7047     		bx	lr
 1862              		.cfi_endproc
 1863              	.LFE132:
 1865              		.section	.text.HAL_DMA_GetState,"ax",%progbits
 1866              		.align	1
 1867              		.global	HAL_DMA_GetState
 1868              		.syntax unified
 1869              		.thumb
 1870              		.thumb_func
 1871              		.fpu fpv4-sp-d16
 1873              	HAL_DMA_GetState:
 1874              	.LVL105:
 1875              	.LFB133:
1039:../../../core/ST/STM32L4xx_HAL_Driver/Src/stm32l4xx_hal_dma.c ****   /* Return DMA handle state */
 1876              		.loc 1 1039 1 is_stmt 1 view -0
 1877              		.cfi_startproc
 1878              		@ args = 0, pretend = 0, frame = 0
 1879              		@ frame_needed = 0, uses_anonymous_args = 0
 1880              		@ link register save eliminated.
1041:../../../core/ST/STM32L4xx_HAL_Driver/Src/stm32l4xx_hal_dma.c **** }
 1881              		.loc 1 1041 3 view .LVU619
1041:../../../core/ST/STM32L4xx_HAL_Driver/Src/stm32l4xx_hal_dma.c **** }
 1882              		.loc 1 1041 14 is_stmt 0 view .LVU620
 1883 0000 90F82500 		ldrb	r0, [r0, #37]	@ zero_extendqisi2
 1884              	.LVL106:
1042:../../../core/ST/STM32L4xx_HAL_Driver/Src/stm32l4xx_hal_dma.c **** 
 1885              		.loc 1 1042 1 view .LVU621
 1886 0004 7047     		bx	lr
 1887              		.cfi_endproc
 1888              	.LFE133:
 1890              		.section	.text.HAL_DMA_GetError,"ax",%progbits
 1891              		.align	1
 1892              		.global	HAL_DMA_GetError
 1893              		.syntax unified
 1894              		.thumb
 1895              		.thumb_func
ARM GAS  C:\Users\tijsv\AppData\Local\Temp\cc0UGmBk.s 			page 64


 1896              		.fpu fpv4-sp-d16
 1898              	HAL_DMA_GetError:
 1899              	.LVL107:
 1900              	.LFB134:
1051:../../../core/ST/STM32L4xx_HAL_Driver/Src/stm32l4xx_hal_dma.c ****   return hdma->ErrorCode;
 1901              		.loc 1 1051 1 is_stmt 1 view -0
 1902              		.cfi_startproc
 1903              		@ args = 0, pretend = 0, frame = 0
 1904              		@ frame_needed = 0, uses_anonymous_args = 0
 1905              		@ link register save eliminated.
1052:../../../core/ST/STM32L4xx_HAL_Driver/Src/stm32l4xx_hal_dma.c **** }
 1906              		.loc 1 1052 3 view .LVU623
1052:../../../core/ST/STM32L4xx_HAL_Driver/Src/stm32l4xx_hal_dma.c **** }
 1907              		.loc 1 1052 14 is_stmt 0 view .LVU624
 1908 0000 C06B     		ldr	r0, [r0, #60]
 1909              	.LVL108:
1053:../../../core/ST/STM32L4xx_HAL_Driver/Src/stm32l4xx_hal_dma.c **** 
 1910              		.loc 1 1053 1 view .LVU625
 1911 0002 7047     		bx	lr
 1912              		.cfi_endproc
 1913              	.LFE134:
 1915              		.text
 1916              	.Letext0:
 1917              		.file 2 "c:\\program files (x86)\\gnu tools arm embedded\\9 2019-q4-major\\arm-none-eabi\\include\
 1918              		.file 3 "c:\\program files (x86)\\gnu tools arm embedded\\9 2019-q4-major\\arm-none-eabi\\include\
 1919              		.file 4 "../../../core/ST/CMSIS/Include/core_cm4.h"
 1920              		.file 5 "../../../core/ST/CMSIS/Device/ST/STM32L4xx/Include/system_stm32l4xx.h"
 1921              		.file 6 "../../../core/ST/CMSIS/Device/ST/STM32L4xx/Include/stm32l496xx.h"
 1922              		.file 7 "../../../core/ST/STM32L4xx_HAL_Driver/Inc/stm32l4xx_hal_def.h"
 1923              		.file 8 "../../../core/ST/STM32L4xx_HAL_Driver/Inc/stm32l4xx_hal_dma.h"
 1924              		.file 9 "../../../core/ST/STM32L4xx_HAL_Driver/Inc/stm32l4xx_hal.h"
 1925              		.file 10 "../../../core/platform/octa/inc/stm32l4xx_hal_conf.h"
ARM GAS  C:\Users\tijsv\AppData\Local\Temp\cc0UGmBk.s 			page 65


DEFINED SYMBOLS
                            *ABS*:00000000 stm32l4xx_hal_dma.c
C:\Users\tijsv\AppData\Local\Temp\cc0UGmBk.s:18     .text.DMA_SetConfig:00000000 $t
C:\Users\tijsv\AppData\Local\Temp\cc0UGmBk.s:25     .text.DMA_SetConfig:00000000 DMA_SetConfig
C:\Users\tijsv\AppData\Local\Temp\cc0UGmBk.s:106    .rodata.HAL_DMA_Init.str1.4:00000000 $d
C:\Users\tijsv\AppData\Local\Temp\cc0UGmBk.s:111    .text.HAL_DMA_Init:00000000 $t
C:\Users\tijsv\AppData\Local\Temp\cc0UGmBk.s:118    .text.HAL_DMA_Init:00000000 HAL_DMA_Init
C:\Users\tijsv\AppData\Local\Temp\cc0UGmBk.s:524    .text.HAL_DMA_Init:000001f0 $d
C:\Users\tijsv\AppData\Local\Temp\cc0UGmBk.s:537    .text.HAL_DMA_DeInit:00000000 $t
C:\Users\tijsv\AppData\Local\Temp\cc0UGmBk.s:544    .text.HAL_DMA_DeInit:00000000 HAL_DMA_DeInit
C:\Users\tijsv\AppData\Local\Temp\cc0UGmBk.s:769    .text.HAL_DMA_DeInit:00000104 $d
C:\Users\tijsv\AppData\Local\Temp\cc0UGmBk.s:783    .text.HAL_DMA_Start:00000000 $t
C:\Users\tijsv\AppData\Local\Temp\cc0UGmBk.s:790    .text.HAL_DMA_Start:00000000 HAL_DMA_Start
C:\Users\tijsv\AppData\Local\Temp\cc0UGmBk.s:901    .text.HAL_DMA_Start:0000007c $d
C:\Users\tijsv\AppData\Local\Temp\cc0UGmBk.s:906    .text.HAL_DMA_Start_IT:00000000 $t
C:\Users\tijsv\AppData\Local\Temp\cc0UGmBk.s:913    .text.HAL_DMA_Start_IT:00000000 HAL_DMA_Start_IT
C:\Users\tijsv\AppData\Local\Temp\cc0UGmBk.s:1047   .text.HAL_DMA_Start_IT:00000098 $d
C:\Users\tijsv\AppData\Local\Temp\cc0UGmBk.s:1052   .text.HAL_DMA_Abort:00000000 $t
C:\Users\tijsv\AppData\Local\Temp\cc0UGmBk.s:1059   .text.HAL_DMA_Abort:00000000 HAL_DMA_Abort
C:\Users\tijsv\AppData\Local\Temp\cc0UGmBk.s:1117   .text.HAL_DMA_Abort_IT:00000000 $t
C:\Users\tijsv\AppData\Local\Temp\cc0UGmBk.s:1124   .text.HAL_DMA_Abort_IT:00000000 HAL_DMA_Abort_IT
C:\Users\tijsv\AppData\Local\Temp\cc0UGmBk.s:1213   .text.HAL_DMA_PollForTransfer:00000000 $t
C:\Users\tijsv\AppData\Local\Temp\cc0UGmBk.s:1220   .text.HAL_DMA_PollForTransfer:00000000 HAL_DMA_PollForTransfer
C:\Users\tijsv\AppData\Local\Temp\cc0UGmBk.s:1445   .text.HAL_DMA_IRQHandler:00000000 $t
C:\Users\tijsv\AppData\Local\Temp\cc0UGmBk.s:1452   .text.HAL_DMA_IRQHandler:00000000 HAL_DMA_IRQHandler
C:\Users\tijsv\AppData\Local\Temp\cc0UGmBk.s:1640   .text.HAL_DMA_RegisterCallback:00000000 $t
C:\Users\tijsv\AppData\Local\Temp\cc0UGmBk.s:1647   .text.HAL_DMA_RegisterCallback:00000000 HAL_DMA_RegisterCallback
C:\Users\tijsv\AppData\Local\Temp\cc0UGmBk.s:1696   .text.HAL_DMA_RegisterCallback:00000026 $d
C:\Users\tijsv\AppData\Local\Temp\cc0UGmBk.s:1700   .text.HAL_DMA_RegisterCallback:0000002a $t
C:\Users\tijsv\AppData\Local\Temp\cc0UGmBk.s:1746   .text.HAL_DMA_UnRegisterCallback:00000000 $t
C:\Users\tijsv\AppData\Local\Temp\cc0UGmBk.s:1753   .text.HAL_DMA_UnRegisterCallback:00000000 HAL_DMA_UnRegisterCallback
C:\Users\tijsv\AppData\Local\Temp\cc0UGmBk.s:1802   .text.HAL_DMA_UnRegisterCallback:0000002c $d
C:\Users\tijsv\AppData\Local\Temp\cc0UGmBk.s:1866   .text.HAL_DMA_GetState:00000000 $t
C:\Users\tijsv\AppData\Local\Temp\cc0UGmBk.s:1873   .text.HAL_DMA_GetState:00000000 HAL_DMA_GetState
C:\Users\tijsv\AppData\Local\Temp\cc0UGmBk.s:1891   .text.HAL_DMA_GetError:00000000 $t
C:\Users\tijsv\AppData\Local\Temp\cc0UGmBk.s:1898   .text.HAL_DMA_GetError:00000000 HAL_DMA_GetError
C:\Users\tijsv\AppData\Local\Temp\cc0UGmBk.s:1807   .text.HAL_DMA_UnRegisterCallback:00000031 $d
C:\Users\tijsv\AppData\Local\Temp\cc0UGmBk.s:1807   .text.HAL_DMA_UnRegisterCallback:00000032 $t

UNDEFINED SYMBOLS
assert_failed
HAL_GetTick
