ARM GAS  C:\Users\tomra\AppData\Local\Temp\ccMqoCkI.s 			page 1


   1              		.cpu cortex-m4
   2              		.eabi_attribute 27, 1
   3              		.eabi_attribute 28, 1
   4              		.eabi_attribute 20, 1
   5              		.eabi_attribute 21, 1
   6              		.eabi_attribute 23, 3
   7              		.eabi_attribute 24, 1
   8              		.eabi_attribute 25, 1
   9              		.eabi_attribute 26, 1
  10              		.eabi_attribute 30, 1
  11              		.eabi_attribute 34, 1
  12              		.eabi_attribute 18, 4
  13              		.file	"payloadparser.c"
  14              		.text
  15              	.Ltext0:
  16              		.cfi_sections	.debug_frame
  17              		.section	.rodata.parse_octa_configuration.str1.4,"aMS",%progbits,1
  18              		.align	2
  19              	.LC0:
  20 0000 70617273 		.ascii	"parsing octa configuration payload with size %d\015"
  20      696E6720 
  20      6F637461 
  20      20636F6E 
  20      66696775 
  21 0030 0A00     		.ascii	"\012\000"
  22 0032 0000     		.align	2
  23              	.LC1:
  24 0034 25303278 		.ascii	"%02x\000"
  24      00
  25 0039 000000   		.align	2
  26              	.LC2:
  27 003c 0D00     		.ascii	"\015\000"
  28 003e 0000     		.align	2
  29              	.LC3:
  30 0040 42756666 		.ascii	"Buffer too short\015\012\000"
  30      65722074 
  30      6F6F2073 
  30      686F7274 
  30      0D0A00
  31 0053 00       		.align	2
  32              	.LC4:
  33 0054 44617461 		.ascii	"Data too short for ACK type.\015\012\000"
  33      20746F6F 
  33      2073686F 
  33      72742066 
  33      6F722041 
  34 0073 00       		.align	2
  35              	.LC5:
  36 0074 41434B20 		.ascii	"ACK for SEQ_NR: %d\015\012\000"
  36      666F7220 
  36      5345515F 
  36      4E523A20 
  36      25640D0A 
  37 0089 000000   		.align	2
  38              	.LC6:
  39 008c 44617461 		.ascii	"Data too short for INTERVAL_MULTIPLIER type.\015\012"
  39      20746F6F 
ARM GAS  C:\Users\tomra\AppData\Local\Temp\ccMqoCkI.s 			page 2


  39      2073686F 
  39      72742066 
  39      6F722049 
  40 00ba 00       		.ascii	"\000"
  41 00bb 00       		.align	2
  42              	.LC7:
  43 00bc 4E657720 		.ascii	"New interval: %d and multiplier: %d\015\012\000"
  43      696E7465 
  43      7276616C 
  43      3A202564 
  43      20616E64 
  44 00e2 0000     		.align	2
  45              	.LC8:
  46 00e4 44617461 		.ascii	"Data too short for DNS type.\015\012\000"
  46      20746F6F 
  46      2073686F 
  46      72742066 
  46      6F722044 
  47 0103 00       		.align	2
  48              	.LC9:
  49 0104 4E4F4E20 		.ascii	"NON EXISTING DNS URL ID\015\012\000"
  49      45584953 
  49      54494E47 
  49      20444E53 
  49      2055524C 
  50 011e 0000     		.align	2
  51              	.LC10:
  52 0120 4E657720 		.ascii	"New DNS URL id: %d\015\012\000"
  52      444E5320 
  52      55524C20 
  52      69643A20 
  52      25640D0A 
  53 0135 000000   		.align	2
  54              	.LC11:
  55 0138 44617461 		.ascii	"Data too short for FLASH type.\015\012\000"
  55      20746F6F 
  55      2073686F 
  55      72742066 
  55      6F722046 
  56 0159 000000   		.align	2
  57              	.LC12:
  58 015c 43757272 		.ascii	"Current Flash Index %d\015\012\000"
  58      656E7420 
  58      466C6173 
  58      6820496E 
  58      64657820 
  59 0175 000000   		.align	2
  60              	.LC13:
  61 0178 44617461 		.ascii	"Data too short for LAST_KNOWN_TIMESTAMP type.\015\012"
  61      20746F6F 
  61      2073686F 
  61      72742066 
  61      6F72204C 
  62 01a7 00       		.ascii	"\000"
  63              		.align	2
  64              	.LC14:
  65 01a8 43757272 		.ascii	"Current last known timestamp %d\015\012\000"
ARM GAS  C:\Users\tomra\AppData\Local\Temp\ccMqoCkI.s 			page 3


  65      656E7420 
  65      6C617374 
  65      206B6E6F 
  65      776E2074 
  66 01ca 0000     		.align	2
  67              	.LC15:
  68 01cc 554E4B4E 		.ascii	"UNKNOWN OCTA PAYLOAD TYPE RECEIVED\015\012\000"
  68      4F574E20 
  68      4F435441 
  68      20504159 
  68      4C4F4144 
  69              		.section	.text.parse_octa_configuration,"ax",%progbits
  70              		.align	1
  71              		.global	parse_octa_configuration
  72              		.arch armv7e-m
  73              		.syntax unified
  74              		.thumb
  75              		.thumb_func
  76              		.fpu fpv4-sp-d16
  78              	parse_octa_configuration:
  79              	.LVL0:
  80              	.LFB0:
  81              		.file 1 "../../../core/platform/common/src/payloadparser.c"
   1:../../../core/platform/common/src/payloadparser.c **** #include "payloadformat.h"
   2:../../../core/platform/common/src/payloadparser.c **** #include "datatypes.h"
   3:../../../core/platform/common/src/payloadparser.c **** #include "payloadparser.h"
   4:../../../core/platform/common/src/payloadparser.c **** #include "octa-protocol-types.h"
   5:../../../core/platform/common/src/payloadparser.c **** 
   6:../../../core/platform/common/src/payloadparser.c **** uint8_t parse_octa_configuration(struct octa_configuration* current_octa_configuration, uint8_t* bu
   7:../../../core/platform/common/src/payloadparser.c **** {
  82              		.loc 1 7 1 view -0
  83              		.cfi_startproc
  84              		@ args = 0, pretend = 0, frame = 24
  85              		@ frame_needed = 0, uses_anonymous_args = 0
  86              		.loc 1 7 1 is_stmt 0 view .LVU1
  87 0000 2DE9F041 		push	{r4, r5, r6, r7, r8, lr}
  88              	.LCFI0:
  89              		.cfi_def_cfa_offset 24
  90              		.cfi_offset 4, -24
  91              		.cfi_offset 5, -20
  92              		.cfi_offset 6, -16
  93              		.cfi_offset 7, -12
  94              		.cfi_offset 8, -8
  95              		.cfi_offset 14, -4
  96 0004 86B0     		sub	sp, sp, #24
  97              	.LCFI1:
  98              		.cfi_def_cfa_offset 48
  99 0006 0746     		mov	r7, r0
 100 0008 0E46     		mov	r6, r1
 101 000a 1546     		mov	r5, r2
   8:../../../core/platform/common/src/payloadparser.c ****   uint16_t index = 0;
 102              		.loc 1 8 3 is_stmt 1 view .LVU2
 103              	.LVL1:
   9:../../../core/platform/common/src/payloadparser.c ****   struct octa_configuration temp_config;
 104              		.loc 1 9 3 view .LVU3
  10:../../../core/platform/common/src/payloadparser.c ****   //set temp config to use current config params
  11:../../../core/platform/common/src/payloadparser.c ****   temp_config = *current_octa_configuration;
ARM GAS  C:\Users\tomra\AppData\Local\Temp\ccMqoCkI.s 			page 4


 105              		.loc 1 11 3 view .LVU4
 106              		.loc 1 11 15 is_stmt 0 view .LVU5
 107 000c 01AC     		add	r4, sp, #4
 108 000e 8446     		mov	ip, r0
 109 0010 BCE80F00 		ldmia	ip!, {r0, r1, r2, r3}
 110              	.LVL2:
 111              		.loc 1 11 15 view .LVU6
 112 0014 0FC4     		stmia	r4!, {r0, r1, r2, r3}
 113 0016 DCF80030 		ldr	r3, [ip]
 114 001a 2360     		str	r3, [r4]
  12:../../../core/platform/common/src/payloadparser.c ****   printDBG("parsing octa configuration payload with size %d\r\n", len);
 115              		.loc 1 12 3 is_stmt 1 view .LVU7
 116 001c A846     		mov	r8, r5
 117 001e 2946     		mov	r1, r5
 118 0020 5848     		ldr	r0, .L32
 119 0022 FFF7FEFF 		bl	printDBG
 120              	.LVL3:
  13:../../../core/platform/common/src/payloadparser.c ****   #if DEBUG
  14:../../../core/platform/common/src/payloadparser.c ****     for (uint16_t i = 0; i < len; ++i) {
 121              		.loc 1 14 5 view .LVU8
 122              	.LBB2:
 123              		.loc 1 14 10 view .LVU9
 124              		.loc 1 14 19 is_stmt 0 view .LVU10
 125 0026 0024     		movs	r4, #0
 126              	.LVL4:
 127              	.L2:
 128              		.loc 1 14 26 is_stmt 1 discriminator 1 view .LVU11
 129              		.loc 1 14 5 is_stmt 0 discriminator 1 view .LVU12
 130 0028 AC42     		cmp	r4, r5
 131 002a 06D2     		bcs	.L22
 132              	.LBB3:
  15:../../../core/platform/common/src/payloadparser.c ****       printf("%02x", buffer[i]);
 133              		.loc 1 15 7 is_stmt 1 discriminator 3 view .LVU13
 134 002c 315D     		ldrb	r1, [r6, r4]	@ zero_extendqisi2
 135 002e 5648     		ldr	r0, .L32+4
 136 0030 FFF7FEFF 		bl	printf
 137              	.LVL5:
 138              	.LBE3:
  14:../../../core/platform/common/src/payloadparser.c ****       printf("%02x", buffer[i]);
 139              		.loc 1 14 35 discriminator 3 view .LVU14
 140 0034 0134     		adds	r4, r4, #1
 141              	.LVL6:
  14:../../../core/platform/common/src/payloadparser.c ****       printf("%02x", buffer[i]);
 142              		.loc 1 14 35 is_stmt 0 discriminator 3 view .LVU15
 143 0036 A4B2     		uxth	r4, r4
 144              	.LVL7:
  14:../../../core/platform/common/src/payloadparser.c ****       printf("%02x", buffer[i]);
 145              		.loc 1 14 35 discriminator 3 view .LVU16
 146 0038 F6E7     		b	.L2
 147              	.L22:
  14:../../../core/platform/common/src/payloadparser.c ****       printf("%02x", buffer[i]);
 148              		.loc 1 14 35 discriminator 3 view .LVU17
 149              	.LBE2:
  16:../../../core/platform/common/src/payloadparser.c ****     }
  17:../../../core/platform/common/src/payloadparser.c ****     printf("\r\n");
 150              		.loc 1 17 5 is_stmt 1 view .LVU18
 151 003a 5448     		ldr	r0, .L32+8
ARM GAS  C:\Users\tomra\AppData\Local\Temp\ccMqoCkI.s 			page 5


 152 003c FFF7FEFF 		bl	puts
 153              	.LVL8:
  18:../../../core/platform/common/src/payloadparser.c ****   #endif
  19:../../../core/platform/common/src/payloadparser.c ****   if(len<1)
 154              		.loc 1 19 3 view .LVU19
 155              		.loc 1 19 5 is_stmt 0 view .LVU20
 156 0040 15B3     		cbz	r5, .L23
   8:../../../core/platform/common/src/payloadparser.c ****   struct octa_configuration temp_config;
 157              		.loc 1 8 12 view .LVU21
 158 0042 0024     		movs	r4, #0
 159              	.LVL9:
 160              	.L4:
  20:../../../core/platform/common/src/payloadparser.c ****   {
  21:../../../core/platform/common/src/payloadparser.c ****     printERR("Buffer too short\r\n");
  22:../../../core/platform/common/src/payloadparser.c ****     return PARSER_TOO_SHORT;
  23:../../../core/platform/common/src/payloadparser.c ****   }
  24:../../../core/platform/common/src/payloadparser.c ****   while (index<len)
 161              		.loc 1 24 9 is_stmt 1 view .LVU22
 162 0044 AC42     		cmp	r4, r5
 163 0046 80F09680 		bcs	.L24
  25:../../../core/platform/common/src/payloadparser.c ****   {
  26:../../../core/platform/common/src/payloadparser.c ****     switch(buffer[index])
 164              		.loc 1 26 5 view .LVU23
 165              		.loc 1 26 18 is_stmt 0 view .LVU24
 166 004a 2246     		mov	r2, r4
 167 004c 335D     		ldrb	r3, [r6, r4]	@ zero_extendqisi2
 168              		.loc 1 26 5 view .LVU25
 169 004e F52B     		cmp	r3, #245
 170 0050 52D0     		beq	.L6
 171 0052 1ED9     		bls	.L25
 172 0054 F62B     		cmp	r3, #246
 173 0056 3AD0     		beq	.L11
 174 0058 F72B     		cmp	r3, #247
 175 005a 40F08580 		bne	.L10
 176              	.LBB4:
  27:../../../core/platform/common/src/payloadparser.c ****     {
  28:../../../core/platform/common/src/payloadparser.c ****       case TYPE_DOWNLINK_ACK:
  29:../../../core/platform/common/src/payloadparser.c ****         if(len < index+5)
 177              		.loc 1 29 9 is_stmt 1 view .LVU26
 178              		.loc 1 29 16 is_stmt 0 view .LVU27
 179 005e 231D     		adds	r3, r4, #4
 180              		.loc 1 29 11 view .LVU28
 181 0060 9845     		cmp	r8, r3
 182 0062 2FDD     		ble	.L26
  30:../../../core/platform/common/src/payloadparser.c ****         {
  31:../../../core/platform/common/src/payloadparser.c ****           printERR("Data too short for ACK type.\r\n");
  32:../../../core/platform/common/src/payloadparser.c ****           return PARSER_PARSE_ERROR;
  33:../../../core/platform/common/src/payloadparser.c ****         }
  34:../../../core/platform/common/src/payloadparser.c ****         //ACK RECEIVED
  35:../../../core/platform/common/src/payloadparser.c ****         uint32LittleEndian.byte[0] = buffer[index+1];
 183              		.loc 1 35 9 is_stmt 1 view .LVU29
 184              		.loc 1 35 44 is_stmt 0 view .LVU30
 185 0064 3244     		add	r2, r2, r6
 186 0066 5178     		ldrb	r1, [r2, #1]	@ zero_extendqisi2
 187              		.loc 1 35 36 view .LVU31
 188 0068 494B     		ldr	r3, .L32+12
 189 006a 1970     		strb	r1, [r3]
ARM GAS  C:\Users\tomra\AppData\Local\Temp\ccMqoCkI.s 			page 6


  36:../../../core/platform/common/src/payloadparser.c ****         uint32LittleEndian.byte[1] = buffer[index+2];
 190              		.loc 1 36 9 is_stmt 1 view .LVU32
 191              		.loc 1 36 44 is_stmt 0 view .LVU33
 192 006c 9178     		ldrb	r1, [r2, #2]	@ zero_extendqisi2
 193              		.loc 1 36 36 view .LVU34
 194 006e 5970     		strb	r1, [r3, #1]
  37:../../../core/platform/common/src/payloadparser.c ****         uint32LittleEndian.byte[2] = buffer[index+3];
 195              		.loc 1 37 9 is_stmt 1 view .LVU35
 196              		.loc 1 37 44 is_stmt 0 view .LVU36
 197 0070 D178     		ldrb	r1, [r2, #3]	@ zero_extendqisi2
 198              		.loc 1 37 36 view .LVU37
 199 0072 9970     		strb	r1, [r3, #2]
  38:../../../core/platform/common/src/payloadparser.c ****         uint32LittleEndian.byte[3] = buffer[index+4];
 200              		.loc 1 38 9 is_stmt 1 view .LVU38
 201              		.loc 1 38 44 is_stmt 0 view .LVU39
 202 0074 1279     		ldrb	r2, [r2, #4]	@ zero_extendqisi2
 203              		.loc 1 38 36 view .LVU40
 204 0076 DA70     		strb	r2, [r3, #3]
  39:../../../core/platform/common/src/payloadparser.c ****         temp_config.last_msg_acked = uint32LittleEndian.integer;
 205              		.loc 1 39 9 is_stmt 1 view .LVU41
 206              		.loc 1 39 56 is_stmt 0 view .LVU42
 207 0078 1968     		ldr	r1, [r3]
 208              		.loc 1 39 36 view .LVU43
 209 007a 0391     		str	r1, [sp, #12]
  40:../../../core/platform/common/src/payloadparser.c ****         printINF("ACK for SEQ_NR: %d\r\n", temp_config.last_msg_acked);
 210              		.loc 1 40 9 is_stmt 1 view .LVU44
 211 007c 4548     		ldr	r0, .L32+16
 212 007e FFF7FEFF 		bl	printINF
 213              	.LVL10:
  41:../../../core/platform/common/src/payloadparser.c ****         index += 5;
 214              		.loc 1 41 9 view .LVU45
 215              		.loc 1 41 15 is_stmt 0 view .LVU46
 216 0082 0534     		adds	r4, r4, #5
 217              	.LVL11:
 218              		.loc 1 41 15 view .LVU47
 219 0084 A4B2     		uxth	r4, r4
 220              	.LVL12:
  42:../../../core/platform/common/src/payloadparser.c ****         break;
 221              		.loc 1 42 9 is_stmt 1 view .LVU48
 222 0086 DDE7     		b	.L4
 223              	.LVL13:
 224              	.L23:
 225              		.loc 1 42 9 is_stmt 0 view .LVU49
 226              	.LBE4:
 227              	.LBB11:
  21:../../../core/platform/common/src/payloadparser.c ****     return PARSER_TOO_SHORT;
 228              		.loc 1 21 5 is_stmt 1 view .LVU50
 229 0088 4348     		ldr	r0, .L32+20
 230 008a FFF7FEFF 		bl	printERR
 231              	.LVL14:
  22:../../../core/platform/common/src/payloadparser.c ****   }
 232              		.loc 1 22 5 view .LVU51
  22:../../../core/platform/common/src/payloadparser.c ****   }
 233              		.loc 1 22 12 is_stmt 0 view .LVU52
 234 008e 0120     		movs	r0, #1
 235 0090 6EE0     		b	.L5
 236              	.LVL15:
ARM GAS  C:\Users\tomra\AppData\Local\Temp\ccMqoCkI.s 			page 7


 237              	.L25:
  22:../../../core/platform/common/src/payloadparser.c ****   }
 238              		.loc 1 22 12 view .LVU53
 239              	.LBE11:
  26:../../../core/platform/common/src/payloadparser.c ****     {
 240              		.loc 1 26 5 view .LVU54
 241 0092 262B     		cmp	r3, #38
 242 0094 49D0     		beq	.L8
 243 0096 362B     		cmp	r3, #54
 244 0098 66D1     		bne	.L10
 245              	.LBB12:
  43:../../../core/platform/common/src/payloadparser.c ****       case TYPE_DOWNLINK_INTERVAL_MULTIPLIER_UPDATE:
  44:../../../core/platform/common/src/payloadparser.c ****         if(len < index+3)
  45:../../../core/platform/common/src/payloadparser.c ****         {
  46:../../../core/platform/common/src/payloadparser.c ****           printERR("Data too short for INTERVAL_MULTIPLIER type.\r\n");
  47:../../../core/platform/common/src/payloadparser.c ****           return PARSER_PARSE_ERROR;
  48:../../../core/platform/common/src/payloadparser.c ****         }
  49:../../../core/platform/common/src/payloadparser.c ****         //INTERVAL & MULTIPLIER UPDATE RECEIVED
  50:../../../core/platform/common/src/payloadparser.c ****         temp_config.interval = buffer[index+1];
  51:../../../core/platform/common/src/payloadparser.c ****         temp_config.multiplier = buffer[index+2];
  52:../../../core/platform/common/src/payloadparser.c ****         printINF("New interval: %d and multiplier: %d\r\n", temp_config.interval, temp_config.multi
  53:../../../core/platform/common/src/payloadparser.c ****         index += 3;
  54:../../../core/platform/common/src/payloadparser.c ****         break;
  55:../../../core/platform/common/src/payloadparser.c ****       case TYPE_DOWNLINK_DNS_UPDATE:
  56:../../../core/platform/common/src/payloadparser.c ****         if(len < index+2)
  57:../../../core/platform/common/src/payloadparser.c ****         {
  58:../../../core/platform/common/src/payloadparser.c ****           printERR("Data too short for DNS type.\r\n");
  59:../../../core/platform/common/src/payloadparser.c ****           return PARSER_PARSE_ERROR;
  60:../../../core/platform/common/src/payloadparser.c ****         } 
  61:../../../core/platform/common/src/payloadparser.c ****         //DNS ID UPDATE RECEIVED        
  62:../../../core/platform/common/src/payloadparser.c ****         if((buffer[index+1] != 1) && (buffer[index+1] != 0))
  63:../../../core/platform/common/src/payloadparser.c ****         {
  64:../../../core/platform/common/src/payloadparser.c ****           printERR("NON EXISTING DNS URL ID\r\n");
  65:../../../core/platform/common/src/payloadparser.c ****           return PARSER_INVALID_VALUE;
  66:../../../core/platform/common/src/payloadparser.c ****         }  
  67:../../../core/platform/common/src/payloadparser.c ****         else
  68:../../../core/platform/common/src/payloadparser.c ****         {
  69:../../../core/platform/common/src/payloadparser.c ****           temp_config.dns_id = buffer[index+1];
  70:../../../core/platform/common/src/payloadparser.c ****           printINF("New DNS URL id: %d\r\n", temp_config.dns_id);
  71:../../../core/platform/common/src/payloadparser.c ****           //TODO: reboot after new URL id? or just reinint nb-iot module? -> this is for applicatio
  72:../../../core/platform/common/src/payloadparser.c ****         }
  73:../../../core/platform/common/src/payloadparser.c ****         index += 2;
  74:../../../core/platform/common/src/payloadparser.c ****         break;
  75:../../../core/platform/common/src/payloadparser.c ****       case TYPE_CURRENT_FLASH_INDEX:
  76:../../../core/platform/common/src/payloadparser.c ****         if(len < index+5)
  77:../../../core/platform/common/src/payloadparser.c ****         {
  78:../../../core/platform/common/src/payloadparser.c ****           printERR("Data too short for FLASH type.\r\n");
  79:../../../core/platform/common/src/payloadparser.c ****           return PARSER_PARSE_ERROR;
  80:../../../core/platform/common/src/payloadparser.c ****         }
  81:../../../core/platform/common/src/payloadparser.c ****         //FLASH INDEX
  82:../../../core/platform/common/src/payloadparser.c ****         uint32LittleEndian.byte[0] = buffer[index+1];
  83:../../../core/platform/common/src/payloadparser.c ****         uint32LittleEndian.byte[1] = buffer[index+2];
  84:../../../core/platform/common/src/payloadparser.c ****         uint32LittleEndian.byte[2] = buffer[index+3];
  85:../../../core/platform/common/src/payloadparser.c ****         uint32LittleEndian.byte[3] = buffer[index+4];
  86:../../../core/platform/common/src/payloadparser.c ****         temp_config.flash_index = uint32LittleEndian.integer;
  87:../../../core/platform/common/src/payloadparser.c ****         printINF("Current Flash Index %d\r\n", temp_config.flash_index);
  88:../../../core/platform/common/src/payloadparser.c ****         index += 5;
ARM GAS  C:\Users\tomra\AppData\Local\Temp\ccMqoCkI.s 			page 8


  89:../../../core/platform/common/src/payloadparser.c ****         break;
  90:../../../core/platform/common/src/payloadparser.c ****       case TYPE_LAST_KNOWN_TIMESTAMP:
  91:../../../core/platform/common/src/payloadparser.c ****         if(len < index+5)
 246              		.loc 1 91 9 is_stmt 1 view .LVU55
 247              		.loc 1 91 16 is_stmt 0 view .LVU56
 248 009a 231D     		adds	r3, r4, #4
 249              		.loc 1 91 11 view .LVU57
 250 009c 9845     		cmp	r8, r3
 251 009e 5EDD     		ble	.L27
  92:../../../core/platform/common/src/payloadparser.c ****         {
  93:../../../core/platform/common/src/payloadparser.c ****           printERR("Data too short for LAST_KNOWN_TIMESTAMP type.\r\n");
  94:../../../core/platform/common/src/payloadparser.c ****           return PARSER_PARSE_ERROR;
  95:../../../core/platform/common/src/payloadparser.c ****         }
  96:../../../core/platform/common/src/payloadparser.c ****         //FLASH INDEX
  97:../../../core/platform/common/src/payloadparser.c ****         uint32LittleEndian.byte[0] = buffer[index+1];
 252              		.loc 1 97 9 is_stmt 1 view .LVU58
 253              		.loc 1 97 44 is_stmt 0 view .LVU59
 254 00a0 3244     		add	r2, r2, r6
 255 00a2 5178     		ldrb	r1, [r2, #1]	@ zero_extendqisi2
 256              		.loc 1 97 36 view .LVU60
 257 00a4 3A4B     		ldr	r3, .L32+12
 258 00a6 1970     		strb	r1, [r3]
  98:../../../core/platform/common/src/payloadparser.c ****         uint32LittleEndian.byte[1] = buffer[index+2];
 259              		.loc 1 98 9 is_stmt 1 view .LVU61
 260              		.loc 1 98 44 is_stmt 0 view .LVU62
 261 00a8 9178     		ldrb	r1, [r2, #2]	@ zero_extendqisi2
 262              		.loc 1 98 36 view .LVU63
 263 00aa 5970     		strb	r1, [r3, #1]
  99:../../../core/platform/common/src/payloadparser.c ****         uint32LittleEndian.byte[2] = buffer[index+3];
 264              		.loc 1 99 9 is_stmt 1 view .LVU64
 265              		.loc 1 99 44 is_stmt 0 view .LVU65
 266 00ac D178     		ldrb	r1, [r2, #3]	@ zero_extendqisi2
 267              		.loc 1 99 36 view .LVU66
 268 00ae 9970     		strb	r1, [r3, #2]
 100:../../../core/platform/common/src/payloadparser.c ****         uint32LittleEndian.byte[3] = buffer[index+4];
 269              		.loc 1 100 9 is_stmt 1 view .LVU67
 270              		.loc 1 100 44 is_stmt 0 view .LVU68
 271 00b0 1279     		ldrb	r2, [r2, #4]	@ zero_extendqisi2
 272              		.loc 1 100 36 view .LVU69
 273 00b2 DA70     		strb	r2, [r3, #3]
 101:../../../core/platform/common/src/payloadparser.c ****         temp_config.last_known_timestamp = uint32LittleEndian.integer;
 274              		.loc 1 101 9 is_stmt 1 view .LVU70
 275              		.loc 1 101 62 is_stmt 0 view .LVU71
 276 00b4 1968     		ldr	r1, [r3]
 277              		.loc 1 101 42 view .LVU72
 278 00b6 0591     		str	r1, [sp, #20]
 102:../../../core/platform/common/src/payloadparser.c ****         printINF("Current last known timestamp %d\r\n", temp_config.last_known_timestamp);
 279              		.loc 1 102 9 is_stmt 1 view .LVU73
 280 00b8 3848     		ldr	r0, .L32+24
 281 00ba FFF7FEFF 		bl	printINF
 282              	.LVL16:
 103:../../../core/platform/common/src/payloadparser.c ****         index += 5;
 283              		.loc 1 103 9 view .LVU74
 284              		.loc 1 103 15 is_stmt 0 view .LVU75
 285 00be 0534     		adds	r4, r4, #5
 286              	.LVL17:
 287              		.loc 1 103 15 view .LVU76
ARM GAS  C:\Users\tomra\AppData\Local\Temp\ccMqoCkI.s 			page 9


 288 00c0 A4B2     		uxth	r4, r4
 289              	.LVL18:
 104:../../../core/platform/common/src/payloadparser.c ****         break;
 290              		.loc 1 104 9 is_stmt 1 view .LVU77
 291 00c2 BFE7     		b	.L4
 292              	.L26:
 293              	.LBB5:
  31:../../../core/platform/common/src/payloadparser.c ****           return PARSER_PARSE_ERROR;
 294              		.loc 1 31 11 view .LVU78
 295 00c4 3648     		ldr	r0, .L32+28
 296 00c6 FFF7FEFF 		bl	printERR
 297              	.LVL19:
  32:../../../core/platform/common/src/payloadparser.c ****         }
 298              		.loc 1 32 11 view .LVU79
  32:../../../core/platform/common/src/payloadparser.c ****         }
 299              		.loc 1 32 18 is_stmt 0 view .LVU80
 300 00ca 0220     		movs	r0, #2
 301 00cc 50E0     		b	.L5
 302              	.L11:
 303              	.LBE5:
  44:../../../core/platform/common/src/payloadparser.c ****         {
 304              		.loc 1 44 9 is_stmt 1 view .LVU81
  44:../../../core/platform/common/src/payloadparser.c ****         {
 305              		.loc 1 44 16 is_stmt 0 view .LVU82
 306 00ce A31C     		adds	r3, r4, #2
  44:../../../core/platform/common/src/payloadparser.c ****         {
 307              		.loc 1 44 11 view .LVU83
 308 00d0 9845     		cmp	r8, r3
 309 00d2 0CDD     		ble	.L28
  50:../../../core/platform/common/src/payloadparser.c ****         temp_config.multiplier = buffer[index+2];
 310              		.loc 1 50 9 is_stmt 1 view .LVU84
  50:../../../core/platform/common/src/payloadparser.c ****         temp_config.multiplier = buffer[index+2];
 311              		.loc 1 50 38 is_stmt 0 view .LVU85
 312 00d4 3244     		add	r2, r2, r6
 313 00d6 5178     		ldrb	r1, [r2, #1]	@ zero_extendqisi2
  50:../../../core/platform/common/src/payloadparser.c ****         temp_config.multiplier = buffer[index+2];
 314              		.loc 1 50 30 view .LVU86
 315 00d8 8DF81010 		strb	r1, [sp, #16]
  51:../../../core/platform/common/src/payloadparser.c ****         printINF("New interval: %d and multiplier: %d\r\n", temp_config.interval, temp_config.multi
 316              		.loc 1 51 9 is_stmt 1 view .LVU87
  51:../../../core/platform/common/src/payloadparser.c ****         printINF("New interval: %d and multiplier: %d\r\n", temp_config.interval, temp_config.multi
 317              		.loc 1 51 40 is_stmt 0 view .LVU88
 318 00dc 9278     		ldrb	r2, [r2, #2]	@ zero_extendqisi2
  51:../../../core/platform/common/src/payloadparser.c ****         printINF("New interval: %d and multiplier: %d\r\n", temp_config.interval, temp_config.multi
 319              		.loc 1 51 32 view .LVU89
 320 00de 8DF81120 		strb	r2, [sp, #17]
  52:../../../core/platform/common/src/payloadparser.c ****         index += 3;
 321              		.loc 1 52 9 is_stmt 1 view .LVU90
 322 00e2 3048     		ldr	r0, .L32+32
 323 00e4 FFF7FEFF 		bl	printINF
 324              	.LVL20:
  53:../../../core/platform/common/src/payloadparser.c ****         break;
 325              		.loc 1 53 9 view .LVU91
  53:../../../core/platform/common/src/payloadparser.c ****         break;
 326              		.loc 1 53 15 is_stmt 0 view .LVU92
 327 00e8 0334     		adds	r4, r4, #3
 328              	.LVL21:
ARM GAS  C:\Users\tomra\AppData\Local\Temp\ccMqoCkI.s 			page 10


  53:../../../core/platform/common/src/payloadparser.c ****         break;
 329              		.loc 1 53 15 view .LVU93
 330 00ea A4B2     		uxth	r4, r4
 331              	.LVL22:
  54:../../../core/platform/common/src/payloadparser.c ****       case TYPE_DOWNLINK_DNS_UPDATE:
 332              		.loc 1 54 9 is_stmt 1 view .LVU94
 333 00ec AAE7     		b	.L4
 334              	.L28:
 335              	.LBB6:
  46:../../../core/platform/common/src/payloadparser.c ****           return PARSER_PARSE_ERROR;
 336              		.loc 1 46 11 view .LVU95
 337 00ee 2E48     		ldr	r0, .L32+36
 338 00f0 FFF7FEFF 		bl	printERR
 339              	.LVL23:
  47:../../../core/platform/common/src/payloadparser.c ****         }
 340              		.loc 1 47 11 view .LVU96
  47:../../../core/platform/common/src/payloadparser.c ****         }
 341              		.loc 1 47 18 is_stmt 0 view .LVU97
 342 00f4 0220     		movs	r0, #2
 343 00f6 3BE0     		b	.L5
 344              	.L6:
 345              	.LBE6:
  56:../../../core/platform/common/src/payloadparser.c ****         {
 346              		.loc 1 56 9 is_stmt 1 view .LVU98
  56:../../../core/platform/common/src/payloadparser.c ****         {
 347              		.loc 1 56 16 is_stmt 0 view .LVU99
 348 00f8 631C     		adds	r3, r4, #1
  56:../../../core/platform/common/src/payloadparser.c ****         {
 349              		.loc 1 56 11 view .LVU100
 350 00fa 9845     		cmp	r8, r3
 351 00fc 0BDD     		ble	.L29
  62:../../../core/platform/common/src/payloadparser.c ****         {
 352              		.loc 1 62 9 is_stmt 1 view .LVU101
  62:../../../core/platform/common/src/payloadparser.c ****         {
 353              		.loc 1 62 19 is_stmt 0 view .LVU102
 354 00fe 3244     		add	r2, r2, r6
 355 0100 5178     		ldrb	r1, [r2, #1]	@ zero_extendqisi2
  62:../../../core/platform/common/src/payloadparser.c ****         {
 356              		.loc 1 62 11 view .LVU103
 357 0102 0129     		cmp	r1, #1
 358 0104 0CD8     		bhi	.L30
  69:../../../core/platform/common/src/payloadparser.c ****           printINF("New DNS URL id: %d\r\n", temp_config.dns_id);
 359              		.loc 1 69 11 is_stmt 1 view .LVU104
  69:../../../core/platform/common/src/payloadparser.c ****           printINF("New DNS URL id: %d\r\n", temp_config.dns_id);
 360              		.loc 1 69 30 is_stmt 0 view .LVU105
 361 0106 8DF80810 		strb	r1, [sp, #8]
  70:../../../core/platform/common/src/payloadparser.c ****           //TODO: reboot after new URL id? or just reinint nb-iot module? -> this is for applicatio
 362              		.loc 1 70 11 is_stmt 1 view .LVU106
 363 010a 2848     		ldr	r0, .L32+40
 364 010c FFF7FEFF 		bl	printINF
 365              	.LVL24:
  73:../../../core/platform/common/src/payloadparser.c ****         break;
 366              		.loc 1 73 9 view .LVU107
  73:../../../core/platform/common/src/payloadparser.c ****         break;
 367              		.loc 1 73 15 is_stmt 0 view .LVU108
 368 0110 0234     		adds	r4, r4, #2
 369              	.LVL25:
ARM GAS  C:\Users\tomra\AppData\Local\Temp\ccMqoCkI.s 			page 11


  73:../../../core/platform/common/src/payloadparser.c ****         break;
 370              		.loc 1 73 15 view .LVU109
 371 0112 A4B2     		uxth	r4, r4
 372              	.LVL26:
  74:../../../core/platform/common/src/payloadparser.c ****       case TYPE_CURRENT_FLASH_INDEX:
 373              		.loc 1 74 9 is_stmt 1 view .LVU110
 374 0114 96E7     		b	.L4
 375              	.L29:
 376              	.LBB7:
  58:../../../core/platform/common/src/payloadparser.c ****           return PARSER_PARSE_ERROR;
 377              		.loc 1 58 11 view .LVU111
 378 0116 2648     		ldr	r0, .L32+44
 379 0118 FFF7FEFF 		bl	printERR
 380              	.LVL27:
  59:../../../core/platform/common/src/payloadparser.c ****         } 
 381              		.loc 1 59 11 view .LVU112
  59:../../../core/platform/common/src/payloadparser.c ****         } 
 382              		.loc 1 59 18 is_stmt 0 view .LVU113
 383 011c 0220     		movs	r0, #2
 384 011e 27E0     		b	.L5
 385              	.L30:
  59:../../../core/platform/common/src/payloadparser.c ****         } 
 386              		.loc 1 59 18 view .LVU114
 387              	.LBE7:
 388              	.LBB8:
  64:../../../core/platform/common/src/payloadparser.c ****           return PARSER_INVALID_VALUE;
 389              		.loc 1 64 11 is_stmt 1 view .LVU115
 390 0120 2448     		ldr	r0, .L32+48
 391 0122 FFF7FEFF 		bl	printERR
 392              	.LVL28:
  65:../../../core/platform/common/src/payloadparser.c ****         }  
 393              		.loc 1 65 11 view .LVU116
  65:../../../core/platform/common/src/payloadparser.c ****         }  
 394              		.loc 1 65 18 is_stmt 0 view .LVU117
 395 0126 0420     		movs	r0, #4
 396 0128 22E0     		b	.L5
 397              	.L8:
  65:../../../core/platform/common/src/payloadparser.c ****         }  
 398              		.loc 1 65 18 view .LVU118
 399              	.LBE8:
  76:../../../core/platform/common/src/payloadparser.c ****         {
 400              		.loc 1 76 9 is_stmt 1 view .LVU119
  76:../../../core/platform/common/src/payloadparser.c ****         {
 401              		.loc 1 76 16 is_stmt 0 view .LVU120
 402 012a 231D     		adds	r3, r4, #4
  76:../../../core/platform/common/src/payloadparser.c ****         {
 403              		.loc 1 76 11 view .LVU121
 404 012c 9845     		cmp	r8, r3
 405 012e 11DD     		ble	.L31
  82:../../../core/platform/common/src/payloadparser.c ****         uint32LittleEndian.byte[1] = buffer[index+2];
 406              		.loc 1 82 9 is_stmt 1 view .LVU122
  82:../../../core/platform/common/src/payloadparser.c ****         uint32LittleEndian.byte[1] = buffer[index+2];
 407              		.loc 1 82 44 is_stmt 0 view .LVU123
 408 0130 3244     		add	r2, r2, r6
 409 0132 5178     		ldrb	r1, [r2, #1]	@ zero_extendqisi2
  82:../../../core/platform/common/src/payloadparser.c ****         uint32LittleEndian.byte[1] = buffer[index+2];
 410              		.loc 1 82 36 view .LVU124
ARM GAS  C:\Users\tomra\AppData\Local\Temp\ccMqoCkI.s 			page 12


 411 0134 164B     		ldr	r3, .L32+12
 412 0136 1970     		strb	r1, [r3]
  83:../../../core/platform/common/src/payloadparser.c ****         uint32LittleEndian.byte[2] = buffer[index+3];
 413              		.loc 1 83 9 is_stmt 1 view .LVU125
  83:../../../core/platform/common/src/payloadparser.c ****         uint32LittleEndian.byte[2] = buffer[index+3];
 414              		.loc 1 83 44 is_stmt 0 view .LVU126
 415 0138 9178     		ldrb	r1, [r2, #2]	@ zero_extendqisi2
  83:../../../core/platform/common/src/payloadparser.c ****         uint32LittleEndian.byte[2] = buffer[index+3];
 416              		.loc 1 83 36 view .LVU127
 417 013a 5970     		strb	r1, [r3, #1]
  84:../../../core/platform/common/src/payloadparser.c ****         uint32LittleEndian.byte[3] = buffer[index+4];
 418              		.loc 1 84 9 is_stmt 1 view .LVU128
  84:../../../core/platform/common/src/payloadparser.c ****         uint32LittleEndian.byte[3] = buffer[index+4];
 419              		.loc 1 84 44 is_stmt 0 view .LVU129
 420 013c D178     		ldrb	r1, [r2, #3]	@ zero_extendqisi2
  84:../../../core/platform/common/src/payloadparser.c ****         uint32LittleEndian.byte[3] = buffer[index+4];
 421              		.loc 1 84 36 view .LVU130
 422 013e 9970     		strb	r1, [r3, #2]
  85:../../../core/platform/common/src/payloadparser.c ****         temp_config.flash_index = uint32LittleEndian.integer;
 423              		.loc 1 85 9 is_stmt 1 view .LVU131
  85:../../../core/platform/common/src/payloadparser.c ****         temp_config.flash_index = uint32LittleEndian.integer;
 424              		.loc 1 85 44 is_stmt 0 view .LVU132
 425 0140 1279     		ldrb	r2, [r2, #4]	@ zero_extendqisi2
  85:../../../core/platform/common/src/payloadparser.c ****         temp_config.flash_index = uint32LittleEndian.integer;
 426              		.loc 1 85 36 view .LVU133
 427 0142 DA70     		strb	r2, [r3, #3]
  86:../../../core/platform/common/src/payloadparser.c ****         printINF("Current Flash Index %d\r\n", temp_config.flash_index);
 428              		.loc 1 86 9 is_stmt 1 view .LVU134
  86:../../../core/platform/common/src/payloadparser.c ****         printINF("Current Flash Index %d\r\n", temp_config.flash_index);
 429              		.loc 1 86 53 is_stmt 0 view .LVU135
 430 0144 1968     		ldr	r1, [r3]
  86:../../../core/platform/common/src/payloadparser.c ****         printINF("Current Flash Index %d\r\n", temp_config.flash_index);
 431              		.loc 1 86 33 view .LVU136
 432 0146 0191     		str	r1, [sp, #4]
  87:../../../core/platform/common/src/payloadparser.c ****         index += 5;
 433              		.loc 1 87 9 is_stmt 1 view .LVU137
 434 0148 1B48     		ldr	r0, .L32+52
 435 014a FFF7FEFF 		bl	printINF
 436              	.LVL29:
  88:../../../core/platform/common/src/payloadparser.c ****         break;
 437              		.loc 1 88 9 view .LVU138
  88:../../../core/platform/common/src/payloadparser.c ****         break;
 438              		.loc 1 88 15 is_stmt 0 view .LVU139
 439 014e 0534     		adds	r4, r4, #5
 440              	.LVL30:
  88:../../../core/platform/common/src/payloadparser.c ****         break;
 441              		.loc 1 88 15 view .LVU140
 442 0150 A4B2     		uxth	r4, r4
 443              	.LVL31:
  89:../../../core/platform/common/src/payloadparser.c ****       case TYPE_LAST_KNOWN_TIMESTAMP:
 444              		.loc 1 89 9 is_stmt 1 view .LVU141
 445 0152 77E7     		b	.L4
 446              	.L31:
 447              	.LBB9:
  78:../../../core/platform/common/src/payloadparser.c ****           return PARSER_PARSE_ERROR;
 448              		.loc 1 78 11 view .LVU142
 449 0154 1948     		ldr	r0, .L32+56
ARM GAS  C:\Users\tomra\AppData\Local\Temp\ccMqoCkI.s 			page 13


 450 0156 FFF7FEFF 		bl	printERR
 451              	.LVL32:
  79:../../../core/platform/common/src/payloadparser.c ****         }
 452              		.loc 1 79 11 view .LVU143
  79:../../../core/platform/common/src/payloadparser.c ****         }
 453              		.loc 1 79 18 is_stmt 0 view .LVU144
 454 015a 0220     		movs	r0, #2
 455 015c 08E0     		b	.L5
 456              	.L27:
 457              	.LBE9:
 458              	.LBB10:
  93:../../../core/platform/common/src/payloadparser.c ****           return PARSER_PARSE_ERROR;
 459              		.loc 1 93 11 is_stmt 1 view .LVU145
 460 015e 1848     		ldr	r0, .L32+60
 461 0160 FFF7FEFF 		bl	printERR
 462              	.LVL33:
  94:../../../core/platform/common/src/payloadparser.c ****         }
 463              		.loc 1 94 11 view .LVU146
  94:../../../core/platform/common/src/payloadparser.c ****         }
 464              		.loc 1 94 18 is_stmt 0 view .LVU147
 465 0164 0220     		movs	r0, #2
 466 0166 03E0     		b	.L5
 467              	.L10:
 468              	.LBE10:
 105:../../../core/platform/common/src/payloadparser.c ****       default:
 106:../../../core/platform/common/src/payloadparser.c ****         printERR("UNKNOWN OCTA PAYLOAD TYPE RECEIVED\r\n");
 469              		.loc 1 106 9 is_stmt 1 view .LVU148
 470 0168 1648     		ldr	r0, .L32+64
 471 016a FFF7FEFF 		bl	printERR
 472              	.LVL34:
 107:../../../core/platform/common/src/payloadparser.c ****         return PARSER_UNKNOWN_TYPE;
 473              		.loc 1 107 9 view .LVU149
 474              		.loc 1 107 16 is_stmt 0 view .LVU150
 475 016e 0320     		movs	r0, #3
 476              	.LVL35:
 477              	.L5:
 478              		.loc 1 107 16 view .LVU151
 479              	.LBE12:
 108:../../../core/platform/common/src/payloadparser.c ****     }    
 109:../../../core/platform/common/src/payloadparser.c ****   }
 110:../../../core/platform/common/src/payloadparser.c ****   *current_octa_configuration = temp_config;
 111:../../../core/platform/common/src/payloadparser.c ****   return PARSER_OK;
 112:../../../core/platform/common/src/payloadparser.c **** }
 480              		.loc 1 112 1 view .LVU152
 481 0170 06B0     		add	sp, sp, #24
 482              	.LCFI2:
 483              		.cfi_remember_state
 484              		.cfi_def_cfa_offset 24
 485              		@ sp needed
 486 0172 BDE8F081 		pop	{r4, r5, r6, r7, r8, pc}
 487              	.LVL36:
 488              	.L24:
 489              	.LCFI3:
 490              		.cfi_restore_state
 110:../../../core/platform/common/src/payloadparser.c ****   return PARSER_OK;
 491              		.loc 1 110 3 is_stmt 1 view .LVU153
 110:../../../core/platform/common/src/payloadparser.c ****   return PARSER_OK;
ARM GAS  C:\Users\tomra\AppData\Local\Temp\ccMqoCkI.s 			page 14


 492              		.loc 1 110 31 is_stmt 0 view .LVU154
 493 0176 01AC     		add	r4, sp, #4
 494              	.LVL37:
 110:../../../core/platform/common/src/payloadparser.c ****   return PARSER_OK;
 495              		.loc 1 110 31 view .LVU155
 496 0178 0FCC     		ldmia	r4!, {r0, r1, r2, r3}
 497 017a 0FC7     		stmia	r7!, {r0, r1, r2, r3}
 498              	.LVL38:
 110:../../../core/platform/common/src/payloadparser.c ****   return PARSER_OK;
 499              		.loc 1 110 31 view .LVU156
 500 017c 2368     		ldr	r3, [r4]
 501 017e 3B60     		str	r3, [r7]
 111:../../../core/platform/common/src/payloadparser.c **** }
 502              		.loc 1 111 3 is_stmt 1 view .LVU157
 111:../../../core/platform/common/src/payloadparser.c **** }
 503              		.loc 1 111 10 is_stmt 0 view .LVU158
 504 0180 0020     		movs	r0, #0
 505 0182 F5E7     		b	.L5
 506              	.L33:
 507              		.align	2
 508              	.L32:
 509 0184 00000000 		.word	.LC0
 510 0188 34000000 		.word	.LC1
 511 018c 3C000000 		.word	.LC2
 512 0190 00000000 		.word	uint32LittleEndian
 513 0194 74000000 		.word	.LC5
 514 0198 40000000 		.word	.LC3
 515 019c A8010000 		.word	.LC14
 516 01a0 54000000 		.word	.LC4
 517 01a4 BC000000 		.word	.LC7
 518 01a8 8C000000 		.word	.LC6
 519 01ac 20010000 		.word	.LC10
 520 01b0 E4000000 		.word	.LC8
 521 01b4 04010000 		.word	.LC9
 522 01b8 5C010000 		.word	.LC12
 523 01bc 38010000 		.word	.LC11
 524 01c0 78010000 		.word	.LC13
 525 01c4 CC010000 		.word	.LC15
 526              		.cfi_endproc
 527              	.LFE0:
 529              		.section	.rodata.parse_octa_protocol_downlink.str1.4,"aMS",%progbits,1
 530              		.align	2
 531              	.LC16:
 532 0000 70617273 		.ascii	"parsing octa protocol downlink with size %d\015\012"
 532      696E6720 
 532      6F637461 
 532      2070726F 
 532      746F636F 
 533 002d 00       		.ascii	"\000"
 534 002e 0000     		.align	2
 535              	.LC17:
 536 0030 48656164 		.ascii	"Header of Payload END found\015\012\000"
 536      6572206F 
 536      66205061 
 536      796C6F61 
 536      6420454E 
 537 004e 0000     		.align	2
ARM GAS  C:\Users\tomra\AppData\Local\Temp\ccMqoCkI.s 			page 15


 538              	.LC18:
 539 0050 44617461 		.ascii	"Data too short for TIMESTAMP type.\015\012\000"
 539      20746F6F 
 539      2073686F 
 539      72742066 
 539      6F722054 
 540 0075 000000   		.align	2
 541              	.LC19:
 542 0078 55544320 		.ascii	"UTC Timestamp received: %d\015\012\000"
 542      54696D65 
 542      7374616D 
 542      70207265 
 542      63656976 
 543 0095 000000   		.align	2
 544              	.LC20:
 545 0098 5B706179 		.ascii	"[payloadparser:parse_octa_protocol_downlink] parsin"
 545      6C6F6164 
 545      70617273 
 545      65723A70 
 545      61727365 
 546 00cb 67204F4B 		.ascii	"g OK\015\012\000"
 546      0D0A00
 547              		.section	.text.parse_octa_protocol_downlink,"ax",%progbits
 548              		.align	1
 549              		.global	parse_octa_protocol_downlink
 550              		.syntax unified
 551              		.thumb
 552              		.thumb_func
 553              		.fpu fpv4-sp-d16
 555              	parse_octa_protocol_downlink:
 556              	.LVL39:
 557              	.LFB1:
 113:../../../core/platform/common/src/payloadparser.c **** 
 114:../../../core/platform/common/src/payloadparser.c **** uint8_t parse_octa_protocol_downlink(struct octa_configuration* current_octa_configuration, uint8_t
 115:../../../core/platform/common/src/payloadparser.c **** {
 558              		.loc 1 115 1 is_stmt 1 view -0
 559              		.cfi_startproc
 560              		@ args = 0, pretend = 0, frame = 24
 561              		@ frame_needed = 0, uses_anonymous_args = 0
 562              		.loc 1 115 1 is_stmt 0 view .LVU160
 563 0000 2DE9F043 		push	{r4, r5, r6, r7, r8, r9, lr}
 564              	.LCFI4:
 565              		.cfi_def_cfa_offset 28
 566              		.cfi_offset 4, -28
 567              		.cfi_offset 5, -24
 568              		.cfi_offset 6, -20
 569              		.cfi_offset 7, -16
 570              		.cfi_offset 8, -12
 571              		.cfi_offset 9, -8
 572              		.cfi_offset 14, -4
 573 0004 87B0     		sub	sp, sp, #28
 574              	.LCFI5:
 575              		.cfi_def_cfa_offset 56
 576 0006 8146     		mov	r9, r0
 577 0008 0E46     		mov	r6, r1
 578 000a 1546     		mov	r5, r2
 116:../../../core/platform/common/src/payloadparser.c ****   uint16_t index = 0;
ARM GAS  C:\Users\tomra\AppData\Local\Temp\ccMqoCkI.s 			page 16


 579              		.loc 1 116 3 is_stmt 1 view .LVU161
 580              	.LVL40:
 117:../../../core/platform/common/src/payloadparser.c ****   struct octa_configuration temp_config;
 581              		.loc 1 117 3 view .LVU162
 118:../../../core/platform/common/src/payloadparser.c ****   //set temp config to use current config params
 119:../../../core/platform/common/src/payloadparser.c ****   temp_config = *current_octa_configuration;
 582              		.loc 1 119 3 view .LVU163
 583              		.loc 1 119 15 is_stmt 0 view .LVU164
 584 000c 01AC     		add	r4, sp, #4
 585 000e 8446     		mov	ip, r0
 586 0010 BCE80F00 		ldmia	ip!, {r0, r1, r2, r3}
 587              	.LVL41:
 588              		.loc 1 119 15 view .LVU165
 589 0014 0FC4     		stmia	r4!, {r0, r1, r2, r3}
 590 0016 DCF80030 		ldr	r3, [ip]
 591 001a 2360     		str	r3, [r4]
 120:../../../core/platform/common/src/payloadparser.c ****   printDBG("parsing octa protocol downlink with size %d\r\n", len);
 592              		.loc 1 120 3 is_stmt 1 view .LVU166
 593 001c A846     		mov	r8, r5
 594 001e 2946     		mov	r1, r5
 595 0020 3848     		ldr	r0, .L56
 596 0022 FFF7FEFF 		bl	printDBG
 597              	.LVL42:
 121:../../../core/platform/common/src/payloadparser.c ****   #if DEBUG
 122:../../../core/platform/common/src/payloadparser.c ****     for (uint16_t i = 0; i < len; ++i) {
 598              		.loc 1 122 5 view .LVU167
 599              	.LBB13:
 600              		.loc 1 122 10 view .LVU168
 601              		.loc 1 122 19 is_stmt 0 view .LVU169
 602 0026 0024     		movs	r4, #0
 603              	.LVL43:
 604              	.L35:
 605              		.loc 1 122 26 is_stmt 1 discriminator 1 view .LVU170
 606              		.loc 1 122 5 is_stmt 0 discriminator 1 view .LVU171
 607 0028 AC42     		cmp	r4, r5
 608 002a 06D2     		bcs	.L50
 609              	.LBB14:
 123:../../../core/platform/common/src/payloadparser.c ****       printf("%02x", buffer[i]);
 610              		.loc 1 123 7 is_stmt 1 discriminator 3 view .LVU172
 611 002c 315D     		ldrb	r1, [r6, r4]	@ zero_extendqisi2
 612 002e 3648     		ldr	r0, .L56+4
 613 0030 FFF7FEFF 		bl	printf
 614              	.LVL44:
 615              	.LBE14:
 122:../../../core/platform/common/src/payloadparser.c ****       printf("%02x", buffer[i]);
 616              		.loc 1 122 35 discriminator 3 view .LVU173
 617 0034 0134     		adds	r4, r4, #1
 618              	.LVL45:
 122:../../../core/platform/common/src/payloadparser.c ****       printf("%02x", buffer[i]);
 619              		.loc 1 122 35 is_stmt 0 discriminator 3 view .LVU174
 620 0036 A4B2     		uxth	r4, r4
 621              	.LVL46:
 122:../../../core/platform/common/src/payloadparser.c ****       printf("%02x", buffer[i]);
 622              		.loc 1 122 35 discriminator 3 view .LVU175
 623 0038 F6E7     		b	.L35
 624              	.L50:
 122:../../../core/platform/common/src/payloadparser.c ****       printf("%02x", buffer[i]);
ARM GAS  C:\Users\tomra\AppData\Local\Temp\ccMqoCkI.s 			page 17


 625              		.loc 1 122 35 discriminator 3 view .LVU176
 626              	.LBE13:
 124:../../../core/platform/common/src/payloadparser.c ****     }
 125:../../../core/platform/common/src/payloadparser.c ****     printf("\r\n");
 627              		.loc 1 125 5 is_stmt 1 view .LVU177
 628 003a 3448     		ldr	r0, .L56+8
 629 003c FFF7FEFF 		bl	puts
 630              	.LVL47:
 126:../../../core/platform/common/src/payloadparser.c ****   #endif
 127:../../../core/platform/common/src/payloadparser.c ****   if(len<1)
 631              		.loc 1 127 3 view .LVU178
 632              		.loc 1 127 5 is_stmt 0 view .LVU179
 633 0040 85B1     		cbz	r5, .L51
 116:../../../core/platform/common/src/payloadparser.c ****   struct octa_configuration temp_config;
 634              		.loc 1 116 12 view .LVU180
 635 0042 0024     		movs	r4, #0
 636              	.LVL48:
 637              	.L37:
 128:../../../core/platform/common/src/payloadparser.c ****   {
 129:../../../core/platform/common/src/payloadparser.c ****     printERR("Buffer too short\r\n");
 130:../../../core/platform/common/src/payloadparser.c ****     return PARSER_TOO_SHORT;
 131:../../../core/platform/common/src/payloadparser.c ****   }
 132:../../../core/platform/common/src/payloadparser.c ****   while (index<len)
 638              		.loc 1 132 9 is_stmt 1 view .LVU181
 639 0044 AC42     		cmp	r4, r5
 640 0046 52D2     		bcs	.L52
 133:../../../core/platform/common/src/payloadparser.c ****   {
 134:../../../core/platform/common/src/payloadparser.c ****     switch(buffer[index])
 641              		.loc 1 134 5 view .LVU182
 642              		.loc 1 134 18 is_stmt 0 view .LVU183
 643 0048 2246     		mov	r2, r4
 644 004a 335D     		ldrb	r3, [r6, r4]	@ zero_extendqisi2
 645              		.loc 1 134 5 view .LVU184
 646 004c 072B     		cmp	r3, #7
 647 004e 0ED0     		beq	.L39
 648 0050 FF2B     		cmp	r3, #255
 649 0052 26D0     		beq	.L40
 650 0054 5BB3     		cbz	r3, .L53
 651              	.LBB15:
 135:../../../core/platform/common/src/payloadparser.c ****     {
 136:../../../core/platform/common/src/payloadparser.c ****       case TYPE_HEADER_ACK:
 137:../../../core/platform/common/src/payloadparser.c ****         if(len < index+5)
 138:../../../core/platform/common/src/payloadparser.c ****         {
 139:../../../core/platform/common/src/payloadparser.c ****           printERR("Data too short for ACK type.\r\n");
 140:../../../core/platform/common/src/payloadparser.c ****           return PARSER_PARSE_ERROR;
 141:../../../core/platform/common/src/payloadparser.c ****         }
 142:../../../core/platform/common/src/payloadparser.c ****         //ACK RECEIVED
 143:../../../core/platform/common/src/payloadparser.c ****         uint32LittleEndian.byte[0] = buffer[index+1];
 144:../../../core/platform/common/src/payloadparser.c ****         uint32LittleEndian.byte[1] = buffer[index+2];
 145:../../../core/platform/common/src/payloadparser.c ****         uint32LittleEndian.byte[2] = buffer[index+3];
 146:../../../core/platform/common/src/payloadparser.c ****         uint32LittleEndian.byte[3] = buffer[index+4];
 147:../../../core/platform/common/src/payloadparser.c ****         temp_config.last_msg_acked = uint32LittleEndian.integer;
 148:../../../core/platform/common/src/payloadparser.c ****         printINF("ACK for SEQ_NR: %d\r\n", temp_config.last_msg_acked);
 149:../../../core/platform/common/src/payloadparser.c ****         index += 5;
 150:../../../core/platform/common/src/payloadparser.c ****         break;
 151:../../../core/platform/common/src/payloadparser.c ****       case TYPE_HEADER_END:
 152:../../../core/platform/common/src/payloadparser.c ****         printINF("Header of Payload END found\r\n");
ARM GAS  C:\Users\tomra\AppData\Local\Temp\ccMqoCkI.s 			page 18


 153:../../../core/platform/common/src/payloadparser.c ****         index ++;
 154:../../../core/platform/common/src/payloadparser.c ****         break;
 155:../../../core/platform/common/src/payloadparser.c ****       case TYPE_PAYLOAD_TIMESTAMP:
 156:../../../core/platform/common/src/payloadparser.c ****         if(len < index+5)
 157:../../../core/platform/common/src/payloadparser.c ****         {
 158:../../../core/platform/common/src/payloadparser.c ****           printERR("Data too short for TIMESTAMP type.\r\n");
 159:../../../core/platform/common/src/payloadparser.c ****           return PARSER_PARSE_ERROR;
 160:../../../core/platform/common/src/payloadparser.c ****         }
 161:../../../core/platform/common/src/payloadparser.c ****         //FLASH INDEX
 162:../../../core/platform/common/src/payloadparser.c ****         uint32LittleEndian.byte[0] = buffer[index+1];
 163:../../../core/platform/common/src/payloadparser.c ****         uint32LittleEndian.byte[1] = buffer[index+2];
 164:../../../core/platform/common/src/payloadparser.c ****         uint32LittleEndian.byte[2] = buffer[index+3];
 165:../../../core/platform/common/src/payloadparser.c ****         uint32LittleEndian.byte[3] = buffer[index+4];
 166:../../../core/platform/common/src/payloadparser.c ****         temp_config.last_known_timestamp = uint32LittleEndian.integer;
 167:../../../core/platform/common/src/payloadparser.c ****         RTC_Set_Time_From_Unix(temp_config.last_known_timestamp);
 168:../../../core/platform/common/src/payloadparser.c ****         printINF("UTC Timestamp received: %d\r\n", temp_config.last_known_timestamp);
 169:../../../core/platform/common/src/payloadparser.c ****         RTC_Print_DateTime();
 170:../../../core/platform/common/src/payloadparser.c ****         index += 5;
 171:../../../core/platform/common/src/payloadparser.c ****         break;
 172:../../../core/platform/common/src/payloadparser.c ****       default:
 173:../../../core/platform/common/src/payloadparser.c ****         printERR("UNKNOWN OCTA PAYLOAD TYPE RECEIVED\r\n");
 652              		.loc 1 173 9 is_stmt 1 view .LVU185
 653 0056 2E48     		ldr	r0, .L56+12
 654 0058 FFF7FEFF 		bl	printERR
 655              	.LVL49:
 174:../../../core/platform/common/src/payloadparser.c ****         return PARSER_UNKNOWN_TYPE;
 656              		.loc 1 174 9 view .LVU186
 657              		.loc 1 174 16 is_stmt 0 view .LVU187
 658 005c 0320     		movs	r0, #3
 659              	.LVL50:
 660              	.L38:
 661              		.loc 1 174 16 view .LVU188
 662              	.LBE15:
 175:../../../core/platform/common/src/payloadparser.c ****     }    
 176:../../../core/platform/common/src/payloadparser.c ****   }
 177:../../../core/platform/common/src/payloadparser.c ****   *current_octa_configuration = temp_config;
 178:../../../core/platform/common/src/payloadparser.c ****   printINF("[payloadparser:parse_octa_protocol_downlink] parsing OK\r\n");
 179:../../../core/platform/common/src/payloadparser.c ****   return PARSER_OK;
 180:../../../core/platform/common/src/payloadparser.c **** }
 663              		.loc 1 180 1 view .LVU189
 664 005e 07B0     		add	sp, sp, #28
 665              	.LCFI6:
 666              		.cfi_remember_state
 667              		.cfi_def_cfa_offset 28
 668              		@ sp needed
 669 0060 BDE8F083 		pop	{r4, r5, r6, r7, r8, r9, pc}
 670              	.LVL51:
 671              	.L51:
 672              	.LCFI7:
 673              		.cfi_restore_state
 674              	.LBB18:
 129:../../../core/platform/common/src/payloadparser.c ****     return PARSER_TOO_SHORT;
 675              		.loc 1 129 5 is_stmt 1 view .LVU190
 676 0064 2B48     		ldr	r0, .L56+16
 677 0066 FFF7FEFF 		bl	printERR
 678              	.LVL52:
 130:../../../core/platform/common/src/payloadparser.c ****   }
ARM GAS  C:\Users\tomra\AppData\Local\Temp\ccMqoCkI.s 			page 19


 679              		.loc 1 130 5 view .LVU191
 130:../../../core/platform/common/src/payloadparser.c ****   }
 680              		.loc 1 130 12 is_stmt 0 view .LVU192
 681 006a 0120     		movs	r0, #1
 682 006c F7E7     		b	.L38
 683              	.LVL53:
 684              	.L39:
 130:../../../core/platform/common/src/payloadparser.c ****   }
 685              		.loc 1 130 12 view .LVU193
 686              	.LBE18:
 687              	.LBB19:
 137:../../../core/platform/common/src/payloadparser.c ****         {
 688              		.loc 1 137 9 is_stmt 1 view .LVU194
 137:../../../core/platform/common/src/payloadparser.c ****         {
 689              		.loc 1 137 16 is_stmt 0 view .LVU195
 690 006e 231D     		adds	r3, r4, #4
 137:../../../core/platform/common/src/payloadparser.c ****         {
 691              		.loc 1 137 11 view .LVU196
 692 0070 9845     		cmp	r8, r3
 693 0072 11DD     		ble	.L54
 143:../../../core/platform/common/src/payloadparser.c ****         uint32LittleEndian.byte[1] = buffer[index+2];
 694              		.loc 1 143 9 is_stmt 1 view .LVU197
 143:../../../core/platform/common/src/payloadparser.c ****         uint32LittleEndian.byte[1] = buffer[index+2];
 695              		.loc 1 143 44 is_stmt 0 view .LVU198
 696 0074 3244     		add	r2, r2, r6
 697 0076 5178     		ldrb	r1, [r2, #1]	@ zero_extendqisi2
 143:../../../core/platform/common/src/payloadparser.c ****         uint32LittleEndian.byte[1] = buffer[index+2];
 698              		.loc 1 143 36 view .LVU199
 699 0078 274B     		ldr	r3, .L56+20
 700 007a 1970     		strb	r1, [r3]
 144:../../../core/platform/common/src/payloadparser.c ****         uint32LittleEndian.byte[2] = buffer[index+3];
 701              		.loc 1 144 9 is_stmt 1 view .LVU200
 144:../../../core/platform/common/src/payloadparser.c ****         uint32LittleEndian.byte[2] = buffer[index+3];
 702              		.loc 1 144 44 is_stmt 0 view .LVU201
 703 007c 9178     		ldrb	r1, [r2, #2]	@ zero_extendqisi2
 144:../../../core/platform/common/src/payloadparser.c ****         uint32LittleEndian.byte[2] = buffer[index+3];
 704              		.loc 1 144 36 view .LVU202
 705 007e 5970     		strb	r1, [r3, #1]
 145:../../../core/platform/common/src/payloadparser.c ****         uint32LittleEndian.byte[3] = buffer[index+4];
 706              		.loc 1 145 9 is_stmt 1 view .LVU203
 145:../../../core/platform/common/src/payloadparser.c ****         uint32LittleEndian.byte[3] = buffer[index+4];
 707              		.loc 1 145 44 is_stmt 0 view .LVU204
 708 0080 D178     		ldrb	r1, [r2, #3]	@ zero_extendqisi2
 145:../../../core/platform/common/src/payloadparser.c ****         uint32LittleEndian.byte[3] = buffer[index+4];
 709              		.loc 1 145 36 view .LVU205
 710 0082 9970     		strb	r1, [r3, #2]
 146:../../../core/platform/common/src/payloadparser.c ****         temp_config.last_msg_acked = uint32LittleEndian.integer;
 711              		.loc 1 146 9 is_stmt 1 view .LVU206
 146:../../../core/platform/common/src/payloadparser.c ****         temp_config.last_msg_acked = uint32LittleEndian.integer;
 712              		.loc 1 146 44 is_stmt 0 view .LVU207
 713 0084 1279     		ldrb	r2, [r2, #4]	@ zero_extendqisi2
 146:../../../core/platform/common/src/payloadparser.c ****         temp_config.last_msg_acked = uint32LittleEndian.integer;
 714              		.loc 1 146 36 view .LVU208
 715 0086 DA70     		strb	r2, [r3, #3]
 147:../../../core/platform/common/src/payloadparser.c ****         printINF("ACK for SEQ_NR: %d\r\n", temp_config.last_msg_acked);
 716              		.loc 1 147 9 is_stmt 1 view .LVU209
 147:../../../core/platform/common/src/payloadparser.c ****         printINF("ACK for SEQ_NR: %d\r\n", temp_config.last_msg_acked);
ARM GAS  C:\Users\tomra\AppData\Local\Temp\ccMqoCkI.s 			page 20


 717              		.loc 1 147 56 is_stmt 0 view .LVU210
 718 0088 1968     		ldr	r1, [r3]
 147:../../../core/platform/common/src/payloadparser.c ****         printINF("ACK for SEQ_NR: %d\r\n", temp_config.last_msg_acked);
 719              		.loc 1 147 36 view .LVU211
 720 008a 0391     		str	r1, [sp, #12]
 148:../../../core/platform/common/src/payloadparser.c ****         index += 5;
 721              		.loc 1 148 9 is_stmt 1 view .LVU212
 722 008c 2348     		ldr	r0, .L56+24
 723 008e FFF7FEFF 		bl	printINF
 724              	.LVL54:
 149:../../../core/platform/common/src/payloadparser.c ****         break;
 725              		.loc 1 149 9 view .LVU213
 149:../../../core/platform/common/src/payloadparser.c ****         break;
 726              		.loc 1 149 15 is_stmt 0 view .LVU214
 727 0092 0534     		adds	r4, r4, #5
 728              	.LVL55:
 149:../../../core/platform/common/src/payloadparser.c ****         break;
 729              		.loc 1 149 15 view .LVU215
 730 0094 A4B2     		uxth	r4, r4
 731              	.LVL56:
 150:../../../core/platform/common/src/payloadparser.c ****       case TYPE_HEADER_END:
 732              		.loc 1 150 9 is_stmt 1 view .LVU216
 733 0096 D5E7     		b	.L37
 734              	.L54:
 735              	.LBB16:
 139:../../../core/platform/common/src/payloadparser.c ****           return PARSER_PARSE_ERROR;
 736              		.loc 1 139 11 view .LVU217
 737 0098 2148     		ldr	r0, .L56+28
 738 009a FFF7FEFF 		bl	printERR
 739              	.LVL57:
 140:../../../core/platform/common/src/payloadparser.c ****         }
 740              		.loc 1 140 11 view .LVU218
 140:../../../core/platform/common/src/payloadparser.c ****         }
 741              		.loc 1 140 18 is_stmt 0 view .LVU219
 742 009e 0220     		movs	r0, #2
 743 00a0 DDE7     		b	.L38
 744              	.L40:
 745              	.LBE16:
 152:../../../core/platform/common/src/payloadparser.c ****         index ++;
 746              		.loc 1 152 9 is_stmt 1 view .LVU220
 747 00a2 2048     		ldr	r0, .L56+32
 748 00a4 FFF7FEFF 		bl	printINF
 749              	.LVL58:
 153:../../../core/platform/common/src/payloadparser.c ****         break;
 750              		.loc 1 153 9 view .LVU221
 153:../../../core/platform/common/src/payloadparser.c ****         break;
 751              		.loc 1 153 15 is_stmt 0 view .LVU222
 752 00a8 0134     		adds	r4, r4, #1
 753              	.LVL59:
 153:../../../core/platform/common/src/payloadparser.c ****         break;
 754              		.loc 1 153 15 view .LVU223
 755 00aa A4B2     		uxth	r4, r4
 756              	.LVL60:
 154:../../../core/platform/common/src/payloadparser.c ****       case TYPE_PAYLOAD_TIMESTAMP:
 757              		.loc 1 154 9 is_stmt 1 view .LVU224
 758 00ac CAE7     		b	.L37
 759              	.L53:
ARM GAS  C:\Users\tomra\AppData\Local\Temp\ccMqoCkI.s 			page 21


 156:../../../core/platform/common/src/payloadparser.c ****         {
 760              		.loc 1 156 9 view .LVU225
 156:../../../core/platform/common/src/payloadparser.c ****         {
 761              		.loc 1 156 16 is_stmt 0 view .LVU226
 762 00ae 231D     		adds	r3, r4, #4
 156:../../../core/platform/common/src/payloadparser.c ****         {
 763              		.loc 1 156 11 view .LVU227
 764 00b0 9845     		cmp	r8, r3
 765 00b2 17DD     		ble	.L55
 162:../../../core/platform/common/src/payloadparser.c ****         uint32LittleEndian.byte[1] = buffer[index+2];
 766              		.loc 1 162 9 is_stmt 1 view .LVU228
 162:../../../core/platform/common/src/payloadparser.c ****         uint32LittleEndian.byte[1] = buffer[index+2];
 767              		.loc 1 162 44 is_stmt 0 view .LVU229
 768 00b4 3244     		add	r2, r2, r6
 769 00b6 5178     		ldrb	r1, [r2, #1]	@ zero_extendqisi2
 162:../../../core/platform/common/src/payloadparser.c ****         uint32LittleEndian.byte[1] = buffer[index+2];
 770              		.loc 1 162 36 view .LVU230
 771 00b8 174B     		ldr	r3, .L56+20
 772 00ba 1970     		strb	r1, [r3]
 163:../../../core/platform/common/src/payloadparser.c ****         uint32LittleEndian.byte[2] = buffer[index+3];
 773              		.loc 1 163 9 is_stmt 1 view .LVU231
 163:../../../core/platform/common/src/payloadparser.c ****         uint32LittleEndian.byte[2] = buffer[index+3];
 774              		.loc 1 163 44 is_stmt 0 view .LVU232
 775 00bc 9178     		ldrb	r1, [r2, #2]	@ zero_extendqisi2
 163:../../../core/platform/common/src/payloadparser.c ****         uint32LittleEndian.byte[2] = buffer[index+3];
 776              		.loc 1 163 36 view .LVU233
 777 00be 5970     		strb	r1, [r3, #1]
 164:../../../core/platform/common/src/payloadparser.c ****         uint32LittleEndian.byte[3] = buffer[index+4];
 778              		.loc 1 164 9 is_stmt 1 view .LVU234
 164:../../../core/platform/common/src/payloadparser.c ****         uint32LittleEndian.byte[3] = buffer[index+4];
 779              		.loc 1 164 44 is_stmt 0 view .LVU235
 780 00c0 D178     		ldrb	r1, [r2, #3]	@ zero_extendqisi2
 164:../../../core/platform/common/src/payloadparser.c ****         uint32LittleEndian.byte[3] = buffer[index+4];
 781              		.loc 1 164 36 view .LVU236
 782 00c2 9970     		strb	r1, [r3, #2]
 165:../../../core/platform/common/src/payloadparser.c ****         temp_config.last_known_timestamp = uint32LittleEndian.integer;
 783              		.loc 1 165 9 is_stmt 1 view .LVU237
 165:../../../core/platform/common/src/payloadparser.c ****         temp_config.last_known_timestamp = uint32LittleEndian.integer;
 784              		.loc 1 165 44 is_stmt 0 view .LVU238
 785 00c4 1279     		ldrb	r2, [r2, #4]	@ zero_extendqisi2
 165:../../../core/platform/common/src/payloadparser.c ****         temp_config.last_known_timestamp = uint32LittleEndian.integer;
 786              		.loc 1 165 36 view .LVU239
 787 00c6 DA70     		strb	r2, [r3, #3]
 166:../../../core/platform/common/src/payloadparser.c ****         RTC_Set_Time_From_Unix(temp_config.last_known_timestamp);
 788              		.loc 1 166 9 is_stmt 1 view .LVU240
 166:../../../core/platform/common/src/payloadparser.c ****         RTC_Set_Time_From_Unix(temp_config.last_known_timestamp);
 789              		.loc 1 166 62 is_stmt 0 view .LVU241
 790 00c8 1F68     		ldr	r7, [r3]
 166:../../../core/platform/common/src/payloadparser.c ****         RTC_Set_Time_From_Unix(temp_config.last_known_timestamp);
 791              		.loc 1 166 42 view .LVU242
 792 00ca 0597     		str	r7, [sp, #20]
 167:../../../core/platform/common/src/payloadparser.c ****         printINF("UTC Timestamp received: %d\r\n", temp_config.last_known_timestamp);
 793              		.loc 1 167 9 is_stmt 1 view .LVU243
 794 00cc 3846     		mov	r0, r7
 795 00ce FFF7FEFF 		bl	RTC_Set_Time_From_Unix
 796              	.LVL61:
 168:../../../core/platform/common/src/payloadparser.c ****         RTC_Print_DateTime();
ARM GAS  C:\Users\tomra\AppData\Local\Temp\ccMqoCkI.s 			page 22


 797              		.loc 1 168 9 view .LVU244
 798 00d2 3946     		mov	r1, r7
 799 00d4 1448     		ldr	r0, .L56+36
 800 00d6 FFF7FEFF 		bl	printINF
 801              	.LVL62:
 169:../../../core/platform/common/src/payloadparser.c ****         index += 5;
 802              		.loc 1 169 9 view .LVU245
 803 00da FFF7FEFF 		bl	RTC_Print_DateTime
 804              	.LVL63:
 170:../../../core/platform/common/src/payloadparser.c ****         break;
 805              		.loc 1 170 9 view .LVU246
 170:../../../core/platform/common/src/payloadparser.c ****         break;
 806              		.loc 1 170 15 is_stmt 0 view .LVU247
 807 00de 0534     		adds	r4, r4, #5
 808              	.LVL64:
 170:../../../core/platform/common/src/payloadparser.c ****         break;
 809              		.loc 1 170 15 view .LVU248
 810 00e0 A4B2     		uxth	r4, r4
 811              	.LVL65:
 171:../../../core/platform/common/src/payloadparser.c ****       default:
 812              		.loc 1 171 9 is_stmt 1 view .LVU249
 813 00e2 AFE7     		b	.L37
 814              	.L55:
 815              	.LBB17:
 158:../../../core/platform/common/src/payloadparser.c ****           return PARSER_PARSE_ERROR;
 816              		.loc 1 158 11 view .LVU250
 817 00e4 1148     		ldr	r0, .L56+40
 818 00e6 FFF7FEFF 		bl	printERR
 819              	.LVL66:
 159:../../../core/platform/common/src/payloadparser.c ****         }
 820              		.loc 1 159 11 view .LVU251
 159:../../../core/platform/common/src/payloadparser.c ****         }
 821              		.loc 1 159 18 is_stmt 0 view .LVU252
 822 00ea 0220     		movs	r0, #2
 823 00ec B7E7     		b	.L38
 824              	.L52:
 159:../../../core/platform/common/src/payloadparser.c ****         }
 825              		.loc 1 159 18 view .LVU253
 826              	.LBE17:
 827              	.LBE19:
 177:../../../core/platform/common/src/payloadparser.c ****   printINF("[payloadparser:parse_octa_protocol_downlink] parsing OK\r\n");
 828              		.loc 1 177 3 is_stmt 1 view .LVU254
 177:../../../core/platform/common/src/payloadparser.c ****   printINF("[payloadparser:parse_octa_protocol_downlink] parsing OK\r\n");
 829              		.loc 1 177 31 is_stmt 0 view .LVU255
 830 00ee 4F46     		mov	r7, r9
 831 00f0 01AC     		add	r4, sp, #4
 832              	.LVL67:
 177:../../../core/platform/common/src/payloadparser.c ****   printINF("[payloadparser:parse_octa_protocol_downlink] parsing OK\r\n");
 833              		.loc 1 177 31 view .LVU256
 834 00f2 0FCC     		ldmia	r4!, {r0, r1, r2, r3}
 835 00f4 0FC7     		stmia	r7!, {r0, r1, r2, r3}
 836 00f6 2368     		ldr	r3, [r4]
 837 00f8 3B60     		str	r3, [r7]
 178:../../../core/platform/common/src/payloadparser.c ****   return PARSER_OK;
 838              		.loc 1 178 3 is_stmt 1 view .LVU257
 839 00fa 0D48     		ldr	r0, .L56+44
 840 00fc FFF7FEFF 		bl	printINF
ARM GAS  C:\Users\tomra\AppData\Local\Temp\ccMqoCkI.s 			page 23


 841              	.LVL68:
 179:../../../core/platform/common/src/payloadparser.c **** }
 842              		.loc 1 179 3 view .LVU258
 179:../../../core/platform/common/src/payloadparser.c **** }
 843              		.loc 1 179 10 is_stmt 0 view .LVU259
 844 0100 0020     		movs	r0, #0
 845 0102 ACE7     		b	.L38
 846              	.L57:
 847              		.align	2
 848              	.L56:
 849 0104 00000000 		.word	.LC16
 850 0108 34000000 		.word	.LC1
 851 010c 3C000000 		.word	.LC2
 852 0110 CC010000 		.word	.LC15
 853 0114 40000000 		.word	.LC3
 854 0118 00000000 		.word	uint32LittleEndian
 855 011c 74000000 		.word	.LC5
 856 0120 54000000 		.word	.LC4
 857 0124 30000000 		.word	.LC17
 858 0128 78000000 		.word	.LC19
 859 012c 50000000 		.word	.LC18
 860 0130 98000000 		.word	.LC20
 861              		.cfi_endproc
 862              	.LFE1:
 864              		.section	.text.parse_timestamp,"ax",%progbits
 865              		.align	1
 866              		.global	parse_timestamp
 867              		.syntax unified
 868              		.thumb
 869              		.thumb_func
 870              		.fpu fpv4-sp-d16
 872              	parse_timestamp:
 873              	.LVL69:
 874              	.LFB2:
 181:../../../core/platform/common/src/payloadparser.c **** 
 182:../../../core/platform/common/src/payloadparser.c **** uint32_t parse_timestamp(uint8_t* buffer)
 183:../../../core/platform/common/src/payloadparser.c **** {
 875              		.loc 1 183 1 is_stmt 1 view -0
 876              		.cfi_startproc
 877              		@ args = 0, pretend = 0, frame = 0
 878              		@ frame_needed = 0, uses_anonymous_args = 0
 879              		@ link register save eliminated.
 184:../../../core/platform/common/src/payloadparser.c ****   uint32LittleEndian.byte[0] = buffer[0];
 880              		.loc 1 184 3 view .LVU261
 881              		.loc 1 184 38 is_stmt 0 view .LVU262
 882 0000 0278     		ldrb	r2, [r0]	@ zero_extendqisi2
 883              		.loc 1 184 30 view .LVU263
 884 0002 054B     		ldr	r3, .L59
 885 0004 1A70     		strb	r2, [r3]
 185:../../../core/platform/common/src/payloadparser.c ****   uint32LittleEndian.byte[1] = buffer[1];
 886              		.loc 1 185 3 is_stmt 1 view .LVU264
 887              		.loc 1 185 30 is_stmt 0 view .LVU265
 888 0006 4278     		ldrb	r2, [r0, #1]	@ zero_extendqisi2
 889 0008 5A70     		strb	r2, [r3, #1]
 186:../../../core/platform/common/src/payloadparser.c ****   uint32LittleEndian.byte[2] = buffer[2];
 890              		.loc 1 186 3 is_stmt 1 view .LVU266
 891              		.loc 1 186 30 is_stmt 0 view .LVU267
ARM GAS  C:\Users\tomra\AppData\Local\Temp\ccMqoCkI.s 			page 24


 892 000a 8278     		ldrb	r2, [r0, #2]	@ zero_extendqisi2
 893 000c 9A70     		strb	r2, [r3, #2]
 187:../../../core/platform/common/src/payloadparser.c ****   uint32LittleEndian.byte[3] = buffer[3];
 894              		.loc 1 187 3 is_stmt 1 view .LVU268
 895              		.loc 1 187 30 is_stmt 0 view .LVU269
 896 000e C278     		ldrb	r2, [r0, #3]	@ zero_extendqisi2
 897 0010 DA70     		strb	r2, [r3, #3]
 188:../../../core/platform/common/src/payloadparser.c ****   return uint32LittleEndian.integer;
 898              		.loc 1 188 3 is_stmt 1 view .LVU270
 189:../../../core/platform/common/src/payloadparser.c **** }...
 899              		.loc 1 189 1 is_stmt 0 view .LVU271
 900 0012 1868     		ldr	r0, [r3]
 901              	.LVL70:
 902              		.loc 1 189 1 view .LVU272
 903 0014 7047     		bx	lr
 904              	.L60:
 905 0016 00BF     		.align	2
 906              	.L59:
 907 0018 00000000 		.word	uint32LittleEndian
 908              		.cfi_endproc
 909              	.LFE2:
 911              		.comm	octa_uid,8,8
 912              		.comm	float_union,4,4
 913              		.comm	uint16LittleEndian,2,4
 914              		.comm	int16LittleEndian,2,4
 915              		.comm	uint32LittleEndian,4,4
 916              		.comm	int32LittleEndian,4,4
 917              		.text
 918              	.Letext0:
 919              		.file 2 "c:\\program files (x86)\\gnu tools arm embedded\\9 2019-q4-major\\arm-none-eabi\\include\
 920              		.file 3 "c:\\program files (x86)\\gnu tools arm embedded\\9 2019-q4-major\\arm-none-eabi\\include\
 921              		.file 4 "../../../core/platform/common/inc/datatypes.h"
 922              		.file 5 "<built-in>"
ARM GAS  C:\Users\tomra\AppData\Local\Temp\ccMqoCkI.s 			page 25

