ARM GAS  C:\Users\tijsv\AppData\Local\Temp\cc40b1hu.s 			page 1


   1              		.cpu cortex-m4
   2              		.eabi_attribute 27, 1
   3              		.eabi_attribute 28, 1
   4              		.eabi_attribute 20, 1
   5              		.eabi_attribute 21, 1
   6              		.eabi_attribute 23, 3
   7              		.eabi_attribute 24, 1
   8              		.eabi_attribute 25, 1
   9              		.eabi_attribute 26, 1
  10              		.eabi_attribute 30, 1
  11              		.eabi_attribute 34, 1
  12              		.eabi_attribute 18, 4
  13              		.file	"spi.c"
  14              		.text
  15              	.Ltext0:
  16              		.cfi_sections	.debug_frame
  17              		.section	.text.P3_SPI_Init,"ax",%progbits
  18              		.align	1
  19              		.global	P3_SPI_Init
  20              		.arch armv7e-m
  21              		.syntax unified
  22              		.thumb
  23              		.thumb_func
  24              		.fpu fpv4-sp-d16
  26              	P3_SPI_Init:
  27              	.LFB131:
  28              		.file 1 "../../../core/platform/octa/src/spi.c"
   1:../../../core/platform/octa/src/spi.c **** #include "spi.h"
   2:../../../core/platform/octa/src/spi.c **** #include "platform.h"
   3:../../../core/platform/octa/src/spi.c **** 
   4:../../../core/platform/octa/src/spi.c **** void P3_SPI_Init(void)
   5:../../../core/platform/octa/src/spi.c **** {
  29              		.loc 1 5 1 view -0
  30              		.cfi_startproc
  31              		@ args = 0, pretend = 0, frame = 0
  32              		@ frame_needed = 0, uses_anonymous_args = 0
  33 0000 08B5     		push	{r3, lr}
  34              	.LCFI0:
  35              		.cfi_def_cfa_offset 8
  36              		.cfi_offset 3, -8
  37              		.cfi_offset 14, -4
   6:../../../core/platform/octa/src/spi.c ****   P3_SPI.Instance = SPI1;
  38              		.loc 1 6 3 view .LVU1
  39              		.loc 1 6 19 is_stmt 0 view .LVU2
  40 0002 1048     		ldr	r0, .L5
  41 0004 104B     		ldr	r3, .L5+4
  42 0006 0360     		str	r3, [r0]
   7:../../../core/platform/octa/src/spi.c ****   P3_SPI.Init.Mode = SPI_MODE_MASTER;
  43              		.loc 1 7 3 is_stmt 1 view .LVU3
  44              		.loc 1 7 20 is_stmt 0 view .LVU4
  45 0008 4FF48273 		mov	r3, #260
  46 000c 4360     		str	r3, [r0, #4]
   8:../../../core/platform/octa/src/spi.c ****   P3_SPI.Init.Direction = SPI_DIRECTION_2LINES;
  47              		.loc 1 8 3 is_stmt 1 view .LVU5
  48              		.loc 1 8 25 is_stmt 0 view .LVU6
  49 000e 0023     		movs	r3, #0
  50 0010 8360     		str	r3, [r0, #8]
ARM GAS  C:\Users\tijsv\AppData\Local\Temp\cc40b1hu.s 			page 2


   9:../../../core/platform/octa/src/spi.c ****   P3_SPI.Init.DataSize = SPI_DATASIZE_4BIT;
  51              		.loc 1 9 3 is_stmt 1 view .LVU7
  52              		.loc 1 9 24 is_stmt 0 view .LVU8
  53 0012 4FF44072 		mov	r2, #768
  54 0016 C260     		str	r2, [r0, #12]
  10:../../../core/platform/octa/src/spi.c ****   P3_SPI.Init.CLKPolarity = SPI_POLARITY_LOW;
  55              		.loc 1 10 3 is_stmt 1 view .LVU9
  56              		.loc 1 10 27 is_stmt 0 view .LVU10
  57 0018 0361     		str	r3, [r0, #16]
  11:../../../core/platform/octa/src/spi.c ****   P3_SPI.Init.CLKPhase = SPI_PHASE_1EDGE;
  58              		.loc 1 11 3 is_stmt 1 view .LVU11
  59              		.loc 1 11 24 is_stmt 0 view .LVU12
  60 001a 4361     		str	r3, [r0, #20]
  12:../../../core/platform/octa/src/spi.c ****   P3_SPI.Init.NSS = SPI_NSS_SOFT;
  61              		.loc 1 12 3 is_stmt 1 view .LVU13
  62              		.loc 1 12 19 is_stmt 0 view .LVU14
  63 001c 4FF40072 		mov	r2, #512
  64 0020 8261     		str	r2, [r0, #24]
  13:../../../core/platform/octa/src/spi.c ****   P3_SPI.Init.BaudRatePrescaler = SPI_BAUDRATEPRESCALER_2;
  65              		.loc 1 13 3 is_stmt 1 view .LVU15
  66              		.loc 1 13 33 is_stmt 0 view .LVU16
  67 0022 C361     		str	r3, [r0, #28]
  14:../../../core/platform/octa/src/spi.c ****   P3_SPI.Init.FirstBit = SPI_FIRSTBIT_MSB;
  68              		.loc 1 14 3 is_stmt 1 view .LVU17
  69              		.loc 1 14 24 is_stmt 0 view .LVU18
  70 0024 0362     		str	r3, [r0, #32]
  15:../../../core/platform/octa/src/spi.c ****   P3_SPI.Init.TIMode = SPI_TIMODE_DISABLE;
  71              		.loc 1 15 3 is_stmt 1 view .LVU19
  72              		.loc 1 15 22 is_stmt 0 view .LVU20
  73 0026 4362     		str	r3, [r0, #36]
  16:../../../core/platform/octa/src/spi.c ****   P3_SPI.Init.CRCCalculation = SPI_CRCCALCULATION_DISABLE;
  74              		.loc 1 16 3 is_stmt 1 view .LVU21
  75              		.loc 1 16 30 is_stmt 0 view .LVU22
  76 0028 8362     		str	r3, [r0, #40]
  17:../../../core/platform/octa/src/spi.c ****   P3_SPI.Init.CRCPolynomial = 7;
  77              		.loc 1 17 3 is_stmt 1 view .LVU23
  78              		.loc 1 17 29 is_stmt 0 view .LVU24
  79 002a 0722     		movs	r2, #7
  80 002c C262     		str	r2, [r0, #44]
  18:../../../core/platform/octa/src/spi.c ****   P3_SPI.Init.CRCLength = SPI_CRC_LENGTH_DATASIZE;
  81              		.loc 1 18 3 is_stmt 1 view .LVU25
  82              		.loc 1 18 25 is_stmt 0 view .LVU26
  83 002e 0363     		str	r3, [r0, #48]
  19:../../../core/platform/octa/src/spi.c ****   P3_SPI.Init.NSSPMode = SPI_NSS_PULSE_ENABLE;
  84              		.loc 1 19 3 is_stmt 1 view .LVU27
  85              		.loc 1 19 24 is_stmt 0 view .LVU28
  86 0030 0823     		movs	r3, #8
  87 0032 4363     		str	r3, [r0, #52]
  20:../../../core/platform/octa/src/spi.c ****   if (HAL_SPI_Init(&P3_SPI) != HAL_OK)
  88              		.loc 1 20 3 is_stmt 1 view .LVU29
  89              		.loc 1 20 7 is_stmt 0 view .LVU30
  90 0034 FFF7FEFF 		bl	HAL_SPI_Init
  91              	.LVL0:
  92              		.loc 1 20 6 view .LVU31
  93 0038 00B9     		cbnz	r0, .L4
  94              	.L1:
  21:../../../core/platform/octa/src/spi.c ****   {
ARM GAS  C:\Users\tijsv\AppData\Local\Temp\cc40b1hu.s 			page 3


  22:../../../core/platform/octa/src/spi.c ****     Error_Handler();
  23:../../../core/platform/octa/src/spi.c ****   }
  24:../../../core/platform/octa/src/spi.c **** }
  95              		.loc 1 24 1 view .LVU32
  96 003a 08BD     		pop	{r3, pc}
  97              	.L4:
  22:../../../core/platform/octa/src/spi.c ****   }
  98              		.loc 1 22 5 is_stmt 1 view .LVU33
  99 003c FFF7FEFF 		bl	Error_Handler
 100              	.LVL1:
 101              		.loc 1 24 1 is_stmt 0 view .LVU34
 102 0040 FBE7     		b	.L1
 103              	.L6:
 104 0042 00BF     		.align	2
 105              	.L5:
 106 0044 00000000 		.word	P3_SPI
 107 0048 00300140 		.word	1073819648
 108              		.cfi_endproc
 109              	.LFE131:
 111              		.section	.text.P2_SPI_Init,"ax",%progbits
 112              		.align	1
 113              		.global	P2_SPI_Init
 114              		.syntax unified
 115              		.thumb
 116              		.thumb_func
 117              		.fpu fpv4-sp-d16
 119              	P2_SPI_Init:
 120              	.LFB132:
  25:../../../core/platform/octa/src/spi.c **** 
  26:../../../core/platform/octa/src/spi.c **** void P2_SPI_Init(void)
  27:../../../core/platform/octa/src/spi.c **** {
 121              		.loc 1 27 1 is_stmt 1 view -0
 122              		.cfi_startproc
 123              		@ args = 0, pretend = 0, frame = 0
 124              		@ frame_needed = 0, uses_anonymous_args = 0
 125 0000 08B5     		push	{r3, lr}
 126              	.LCFI1:
 127              		.cfi_def_cfa_offset 8
 128              		.cfi_offset 3, -8
 129              		.cfi_offset 14, -4
  28:../../../core/platform/octa/src/spi.c ****   P2_SPI.Instance = SPI2;
 130              		.loc 1 28 3 view .LVU36
 131              		.loc 1 28 19 is_stmt 0 view .LVU37
 132 0002 1048     		ldr	r0, .L11
 133 0004 104B     		ldr	r3, .L11+4
 134 0006 0360     		str	r3, [r0]
  29:../../../core/platform/octa/src/spi.c ****   P2_SPI.Init.Mode = SPI_MODE_MASTER;
 135              		.loc 1 29 3 is_stmt 1 view .LVU38
 136              		.loc 1 29 20 is_stmt 0 view .LVU39
 137 0008 4FF48273 		mov	r3, #260
 138 000c 4360     		str	r3, [r0, #4]
  30:../../../core/platform/octa/src/spi.c ****   P2_SPI.Init.Direction = SPI_DIRECTION_2LINES;
 139              		.loc 1 30 3 is_stmt 1 view .LVU40
 140              		.loc 1 30 25 is_stmt 0 view .LVU41
 141 000e 0023     		movs	r3, #0
 142 0010 8360     		str	r3, [r0, #8]
  31:../../../core/platform/octa/src/spi.c ****   P2_SPI.Init.DataSize = SPI_DATASIZE_4BIT;
ARM GAS  C:\Users\tijsv\AppData\Local\Temp\cc40b1hu.s 			page 4


 143              		.loc 1 31 3 is_stmt 1 view .LVU42
 144              		.loc 1 31 24 is_stmt 0 view .LVU43
 145 0012 4FF44072 		mov	r2, #768
 146 0016 C260     		str	r2, [r0, #12]
  32:../../../core/platform/octa/src/spi.c ****   P2_SPI.Init.CLKPolarity = SPI_POLARITY_LOW;
 147              		.loc 1 32 3 is_stmt 1 view .LVU44
 148              		.loc 1 32 27 is_stmt 0 view .LVU45
 149 0018 0361     		str	r3, [r0, #16]
  33:../../../core/platform/octa/src/spi.c ****   P2_SPI.Init.CLKPhase = SPI_PHASE_1EDGE;
 150              		.loc 1 33 3 is_stmt 1 view .LVU46
 151              		.loc 1 33 24 is_stmt 0 view .LVU47
 152 001a 4361     		str	r3, [r0, #20]
  34:../../../core/platform/octa/src/spi.c ****   P2_SPI.Init.NSS = SPI_NSS_SOFT;
 153              		.loc 1 34 3 is_stmt 1 view .LVU48
 154              		.loc 1 34 19 is_stmt 0 view .LVU49
 155 001c 4FF40072 		mov	r2, #512
 156 0020 8261     		str	r2, [r0, #24]
  35:../../../core/platform/octa/src/spi.c ****   P2_SPI.Init.BaudRatePrescaler = SPI_BAUDRATEPRESCALER_2;
 157              		.loc 1 35 3 is_stmt 1 view .LVU50
 158              		.loc 1 35 33 is_stmt 0 view .LVU51
 159 0022 C361     		str	r3, [r0, #28]
  36:../../../core/platform/octa/src/spi.c ****   P2_SPI.Init.FirstBit = SPI_FIRSTBIT_MSB;
 160              		.loc 1 36 3 is_stmt 1 view .LVU52
 161              		.loc 1 36 24 is_stmt 0 view .LVU53
 162 0024 0362     		str	r3, [r0, #32]
  37:../../../core/platform/octa/src/spi.c ****   P2_SPI.Init.TIMode = SPI_TIMODE_DISABLE;
 163              		.loc 1 37 3 is_stmt 1 view .LVU54
 164              		.loc 1 37 22 is_stmt 0 view .LVU55
 165 0026 4362     		str	r3, [r0, #36]
  38:../../../core/platform/octa/src/spi.c ****   P2_SPI.Init.CRCCalculation = SPI_CRCCALCULATION_DISABLE;
 166              		.loc 1 38 3 is_stmt 1 view .LVU56
 167              		.loc 1 38 30 is_stmt 0 view .LVU57
 168 0028 8362     		str	r3, [r0, #40]
  39:../../../core/platform/octa/src/spi.c ****   P2_SPI.Init.CRCPolynomial = 7;
 169              		.loc 1 39 3 is_stmt 1 view .LVU58
 170              		.loc 1 39 29 is_stmt 0 view .LVU59
 171 002a 0722     		movs	r2, #7
 172 002c C262     		str	r2, [r0, #44]
  40:../../../core/platform/octa/src/spi.c ****   P2_SPI.Init.CRCLength = SPI_CRC_LENGTH_DATASIZE;
 173              		.loc 1 40 3 is_stmt 1 view .LVU60
 174              		.loc 1 40 25 is_stmt 0 view .LVU61
 175 002e 0363     		str	r3, [r0, #48]
  41:../../../core/platform/octa/src/spi.c ****   P2_SPI.Init.NSSPMode = SPI_NSS_PULSE_ENABLE;
 176              		.loc 1 41 3 is_stmt 1 view .LVU62
 177              		.loc 1 41 24 is_stmt 0 view .LVU63
 178 0030 0823     		movs	r3, #8
 179 0032 4363     		str	r3, [r0, #52]
  42:../../../core/platform/octa/src/spi.c ****   if (HAL_SPI_Init(&P2_SPI) != HAL_OK)
 180              		.loc 1 42 3 is_stmt 1 view .LVU64
 181              		.loc 1 42 7 is_stmt 0 view .LVU65
 182 0034 FFF7FEFF 		bl	HAL_SPI_Init
 183              	.LVL2:
 184              		.loc 1 42 6 view .LVU66
 185 0038 00B9     		cbnz	r0, .L10
 186              	.L7:
  43:../../../core/platform/octa/src/spi.c ****   {
  44:../../../core/platform/octa/src/spi.c ****     Error_Handler();
ARM GAS  C:\Users\tijsv\AppData\Local\Temp\cc40b1hu.s 			page 5


  45:../../../core/platform/octa/src/spi.c ****   }
  46:../../../core/platform/octa/src/spi.c **** }
 187              		.loc 1 46 1 view .LVU67
 188 003a 08BD     		pop	{r3, pc}
 189              	.L10:
  44:../../../core/platform/octa/src/spi.c ****   }
 190              		.loc 1 44 5 is_stmt 1 view .LVU68
 191 003c FFF7FEFF 		bl	Error_Handler
 192              	.LVL3:
 193              		.loc 1 46 1 is_stmt 0 view .LVU69
 194 0040 FBE7     		b	.L7
 195              	.L12:
 196 0042 00BF     		.align	2
 197              	.L11:
 198 0044 00000000 		.word	P2_SPI
 199 0048 00380040 		.word	1073756160
 200              		.cfi_endproc
 201              	.LFE132:
 203              		.section	.text.P1_SPI_Init,"ax",%progbits
 204              		.align	1
 205              		.global	P1_SPI_Init
 206              		.syntax unified
 207              		.thumb
 208              		.thumb_func
 209              		.fpu fpv4-sp-d16
 211              	P1_SPI_Init:
 212              	.LFB133:
  47:../../../core/platform/octa/src/spi.c **** 
  48:../../../core/platform/octa/src/spi.c **** void P1_SPI_Init(void)
  49:../../../core/platform/octa/src/spi.c **** {
 213              		.loc 1 49 1 is_stmt 1 view -0
 214              		.cfi_startproc
 215              		@ args = 0, pretend = 0, frame = 0
 216              		@ frame_needed = 0, uses_anonymous_args = 0
 217 0000 08B5     		push	{r3, lr}
 218              	.LCFI2:
 219              		.cfi_def_cfa_offset 8
 220              		.cfi_offset 3, -8
 221              		.cfi_offset 14, -4
  50:../../../core/platform/octa/src/spi.c ****   P1_SPI.Instance = SPI3;
 222              		.loc 1 50 3 view .LVU71
 223              		.loc 1 50 19 is_stmt 0 view .LVU72
 224 0002 1048     		ldr	r0, .L17
 225 0004 104B     		ldr	r3, .L17+4
 226 0006 0360     		str	r3, [r0]
  51:../../../core/platform/octa/src/spi.c ****   P1_SPI.Init.Mode = SPI_MODE_MASTER;
 227              		.loc 1 51 3 is_stmt 1 view .LVU73
 228              		.loc 1 51 20 is_stmt 0 view .LVU74
 229 0008 4FF48273 		mov	r3, #260
 230 000c 4360     		str	r3, [r0, #4]
  52:../../../core/platform/octa/src/spi.c ****   P1_SPI.Init.Direction = SPI_DIRECTION_2LINES;
 231              		.loc 1 52 3 is_stmt 1 view .LVU75
 232              		.loc 1 52 25 is_stmt 0 view .LVU76
 233 000e 0023     		movs	r3, #0
 234 0010 8360     		str	r3, [r0, #8]
  53:../../../core/platform/octa/src/spi.c ****   P1_SPI.Init.DataSize = SPI_DATASIZE_4BIT;
 235              		.loc 1 53 3 is_stmt 1 view .LVU77
ARM GAS  C:\Users\tijsv\AppData\Local\Temp\cc40b1hu.s 			page 6


 236              		.loc 1 53 24 is_stmt 0 view .LVU78
 237 0012 4FF44072 		mov	r2, #768
 238 0016 C260     		str	r2, [r0, #12]
  54:../../../core/platform/octa/src/spi.c ****   P1_SPI.Init.CLKPolarity = SPI_POLARITY_LOW;
 239              		.loc 1 54 3 is_stmt 1 view .LVU79
 240              		.loc 1 54 27 is_stmt 0 view .LVU80
 241 0018 0361     		str	r3, [r0, #16]
  55:../../../core/platform/octa/src/spi.c ****   P1_SPI.Init.CLKPhase = SPI_PHASE_1EDGE;
 242              		.loc 1 55 3 is_stmt 1 view .LVU81
 243              		.loc 1 55 24 is_stmt 0 view .LVU82
 244 001a 4361     		str	r3, [r0, #20]
  56:../../../core/platform/octa/src/spi.c ****   P1_SPI.Init.NSS = SPI_NSS_SOFT;
 245              		.loc 1 56 3 is_stmt 1 view .LVU83
 246              		.loc 1 56 19 is_stmt 0 view .LVU84
 247 001c 4FF40072 		mov	r2, #512
 248 0020 8261     		str	r2, [r0, #24]
  57:../../../core/platform/octa/src/spi.c ****   P1_SPI.Init.BaudRatePrescaler = SPI_BAUDRATEPRESCALER_2;
 249              		.loc 1 57 3 is_stmt 1 view .LVU85
 250              		.loc 1 57 33 is_stmt 0 view .LVU86
 251 0022 C361     		str	r3, [r0, #28]
  58:../../../core/platform/octa/src/spi.c ****   P1_SPI.Init.FirstBit = SPI_FIRSTBIT_MSB;
 252              		.loc 1 58 3 is_stmt 1 view .LVU87
 253              		.loc 1 58 24 is_stmt 0 view .LVU88
 254 0024 0362     		str	r3, [r0, #32]
  59:../../../core/platform/octa/src/spi.c ****   P1_SPI.Init.TIMode = SPI_TIMODE_DISABLE;
 255              		.loc 1 59 3 is_stmt 1 view .LVU89
 256              		.loc 1 59 22 is_stmt 0 view .LVU90
 257 0026 4362     		str	r3, [r0, #36]
  60:../../../core/platform/octa/src/spi.c ****   P1_SPI.Init.CRCCalculation = SPI_CRCCALCULATION_DISABLE;
 258              		.loc 1 60 3 is_stmt 1 view .LVU91
 259              		.loc 1 60 30 is_stmt 0 view .LVU92
 260 0028 8362     		str	r3, [r0, #40]
  61:../../../core/platform/octa/src/spi.c ****   P1_SPI.Init.CRCPolynomial = 7;
 261              		.loc 1 61 3 is_stmt 1 view .LVU93
 262              		.loc 1 61 29 is_stmt 0 view .LVU94
 263 002a 0722     		movs	r2, #7
 264 002c C262     		str	r2, [r0, #44]
  62:../../../core/platform/octa/src/spi.c ****   P1_SPI.Init.CRCLength = SPI_CRC_LENGTH_DATASIZE;
 265              		.loc 1 62 3 is_stmt 1 view .LVU95
 266              		.loc 1 62 25 is_stmt 0 view .LVU96
 267 002e 0363     		str	r3, [r0, #48]
  63:../../../core/platform/octa/src/spi.c ****   P1_SPI.Init.NSSPMode = SPI_NSS_PULSE_ENABLE;
 268              		.loc 1 63 3 is_stmt 1 view .LVU97
 269              		.loc 1 63 24 is_stmt 0 view .LVU98
 270 0030 0823     		movs	r3, #8
 271 0032 4363     		str	r3, [r0, #52]
  64:../../../core/platform/octa/src/spi.c ****   if (HAL_SPI_Init(&P1_SPI) != HAL_OK)
 272              		.loc 1 64 3 is_stmt 1 view .LVU99
 273              		.loc 1 64 7 is_stmt 0 view .LVU100
 274 0034 FFF7FEFF 		bl	HAL_SPI_Init
 275              	.LVL4:
 276              		.loc 1 64 6 view .LVU101
 277 0038 00B9     		cbnz	r0, .L16
 278              	.L13:
  65:../../../core/platform/octa/src/spi.c ****   {
  66:../../../core/platform/octa/src/spi.c ****     Error_Handler();
  67:../../../core/platform/octa/src/spi.c ****   }
ARM GAS  C:\Users\tijsv\AppData\Local\Temp\cc40b1hu.s 			page 7


  68:../../../core/platform/octa/src/spi.c **** }
 279              		.loc 1 68 1 view .LVU102
 280 003a 08BD     		pop	{r3, pc}
 281              	.L16:
  66:../../../core/platform/octa/src/spi.c ****   }
 282              		.loc 1 66 5 is_stmt 1 view .LVU103
 283 003c FFF7FEFF 		bl	Error_Handler
 284              	.LVL5:
 285              		.loc 1 68 1 is_stmt 0 view .LVU104
 286 0040 FBE7     		b	.L13
 287              	.L18:
 288 0042 00BF     		.align	2
 289              	.L17:
 290 0044 00000000 		.word	P1_SPI
 291 0048 003C0040 		.word	1073757184
 292              		.cfi_endproc
 293              	.LFE133:
 295              		.section	.text.FLASH_SPI_Init,"ax",%progbits
 296              		.align	1
 297              		.global	FLASH_SPI_Init
 298              		.syntax unified
 299              		.thumb
 300              		.thumb_func
 301              		.fpu fpv4-sp-d16
 303              	FLASH_SPI_Init:
 304              	.LFB134:
  69:../../../core/platform/octa/src/spi.c **** 
  70:../../../core/platform/octa/src/spi.c **** void FLASH_SPI_Init(void)
  71:../../../core/platform/octa/src/spi.c **** {
 305              		.loc 1 71 1 is_stmt 1 view -0
 306              		.cfi_startproc
 307              		@ args = 0, pretend = 0, frame = 0
 308              		@ frame_needed = 0, uses_anonymous_args = 0
 309 0000 08B5     		push	{r3, lr}
 310              	.LCFI3:
 311              		.cfi_def_cfa_offset 8
 312              		.cfi_offset 3, -8
 313              		.cfi_offset 14, -4
  72:../../../core/platform/octa/src/spi.c ****   FLASH_SPI.Instance = SPI1;
 314              		.loc 1 72 3 view .LVU106
 315              		.loc 1 72 22 is_stmt 0 view .LVU107
 316 0002 1048     		ldr	r0, .L23
 317 0004 104B     		ldr	r3, .L23+4
 318 0006 0360     		str	r3, [r0]
  73:../../../core/platform/octa/src/spi.c ****   FLASH_SPI.Init.Mode = SPI_MODE_MASTER;
 319              		.loc 1 73 3 is_stmt 1 view .LVU108
 320              		.loc 1 73 23 is_stmt 0 view .LVU109
 321 0008 4FF48273 		mov	r3, #260
 322 000c 4360     		str	r3, [r0, #4]
  74:../../../core/platform/octa/src/spi.c ****   FLASH_SPI.Init.Direction = SPI_DIRECTION_2LINES;
 323              		.loc 1 74 3 is_stmt 1 view .LVU110
 324              		.loc 1 74 28 is_stmt 0 view .LVU111
 325 000e 0023     		movs	r3, #0
 326 0010 8360     		str	r3, [r0, #8]
  75:../../../core/platform/octa/src/spi.c ****   FLASH_SPI.Init.DataSize = SPI_DATASIZE_8BIT;
 327              		.loc 1 75 3 is_stmt 1 view .LVU112
 328              		.loc 1 75 27 is_stmt 0 view .LVU113
ARM GAS  C:\Users\tijsv\AppData\Local\Temp\cc40b1hu.s 			page 8


 329 0012 4FF4E062 		mov	r2, #1792
 330 0016 C260     		str	r2, [r0, #12]
  76:../../../core/platform/octa/src/spi.c ****   FLASH_SPI.Init.CLKPolarity = SPI_POLARITY_LOW;
 331              		.loc 1 76 3 is_stmt 1 view .LVU114
 332              		.loc 1 76 30 is_stmt 0 view .LVU115
 333 0018 0361     		str	r3, [r0, #16]
  77:../../../core/platform/octa/src/spi.c ****   FLASH_SPI.Init.CLKPhase = SPI_PHASE_1EDGE;
 334              		.loc 1 77 3 is_stmt 1 view .LVU116
 335              		.loc 1 77 27 is_stmt 0 view .LVU117
 336 001a 4361     		str	r3, [r0, #20]
  78:../../../core/platform/octa/src/spi.c ****   FLASH_SPI.Init.NSS = SPI_NSS_SOFT;
 337              		.loc 1 78 3 is_stmt 1 view .LVU118
 338              		.loc 1 78 22 is_stmt 0 view .LVU119
 339 001c 4FF40072 		mov	r2, #512
 340 0020 8261     		str	r2, [r0, #24]
  79:../../../core/platform/octa/src/spi.c ****   FLASH_SPI.Init.BaudRatePrescaler = SPI_BAUDRATEPRESCALER_64;
 341              		.loc 1 79 3 is_stmt 1 view .LVU120
 342              		.loc 1 79 36 is_stmt 0 view .LVU121
 343 0022 2822     		movs	r2, #40
 344 0024 C261     		str	r2, [r0, #28]
  80:../../../core/platform/octa/src/spi.c ****   FLASH_SPI.Init.FirstBit = SPI_FIRSTBIT_MSB;
 345              		.loc 1 80 3 is_stmt 1 view .LVU122
 346              		.loc 1 80 27 is_stmt 0 view .LVU123
 347 0026 0362     		str	r3, [r0, #32]
  81:../../../core/platform/octa/src/spi.c ****   FLASH_SPI.Init.TIMode = SPI_TIMODE_DISABLE;
 348              		.loc 1 81 3 is_stmt 1 view .LVU124
 349              		.loc 1 81 25 is_stmt 0 view .LVU125
 350 0028 4362     		str	r3, [r0, #36]
  82:../../../core/platform/octa/src/spi.c ****   FLASH_SPI.Init.CRCCalculation = SPI_CRCCALCULATION_DISABLE;
 351              		.loc 1 82 3 is_stmt 1 view .LVU126
 352              		.loc 1 82 33 is_stmt 0 view .LVU127
 353 002a 8362     		str	r3, [r0, #40]
  83:../../../core/platform/octa/src/spi.c ****   FLASH_SPI.Init.CRCPolynomial = 7;
 354              		.loc 1 83 3 is_stmt 1 view .LVU128
 355              		.loc 1 83 32 is_stmt 0 view .LVU129
 356 002c 0722     		movs	r2, #7
 357 002e C262     		str	r2, [r0, #44]
  84:../../../core/platform/octa/src/spi.c ****   FLASH_SPI.Init.CRCLength = SPI_CRC_LENGTH_8BIT;//SPI_CRC_LENGTH_DATASIZE;
 358              		.loc 1 84 3 is_stmt 1 view .LVU130
 359              		.loc 1 84 28 is_stmt 0 view .LVU131
 360 0030 0122     		movs	r2, #1
 361 0032 0263     		str	r2, [r0, #48]
  85:../../../core/platform/octa/src/spi.c ****   FLASH_SPI.Init.NSSPMode = SPI_NSS_PULSE_DISABLE;//SPI_NSS_PULSE_ENABLE;
 362              		.loc 1 85 3 is_stmt 1 view .LVU132
 363              		.loc 1 85 27 is_stmt 0 view .LVU133
 364 0034 4363     		str	r3, [r0, #52]
  86:../../../core/platform/octa/src/spi.c ****   if (HAL_SPI_Init(&FLASH_SPI) != HAL_OK)
 365              		.loc 1 86 3 is_stmt 1 view .LVU134
 366              		.loc 1 86 7 is_stmt 0 view .LVU135
 367 0036 FFF7FEFF 		bl	HAL_SPI_Init
 368              	.LVL6:
 369              		.loc 1 86 6 view .LVU136
 370 003a 00B9     		cbnz	r0, .L22
 371              	.L19:
  87:../../../core/platform/octa/src/spi.c ****   {
  88:../../../core/platform/octa/src/spi.c ****      Error_Handler();
  89:../../../core/platform/octa/src/spi.c ****   }
ARM GAS  C:\Users\tijsv\AppData\Local\Temp\cc40b1hu.s 			page 9


  90:../../../core/platform/octa/src/spi.c **** }...
 372              		.loc 1 90 1 view .LVU137
 373 003c 08BD     		pop	{r3, pc}
 374              	.L22:
  88:../../../core/platform/octa/src/spi.c ****      Error_Handler();
 375              		.loc 1 88 6 is_stmt 1 view .LVU138
 376 003e FFF7FEFF 		bl	Error_Handler
 377              	.LVL7:
 378              		.loc 1 90 1 is_stmt 0 view .LVU139
 379 0042 FBE7     		b	.L19
 380              	.L24:
 381              		.align	2
 382              	.L23:
 383 0044 00000000 		.word	FLASH_SPI
 384 0048 00300140 		.word	1073819648
 385              		.cfi_endproc
 386              	.LFE134:
 388              		.comm	P3_header,44,4
 389              		.comm	P2_header,44,4
 390              		.comm	P1_header,44,4
 391              		.comm	stackversion_patch,1,1
 392              		.comm	stackversion_minor,1,1
 393              		.comm	stackversion_major,1,1
 394              		.comm	appversion_patch,1,1
 395              		.comm	appversion_minor,1,1
 396              		.comm	appversion_major,1,1
 397              		.comm	short_UID,8,8
 398              		.comm	hard_reset,1,1
 399              		.comm	wd_reset,1,1
 400              		.comm	octa_uid,8,8
 401              		.comm	float_union,4,4
 402              		.comm	uint16LittleEndian,2,4
 403              		.comm	int16LittleEndian,2,4
 404              		.comm	uint32LittleEndian,4,4
 405              		.comm	int32LittleEndian,4,4
 406              		.comm	rtosprintHandle,4,4
 407              		.comm	hrtc,36,4
 408              		.comm	P3_I2C,76,4
 409              		.comm	P2_I2C,76,4
 410              		.comm	P1_I2C,76,4
 411              		.comm	common_I2C,76,4
 412              		.comm	P3_UART,120,4
 413              		.comm	P2_UART,120,4
 414              		.comm	P1_UART,120,4
 415              		.comm	FTDI_UART,120,4
 416              		.comm	BLE_UART,120,4
 417              		.comm	USB_UART,120,4
 418              		.comm	hiwdg,16,4
 419              		.comm	P3_DIO6,8,4
 420              		.comm	P3_DIO5,8,4
 421              		.comm	P3_DIO4,8,4
 422              		.comm	P3_DIO3,8,4
 423              		.comm	P3_DIO2,8,4
 424              		.comm	P3_DIO1,8,4
 425              		.comm	P2_DIO6,8,4
 426              		.comm	P2_DIO5,8,4
 427              		.comm	P2_DIO4,8,4
ARM GAS  C:\Users\tijsv\AppData\Local\Temp\cc40b1hu.s 			page 10


 428              		.comm	P2_DIO3,8,4
 429              		.comm	P2_DIO2,8,4
 430              		.comm	P2_DIO1,8,4
 431              		.comm	P1_DIO6,8,4
 432              		.comm	P1_DIO5,8,4
 433              		.comm	P1_DIO4,8,4
 434              		.comm	P1_DIO3,8,4
 435              		.comm	P1_DIO2,8,4
 436              		.comm	P1_DIO1,8,4
 437              		.comm	htim6,64,4
 438              		.comm	htim1,64,4
 439              		.comm	FLASH_SPI,100,4
 440              		.comm	P3_SPI,100,4
 441              		.comm	P2_SPI,100,4
 442              		.comm	P1_SPI,100,4
 443              		.text
 444              	.Letext0:
 445              		.file 2 "c:\\program files (x86)\\gnu tools arm embedded\\9 2019-q4-major\\arm-none-eabi\\include\
 446              		.file 3 "c:\\program files (x86)\\gnu tools arm embedded\\9 2019-q4-major\\arm-none-eabi\\include\
 447              		.file 4 "../../../core/ST/CMSIS/Include/core_cm4.h"
 448              		.file 5 "../../../core/ST/CMSIS/Device/ST/STM32L4xx/Include/system_stm32l4xx.h"
 449              		.file 6 "../../../core/ST/CMSIS/Device/ST/STM32L4xx/Include/stm32l496xx.h"
 450              		.file 7 "../../../core/ST/STM32L4xx_HAL_Driver/Inc/stm32l4xx_hal_def.h"
 451              		.file 8 "../../../core/ST/STM32L4xx_HAL_Driver/Inc/stm32l4xx_hal_dma.h"
 452              		.file 9 "../../../core/ST/STM32L4xx_HAL_Driver/Inc/stm32l4xx_hal_i2c.h"
 453              		.file 10 "../../../core/ST/STM32L4xx_HAL_Driver/Inc/stm32l4xx_hal_iwdg.h"
 454              		.file 11 "../../../core/ST/STM32L4xx_HAL_Driver/Inc/stm32l4xx_hal_rtc.h"
 455              		.file 12 "../../../core/ST/STM32L4xx_HAL_Driver/Inc/stm32l4xx_hal_spi.h"
 456              		.file 13 "../../../core/ST/STM32L4xx_HAL_Driver/Inc/stm32l4xx_hal_tim.h"
 457              		.file 14 "../../../core/ST/STM32L4xx_HAL_Driver/Inc/stm32l4xx_hal_uart.h"
 458              		.file 15 "../../../core/ST/STM32L4xx_HAL_Driver/Inc/stm32l4xx_hal.h"
 459              		.file 16 "../../../core/platform/octa/inc/spi.h"
 460              		.file 17 "../../../core/ST/Middlewares/Third_Party/FreeRTOS/Source/include/task.h"
 461              		.file 18 "../../../core/ST/Middlewares/Third_Party/FreeRTOS/Source/CMSIS_RTOS/cmsis_os.h"
 462              		.file 19 "../../../core/platform/octa/inc/sysclock.h"
 463              		.file 20 "../../../core/platform/octa/inc/gpio.h"
 464              		.file 21 "../../../core/platform/octa/inc/iwdg.h"
 465              		.file 22 "../../../core/platform/octa/inc/uart.h"
 466              		.file 23 "../../../core/platform/octa/inc/i2c.h"
 467              		.file 24 "../../../core/platform/octa/inc/rtc.h"
 468              		.file 25 "../../../core/platform/octa/inc/rtosincludes.h"
 469              		.file 26 "c:\\program files (x86)\\gnu tools arm embedded\\9 2019-q4-major\\arm-none-eabi\\include
 470              		.file 27 "c:\\program files (x86)\\gnu tools arm embedded\\9 2019-q4-major\\arm-none-eabi\\include
 471              		.file 28 "c:\\program files (x86)\\gnu tools arm embedded\\9 2019-q4-major\\lib\\gcc\\arm-none-eab
 472              		.file 29 "c:\\program files (x86)\\gnu tools arm embedded\\9 2019-q4-major\\arm-none-eabi\\include
 473              		.file 30 "../../../core/platform/common/inc/datatypes.h"
 474              		.file 31 "../../../core/platform/octa/inc/platform.h"
 475              		.file 32 "../../../core/platform/common/inc/error.h"
ARM GAS  C:\Users\tijsv\AppData\Local\Temp\cc40b1hu.s 			page 11

