ARM GAS  C:\Users\tomra\AppData\Local\Temp\ccgdrd7s.s 			page 1


   1              		.cpu cortex-m4
   2              		.eabi_attribute 27, 1
   3              		.eabi_attribute 28, 1
   4              		.eabi_attribute 20, 1
   5              		.eabi_attribute 21, 1
   6              		.eabi_attribute 23, 3
   7              		.eabi_attribute 24, 1
   8              		.eabi_attribute 25, 1
   9              		.eabi_attribute 26, 1
  10              		.eabi_attribute 30, 1
  11              		.eabi_attribute 34, 1
  12              		.eabi_attribute 18, 4
  13              		.file	"stm32l4xx_hal_gpio.c"
  14              		.text
  15              	.Ltext0:
  16              		.cfi_sections	.debug_frame
  17              		.section	.rodata.HAL_GPIO_Init.str1.4,"aMS",%progbits,1
  18              		.align	2
  19              	.LC0:
  20 0000 2E2E2F2E 		.ascii	"../../../core/ST/STM32L4xx_HAL_Driver/Src/stm32l4xx"
  20      2E2F2E2E 
  20      2F636F72 
  20      652F5354 
  20      2F53544D 
  21 0033 5F68616C 		.ascii	"_hal_gpio.c\000"
  21      5F677069 
  21      6F2E6300 
  22              		.section	.text.HAL_GPIO_Init,"ax",%progbits
  23              		.align	1
  24              		.global	HAL_GPIO_Init
  25              		.arch armv7e-m
  26              		.syntax unified
  27              		.thumb
  28              		.thumb_func
  29              		.fpu fpv4-sp-d16
  31              	HAL_GPIO_Init:
  32              	.LVL0:
  33              	.LFB123:
  34              		.file 1 "../../../core/ST/STM32L4xx_HAL_Driver/Src/stm32l4xx_hal_gpio.c"
   1:../../../core/ST/STM32L4xx_HAL_Driver/Src/stm32l4xx_hal_gpio.c **** /**
   2:../../../core/ST/STM32L4xx_HAL_Driver/Src/stm32l4xx_hal_gpio.c ****   ******************************************************************************
   3:../../../core/ST/STM32L4xx_HAL_Driver/Src/stm32l4xx_hal_gpio.c ****   * @file    stm32l4xx_hal_gpio.c
   4:../../../core/ST/STM32L4xx_HAL_Driver/Src/stm32l4xx_hal_gpio.c ****   * @author  MCD Application Team
   5:../../../core/ST/STM32L4xx_HAL_Driver/Src/stm32l4xx_hal_gpio.c ****   * @brief   GPIO HAL module driver.
   6:../../../core/ST/STM32L4xx_HAL_Driver/Src/stm32l4xx_hal_gpio.c ****   *          This file provides firmware functions to manage the following
   7:../../../core/ST/STM32L4xx_HAL_Driver/Src/stm32l4xx_hal_gpio.c ****   *          functionalities of the General Purpose Input/Output (GPIO) peripheral:
   8:../../../core/ST/STM32L4xx_HAL_Driver/Src/stm32l4xx_hal_gpio.c ****   *           + Initialization and de-initialization functions
   9:../../../core/ST/STM32L4xx_HAL_Driver/Src/stm32l4xx_hal_gpio.c ****   *           + IO operation functions
  10:../../../core/ST/STM32L4xx_HAL_Driver/Src/stm32l4xx_hal_gpio.c ****   *
  11:../../../core/ST/STM32L4xx_HAL_Driver/Src/stm32l4xx_hal_gpio.c ****   @verbatim
  12:../../../core/ST/STM32L4xx_HAL_Driver/Src/stm32l4xx_hal_gpio.c ****   ==============================================================================
  13:../../../core/ST/STM32L4xx_HAL_Driver/Src/stm32l4xx_hal_gpio.c ****                     ##### GPIO Peripheral features #####
  14:../../../core/ST/STM32L4xx_HAL_Driver/Src/stm32l4xx_hal_gpio.c ****   ==============================================================================
  15:../../../core/ST/STM32L4xx_HAL_Driver/Src/stm32l4xx_hal_gpio.c ****   [..]
  16:../../../core/ST/STM32L4xx_HAL_Driver/Src/stm32l4xx_hal_gpio.c ****     (+) Each port bit of the general-purpose I/O (GPIO) ports can be individually
  17:../../../core/ST/STM32L4xx_HAL_Driver/Src/stm32l4xx_hal_gpio.c ****         configured by software in several modes:
  18:../../../core/ST/STM32L4xx_HAL_Driver/Src/stm32l4xx_hal_gpio.c ****         (++) Input mode
ARM GAS  C:\Users\tomra\AppData\Local\Temp\ccgdrd7s.s 			page 2


  19:../../../core/ST/STM32L4xx_HAL_Driver/Src/stm32l4xx_hal_gpio.c ****         (++) Analog mode
  20:../../../core/ST/STM32L4xx_HAL_Driver/Src/stm32l4xx_hal_gpio.c ****         (++) Output mode
  21:../../../core/ST/STM32L4xx_HAL_Driver/Src/stm32l4xx_hal_gpio.c ****         (++) Alternate function mode
  22:../../../core/ST/STM32L4xx_HAL_Driver/Src/stm32l4xx_hal_gpio.c ****         (++) External interrupt/event lines
  23:../../../core/ST/STM32L4xx_HAL_Driver/Src/stm32l4xx_hal_gpio.c **** 
  24:../../../core/ST/STM32L4xx_HAL_Driver/Src/stm32l4xx_hal_gpio.c ****     (+) During and just after reset, the alternate functions and external interrupt
  25:../../../core/ST/STM32L4xx_HAL_Driver/Src/stm32l4xx_hal_gpio.c ****         lines are not active and the I/O ports are configured in input floating mode.
  26:../../../core/ST/STM32L4xx_HAL_Driver/Src/stm32l4xx_hal_gpio.c **** 
  27:../../../core/ST/STM32L4xx_HAL_Driver/Src/stm32l4xx_hal_gpio.c ****     (+) All GPIO pins have weak internal pull-up and pull-down resistors, which can be
  28:../../../core/ST/STM32L4xx_HAL_Driver/Src/stm32l4xx_hal_gpio.c ****         activated or not.
  29:../../../core/ST/STM32L4xx_HAL_Driver/Src/stm32l4xx_hal_gpio.c **** 
  30:../../../core/ST/STM32L4xx_HAL_Driver/Src/stm32l4xx_hal_gpio.c ****     (+) In Output or Alternate mode, each IO can be configured on open-drain or push-pull
  31:../../../core/ST/STM32L4xx_HAL_Driver/Src/stm32l4xx_hal_gpio.c ****         type and the IO speed can be selected depending on the VDD value.
  32:../../../core/ST/STM32L4xx_HAL_Driver/Src/stm32l4xx_hal_gpio.c **** 
  33:../../../core/ST/STM32L4xx_HAL_Driver/Src/stm32l4xx_hal_gpio.c ****     (+) The microcontroller IO pins are connected to onboard peripherals/modules through a
  34:../../../core/ST/STM32L4xx_HAL_Driver/Src/stm32l4xx_hal_gpio.c ****         multiplexer that allows only one peripheral alternate function (AF) connected
  35:../../../core/ST/STM32L4xx_HAL_Driver/Src/stm32l4xx_hal_gpio.c ****        to an IO pin at a time. In this way, there can be no conflict between peripherals
  36:../../../core/ST/STM32L4xx_HAL_Driver/Src/stm32l4xx_hal_gpio.c ****        sharing the same IO pin.
  37:../../../core/ST/STM32L4xx_HAL_Driver/Src/stm32l4xx_hal_gpio.c **** 
  38:../../../core/ST/STM32L4xx_HAL_Driver/Src/stm32l4xx_hal_gpio.c ****     (+) All ports have external interrupt/event capability. To use external interrupt
  39:../../../core/ST/STM32L4xx_HAL_Driver/Src/stm32l4xx_hal_gpio.c ****         lines, the port must be configured in input mode. All available GPIO pins are
  40:../../../core/ST/STM32L4xx_HAL_Driver/Src/stm32l4xx_hal_gpio.c ****         connected to the 16 external interrupt/event lines from EXTI0 to EXTI15.
  41:../../../core/ST/STM32L4xx_HAL_Driver/Src/stm32l4xx_hal_gpio.c **** 
  42:../../../core/ST/STM32L4xx_HAL_Driver/Src/stm32l4xx_hal_gpio.c ****     (+) The external interrupt/event controller consists of up to 39 edge detectors
  43:../../../core/ST/STM32L4xx_HAL_Driver/Src/stm32l4xx_hal_gpio.c ****         (16 lines are connected to GPIO) for generating event/interrupt requests (each
  44:../../../core/ST/STM32L4xx_HAL_Driver/Src/stm32l4xx_hal_gpio.c ****         input line can be independently configured to select the type (interrupt or event)
  45:../../../core/ST/STM32L4xx_HAL_Driver/Src/stm32l4xx_hal_gpio.c ****         and the corresponding trigger event (rising or falling or both). Each line can
  46:../../../core/ST/STM32L4xx_HAL_Driver/Src/stm32l4xx_hal_gpio.c ****         also be masked independently.
  47:../../../core/ST/STM32L4xx_HAL_Driver/Src/stm32l4xx_hal_gpio.c **** 
  48:../../../core/ST/STM32L4xx_HAL_Driver/Src/stm32l4xx_hal_gpio.c ****                      ##### How to use this driver #####
  49:../../../core/ST/STM32L4xx_HAL_Driver/Src/stm32l4xx_hal_gpio.c ****   ==============================================================================
  50:../../../core/ST/STM32L4xx_HAL_Driver/Src/stm32l4xx_hal_gpio.c ****   [..]
  51:../../../core/ST/STM32L4xx_HAL_Driver/Src/stm32l4xx_hal_gpio.c ****     (#) Enable the GPIO AHB clock using the following function: __HAL_RCC_GPIOx_CLK_ENABLE().
  52:../../../core/ST/STM32L4xx_HAL_Driver/Src/stm32l4xx_hal_gpio.c **** 
  53:../../../core/ST/STM32L4xx_HAL_Driver/Src/stm32l4xx_hal_gpio.c ****     (#) Configure the GPIO pin(s) using HAL_GPIO_Init().
  54:../../../core/ST/STM32L4xx_HAL_Driver/Src/stm32l4xx_hal_gpio.c ****         (++) Configure the IO mode using "Mode" member from GPIO_InitTypeDef structure
  55:../../../core/ST/STM32L4xx_HAL_Driver/Src/stm32l4xx_hal_gpio.c ****         (++) Activate Pull-up, Pull-down resistor using "Pull" member from GPIO_InitTypeDef
  56:../../../core/ST/STM32L4xx_HAL_Driver/Src/stm32l4xx_hal_gpio.c ****              structure.
  57:../../../core/ST/STM32L4xx_HAL_Driver/Src/stm32l4xx_hal_gpio.c ****         (++) In case of Output or alternate function mode selection: the speed is
  58:../../../core/ST/STM32L4xx_HAL_Driver/Src/stm32l4xx_hal_gpio.c ****              configured through "Speed" member from GPIO_InitTypeDef structure.
  59:../../../core/ST/STM32L4xx_HAL_Driver/Src/stm32l4xx_hal_gpio.c ****         (++) In alternate mode is selection, the alternate function connected to the IO
  60:../../../core/ST/STM32L4xx_HAL_Driver/Src/stm32l4xx_hal_gpio.c ****              is configured through "Alternate" member from GPIO_InitTypeDef structure.
  61:../../../core/ST/STM32L4xx_HAL_Driver/Src/stm32l4xx_hal_gpio.c ****         (++) Analog mode is required when a pin is to be used as ADC channel
  62:../../../core/ST/STM32L4xx_HAL_Driver/Src/stm32l4xx_hal_gpio.c ****              or DAC output.
  63:../../../core/ST/STM32L4xx_HAL_Driver/Src/stm32l4xx_hal_gpio.c ****         (++) In case of external interrupt/event selection the "Mode" member from
  64:../../../core/ST/STM32L4xx_HAL_Driver/Src/stm32l4xx_hal_gpio.c ****              GPIO_InitTypeDef structure select the type (interrupt or event) and
  65:../../../core/ST/STM32L4xx_HAL_Driver/Src/stm32l4xx_hal_gpio.c ****              the corresponding trigger event (rising or falling or both).
  66:../../../core/ST/STM32L4xx_HAL_Driver/Src/stm32l4xx_hal_gpio.c **** 
  67:../../../core/ST/STM32L4xx_HAL_Driver/Src/stm32l4xx_hal_gpio.c ****     (#) In case of external interrupt/event mode selection, configure NVIC IRQ priority
  68:../../../core/ST/STM32L4xx_HAL_Driver/Src/stm32l4xx_hal_gpio.c ****         mapped to the EXTI line using HAL_NVIC_SetPriority() and enable it using
  69:../../../core/ST/STM32L4xx_HAL_Driver/Src/stm32l4xx_hal_gpio.c ****         HAL_NVIC_EnableIRQ().
  70:../../../core/ST/STM32L4xx_HAL_Driver/Src/stm32l4xx_hal_gpio.c **** 
  71:../../../core/ST/STM32L4xx_HAL_Driver/Src/stm32l4xx_hal_gpio.c ****     (#) To get the level of a pin configured in input mode use HAL_GPIO_ReadPin().
  72:../../../core/ST/STM32L4xx_HAL_Driver/Src/stm32l4xx_hal_gpio.c **** 
  73:../../../core/ST/STM32L4xx_HAL_Driver/Src/stm32l4xx_hal_gpio.c ****     (#) To set/reset the level of a pin configured in output mode use
  74:../../../core/ST/STM32L4xx_HAL_Driver/Src/stm32l4xx_hal_gpio.c ****         HAL_GPIO_WritePin()/HAL_GPIO_TogglePin().
  75:../../../core/ST/STM32L4xx_HAL_Driver/Src/stm32l4xx_hal_gpio.c **** 
ARM GAS  C:\Users\tomra\AppData\Local\Temp\ccgdrd7s.s 			page 3


  76:../../../core/ST/STM32L4xx_HAL_Driver/Src/stm32l4xx_hal_gpio.c ****    (#) To lock pin configuration until next reset use HAL_GPIO_LockPin().
  77:../../../core/ST/STM32L4xx_HAL_Driver/Src/stm32l4xx_hal_gpio.c **** 
  78:../../../core/ST/STM32L4xx_HAL_Driver/Src/stm32l4xx_hal_gpio.c ****     (#) During and just after reset, the alternate functions are not
  79:../../../core/ST/STM32L4xx_HAL_Driver/Src/stm32l4xx_hal_gpio.c ****         active and the GPIO pins are configured in input floating mode (except JTAG
  80:../../../core/ST/STM32L4xx_HAL_Driver/Src/stm32l4xx_hal_gpio.c ****         pins).
  81:../../../core/ST/STM32L4xx_HAL_Driver/Src/stm32l4xx_hal_gpio.c **** 
  82:../../../core/ST/STM32L4xx_HAL_Driver/Src/stm32l4xx_hal_gpio.c ****     (#) The LSE oscillator pins OSC32_IN and OSC32_OUT can be used as general purpose
  83:../../../core/ST/STM32L4xx_HAL_Driver/Src/stm32l4xx_hal_gpio.c ****         (PC14 and PC15, respectively) when the LSE oscillator is off. The LSE has
  84:../../../core/ST/STM32L4xx_HAL_Driver/Src/stm32l4xx_hal_gpio.c ****         priority over the GPIO function.
  85:../../../core/ST/STM32L4xx_HAL_Driver/Src/stm32l4xx_hal_gpio.c **** 
  86:../../../core/ST/STM32L4xx_HAL_Driver/Src/stm32l4xx_hal_gpio.c ****     (#) The HSE oscillator pins OSC_IN/OSC_OUT can be used as
  87:../../../core/ST/STM32L4xx_HAL_Driver/Src/stm32l4xx_hal_gpio.c ****         general purpose PH0 and PH1, respectively, when the HSE oscillator is off.
  88:../../../core/ST/STM32L4xx_HAL_Driver/Src/stm32l4xx_hal_gpio.c ****         The HSE has priority over the GPIO function.
  89:../../../core/ST/STM32L4xx_HAL_Driver/Src/stm32l4xx_hal_gpio.c **** 
  90:../../../core/ST/STM32L4xx_HAL_Driver/Src/stm32l4xx_hal_gpio.c ****   @endverbatim
  91:../../../core/ST/STM32L4xx_HAL_Driver/Src/stm32l4xx_hal_gpio.c ****   ******************************************************************************
  92:../../../core/ST/STM32L4xx_HAL_Driver/Src/stm32l4xx_hal_gpio.c ****   * @attention
  93:../../../core/ST/STM32L4xx_HAL_Driver/Src/stm32l4xx_hal_gpio.c ****   *
  94:../../../core/ST/STM32L4xx_HAL_Driver/Src/stm32l4xx_hal_gpio.c ****   * <h2><center>&copy; COPYRIGHT(c) 2017 STMicroelectronics</center></h2>
  95:../../../core/ST/STM32L4xx_HAL_Driver/Src/stm32l4xx_hal_gpio.c ****   *
  96:../../../core/ST/STM32L4xx_HAL_Driver/Src/stm32l4xx_hal_gpio.c ****   * Redistribution and use in source and binary forms, with or without modification,
  97:../../../core/ST/STM32L4xx_HAL_Driver/Src/stm32l4xx_hal_gpio.c ****   * are permitted provided that the following conditions are met:
  98:../../../core/ST/STM32L4xx_HAL_Driver/Src/stm32l4xx_hal_gpio.c ****   *   1. Redistributions of source code must retain the above copyright notice,
  99:../../../core/ST/STM32L4xx_HAL_Driver/Src/stm32l4xx_hal_gpio.c ****   *      this list of conditions and the following disclaimer.
 100:../../../core/ST/STM32L4xx_HAL_Driver/Src/stm32l4xx_hal_gpio.c ****   *   2. Redistributions in binary form must reproduce the above copyright notice,
 101:../../../core/ST/STM32L4xx_HAL_Driver/Src/stm32l4xx_hal_gpio.c ****   *      this list of conditions and the following disclaimer in the documentation
 102:../../../core/ST/STM32L4xx_HAL_Driver/Src/stm32l4xx_hal_gpio.c ****   *      and/or other materials provided with the distribution.
 103:../../../core/ST/STM32L4xx_HAL_Driver/Src/stm32l4xx_hal_gpio.c ****   *   3. Neither the name of STMicroelectronics nor the names of its contributors
 104:../../../core/ST/STM32L4xx_HAL_Driver/Src/stm32l4xx_hal_gpio.c ****   *      may be used to endorse or promote products derived from this software
 105:../../../core/ST/STM32L4xx_HAL_Driver/Src/stm32l4xx_hal_gpio.c ****   *      without specific prior written permission.
 106:../../../core/ST/STM32L4xx_HAL_Driver/Src/stm32l4xx_hal_gpio.c ****   *
 107:../../../core/ST/STM32L4xx_HAL_Driver/Src/stm32l4xx_hal_gpio.c ****   * THIS SOFTWARE IS PROVIDED BY THE COPYRIGHT HOLDERS AND CONTRIBUTORS "AS IS"
 108:../../../core/ST/STM32L4xx_HAL_Driver/Src/stm32l4xx_hal_gpio.c ****   * AND ANY EXPRESS OR IMPLIED WARRANTIES, INCLUDING, BUT NOT LIMITED TO, THE
 109:../../../core/ST/STM32L4xx_HAL_Driver/Src/stm32l4xx_hal_gpio.c ****   * IMPLIED WARRANTIES OF MERCHANTABILITY AND FITNESS FOR A PARTICULAR PURPOSE ARE
 110:../../../core/ST/STM32L4xx_HAL_Driver/Src/stm32l4xx_hal_gpio.c ****   * DISCLAIMED. IN NO EVENT SHALL THE COPYRIGHT HOLDER OR CONTRIBUTORS BE LIABLE
 111:../../../core/ST/STM32L4xx_HAL_Driver/Src/stm32l4xx_hal_gpio.c ****   * FOR ANY DIRECT, INDIRECT, INCIDENTAL, SPECIAL, EXEMPLARY, OR CONSEQUENTIAL
 112:../../../core/ST/STM32L4xx_HAL_Driver/Src/stm32l4xx_hal_gpio.c ****   * DAMAGES (INCLUDING, BUT NOT LIMITED TO, PROCUREMENT OF SUBSTITUTE GOODS OR
 113:../../../core/ST/STM32L4xx_HAL_Driver/Src/stm32l4xx_hal_gpio.c ****   * SERVICES; LOSS OF USE, DATA, OR PROFITS; OR BUSINESS INTERRUPTION) HOWEVER
 114:../../../core/ST/STM32L4xx_HAL_Driver/Src/stm32l4xx_hal_gpio.c ****   * CAUSED AND ON ANY THEORY OF LIABILITY, WHETHER IN CONTRACT, STRICT LIABILITY,
 115:../../../core/ST/STM32L4xx_HAL_Driver/Src/stm32l4xx_hal_gpio.c ****   * OR TORT (INCLUDING NEGLIGENCE OR OTHERWISE) ARISING IN ANY WAY OUT OF THE USE
 116:../../../core/ST/STM32L4xx_HAL_Driver/Src/stm32l4xx_hal_gpio.c ****   * OF THIS SOFTWARE, EVEN IF ADVISED OF THE POSSIBILITY OF SUCH DAMAGE.
 117:../../../core/ST/STM32L4xx_HAL_Driver/Src/stm32l4xx_hal_gpio.c ****   *
 118:../../../core/ST/STM32L4xx_HAL_Driver/Src/stm32l4xx_hal_gpio.c ****   ******************************************************************************
 119:../../../core/ST/STM32L4xx_HAL_Driver/Src/stm32l4xx_hal_gpio.c ****   */
 120:../../../core/ST/STM32L4xx_HAL_Driver/Src/stm32l4xx_hal_gpio.c **** 
 121:../../../core/ST/STM32L4xx_HAL_Driver/Src/stm32l4xx_hal_gpio.c **** /* Includes ------------------------------------------------------------------*/
 122:../../../core/ST/STM32L4xx_HAL_Driver/Src/stm32l4xx_hal_gpio.c **** #include "stm32l4xx_hal.h"
 123:../../../core/ST/STM32L4xx_HAL_Driver/Src/stm32l4xx_hal_gpio.c **** 
 124:../../../core/ST/STM32L4xx_HAL_Driver/Src/stm32l4xx_hal_gpio.c **** /** @addtogroup STM32L4xx_HAL_Driver
 125:../../../core/ST/STM32L4xx_HAL_Driver/Src/stm32l4xx_hal_gpio.c ****   * @{
 126:../../../core/ST/STM32L4xx_HAL_Driver/Src/stm32l4xx_hal_gpio.c ****   */
 127:../../../core/ST/STM32L4xx_HAL_Driver/Src/stm32l4xx_hal_gpio.c **** 
 128:../../../core/ST/STM32L4xx_HAL_Driver/Src/stm32l4xx_hal_gpio.c **** /** @defgroup GPIO GPIO
 129:../../../core/ST/STM32L4xx_HAL_Driver/Src/stm32l4xx_hal_gpio.c ****   * @brief GPIO HAL module driver
 130:../../../core/ST/STM32L4xx_HAL_Driver/Src/stm32l4xx_hal_gpio.c ****   * @{
 131:../../../core/ST/STM32L4xx_HAL_Driver/Src/stm32l4xx_hal_gpio.c ****   */
 132:../../../core/ST/STM32L4xx_HAL_Driver/Src/stm32l4xx_hal_gpio.c **** /** MISRA C:2012 deviation rule has been granted for following rules:
ARM GAS  C:\Users\tomra\AppData\Local\Temp\ccgdrd7s.s 			page 4


 133:../../../core/ST/STM32L4xx_HAL_Driver/Src/stm32l4xx_hal_gpio.c ****   * Rule-12.2 - Medium: RHS argument is in interval [0,INF] which is out of
 134:../../../core/ST/STM32L4xx_HAL_Driver/Src/stm32l4xx_hal_gpio.c ****   * range of the shift operator in following API :
 135:../../../core/ST/STM32L4xx_HAL_Driver/Src/stm32l4xx_hal_gpio.c ****   * HAL_GPIO_Init
 136:../../../core/ST/STM32L4xx_HAL_Driver/Src/stm32l4xx_hal_gpio.c ****   * HAL_GPIO_DeInit
 137:../../../core/ST/STM32L4xx_HAL_Driver/Src/stm32l4xx_hal_gpio.c ****   */
 138:../../../core/ST/STM32L4xx_HAL_Driver/Src/stm32l4xx_hal_gpio.c **** 
 139:../../../core/ST/STM32L4xx_HAL_Driver/Src/stm32l4xx_hal_gpio.c **** #ifdef HAL_GPIO_MODULE_ENABLED
 140:../../../core/ST/STM32L4xx_HAL_Driver/Src/stm32l4xx_hal_gpio.c **** 
 141:../../../core/ST/STM32L4xx_HAL_Driver/Src/stm32l4xx_hal_gpio.c **** /* Private typedef -----------------------------------------------------------*/
 142:../../../core/ST/STM32L4xx_HAL_Driver/Src/stm32l4xx_hal_gpio.c **** /* Private defines -----------------------------------------------------------*/
 143:../../../core/ST/STM32L4xx_HAL_Driver/Src/stm32l4xx_hal_gpio.c **** /** @defgroup GPIO_Private_Defines GPIO Private Defines
 144:../../../core/ST/STM32L4xx_HAL_Driver/Src/stm32l4xx_hal_gpio.c ****   * @{
 145:../../../core/ST/STM32L4xx_HAL_Driver/Src/stm32l4xx_hal_gpio.c ****   */
 146:../../../core/ST/STM32L4xx_HAL_Driver/Src/stm32l4xx_hal_gpio.c **** #define GPIO_MODE             (0x00000003u)
 147:../../../core/ST/STM32L4xx_HAL_Driver/Src/stm32l4xx_hal_gpio.c **** #define ANALOG_MODE           (0x00000008u)
 148:../../../core/ST/STM32L4xx_HAL_Driver/Src/stm32l4xx_hal_gpio.c **** #define EXTI_MODE             (0x10000000u)
 149:../../../core/ST/STM32L4xx_HAL_Driver/Src/stm32l4xx_hal_gpio.c **** #define GPIO_MODE_IT          (0x00010000u)
 150:../../../core/ST/STM32L4xx_HAL_Driver/Src/stm32l4xx_hal_gpio.c **** #define GPIO_MODE_EVT         (0x00020000u)
 151:../../../core/ST/STM32L4xx_HAL_Driver/Src/stm32l4xx_hal_gpio.c **** #define RISING_EDGE           (0x00100000u)
 152:../../../core/ST/STM32L4xx_HAL_Driver/Src/stm32l4xx_hal_gpio.c **** #define FALLING_EDGE          (0x00200000u)
 153:../../../core/ST/STM32L4xx_HAL_Driver/Src/stm32l4xx_hal_gpio.c **** #define GPIO_OUTPUT_TYPE      (0x00000010u)
 154:../../../core/ST/STM32L4xx_HAL_Driver/Src/stm32l4xx_hal_gpio.c **** 
 155:../../../core/ST/STM32L4xx_HAL_Driver/Src/stm32l4xx_hal_gpio.c **** #define GPIO_NUMBER           (16u)
 156:../../../core/ST/STM32L4xx_HAL_Driver/Src/stm32l4xx_hal_gpio.c **** /**
 157:../../../core/ST/STM32L4xx_HAL_Driver/Src/stm32l4xx_hal_gpio.c ****   * @}
 158:../../../core/ST/STM32L4xx_HAL_Driver/Src/stm32l4xx_hal_gpio.c ****   */
 159:../../../core/ST/STM32L4xx_HAL_Driver/Src/stm32l4xx_hal_gpio.c **** 
 160:../../../core/ST/STM32L4xx_HAL_Driver/Src/stm32l4xx_hal_gpio.c **** /* Private macros ------------------------------------------------------------*/
 161:../../../core/ST/STM32L4xx_HAL_Driver/Src/stm32l4xx_hal_gpio.c **** /* Private variables ---------------------------------------------------------*/
 162:../../../core/ST/STM32L4xx_HAL_Driver/Src/stm32l4xx_hal_gpio.c **** /* Private function prototypes -----------------------------------------------*/
 163:../../../core/ST/STM32L4xx_HAL_Driver/Src/stm32l4xx_hal_gpio.c **** /* Exported functions --------------------------------------------------------*/
 164:../../../core/ST/STM32L4xx_HAL_Driver/Src/stm32l4xx_hal_gpio.c **** 
 165:../../../core/ST/STM32L4xx_HAL_Driver/Src/stm32l4xx_hal_gpio.c **** /** @defgroup GPIO_Exported_Functions GPIO Exported Functions
 166:../../../core/ST/STM32L4xx_HAL_Driver/Src/stm32l4xx_hal_gpio.c ****   * @{
 167:../../../core/ST/STM32L4xx_HAL_Driver/Src/stm32l4xx_hal_gpio.c ****   */
 168:../../../core/ST/STM32L4xx_HAL_Driver/Src/stm32l4xx_hal_gpio.c **** 
 169:../../../core/ST/STM32L4xx_HAL_Driver/Src/stm32l4xx_hal_gpio.c **** /** @defgroup GPIO_Exported_Functions_Group1 Initialization/de-initialization functions
 170:../../../core/ST/STM32L4xx_HAL_Driver/Src/stm32l4xx_hal_gpio.c ****  *  @brief    Initialization and Configuration functions
 171:../../../core/ST/STM32L4xx_HAL_Driver/Src/stm32l4xx_hal_gpio.c ****  *
 172:../../../core/ST/STM32L4xx_HAL_Driver/Src/stm32l4xx_hal_gpio.c **** @verbatim
 173:../../../core/ST/STM32L4xx_HAL_Driver/Src/stm32l4xx_hal_gpio.c ****  ===============================================================================
 174:../../../core/ST/STM32L4xx_HAL_Driver/Src/stm32l4xx_hal_gpio.c ****               ##### Initialization and de-initialization functions #####
 175:../../../core/ST/STM32L4xx_HAL_Driver/Src/stm32l4xx_hal_gpio.c ****  ===============================================================================
 176:../../../core/ST/STM32L4xx_HAL_Driver/Src/stm32l4xx_hal_gpio.c **** 
 177:../../../core/ST/STM32L4xx_HAL_Driver/Src/stm32l4xx_hal_gpio.c **** @endverbatim
 178:../../../core/ST/STM32L4xx_HAL_Driver/Src/stm32l4xx_hal_gpio.c ****   * @{
 179:../../../core/ST/STM32L4xx_HAL_Driver/Src/stm32l4xx_hal_gpio.c ****   */
 180:../../../core/ST/STM32L4xx_HAL_Driver/Src/stm32l4xx_hal_gpio.c **** 
 181:../../../core/ST/STM32L4xx_HAL_Driver/Src/stm32l4xx_hal_gpio.c **** /**
 182:../../../core/ST/STM32L4xx_HAL_Driver/Src/stm32l4xx_hal_gpio.c ****   * @brief  Initialize the GPIOx peripheral according to the specified parameters in the GPIO_Init.
 183:../../../core/ST/STM32L4xx_HAL_Driver/Src/stm32l4xx_hal_gpio.c ****   * @param  GPIOx: where x can be (A..H) to select the GPIO peripheral for STM32L4 family
 184:../../../core/ST/STM32L4xx_HAL_Driver/Src/stm32l4xx_hal_gpio.c ****   * @param  GPIO_Init: pointer to a GPIO_InitTypeDef structure that contains
 185:../../../core/ST/STM32L4xx_HAL_Driver/Src/stm32l4xx_hal_gpio.c ****   *         the configuration information for the specified GPIO peripheral.
 186:../../../core/ST/STM32L4xx_HAL_Driver/Src/stm32l4xx_hal_gpio.c ****   * @retval None
 187:../../../core/ST/STM32L4xx_HAL_Driver/Src/stm32l4xx_hal_gpio.c ****   */
 188:../../../core/ST/STM32L4xx_HAL_Driver/Src/stm32l4xx_hal_gpio.c **** void HAL_GPIO_Init(GPIO_TypeDef  *GPIOx, GPIO_InitTypeDef *GPIO_Init)
 189:../../../core/ST/STM32L4xx_HAL_Driver/Src/stm32l4xx_hal_gpio.c **** {
ARM GAS  C:\Users\tomra\AppData\Local\Temp\ccgdrd7s.s 			page 5


  35              		.loc 1 189 1 view -0
  36              		.cfi_startproc
  37              		@ args = 0, pretend = 0, frame = 8
  38              		@ frame_needed = 0, uses_anonymous_args = 0
  39              		.loc 1 189 1 is_stmt 0 view .LVU1
  40 0000 2DE9F047 		push	{r4, r5, r6, r7, r8, r9, r10, lr}
  41              	.LCFI0:
  42              		.cfi_def_cfa_offset 32
  43              		.cfi_offset 4, -32
  44              		.cfi_offset 5, -28
  45              		.cfi_offset 6, -24
  46              		.cfi_offset 7, -20
  47              		.cfi_offset 8, -16
  48              		.cfi_offset 9, -12
  49              		.cfi_offset 10, -8
  50              		.cfi_offset 14, -4
  51 0004 82B0     		sub	sp, sp, #8
  52              	.LCFI1:
  53              		.cfi_def_cfa_offset 40
  54 0006 0546     		mov	r5, r0
  55 0008 0C46     		mov	r4, r1
 190:../../../core/ST/STM32L4xx_HAL_Driver/Src/stm32l4xx_hal_gpio.c ****   uint32_t position = 0x00u;
  56              		.loc 1 190 3 is_stmt 1 view .LVU2
  57              	.LVL1:
 191:../../../core/ST/STM32L4xx_HAL_Driver/Src/stm32l4xx_hal_gpio.c ****   uint32_t iocurrent;
  58              		.loc 1 191 3 view .LVU3
 192:../../../core/ST/STM32L4xx_HAL_Driver/Src/stm32l4xx_hal_gpio.c ****   uint32_t temp;
  59              		.loc 1 192 3 view .LVU4
 193:../../../core/ST/STM32L4xx_HAL_Driver/Src/stm32l4xx_hal_gpio.c **** 
 194:../../../core/ST/STM32L4xx_HAL_Driver/Src/stm32l4xx_hal_gpio.c ****   /* Check the parameters */
 195:../../../core/ST/STM32L4xx_HAL_Driver/Src/stm32l4xx_hal_gpio.c ****   assert_param(IS_GPIO_ALL_INSTANCE(GPIOx));
  60              		.loc 1 195 3 view .LVU5
  61 000a B0F1904F 		cmp	r0, #1207959552
  62 000e 22D0     		beq	.L2
  63              		.loc 1 195 3 is_stmt 0 discriminator 1 view .LVU6
  64 0010 B74B     		ldr	r3, .L37
  65 0012 9842     		cmp	r0, r3
  66 0014 1FD0     		beq	.L2
  67              		.loc 1 195 3 discriminator 2 view .LVU7
  68 0016 03F58063 		add	r3, r3, #1024
  69 001a 9842     		cmp	r0, r3
  70 001c 1BD0     		beq	.L2
  71              		.loc 1 195 3 discriminator 3 view .LVU8
  72 001e 03F58063 		add	r3, r3, #1024
  73 0022 9842     		cmp	r0, r3
  74 0024 17D0     		beq	.L2
  75              		.loc 1 195 3 discriminator 4 view .LVU9
  76 0026 03F58063 		add	r3, r3, #1024
  77 002a 9842     		cmp	r0, r3
  78 002c 13D0     		beq	.L2
  79              		.loc 1 195 3 discriminator 5 view .LVU10
  80 002e 03F58063 		add	r3, r3, #1024
  81 0032 9842     		cmp	r0, r3
  82 0034 0FD0     		beq	.L2
  83              		.loc 1 195 3 discriminator 6 view .LVU11
  84 0036 03F58063 		add	r3, r3, #1024
  85 003a 9842     		cmp	r0, r3
ARM GAS  C:\Users\tomra\AppData\Local\Temp\ccgdrd7s.s 			page 6


  86 003c 0BD0     		beq	.L2
  87              		.loc 1 195 3 discriminator 7 view .LVU12
  88 003e 03F58063 		add	r3, r3, #1024
  89 0042 9842     		cmp	r0, r3
  90 0044 07D0     		beq	.L2
  91              		.loc 1 195 3 discriminator 8 view .LVU13
  92 0046 03F58063 		add	r3, r3, #1024
  93 004a 9842     		cmp	r0, r3
  94 004c 03D0     		beq	.L2
  95              		.loc 1 195 3 discriminator 9 view .LVU14
  96 004e C321     		movs	r1, #195
  97              	.LVL2:
  98              		.loc 1 195 3 discriminator 9 view .LVU15
  99 0050 A848     		ldr	r0, .L37+4
 100              	.LVL3:
 101              		.loc 1 195 3 discriminator 9 view .LVU16
 102 0052 FFF7FEFF 		bl	assert_failed
 103              	.LVL4:
 104              	.L2:
 196:../../../core/ST/STM32L4xx_HAL_Driver/Src/stm32l4xx_hal_gpio.c ****   assert_param(IS_GPIO_PIN(GPIO_Init->Pin));
 105              		.loc 1 196 3 is_stmt 1 view .LVU17
 106 0056 2368     		ldr	r3, [r4]
 107 0058 9AB2     		uxth	r2, r3
 108 005a 12B1     		cbz	r2, .L3
 109              		.loc 1 196 3 is_stmt 0 discriminator 2 view .LVU18
 110 005c 1B0C     		lsrs	r3, r3, #16
 111 005e 1B04     		lsls	r3, r3, #16
 112 0060 1BB1     		cbz	r3, .L4
 113              	.L3:
 114              		.loc 1 196 3 discriminator 3 view .LVU19
 115 0062 C421     		movs	r1, #196
 116 0064 A348     		ldr	r0, .L37+4
 117 0066 FFF7FEFF 		bl	assert_failed
 118              	.LVL5:
 119              	.L4:
 197:../../../core/ST/STM32L4xx_HAL_Driver/Src/stm32l4xx_hal_gpio.c ****   assert_param(IS_GPIO_MODE(GPIO_Init->Mode));
 120              		.loc 1 197 3 is_stmt 1 view .LVU20
 121 006a 6368     		ldr	r3, [r4, #4]
 122 006c 012B     		cmp	r3, #1
 123 006e 20D9     		bls	.L5
 124              		.loc 1 197 3 is_stmt 0 discriminator 1 view .LVU21
 125 0070 112B     		cmp	r3, #17
 126 0072 1ED0     		beq	.L5
 127              		.loc 1 197 3 discriminator 2 view .LVU22
 128 0074 022B     		cmp	r3, #2
 129 0076 1CD0     		beq	.L5
 130              		.loc 1 197 3 discriminator 3 view .LVU23
 131 0078 122B     		cmp	r3, #18
 132 007a 1AD0     		beq	.L5
 133              		.loc 1 197 3 discriminator 4 view .LVU24
 134 007c 9E4A     		ldr	r2, .L37+8
 135 007e 9342     		cmp	r3, r2
 136 0080 17D0     		beq	.L5
 137              		.loc 1 197 3 discriminator 5 view .LVU25
 138 0082 02F58012 		add	r2, r2, #1048576
 139 0086 9342     		cmp	r3, r2
 140 0088 13D0     		beq	.L5
ARM GAS  C:\Users\tomra\AppData\Local\Temp\ccgdrd7s.s 			page 7


 141              		.loc 1 197 3 discriminator 6 view .LVU26
 142 008a 02F58012 		add	r2, r2, #1048576
 143 008e 9342     		cmp	r3, r2
 144 0090 0FD0     		beq	.L5
 145              		.loc 1 197 3 discriminator 7 view .LVU27
 146 0092 A2F5F812 		sub	r2, r2, #2031616
 147 0096 9342     		cmp	r3, r2
 148 0098 0BD0     		beq	.L5
 149              		.loc 1 197 3 discriminator 8 view .LVU28
 150 009a 02F58012 		add	r2, r2, #1048576
 151 009e 9342     		cmp	r3, r2
 152 00a0 07D0     		beq	.L5
 153              		.loc 1 197 3 discriminator 9 view .LVU29
 154 00a2 02F58012 		add	r2, r2, #1048576
 155 00a6 9342     		cmp	r3, r2
 156 00a8 03D0     		beq	.L5
 157              		.loc 1 197 3 discriminator 10 view .LVU30
 158 00aa 032B     		cmp	r3, #3
 159 00ac 01D0     		beq	.L5
 160              		.loc 1 197 3 discriminator 11 view .LVU31
 161 00ae 0B2B     		cmp	r3, #11
 162 00b0 04D1     		bne	.L31
 163              	.L5:
 198:../../../core/ST/STM32L4xx_HAL_Driver/Src/stm32l4xx_hal_gpio.c ****   assert_param(IS_GPIO_PULL(GPIO_Init->Pull));
 164              		.loc 1 198 3 is_stmt 1 view .LVU32
 165 00b2 A368     		ldr	r3, [r4, #8]
 166 00b4 022B     		cmp	r3, #2
 167 00b6 06D8     		bhi	.L32
 168              	.L6:
 199:../../../core/ST/STM32L4xx_HAL_Driver/Src/stm32l4xx_hal_gpio.c **** 
 200:../../../core/ST/STM32L4xx_HAL_Driver/Src/stm32l4xx_hal_gpio.c ****   /* Configure the port pins */
 201:../../../core/ST/STM32L4xx_HAL_Driver/Src/stm32l4xx_hal_gpio.c ****   while (((GPIO_Init->Pin) >> position) != 0x00u)
 202:../../../core/ST/STM32L4xx_HAL_Driver/Src/stm32l4xx_hal_gpio.c ****   {
 203:../../../core/ST/STM32L4xx_HAL_Driver/Src/stm32l4xx_hal_gpio.c ****     /* Get current io position */
 204:../../../core/ST/STM32L4xx_HAL_Driver/Src/stm32l4xx_hal_gpio.c ****     iocurrent = (GPIO_Init->Pin) & (1uL << position);
 205:../../../core/ST/STM32L4xx_HAL_Driver/Src/stm32l4xx_hal_gpio.c **** 
 206:../../../core/ST/STM32L4xx_HAL_Driver/Src/stm32l4xx_hal_gpio.c ****     if (iocurrent != 0x00u)
 207:../../../core/ST/STM32L4xx_HAL_Driver/Src/stm32l4xx_hal_gpio.c ****     {
 208:../../../core/ST/STM32L4xx_HAL_Driver/Src/stm32l4xx_hal_gpio.c ****       /*--------------------- GPIO Mode Configuration ------------------------*/
 209:../../../core/ST/STM32L4xx_HAL_Driver/Src/stm32l4xx_hal_gpio.c ****       /* In case of Alternate function mode selection */
 210:../../../core/ST/STM32L4xx_HAL_Driver/Src/stm32l4xx_hal_gpio.c ****       if((GPIO_Init->Mode == GPIO_MODE_AF_PP) || (GPIO_Init->Mode == GPIO_MODE_AF_OD))
 211:../../../core/ST/STM32L4xx_HAL_Driver/Src/stm32l4xx_hal_gpio.c ****       {
 212:../../../core/ST/STM32L4xx_HAL_Driver/Src/stm32l4xx_hal_gpio.c ****         /* Check the Alternate function parameters */
 213:../../../core/ST/STM32L4xx_HAL_Driver/Src/stm32l4xx_hal_gpio.c ****         assert_param(IS_GPIO_AF_INSTANCE(GPIOx));
 214:../../../core/ST/STM32L4xx_HAL_Driver/Src/stm32l4xx_hal_gpio.c ****         assert_param(IS_GPIO_AF(GPIO_Init->Alternate));
 215:../../../core/ST/STM32L4xx_HAL_Driver/Src/stm32l4xx_hal_gpio.c **** 
 216:../../../core/ST/STM32L4xx_HAL_Driver/Src/stm32l4xx_hal_gpio.c ****         /* Configure Alternate function mapped with the current IO */
 217:../../../core/ST/STM32L4xx_HAL_Driver/Src/stm32l4xx_hal_gpio.c ****         temp = GPIOx->AFR[position >> 3u];
 218:../../../core/ST/STM32L4xx_HAL_Driver/Src/stm32l4xx_hal_gpio.c ****         temp &= ~(0xFu << ((position & 0x07u) * 4u));
 219:../../../core/ST/STM32L4xx_HAL_Driver/Src/stm32l4xx_hal_gpio.c ****         temp |= ((GPIO_Init->Alternate) << ((position & 0x07u) * 4u));
 220:../../../core/ST/STM32L4xx_HAL_Driver/Src/stm32l4xx_hal_gpio.c ****         GPIOx->AFR[position >> 3u] = temp;
 221:../../../core/ST/STM32L4xx_HAL_Driver/Src/stm32l4xx_hal_gpio.c ****       }
 222:../../../core/ST/STM32L4xx_HAL_Driver/Src/stm32l4xx_hal_gpio.c **** 
 223:../../../core/ST/STM32L4xx_HAL_Driver/Src/stm32l4xx_hal_gpio.c ****       /* Configure IO Direction mode (Input, Output, Alternate or Analog) */
 224:../../../core/ST/STM32L4xx_HAL_Driver/Src/stm32l4xx_hal_gpio.c ****       temp = GPIOx->MODER;
 225:../../../core/ST/STM32L4xx_HAL_Driver/Src/stm32l4xx_hal_gpio.c ****       temp &= ~(GPIO_MODER_MODE0 << (position * 2u));
 226:../../../core/ST/STM32L4xx_HAL_Driver/Src/stm32l4xx_hal_gpio.c ****       temp |= ((GPIO_Init->Mode & GPIO_MODE) << (position * 2u));
ARM GAS  C:\Users\tomra\AppData\Local\Temp\ccgdrd7s.s 			page 8


 227:../../../core/ST/STM32L4xx_HAL_Driver/Src/stm32l4xx_hal_gpio.c ****       GPIOx->MODER = temp;
 228:../../../core/ST/STM32L4xx_HAL_Driver/Src/stm32l4xx_hal_gpio.c **** 
 229:../../../core/ST/STM32L4xx_HAL_Driver/Src/stm32l4xx_hal_gpio.c ****       /* In case of Output or Alternate function mode selection */
 230:../../../core/ST/STM32L4xx_HAL_Driver/Src/stm32l4xx_hal_gpio.c ****       if((GPIO_Init->Mode == GPIO_MODE_OUTPUT_PP) || (GPIO_Init->Mode == GPIO_MODE_AF_PP) ||
 231:../../../core/ST/STM32L4xx_HAL_Driver/Src/stm32l4xx_hal_gpio.c ****          (GPIO_Init->Mode == GPIO_MODE_OUTPUT_OD) || (GPIO_Init->Mode == GPIO_MODE_AF_OD))
 232:../../../core/ST/STM32L4xx_HAL_Driver/Src/stm32l4xx_hal_gpio.c ****       {
 233:../../../core/ST/STM32L4xx_HAL_Driver/Src/stm32l4xx_hal_gpio.c ****         /* Check the Speed parameter */
 234:../../../core/ST/STM32L4xx_HAL_Driver/Src/stm32l4xx_hal_gpio.c ****         assert_param(IS_GPIO_SPEED(GPIO_Init->Speed));
 235:../../../core/ST/STM32L4xx_HAL_Driver/Src/stm32l4xx_hal_gpio.c ****         /* Configure the IO Speed */
 236:../../../core/ST/STM32L4xx_HAL_Driver/Src/stm32l4xx_hal_gpio.c ****         temp = GPIOx->OSPEEDR;
 237:../../../core/ST/STM32L4xx_HAL_Driver/Src/stm32l4xx_hal_gpio.c ****         temp &= ~(GPIO_OSPEEDR_OSPEED0 << (position * 2u));
 238:../../../core/ST/STM32L4xx_HAL_Driver/Src/stm32l4xx_hal_gpio.c ****         temp |= (GPIO_Init->Speed << (position * 2u));
 239:../../../core/ST/STM32L4xx_HAL_Driver/Src/stm32l4xx_hal_gpio.c ****         GPIOx->OSPEEDR = temp;
 240:../../../core/ST/STM32L4xx_HAL_Driver/Src/stm32l4xx_hal_gpio.c **** 
 241:../../../core/ST/STM32L4xx_HAL_Driver/Src/stm32l4xx_hal_gpio.c ****         /* Configure the IO Output Type */
 242:../../../core/ST/STM32L4xx_HAL_Driver/Src/stm32l4xx_hal_gpio.c ****         temp = GPIOx->OTYPER;
 243:../../../core/ST/STM32L4xx_HAL_Driver/Src/stm32l4xx_hal_gpio.c ****         temp &= ~(GPIO_OTYPER_OT0 << position) ;
 244:../../../core/ST/STM32L4xx_HAL_Driver/Src/stm32l4xx_hal_gpio.c ****         temp |= (((GPIO_Init->Mode & GPIO_OUTPUT_TYPE) >> 4u) << position);
 245:../../../core/ST/STM32L4xx_HAL_Driver/Src/stm32l4xx_hal_gpio.c ****         GPIOx->OTYPER = temp;
 246:../../../core/ST/STM32L4xx_HAL_Driver/Src/stm32l4xx_hal_gpio.c ****       }
 247:../../../core/ST/STM32L4xx_HAL_Driver/Src/stm32l4xx_hal_gpio.c **** 
 248:../../../core/ST/STM32L4xx_HAL_Driver/Src/stm32l4xx_hal_gpio.c **** #if defined(STM32L471xx) || defined(STM32L475xx) || defined(STM32L476xx) || defined(STM32L485xx) ||
 249:../../../core/ST/STM32L4xx_HAL_Driver/Src/stm32l4xx_hal_gpio.c **** 
 250:../../../core/ST/STM32L4xx_HAL_Driver/Src/stm32l4xx_hal_gpio.c ****       /* In case of Analog mode, check if ADC control mode is selected */
 251:../../../core/ST/STM32L4xx_HAL_Driver/Src/stm32l4xx_hal_gpio.c ****       if((GPIO_Init->Mode & GPIO_MODE_ANALOG) == GPIO_MODE_ANALOG)
 252:../../../core/ST/STM32L4xx_HAL_Driver/Src/stm32l4xx_hal_gpio.c ****       {
 253:../../../core/ST/STM32L4xx_HAL_Driver/Src/stm32l4xx_hal_gpio.c ****         /* Configure the IO Output Type */
 254:../../../core/ST/STM32L4xx_HAL_Driver/Src/stm32l4xx_hal_gpio.c ****         temp = GPIOx->ASCR;
 255:../../../core/ST/STM32L4xx_HAL_Driver/Src/stm32l4xx_hal_gpio.c ****         temp &= ~(GPIO_ASCR_ASC0 << position) ;
 256:../../../core/ST/STM32L4xx_HAL_Driver/Src/stm32l4xx_hal_gpio.c ****         temp |= (((GPIO_Init->Mode & ANALOG_MODE) >> 3) << position);
 257:../../../core/ST/STM32L4xx_HAL_Driver/Src/stm32l4xx_hal_gpio.c ****         GPIOx->ASCR = temp;
 258:../../../core/ST/STM32L4xx_HAL_Driver/Src/stm32l4xx_hal_gpio.c ****       }
 259:../../../core/ST/STM32L4xx_HAL_Driver/Src/stm32l4xx_hal_gpio.c **** 
 260:../../../core/ST/STM32L4xx_HAL_Driver/Src/stm32l4xx_hal_gpio.c **** #endif /* STM32L471xx || STM32L475xx || STM32L476xx || STM32L485xx || STM32L486xx */
 261:../../../core/ST/STM32L4xx_HAL_Driver/Src/stm32l4xx_hal_gpio.c **** 
 262:../../../core/ST/STM32L4xx_HAL_Driver/Src/stm32l4xx_hal_gpio.c ****       /* Activate the Pull-up or Pull down resistor for the current IO */
 263:../../../core/ST/STM32L4xx_HAL_Driver/Src/stm32l4xx_hal_gpio.c ****       temp = GPIOx->PUPDR;
 264:../../../core/ST/STM32L4xx_HAL_Driver/Src/stm32l4xx_hal_gpio.c ****       temp &= ~(GPIO_PUPDR_PUPD0 << (position * 2u));
 265:../../../core/ST/STM32L4xx_HAL_Driver/Src/stm32l4xx_hal_gpio.c ****       temp |= ((GPIO_Init->Pull) << (position * 2u));
 266:../../../core/ST/STM32L4xx_HAL_Driver/Src/stm32l4xx_hal_gpio.c ****       GPIOx->PUPDR = temp;
 267:../../../core/ST/STM32L4xx_HAL_Driver/Src/stm32l4xx_hal_gpio.c **** 
 268:../../../core/ST/STM32L4xx_HAL_Driver/Src/stm32l4xx_hal_gpio.c ****       /*--------------------- EXTI Mode Configuration ------------------------*/
 269:../../../core/ST/STM32L4xx_HAL_Driver/Src/stm32l4xx_hal_gpio.c ****       /* Configure the External Interrupt or event for the current IO */
 270:../../../core/ST/STM32L4xx_HAL_Driver/Src/stm32l4xx_hal_gpio.c ****       if((GPIO_Init->Mode & EXTI_MODE) == EXTI_MODE)
 271:../../../core/ST/STM32L4xx_HAL_Driver/Src/stm32l4xx_hal_gpio.c ****       {
 272:../../../core/ST/STM32L4xx_HAL_Driver/Src/stm32l4xx_hal_gpio.c ****         /* Enable SYSCFG Clock */
 273:../../../core/ST/STM32L4xx_HAL_Driver/Src/stm32l4xx_hal_gpio.c ****         __HAL_RCC_SYSCFG_CLK_ENABLE();
 274:../../../core/ST/STM32L4xx_HAL_Driver/Src/stm32l4xx_hal_gpio.c **** 
 275:../../../core/ST/STM32L4xx_HAL_Driver/Src/stm32l4xx_hal_gpio.c ****         temp = SYSCFG->EXTICR[position >> 2u];
 276:../../../core/ST/STM32L4xx_HAL_Driver/Src/stm32l4xx_hal_gpio.c ****         temp &= ~(0x0FuL << (4u * (position & 0x03u)));
 277:../../../core/ST/STM32L4xx_HAL_Driver/Src/stm32l4xx_hal_gpio.c ****         temp |= (GPIO_GET_INDEX(GPIOx) << (4u * (position & 0x03u)));
 169              		.loc 1 277 18 is_stmt 0 view .LVU33
 170 00b8 0027     		movs	r7, #0
 171 00ba 4AE0     		b	.L7
 172              	.L31:
 197:../../../core/ST/STM32L4xx_HAL_Driver/Src/stm32l4xx_hal_gpio.c ****   assert_param(IS_GPIO_PULL(GPIO_Init->Pull));
 173              		.loc 1 197 3 discriminator 12 view .LVU34
ARM GAS  C:\Users\tomra\AppData\Local\Temp\ccgdrd7s.s 			page 9


 174 00bc C521     		movs	r1, #197
 175 00be 8D48     		ldr	r0, .L37+4
 176 00c0 FFF7FEFF 		bl	assert_failed
 177              	.LVL6:
 178 00c4 F5E7     		b	.L5
 179              	.L32:
 198:../../../core/ST/STM32L4xx_HAL_Driver/Src/stm32l4xx_hal_gpio.c ****   assert_param(IS_GPIO_PULL(GPIO_Init->Pull));
 180              		.loc 1 198 3 discriminator 1 view .LVU35
 181 00c6 C621     		movs	r1, #198
 182 00c8 8A48     		ldr	r0, .L37+4
 183 00ca FFF7FEFF 		bl	assert_failed
 184              	.LVL7:
 185 00ce F3E7     		b	.L6
 186              	.LVL8:
 187              	.L34:
 214:../../../core/ST/STM32L4xx_HAL_Driver/Src/stm32l4xx_hal_gpio.c **** 
 188              		.loc 1 214 9 discriminator 1 view .LVU36
 189 00d0 D621     		movs	r1, #214
 190 00d2 8848     		ldr	r0, .L37+4
 191 00d4 FFF7FEFF 		bl	assert_failed
 192              	.LVL9:
 193 00d8 75E0     		b	.L12
 194              	.LVL10:
 195              	.L35:
 234:../../../core/ST/STM32L4xx_HAL_Driver/Src/stm32l4xx_hal_gpio.c ****         /* Configure the IO Speed */
 196              		.loc 1 234 9 discriminator 1 view .LVU37
 197 00da EA21     		movs	r1, #234
 198 00dc 8548     		ldr	r0, .L37+4
 199 00de FFF7FEFF 		bl	assert_failed
 200              	.LVL11:
 234:../../../core/ST/STM32L4xx_HAL_Driver/Src/stm32l4xx_hal_gpio.c ****         /* Configure the IO Speed */
 201              		.loc 1 234 9 discriminator 1 view .LVU38
 202 00e2 9DE0     		b	.L15
 203              	.LVL12:
 204              	.L36:
 205              		.loc 1 277 18 view .LVU39
 206 00e4 0723     		movs	r3, #7
 207 00e6 00E0     		b	.L16
 208              	.L22:
 209 00e8 0023     		movs	r3, #0
 210              	.L16:
 211              		.loc 1 277 40 discriminator 32 view .LVU40
 212 00ea 8B40     		lsls	r3, r3, r1
 213              		.loc 1 277 14 discriminator 32 view .LVU41
 214 00ec 0343     		orrs	r3, r3, r0
 215              	.LVL13:
 278:../../../core/ST/STM32L4xx_HAL_Driver/Src/stm32l4xx_hal_gpio.c ****         SYSCFG->EXTICR[position >> 2u] = temp;
 216              		.loc 1 278 9 is_stmt 1 discriminator 32 view .LVU42
 217              		.loc 1 278 40 is_stmt 0 discriminator 32 view .LVU43
 218 00ee 0232     		adds	r2, r2, #2
 219 00f0 8249     		ldr	r1, .L37+12
 220 00f2 41F82230 		str	r3, [r1, r2, lsl #2]
 279:../../../core/ST/STM32L4xx_HAL_Driver/Src/stm32l4xx_hal_gpio.c **** 
 280:../../../core/ST/STM32L4xx_HAL_Driver/Src/stm32l4xx_hal_gpio.c ****         /* Clear EXTI line configuration */
 281:../../../core/ST/STM32L4xx_HAL_Driver/Src/stm32l4xx_hal_gpio.c ****         temp = EXTI->IMR1;
 221              		.loc 1 281 9 is_stmt 1 discriminator 32 view .LVU44
 222              		.loc 1 281 14 is_stmt 0 discriminator 32 view .LVU45
ARM GAS  C:\Users\tomra\AppData\Local\Temp\ccgdrd7s.s 			page 10


 223 00f6 824B     		ldr	r3, .L37+16
 224              	.LVL14:
 225              		.loc 1 281 14 discriminator 32 view .LVU46
 226 00f8 1A68     		ldr	r2, [r3]
 227              	.LVL15:
 282:../../../core/ST/STM32L4xx_HAL_Driver/Src/stm32l4xx_hal_gpio.c ****         temp &= ~(iocurrent);
 228              		.loc 1 282 9 is_stmt 1 discriminator 32 view .LVU47
 229              		.loc 1 282 17 is_stmt 0 discriminator 32 view .LVU48
 230 00fa F343     		mvns	r3, r6
 231              		.loc 1 282 14 discriminator 32 view .LVU49
 232 00fc 22EA0601 		bic	r1, r2, r6
 233              	.LVL16:
 283:../../../core/ST/STM32L4xx_HAL_Driver/Src/stm32l4xx_hal_gpio.c ****         if((GPIO_Init->Mode & GPIO_MODE_IT) == GPIO_MODE_IT)
 234              		.loc 1 283 9 is_stmt 1 discriminator 32 view .LVU50
 235              		.loc 1 283 22 is_stmt 0 discriminator 32 view .LVU51
 236 0100 6068     		ldr	r0, [r4, #4]
 237              		.loc 1 283 11 discriminator 32 view .LVU52
 238 0102 10F4803F 		tst	r0, #65536
 239 0106 01D0     		beq	.L17
 284:../../../core/ST/STM32L4xx_HAL_Driver/Src/stm32l4xx_hal_gpio.c ****         {
 285:../../../core/ST/STM32L4xx_HAL_Driver/Src/stm32l4xx_hal_gpio.c ****           temp |= iocurrent;
 240              		.loc 1 285 11 is_stmt 1 view .LVU53
 241              		.loc 1 285 16 is_stmt 0 view .LVU54
 242 0108 46EA0201 		orr	r1, r6, r2
 243              	.LVL17:
 244              	.L17:
 286:../../../core/ST/STM32L4xx_HAL_Driver/Src/stm32l4xx_hal_gpio.c ****         }
 287:../../../core/ST/STM32L4xx_HAL_Driver/Src/stm32l4xx_hal_gpio.c ****         EXTI->IMR1 = temp;
 245              		.loc 1 287 9 is_stmt 1 view .LVU55
 246              		.loc 1 287 20 is_stmt 0 view .LVU56
 247 010c 7C4A     		ldr	r2, .L37+16
 248 010e 1160     		str	r1, [r2]
 288:../../../core/ST/STM32L4xx_HAL_Driver/Src/stm32l4xx_hal_gpio.c **** 
 289:../../../core/ST/STM32L4xx_HAL_Driver/Src/stm32l4xx_hal_gpio.c ****         temp = EXTI->EMR1;
 249              		.loc 1 289 9 is_stmt 1 view .LVU57
 250              		.loc 1 289 14 is_stmt 0 view .LVU58
 251 0110 5268     		ldr	r2, [r2, #4]
 252              	.LVL18:
 290:../../../core/ST/STM32L4xx_HAL_Driver/Src/stm32l4xx_hal_gpio.c ****         temp &= ~(iocurrent);
 253              		.loc 1 290 9 is_stmt 1 view .LVU59
 254              		.loc 1 290 14 is_stmt 0 view .LVU60
 255 0112 03EA0201 		and	r1, r3, r2
 256              	.LVL19:
 291:../../../core/ST/STM32L4xx_HAL_Driver/Src/stm32l4xx_hal_gpio.c ****         if((GPIO_Init->Mode & GPIO_MODE_EVT) == GPIO_MODE_EVT)
 257              		.loc 1 291 9 is_stmt 1 view .LVU61
 258              		.loc 1 291 22 is_stmt 0 view .LVU62
 259 0116 6068     		ldr	r0, [r4, #4]
 260              		.loc 1 291 11 view .LVU63
 261 0118 10F4003F 		tst	r0, #131072
 262 011c 01D0     		beq	.L18
 292:../../../core/ST/STM32L4xx_HAL_Driver/Src/stm32l4xx_hal_gpio.c ****         {
 293:../../../core/ST/STM32L4xx_HAL_Driver/Src/stm32l4xx_hal_gpio.c ****           temp |= iocurrent;
 263              		.loc 1 293 11 is_stmt 1 view .LVU64
 264              		.loc 1 293 16 is_stmt 0 view .LVU65
 265 011e 46EA0201 		orr	r1, r6, r2
 266              	.LVL20:
 267              	.L18:
ARM GAS  C:\Users\tomra\AppData\Local\Temp\ccgdrd7s.s 			page 11


 294:../../../core/ST/STM32L4xx_HAL_Driver/Src/stm32l4xx_hal_gpio.c ****         }
 295:../../../core/ST/STM32L4xx_HAL_Driver/Src/stm32l4xx_hal_gpio.c ****         EXTI->EMR1 = temp;
 268              		.loc 1 295 9 is_stmt 1 view .LVU66
 269              		.loc 1 295 20 is_stmt 0 view .LVU67
 270 0122 774A     		ldr	r2, .L37+16
 271 0124 5160     		str	r1, [r2, #4]
 296:../../../core/ST/STM32L4xx_HAL_Driver/Src/stm32l4xx_hal_gpio.c **** 
 297:../../../core/ST/STM32L4xx_HAL_Driver/Src/stm32l4xx_hal_gpio.c ****         /* Clear Rising Falling edge configuration */
 298:../../../core/ST/STM32L4xx_HAL_Driver/Src/stm32l4xx_hal_gpio.c ****         temp = EXTI->RTSR1;
 272              		.loc 1 298 9 is_stmt 1 view .LVU68
 273              		.loc 1 298 14 is_stmt 0 view .LVU69
 274 0126 9268     		ldr	r2, [r2, #8]
 275              	.LVL21:
 299:../../../core/ST/STM32L4xx_HAL_Driver/Src/stm32l4xx_hal_gpio.c ****         temp &= ~(iocurrent);
 276              		.loc 1 299 9 is_stmt 1 view .LVU70
 277              		.loc 1 299 14 is_stmt 0 view .LVU71
 278 0128 03EA0201 		and	r1, r3, r2
 279              	.LVL22:
 300:../../../core/ST/STM32L4xx_HAL_Driver/Src/stm32l4xx_hal_gpio.c ****         if((GPIO_Init->Mode & RISING_EDGE) == RISING_EDGE)
 280              		.loc 1 300 9 is_stmt 1 view .LVU72
 281              		.loc 1 300 22 is_stmt 0 view .LVU73
 282 012c 6068     		ldr	r0, [r4, #4]
 283              		.loc 1 300 11 view .LVU74
 284 012e 10F4801F 		tst	r0, #1048576
 285 0132 01D0     		beq	.L19
 301:../../../core/ST/STM32L4xx_HAL_Driver/Src/stm32l4xx_hal_gpio.c ****         {
 302:../../../core/ST/STM32L4xx_HAL_Driver/Src/stm32l4xx_hal_gpio.c ****           temp |= iocurrent;
 286              		.loc 1 302 11 is_stmt 1 view .LVU75
 287              		.loc 1 302 16 is_stmt 0 view .LVU76
 288 0134 46EA0201 		orr	r1, r6, r2
 289              	.LVL23:
 290              	.L19:
 303:../../../core/ST/STM32L4xx_HAL_Driver/Src/stm32l4xx_hal_gpio.c ****         }
 304:../../../core/ST/STM32L4xx_HAL_Driver/Src/stm32l4xx_hal_gpio.c ****         EXTI->RTSR1 = temp;
 291              		.loc 1 304 9 is_stmt 1 view .LVU77
 292              		.loc 1 304 21 is_stmt 0 view .LVU78
 293 0138 714A     		ldr	r2, .L37+16
 294 013a 9160     		str	r1, [r2, #8]
 305:../../../core/ST/STM32L4xx_HAL_Driver/Src/stm32l4xx_hal_gpio.c **** 
 306:../../../core/ST/STM32L4xx_HAL_Driver/Src/stm32l4xx_hal_gpio.c ****         temp = EXTI->FTSR1;
 295              		.loc 1 306 9 is_stmt 1 view .LVU79
 296              		.loc 1 306 14 is_stmt 0 view .LVU80
 297 013c D268     		ldr	r2, [r2, #12]
 298              	.LVL24:
 307:../../../core/ST/STM32L4xx_HAL_Driver/Src/stm32l4xx_hal_gpio.c ****         temp &= ~(iocurrent);
 299              		.loc 1 307 9 is_stmt 1 view .LVU81
 300              		.loc 1 307 14 is_stmt 0 view .LVU82
 301 013e 1340     		ands	r3, r3, r2
 302              	.LVL25:
 308:../../../core/ST/STM32L4xx_HAL_Driver/Src/stm32l4xx_hal_gpio.c ****         if((GPIO_Init->Mode & FALLING_EDGE) == FALLING_EDGE)
 303              		.loc 1 308 9 is_stmt 1 view .LVU83
 304              		.loc 1 308 22 is_stmt 0 view .LVU84
 305 0140 6168     		ldr	r1, [r4, #4]
 306              		.loc 1 308 11 view .LVU85
 307 0142 11F4001F 		tst	r1, #2097152
 308 0146 01D0     		beq	.L20
 309:../../../core/ST/STM32L4xx_HAL_Driver/Src/stm32l4xx_hal_gpio.c ****         {
ARM GAS  C:\Users\tomra\AppData\Local\Temp\ccgdrd7s.s 			page 12


 310:../../../core/ST/STM32L4xx_HAL_Driver/Src/stm32l4xx_hal_gpio.c ****           temp |= iocurrent;
 309              		.loc 1 310 11 is_stmt 1 view .LVU86
 310              		.loc 1 310 16 is_stmt 0 view .LVU87
 311 0148 46EA0203 		orr	r3, r6, r2
 312              	.LVL26:
 313              	.L20:
 311:../../../core/ST/STM32L4xx_HAL_Driver/Src/stm32l4xx_hal_gpio.c ****         }
 312:../../../core/ST/STM32L4xx_HAL_Driver/Src/stm32l4xx_hal_gpio.c ****         EXTI->FTSR1 = temp;
 314              		.loc 1 312 9 is_stmt 1 view .LVU88
 315              		.loc 1 312 21 is_stmt 0 view .LVU89
 316 014c 6C4A     		ldr	r2, .L37+16
 317 014e D360     		str	r3, [r2, #12]
 318              	.LVL27:
 319              	.L8:
 313:../../../core/ST/STM32L4xx_HAL_Driver/Src/stm32l4xx_hal_gpio.c ****       }
 314:../../../core/ST/STM32L4xx_HAL_Driver/Src/stm32l4xx_hal_gpio.c ****     }
 315:../../../core/ST/STM32L4xx_HAL_Driver/Src/stm32l4xx_hal_gpio.c **** 
 316:../../../core/ST/STM32L4xx_HAL_Driver/Src/stm32l4xx_hal_gpio.c ****     position++;
 320              		.loc 1 316 5 is_stmt 1 view .LVU90
 321              		.loc 1 316 13 is_stmt 0 view .LVU91
 322 0150 0137     		adds	r7, r7, #1
 323              	.LVL28:
 324              	.L7:
 201:../../../core/ST/STM32L4xx_HAL_Driver/Src/stm32l4xx_hal_gpio.c ****   {
 325              		.loc 1 201 9 is_stmt 1 view .LVU92
 201:../../../core/ST/STM32L4xx_HAL_Driver/Src/stm32l4xx_hal_gpio.c ****   {
 326              		.loc 1 201 21 is_stmt 0 view .LVU93
 327 0152 2668     		ldr	r6, [r4]
 201:../../../core/ST/STM32L4xx_HAL_Driver/Src/stm32l4xx_hal_gpio.c ****   {
 328              		.loc 1 201 9 view .LVU94
 329 0154 36FA07F3 		lsrs	r3, r6, r7
 330 0158 00F0C680 		beq	.L33
 204:../../../core/ST/STM32L4xx_HAL_Driver/Src/stm32l4xx_hal_gpio.c **** 
 331              		.loc 1 204 5 is_stmt 1 view .LVU95
 204:../../../core/ST/STM32L4xx_HAL_Driver/Src/stm32l4xx_hal_gpio.c **** 
 332              		.loc 1 204 41 is_stmt 0 view .LVU96
 333 015c 4FF00108 		mov	r8, #1
 334 0160 08FA07F8 		lsl	r8, r8, r7
 335              	.LVL29:
 206:../../../core/ST/STM32L4xx_HAL_Driver/Src/stm32l4xx_hal_gpio.c ****     {
 336              		.loc 1 206 5 is_stmt 1 view .LVU97
 206:../../../core/ST/STM32L4xx_HAL_Driver/Src/stm32l4xx_hal_gpio.c ****     {
 337              		.loc 1 206 8 is_stmt 0 view .LVU98
 338 0164 18EA0606 		ands	r6, r8, r6
 339              	.LVL30:
 206:../../../core/ST/STM32L4xx_HAL_Driver/Src/stm32l4xx_hal_gpio.c ****     {
 340              		.loc 1 206 8 view .LVU99
 341 0168 F2D0     		beq	.L8
 210:../../../core/ST/STM32L4xx_HAL_Driver/Src/stm32l4xx_hal_gpio.c ****       {
 342              		.loc 1 210 7 is_stmt 1 view .LVU100
 210:../../../core/ST/STM32L4xx_HAL_Driver/Src/stm32l4xx_hal_gpio.c ****       {
 343              		.loc 1 210 20 is_stmt 0 view .LVU101
 344 016a 6368     		ldr	r3, [r4, #4]
 210:../../../core/ST/STM32L4xx_HAL_Driver/Src/stm32l4xx_hal_gpio.c ****       {
 345              		.loc 1 210 9 view .LVU102
 346 016c 022B     		cmp	r3, #2
 347 016e 01D0     		beq	.L9
ARM GAS  C:\Users\tomra\AppData\Local\Temp\ccgdrd7s.s 			page 13


 210:../../../core/ST/STM32L4xx_HAL_Driver/Src/stm32l4xx_hal_gpio.c ****       {
 348              		.loc 1 210 47 discriminator 1 view .LVU103
 349 0170 122B     		cmp	r3, #18
 350 0172 38D1     		bne	.L10
 351              	.L9:
 213:../../../core/ST/STM32L4xx_HAL_Driver/Src/stm32l4xx_hal_gpio.c ****         assert_param(IS_GPIO_AF(GPIO_Init->Alternate));
 352              		.loc 1 213 9 is_stmt 1 view .LVU104
 353 0174 B5F1904F 		cmp	r5, #1207959552
 354 0178 22D0     		beq	.L11
 213:../../../core/ST/STM32L4xx_HAL_Driver/Src/stm32l4xx_hal_gpio.c ****         assert_param(IS_GPIO_AF(GPIO_Init->Alternate));
 355              		.loc 1 213 9 is_stmt 0 discriminator 1 view .LVU105
 356 017a 5D4B     		ldr	r3, .L37
 357 017c 9D42     		cmp	r5, r3
 358 017e 1FD0     		beq	.L11
 213:../../../core/ST/STM32L4xx_HAL_Driver/Src/stm32l4xx_hal_gpio.c ****         assert_param(IS_GPIO_AF(GPIO_Init->Alternate));
 359              		.loc 1 213 9 discriminator 2 view .LVU106
 360 0180 03F58063 		add	r3, r3, #1024
 361 0184 9D42     		cmp	r5, r3
 362 0186 1BD0     		beq	.L11
 213:../../../core/ST/STM32L4xx_HAL_Driver/Src/stm32l4xx_hal_gpio.c ****         assert_param(IS_GPIO_AF(GPIO_Init->Alternate));
 363              		.loc 1 213 9 discriminator 3 view .LVU107
 364 0188 03F58063 		add	r3, r3, #1024
 365 018c 9D42     		cmp	r5, r3
 366 018e 17D0     		beq	.L11
 213:../../../core/ST/STM32L4xx_HAL_Driver/Src/stm32l4xx_hal_gpio.c ****         assert_param(IS_GPIO_AF(GPIO_Init->Alternate));
 367              		.loc 1 213 9 discriminator 4 view .LVU108
 368 0190 03F58063 		add	r3, r3, #1024
 369 0194 9D42     		cmp	r5, r3
 370 0196 13D0     		beq	.L11
 213:../../../core/ST/STM32L4xx_HAL_Driver/Src/stm32l4xx_hal_gpio.c ****         assert_param(IS_GPIO_AF(GPIO_Init->Alternate));
 371              		.loc 1 213 9 discriminator 5 view .LVU109
 372 0198 03F58063 		add	r3, r3, #1024
 373 019c 9D42     		cmp	r5, r3
 374 019e 0FD0     		beq	.L11
 213:../../../core/ST/STM32L4xx_HAL_Driver/Src/stm32l4xx_hal_gpio.c ****         assert_param(IS_GPIO_AF(GPIO_Init->Alternate));
 375              		.loc 1 213 9 discriminator 6 view .LVU110
 376 01a0 03F58063 		add	r3, r3, #1024
 377 01a4 9D42     		cmp	r5, r3
 378 01a6 0BD0     		beq	.L11
 213:../../../core/ST/STM32L4xx_HAL_Driver/Src/stm32l4xx_hal_gpio.c ****         assert_param(IS_GPIO_AF(GPIO_Init->Alternate));
 379              		.loc 1 213 9 discriminator 7 view .LVU111
 380 01a8 03F58063 		add	r3, r3, #1024
 381 01ac 9D42     		cmp	r5, r3
 382 01ae 07D0     		beq	.L11
 213:../../../core/ST/STM32L4xx_HAL_Driver/Src/stm32l4xx_hal_gpio.c ****         assert_param(IS_GPIO_AF(GPIO_Init->Alternate));
 383              		.loc 1 213 9 discriminator 8 view .LVU112
 384 01b0 03F58063 		add	r3, r3, #1024
 385 01b4 9D42     		cmp	r5, r3
 386 01b6 03D0     		beq	.L11
 213:../../../core/ST/STM32L4xx_HAL_Driver/Src/stm32l4xx_hal_gpio.c ****         assert_param(IS_GPIO_AF(GPIO_Init->Alternate));
 387              		.loc 1 213 9 discriminator 9 view .LVU113
 388 01b8 D521     		movs	r1, #213
 389 01ba 4E48     		ldr	r0, .L37+4
 390 01bc FFF7FEFF 		bl	assert_failed
 391              	.LVL31:
 392              	.L11:
 214:../../../core/ST/STM32L4xx_HAL_Driver/Src/stm32l4xx_hal_gpio.c **** 
ARM GAS  C:\Users\tomra\AppData\Local\Temp\ccgdrd7s.s 			page 14


 393              		.loc 1 214 9 is_stmt 1 view .LVU114
 394 01c0 2369     		ldr	r3, [r4, #16]
 395 01c2 0F2B     		cmp	r3, #15
 396 01c4 84D8     		bhi	.L34
 397              	.L12:
 217:../../../core/ST/STM32L4xx_HAL_Driver/Src/stm32l4xx_hal_gpio.c ****         temp &= ~(0xFu << ((position & 0x07u) * 4u));
 398              		.loc 1 217 9 view .LVU115
 217:../../../core/ST/STM32L4xx_HAL_Driver/Src/stm32l4xx_hal_gpio.c ****         temp &= ~(0xFu << ((position & 0x07u) * 4u));
 399              		.loc 1 217 36 is_stmt 0 view .LVU116
 400 01c6 FA08     		lsrs	r2, r7, #3
 217:../../../core/ST/STM32L4xx_HAL_Driver/Src/stm32l4xx_hal_gpio.c ****         temp &= ~(0xFu << ((position & 0x07u) * 4u));
 401              		.loc 1 217 14 view .LVU117
 402 01c8 0832     		adds	r2, r2, #8
 403 01ca 55F82200 		ldr	r0, [r5, r2, lsl #2]
 404              	.LVL32:
 218:../../../core/ST/STM32L4xx_HAL_Driver/Src/stm32l4xx_hal_gpio.c ****         temp |= ((GPIO_Init->Alternate) << ((position & 0x07u) * 4u));
 405              		.loc 1 218 9 is_stmt 1 view .LVU118
 218:../../../core/ST/STM32L4xx_HAL_Driver/Src/stm32l4xx_hal_gpio.c ****         temp |= ((GPIO_Init->Alternate) << ((position & 0x07u) * 4u));
 406              		.loc 1 218 38 is_stmt 0 view .LVU119
 407 01ce 07F00703 		and	r3, r7, #7
 218:../../../core/ST/STM32L4xx_HAL_Driver/Src/stm32l4xx_hal_gpio.c ****         temp |= ((GPIO_Init->Alternate) << ((position & 0x07u) * 4u));
 408              		.loc 1 218 47 view .LVU120
 409 01d2 9900     		lsls	r1, r3, #2
 218:../../../core/ST/STM32L4xx_HAL_Driver/Src/stm32l4xx_hal_gpio.c ****         temp |= ((GPIO_Init->Alternate) << ((position & 0x07u) * 4u));
 410              		.loc 1 218 24 view .LVU121
 411 01d4 0F23     		movs	r3, #15
 412 01d6 8B40     		lsls	r3, r3, r1
 218:../../../core/ST/STM32L4xx_HAL_Driver/Src/stm32l4xx_hal_gpio.c ****         temp |= ((GPIO_Init->Alternate) << ((position & 0x07u) * 4u));
 413              		.loc 1 218 14 view .LVU122
 414 01d8 20EA0300 		bic	r0, r0, r3
 415              	.LVL33:
 219:../../../core/ST/STM32L4xx_HAL_Driver/Src/stm32l4xx_hal_gpio.c ****         GPIOx->AFR[position >> 3u] = temp;
 416              		.loc 1 219 9 is_stmt 1 view .LVU123
 219:../../../core/ST/STM32L4xx_HAL_Driver/Src/stm32l4xx_hal_gpio.c ****         GPIOx->AFR[position >> 3u] = temp;
 417              		.loc 1 219 28 is_stmt 0 view .LVU124
 418 01dc 2369     		ldr	r3, [r4, #16]
 219:../../../core/ST/STM32L4xx_HAL_Driver/Src/stm32l4xx_hal_gpio.c ****         GPIOx->AFR[position >> 3u] = temp;
 419              		.loc 1 219 41 view .LVU125
 420 01de 8B40     		lsls	r3, r3, r1
 219:../../../core/ST/STM32L4xx_HAL_Driver/Src/stm32l4xx_hal_gpio.c ****         GPIOx->AFR[position >> 3u] = temp;
 421              		.loc 1 219 14 view .LVU126
 422 01e0 0343     		orrs	r3, r3, r0
 423              	.LVL34:
 220:../../../core/ST/STM32L4xx_HAL_Driver/Src/stm32l4xx_hal_gpio.c ****       }
 424              		.loc 1 220 9 is_stmt 1 view .LVU127
 220:../../../core/ST/STM32L4xx_HAL_Driver/Src/stm32l4xx_hal_gpio.c ****       }
 425              		.loc 1 220 36 is_stmt 0 view .LVU128
 426 01e2 45F82230 		str	r3, [r5, r2, lsl #2]
 427              	.LVL35:
 428              	.L10:
 224:../../../core/ST/STM32L4xx_HAL_Driver/Src/stm32l4xx_hal_gpio.c ****       temp &= ~(GPIO_MODER_MODE0 << (position * 2u));
 429              		.loc 1 224 7 is_stmt 1 view .LVU129
 224:../../../core/ST/STM32L4xx_HAL_Driver/Src/stm32l4xx_hal_gpio.c ****       temp &= ~(GPIO_MODER_MODE0 << (position * 2u));
 430              		.loc 1 224 12 is_stmt 0 view .LVU130
 431 01e6 2A68     		ldr	r2, [r5]
 432              	.LVL36:
 225:../../../core/ST/STM32L4xx_HAL_Driver/Src/stm32l4xx_hal_gpio.c ****       temp |= ((GPIO_Init->Mode & GPIO_MODE) << (position * 2u));
ARM GAS  C:\Users\tomra\AppData\Local\Temp\ccgdrd7s.s 			page 15


 433              		.loc 1 225 7 is_stmt 1 view .LVU131
 225:../../../core/ST/STM32L4xx_HAL_Driver/Src/stm32l4xx_hal_gpio.c ****       temp |= ((GPIO_Init->Mode & GPIO_MODE) << (position * 2u));
 434              		.loc 1 225 47 is_stmt 0 view .LVU132
 435 01e8 4FEA470A 		lsl	r10, r7, #1
 225:../../../core/ST/STM32L4xx_HAL_Driver/Src/stm32l4xx_hal_gpio.c ****       temp |= ((GPIO_Init->Mode & GPIO_MODE) << (position * 2u));
 436              		.loc 1 225 34 view .LVU133
 437 01ec 0323     		movs	r3, #3
 438 01ee 03FA0AF3 		lsl	r3, r3, r10
 225:../../../core/ST/STM32L4xx_HAL_Driver/Src/stm32l4xx_hal_gpio.c ****       temp |= ((GPIO_Init->Mode & GPIO_MODE) << (position * 2u));
 439              		.loc 1 225 15 view .LVU134
 440 01f2 6FEA0309 		mvn	r9, r3
 225:../../../core/ST/STM32L4xx_HAL_Driver/Src/stm32l4xx_hal_gpio.c ****       temp |= ((GPIO_Init->Mode & GPIO_MODE) << (position * 2u));
 441              		.loc 1 225 12 view .LVU135
 442 01f6 22EA0302 		bic	r2, r2, r3
 443              	.LVL37:
 226:../../../core/ST/STM32L4xx_HAL_Driver/Src/stm32l4xx_hal_gpio.c ****       GPIOx->MODER = temp;
 444              		.loc 1 226 7 is_stmt 1 view .LVU136
 226:../../../core/ST/STM32L4xx_HAL_Driver/Src/stm32l4xx_hal_gpio.c ****       GPIOx->MODER = temp;
 445              		.loc 1 226 26 is_stmt 0 view .LVU137
 446 01fa 6368     		ldr	r3, [r4, #4]
 226:../../../core/ST/STM32L4xx_HAL_Driver/Src/stm32l4xx_hal_gpio.c ****       GPIOx->MODER = temp;
 447              		.loc 1 226 33 view .LVU138
 448 01fc 03F00303 		and	r3, r3, #3
 226:../../../core/ST/STM32L4xx_HAL_Driver/Src/stm32l4xx_hal_gpio.c ****       GPIOx->MODER = temp;
 449              		.loc 1 226 46 view .LVU139
 450 0200 03FA0AF3 		lsl	r3, r3, r10
 226:../../../core/ST/STM32L4xx_HAL_Driver/Src/stm32l4xx_hal_gpio.c ****       GPIOx->MODER = temp;
 451              		.loc 1 226 12 view .LVU140
 452 0204 1343     		orrs	r3, r3, r2
 453              	.LVL38:
 227:../../../core/ST/STM32L4xx_HAL_Driver/Src/stm32l4xx_hal_gpio.c **** 
 454              		.loc 1 227 7 is_stmt 1 view .LVU141
 227:../../../core/ST/STM32L4xx_HAL_Driver/Src/stm32l4xx_hal_gpio.c **** 
 455              		.loc 1 227 20 is_stmt 0 view .LVU142
 456 0206 2B60     		str	r3, [r5]
 230:../../../core/ST/STM32L4xx_HAL_Driver/Src/stm32l4xx_hal_gpio.c ****          (GPIO_Init->Mode == GPIO_MODE_OUTPUT_OD) || (GPIO_Init->Mode == GPIO_MODE_AF_OD))
 457              		.loc 1 230 7 is_stmt 1 view .LVU143
 230:../../../core/ST/STM32L4xx_HAL_Driver/Src/stm32l4xx_hal_gpio.c ****          (GPIO_Init->Mode == GPIO_MODE_OUTPUT_OD) || (GPIO_Init->Mode == GPIO_MODE_AF_OD))
 458              		.loc 1 230 20 is_stmt 0 view .LVU144
 459 0208 6368     		ldr	r3, [r4, #4]
 460              	.LVL39:
 230:../../../core/ST/STM32L4xx_HAL_Driver/Src/stm32l4xx_hal_gpio.c ****          (GPIO_Init->Mode == GPIO_MODE_OUTPUT_OD) || (GPIO_Init->Mode == GPIO_MODE_AF_OD))
 461              		.loc 1 230 51 view .LVU145
 462 020a 5A1E     		subs	r2, r3, #1
 230:../../../core/ST/STM32L4xx_HAL_Driver/Src/stm32l4xx_hal_gpio.c ****          (GPIO_Init->Mode == GPIO_MODE_OUTPUT_OD) || (GPIO_Init->Mode == GPIO_MODE_AF_OD))
 463              		.loc 1 230 9 view .LVU146
 464 020c 012A     		cmp	r2, #1
 465 020e 03D9     		bls	.L13
 230:../../../core/ST/STM32L4xx_HAL_Driver/Src/stm32l4xx_hal_gpio.c ****          (GPIO_Init->Mode == GPIO_MODE_OUTPUT_OD) || (GPIO_Init->Mode == GPIO_MODE_AF_OD))
 466              		.loc 1 230 91 discriminator 1 view .LVU147
 467 0210 112B     		cmp	r3, #17
 468 0212 01D0     		beq	.L13
 231:../../../core/ST/STM32L4xx_HAL_Driver/Src/stm32l4xx_hal_gpio.c ****       {
 469              		.loc 1 231 51 view .LVU148
 470 0214 122B     		cmp	r3, #18
 471 0216 15D1     		bne	.L14
 472              	.L13:
ARM GAS  C:\Users\tomra\AppData\Local\Temp\ccgdrd7s.s 			page 16


 234:../../../core/ST/STM32L4xx_HAL_Driver/Src/stm32l4xx_hal_gpio.c ****         /* Configure the IO Speed */
 473              		.loc 1 234 9 is_stmt 1 view .LVU149
 474 0218 E368     		ldr	r3, [r4, #12]
 475 021a 032B     		cmp	r3, #3
 476 021c 3FF65DAF 		bhi	.L35
 477              	.LVL40:
 478              	.L15:
 236:../../../core/ST/STM32L4xx_HAL_Driver/Src/stm32l4xx_hal_gpio.c ****         temp &= ~(GPIO_OSPEEDR_OSPEED0 << (position * 2u));
 479              		.loc 1 236 9 view .LVU150
 236:../../../core/ST/STM32L4xx_HAL_Driver/Src/stm32l4xx_hal_gpio.c ****         temp &= ~(GPIO_OSPEEDR_OSPEED0 << (position * 2u));
 480              		.loc 1 236 14 is_stmt 0 view .LVU151
 481 0220 AA68     		ldr	r2, [r5, #8]
 482              	.LVL41:
 237:../../../core/ST/STM32L4xx_HAL_Driver/Src/stm32l4xx_hal_gpio.c ****         temp |= (GPIO_Init->Speed << (position * 2u));
 483              		.loc 1 237 9 is_stmt 1 view .LVU152
 237:../../../core/ST/STM32L4xx_HAL_Driver/Src/stm32l4xx_hal_gpio.c ****         temp |= (GPIO_Init->Speed << (position * 2u));
 484              		.loc 1 237 14 is_stmt 0 view .LVU153
 485 0222 09EA0202 		and	r2, r9, r2
 486              	.LVL42:
 238:../../../core/ST/STM32L4xx_HAL_Driver/Src/stm32l4xx_hal_gpio.c ****         GPIOx->OSPEEDR = temp;
 487              		.loc 1 238 9 is_stmt 1 view .LVU154
 238:../../../core/ST/STM32L4xx_HAL_Driver/Src/stm32l4xx_hal_gpio.c ****         GPIOx->OSPEEDR = temp;
 488              		.loc 1 238 27 is_stmt 0 view .LVU155
 489 0226 E368     		ldr	r3, [r4, #12]
 238:../../../core/ST/STM32L4xx_HAL_Driver/Src/stm32l4xx_hal_gpio.c ****         GPIOx->OSPEEDR = temp;
 490              		.loc 1 238 35 view .LVU156
 491 0228 03FA0AF3 		lsl	r3, r3, r10
 238:../../../core/ST/STM32L4xx_HAL_Driver/Src/stm32l4xx_hal_gpio.c ****         GPIOx->OSPEEDR = temp;
 492              		.loc 1 238 14 view .LVU157
 493 022c 1343     		orrs	r3, r3, r2
 494              	.LVL43:
 239:../../../core/ST/STM32L4xx_HAL_Driver/Src/stm32l4xx_hal_gpio.c **** 
 495              		.loc 1 239 9 is_stmt 1 view .LVU158
 239:../../../core/ST/STM32L4xx_HAL_Driver/Src/stm32l4xx_hal_gpio.c **** 
 496              		.loc 1 239 24 is_stmt 0 view .LVU159
 497 022e AB60     		str	r3, [r5, #8]
 242:../../../core/ST/STM32L4xx_HAL_Driver/Src/stm32l4xx_hal_gpio.c ****         temp &= ~(GPIO_OTYPER_OT0 << position) ;
 498              		.loc 1 242 9 is_stmt 1 view .LVU160
 242:../../../core/ST/STM32L4xx_HAL_Driver/Src/stm32l4xx_hal_gpio.c ****         temp &= ~(GPIO_OTYPER_OT0 << position) ;
 499              		.loc 1 242 14 is_stmt 0 view .LVU161
 500 0230 6B68     		ldr	r3, [r5, #4]
 501              	.LVL44:
 243:../../../core/ST/STM32L4xx_HAL_Driver/Src/stm32l4xx_hal_gpio.c ****         temp |= (((GPIO_Init->Mode & GPIO_OUTPUT_TYPE) >> 4u) << position);
 502              		.loc 1 243 9 is_stmt 1 view .LVU162
 243:../../../core/ST/STM32L4xx_HAL_Driver/Src/stm32l4xx_hal_gpio.c ****         temp |= (((GPIO_Init->Mode & GPIO_OUTPUT_TYPE) >> 4u) << position);
 503              		.loc 1 243 14 is_stmt 0 view .LVU163
 504 0232 23EA0808 		bic	r8, r3, r8
 505              	.LVL45:
 244:../../../core/ST/STM32L4xx_HAL_Driver/Src/stm32l4xx_hal_gpio.c ****         GPIOx->OTYPER = temp;
 506              		.loc 1 244 9 is_stmt 1 view .LVU164
 244:../../../core/ST/STM32L4xx_HAL_Driver/Src/stm32l4xx_hal_gpio.c ****         GPIOx->OTYPER = temp;
 507              		.loc 1 244 29 is_stmt 0 view .LVU165
 508 0236 6368     		ldr	r3, [r4, #4]
 244:../../../core/ST/STM32L4xx_HAL_Driver/Src/stm32l4xx_hal_gpio.c ****         GPIOx->OTYPER = temp;
 509              		.loc 1 244 56 view .LVU166
 510 0238 C3F30013 		ubfx	r3, r3, #4, #1
 244:../../../core/ST/STM32L4xx_HAL_Driver/Src/stm32l4xx_hal_gpio.c ****         GPIOx->OTYPER = temp;
ARM GAS  C:\Users\tomra\AppData\Local\Temp\ccgdrd7s.s 			page 17


 511              		.loc 1 244 63 view .LVU167
 512 023c BB40     		lsls	r3, r3, r7
 244:../../../core/ST/STM32L4xx_HAL_Driver/Src/stm32l4xx_hal_gpio.c ****         GPIOx->OTYPER = temp;
 513              		.loc 1 244 14 view .LVU168
 514 023e 43EA0803 		orr	r3, r3, r8
 515              	.LVL46:
 245:../../../core/ST/STM32L4xx_HAL_Driver/Src/stm32l4xx_hal_gpio.c ****       }
 516              		.loc 1 245 9 is_stmt 1 view .LVU169
 245:../../../core/ST/STM32L4xx_HAL_Driver/Src/stm32l4xx_hal_gpio.c ****       }
 517              		.loc 1 245 23 is_stmt 0 view .LVU170
 518 0242 6B60     		str	r3, [r5, #4]
 519              	.LVL47:
 520              	.L14:
 263:../../../core/ST/STM32L4xx_HAL_Driver/Src/stm32l4xx_hal_gpio.c ****       temp &= ~(GPIO_PUPDR_PUPD0 << (position * 2u));
 521              		.loc 1 263 7 is_stmt 1 view .LVU171
 263:../../../core/ST/STM32L4xx_HAL_Driver/Src/stm32l4xx_hal_gpio.c ****       temp &= ~(GPIO_PUPDR_PUPD0 << (position * 2u));
 522              		.loc 1 263 12 is_stmt 0 view .LVU172
 523 0244 EB68     		ldr	r3, [r5, #12]
 524              	.LVL48:
 264:../../../core/ST/STM32L4xx_HAL_Driver/Src/stm32l4xx_hal_gpio.c ****       temp |= ((GPIO_Init->Pull) << (position * 2u));
 525              		.loc 1 264 7 is_stmt 1 view .LVU173
 264:../../../core/ST/STM32L4xx_HAL_Driver/Src/stm32l4xx_hal_gpio.c ****       temp |= ((GPIO_Init->Pull) << (position * 2u));
 526              		.loc 1 264 12 is_stmt 0 view .LVU174
 527 0246 09EA0309 		and	r9, r9, r3
 528              	.LVL49:
 265:../../../core/ST/STM32L4xx_HAL_Driver/Src/stm32l4xx_hal_gpio.c ****       GPIOx->PUPDR = temp;
 529              		.loc 1 265 7 is_stmt 1 view .LVU175
 265:../../../core/ST/STM32L4xx_HAL_Driver/Src/stm32l4xx_hal_gpio.c ****       GPIOx->PUPDR = temp;
 530              		.loc 1 265 26 is_stmt 0 view .LVU176
 531 024a A368     		ldr	r3, [r4, #8]
 265:../../../core/ST/STM32L4xx_HAL_Driver/Src/stm32l4xx_hal_gpio.c ****       GPIOx->PUPDR = temp;
 532              		.loc 1 265 34 view .LVU177
 533 024c 03FA0AF3 		lsl	r3, r3, r10
 265:../../../core/ST/STM32L4xx_HAL_Driver/Src/stm32l4xx_hal_gpio.c ****       GPIOx->PUPDR = temp;
 534              		.loc 1 265 12 view .LVU178
 535 0250 43EA0903 		orr	r3, r3, r9
 536              	.LVL50:
 266:../../../core/ST/STM32L4xx_HAL_Driver/Src/stm32l4xx_hal_gpio.c **** 
 537              		.loc 1 266 7 is_stmt 1 view .LVU179
 266:../../../core/ST/STM32L4xx_HAL_Driver/Src/stm32l4xx_hal_gpio.c **** 
 538              		.loc 1 266 20 is_stmt 0 view .LVU180
 539 0254 EB60     		str	r3, [r5, #12]
 270:../../../core/ST/STM32L4xx_HAL_Driver/Src/stm32l4xx_hal_gpio.c ****       {
 540              		.loc 1 270 7 is_stmt 1 view .LVU181
 270:../../../core/ST/STM32L4xx_HAL_Driver/Src/stm32l4xx_hal_gpio.c ****       {
 541              		.loc 1 270 20 is_stmt 0 view .LVU182
 542 0256 6368     		ldr	r3, [r4, #4]
 543              	.LVL51:
 270:../../../core/ST/STM32L4xx_HAL_Driver/Src/stm32l4xx_hal_gpio.c ****       {
 544              		.loc 1 270 9 view .LVU183
 545 0258 13F0805F 		tst	r3, #268435456
 546 025c 3FF478AF 		beq	.L8
 273:../../../core/ST/STM32L4xx_HAL_Driver/Src/stm32l4xx_hal_gpio.c **** 
 547              		.loc 1 273 9 is_stmt 1 view .LVU184
 548              	.LBB2:
 273:../../../core/ST/STM32L4xx_HAL_Driver/Src/stm32l4xx_hal_gpio.c **** 
 549              		.loc 1 273 9 view .LVU185
ARM GAS  C:\Users\tomra\AppData\Local\Temp\ccgdrd7s.s 			page 18


 273:../../../core/ST/STM32L4xx_HAL_Driver/Src/stm32l4xx_hal_gpio.c **** 
 550              		.loc 1 273 9 view .LVU186
 551 0260 284B     		ldr	r3, .L37+20
 552 0262 1A6E     		ldr	r2, [r3, #96]
 553 0264 42F00102 		orr	r2, r2, #1
 554 0268 1A66     		str	r2, [r3, #96]
 555              	.LVL52:
 273:../../../core/ST/STM32L4xx_HAL_Driver/Src/stm32l4xx_hal_gpio.c **** 
 556              		.loc 1 273 9 view .LVU187
 557 026a 1B6E     		ldr	r3, [r3, #96]
 558 026c 03F00103 		and	r3, r3, #1
 559 0270 0193     		str	r3, [sp, #4]
 273:../../../core/ST/STM32L4xx_HAL_Driver/Src/stm32l4xx_hal_gpio.c **** 
 560              		.loc 1 273 9 view .LVU188
 561 0272 019B     		ldr	r3, [sp, #4]
 562              	.LBE2:
 273:../../../core/ST/STM32L4xx_HAL_Driver/Src/stm32l4xx_hal_gpio.c **** 
 563              		.loc 1 273 9 view .LVU189
 275:../../../core/ST/STM32L4xx_HAL_Driver/Src/stm32l4xx_hal_gpio.c ****         temp &= ~(0x0FuL << (4u * (position & 0x03u)));
 564              		.loc 1 275 9 view .LVU190
 275:../../../core/ST/STM32L4xx_HAL_Driver/Src/stm32l4xx_hal_gpio.c ****         temp &= ~(0x0FuL << (4u * (position & 0x03u)));
 565              		.loc 1 275 40 is_stmt 0 view .LVU191
 566 0274 BA08     		lsrs	r2, r7, #2
 275:../../../core/ST/STM32L4xx_HAL_Driver/Src/stm32l4xx_hal_gpio.c ****         temp &= ~(0x0FuL << (4u * (position & 0x03u)));
 567              		.loc 1 275 14 view .LVU192
 568 0276 911C     		adds	r1, r2, #2
 569 0278 204B     		ldr	r3, .L37+12
 570 027a 53F82100 		ldr	r0, [r3, r1, lsl #2]
 571              	.LVL53:
 276:../../../core/ST/STM32L4xx_HAL_Driver/Src/stm32l4xx_hal_gpio.c ****         temp |= (GPIO_GET_INDEX(GPIOx) << (4u * (position & 0x03u)));
 572              		.loc 1 276 9 is_stmt 1 view .LVU193
 276:../../../core/ST/STM32L4xx_HAL_Driver/Src/stm32l4xx_hal_gpio.c ****         temp |= (GPIO_GET_INDEX(GPIOx) << (4u * (position & 0x03u)));
 573              		.loc 1 276 45 is_stmt 0 view .LVU194
 574 027e 07F00303 		and	r3, r7, #3
 276:../../../core/ST/STM32L4xx_HAL_Driver/Src/stm32l4xx_hal_gpio.c ****         temp |= (GPIO_GET_INDEX(GPIOx) << (4u * (position & 0x03u)));
 575              		.loc 1 276 33 view .LVU195
 576 0282 9900     		lsls	r1, r3, #2
 276:../../../core/ST/STM32L4xx_HAL_Driver/Src/stm32l4xx_hal_gpio.c ****         temp |= (GPIO_GET_INDEX(GPIOx) << (4u * (position & 0x03u)));
 577              		.loc 1 276 26 view .LVU196
 578 0284 0F23     		movs	r3, #15
 579 0286 8B40     		lsls	r3, r3, r1
 276:../../../core/ST/STM32L4xx_HAL_Driver/Src/stm32l4xx_hal_gpio.c ****         temp |= (GPIO_GET_INDEX(GPIOx) << (4u * (position & 0x03u)));
 580              		.loc 1 276 14 view .LVU197
 581 0288 20EA0300 		bic	r0, r0, r3
 582              	.LVL54:
 277:../../../core/ST/STM32L4xx_HAL_Driver/Src/stm32l4xx_hal_gpio.c ****         SYSCFG->EXTICR[position >> 2u] = temp;
 583              		.loc 1 277 9 is_stmt 1 view .LVU198
 277:../../../core/ST/STM32L4xx_HAL_Driver/Src/stm32l4xx_hal_gpio.c ****         SYSCFG->EXTICR[position >> 2u] = temp;
 584              		.loc 1 277 18 is_stmt 0 view .LVU199
 585 028c B5F1904F 		cmp	r5, #1207959552
 586 0290 3FF42AAF 		beq	.L22
 277:../../../core/ST/STM32L4xx_HAL_Driver/Src/stm32l4xx_hal_gpio.c ****         SYSCFG->EXTICR[position >> 2u] = temp;
 587              		.loc 1 277 18 discriminator 1 view .LVU200
 588 0294 164B     		ldr	r3, .L37
 589 0296 9D42     		cmp	r5, r3
 590 0298 1AD0     		beq	.L23
 277:../../../core/ST/STM32L4xx_HAL_Driver/Src/stm32l4xx_hal_gpio.c ****         SYSCFG->EXTICR[position >> 2u] = temp;
ARM GAS  C:\Users\tomra\AppData\Local\Temp\ccgdrd7s.s 			page 19


 591              		.loc 1 277 18 discriminator 3 view .LVU201
 592 029a 03F58063 		add	r3, r3, #1024
 593 029e 9D42     		cmp	r5, r3
 594 02a0 18D0     		beq	.L24
 277:../../../core/ST/STM32L4xx_HAL_Driver/Src/stm32l4xx_hal_gpio.c ****         SYSCFG->EXTICR[position >> 2u] = temp;
 595              		.loc 1 277 18 discriminator 5 view .LVU202
 596 02a2 03F58063 		add	r3, r3, #1024
 597 02a6 9D42     		cmp	r5, r3
 598 02a8 16D0     		beq	.L25
 277:../../../core/ST/STM32L4xx_HAL_Driver/Src/stm32l4xx_hal_gpio.c ****         SYSCFG->EXTICR[position >> 2u] = temp;
 599              		.loc 1 277 18 discriminator 7 view .LVU203
 600 02aa 03F58063 		add	r3, r3, #1024
 601 02ae 9D42     		cmp	r5, r3
 602 02b0 14D0     		beq	.L26
 277:../../../core/ST/STM32L4xx_HAL_Driver/Src/stm32l4xx_hal_gpio.c ****         SYSCFG->EXTICR[position >> 2u] = temp;
 603              		.loc 1 277 18 discriminator 9 view .LVU204
 604 02b2 03F58063 		add	r3, r3, #1024
 605 02b6 9D42     		cmp	r5, r3
 606 02b8 12D0     		beq	.L27
 277:../../../core/ST/STM32L4xx_HAL_Driver/Src/stm32l4xx_hal_gpio.c ****         SYSCFG->EXTICR[position >> 2u] = temp;
 607              		.loc 1 277 18 discriminator 11 view .LVU205
 608 02ba 03F58063 		add	r3, r3, #1024
 609 02be 9D42     		cmp	r5, r3
 610 02c0 10D0     		beq	.L28
 277:../../../core/ST/STM32L4xx_HAL_Driver/Src/stm32l4xx_hal_gpio.c ****         SYSCFG->EXTICR[position >> 2u] = temp;
 611              		.loc 1 277 18 discriminator 13 view .LVU206
 612 02c2 03F58063 		add	r3, r3, #1024
 613 02c6 9D42     		cmp	r5, r3
 614 02c8 3FF40CAF 		beq	.L36
 277:../../../core/ST/STM32L4xx_HAL_Driver/Src/stm32l4xx_hal_gpio.c ****         SYSCFG->EXTICR[position >> 2u] = temp;
 615              		.loc 1 277 18 view .LVU207
 616 02cc 0823     		movs	r3, #8
 617 02ce 0CE7     		b	.L16
 618              	.L23:
 619 02d0 0123     		movs	r3, #1
 620 02d2 0AE7     		b	.L16
 621              	.L24:
 622 02d4 0223     		movs	r3, #2
 623 02d6 08E7     		b	.L16
 624              	.L25:
 625 02d8 0323     		movs	r3, #3
 626 02da 06E7     		b	.L16
 627              	.L26:
 628 02dc 0423     		movs	r3, #4
 629 02de 04E7     		b	.L16
 630              	.L27:
 631 02e0 0523     		movs	r3, #5
 632 02e2 02E7     		b	.L16
 633              	.L28:
 634 02e4 0623     		movs	r3, #6
 635 02e6 00E7     		b	.L16
 636              	.LVL55:
 637              	.L33:
 317:../../../core/ST/STM32L4xx_HAL_Driver/Src/stm32l4xx_hal_gpio.c ****   }
 318:../../../core/ST/STM32L4xx_HAL_Driver/Src/stm32l4xx_hal_gpio.c **** }
 638              		.loc 1 318 1 view .LVU208
 639 02e8 02B0     		add	sp, sp, #8
ARM GAS  C:\Users\tomra\AppData\Local\Temp\ccgdrd7s.s 			page 20


 640              	.LCFI2:
 641              		.cfi_def_cfa_offset 32
 642              		@ sp needed
 643 02ea BDE8F087 		pop	{r4, r5, r6, r7, r8, r9, r10, pc}
 644              	.LVL56:
 645              	.L38:
 646              		.loc 1 318 1 view .LVU209
 647 02ee 00BF     		.align	2
 648              	.L37:
 649 02f0 00040048 		.word	1207960576
 650 02f4 00000000 		.word	.LC0
 651 02f8 00001110 		.word	269549568
 652 02fc 00000140 		.word	1073807360
 653 0300 00040140 		.word	1073808384
 654 0304 00100240 		.word	1073876992
 655              		.cfi_endproc
 656              	.LFE123:
 658              		.section	.text.HAL_GPIO_DeInit,"ax",%progbits
 659              		.align	1
 660              		.global	HAL_GPIO_DeInit
 661              		.syntax unified
 662              		.thumb
 663              		.thumb_func
 664              		.fpu fpv4-sp-d16
 666              	HAL_GPIO_DeInit:
 667              	.LVL57:
 668              	.LFB124:
 319:../../../core/ST/STM32L4xx_HAL_Driver/Src/stm32l4xx_hal_gpio.c **** 
 320:../../../core/ST/STM32L4xx_HAL_Driver/Src/stm32l4xx_hal_gpio.c **** /**
 321:../../../core/ST/STM32L4xx_HAL_Driver/Src/stm32l4xx_hal_gpio.c ****   * @brief  De-initialize the GPIOx peripheral registers to their default reset values.
 322:../../../core/ST/STM32L4xx_HAL_Driver/Src/stm32l4xx_hal_gpio.c ****   * @param  GPIOx: where x can be (A..H) to select the GPIO peripheral for STM32L4 family
 323:../../../core/ST/STM32L4xx_HAL_Driver/Src/stm32l4xx_hal_gpio.c ****   * @param  GPIO_Pin: specifies the port bit to be written.
 324:../../../core/ST/STM32L4xx_HAL_Driver/Src/stm32l4xx_hal_gpio.c ****   *         This parameter can be any combination of GPIO_Pin_x where x can be (0..15).
 325:../../../core/ST/STM32L4xx_HAL_Driver/Src/stm32l4xx_hal_gpio.c ****   * @retval None
 326:../../../core/ST/STM32L4xx_HAL_Driver/Src/stm32l4xx_hal_gpio.c ****   */
 327:../../../core/ST/STM32L4xx_HAL_Driver/Src/stm32l4xx_hal_gpio.c **** void HAL_GPIO_DeInit(GPIO_TypeDef  *GPIOx, uint32_t GPIO_Pin)
 328:../../../core/ST/STM32L4xx_HAL_Driver/Src/stm32l4xx_hal_gpio.c **** {
 669              		.loc 1 328 1 is_stmt 1 view -0
 670              		.cfi_startproc
 671              		@ args = 0, pretend = 0, frame = 0
 672              		@ frame_needed = 0, uses_anonymous_args = 0
 673              		.loc 1 328 1 is_stmt 0 view .LVU211
 674 0000 F8B5     		push	{r3, r4, r5, r6, r7, lr}
 675              	.LCFI3:
 676              		.cfi_def_cfa_offset 24
 677              		.cfi_offset 3, -24
 678              		.cfi_offset 4, -20
 679              		.cfi_offset 5, -16
 680              		.cfi_offset 6, -12
 681              		.cfi_offset 7, -8
 682              		.cfi_offset 14, -4
 683 0002 0446     		mov	r4, r0
 684 0004 0D46     		mov	r5, r1
 329:../../../core/ST/STM32L4xx_HAL_Driver/Src/stm32l4xx_hal_gpio.c ****   uint32_t position = 0x00u;
 685              		.loc 1 329 3 is_stmt 1 view .LVU212
 686              	.LVL58:
 330:../../../core/ST/STM32L4xx_HAL_Driver/Src/stm32l4xx_hal_gpio.c ****   uint32_t iocurrent;
ARM GAS  C:\Users\tomra\AppData\Local\Temp\ccgdrd7s.s 			page 21


 687              		.loc 1 330 3 view .LVU213
 331:../../../core/ST/STM32L4xx_HAL_Driver/Src/stm32l4xx_hal_gpio.c ****   uint32_t tmp;
 688              		.loc 1 331 3 view .LVU214
 332:../../../core/ST/STM32L4xx_HAL_Driver/Src/stm32l4xx_hal_gpio.c **** 
 333:../../../core/ST/STM32L4xx_HAL_Driver/Src/stm32l4xx_hal_gpio.c ****   /* Check the parameters */
 334:../../../core/ST/STM32L4xx_HAL_Driver/Src/stm32l4xx_hal_gpio.c ****   assert_param(IS_GPIO_ALL_INSTANCE(GPIOx));
 689              		.loc 1 334 3 view .LVU215
 690 0006 B0F1904F 		cmp	r0, #1207959552
 691 000a 23D0     		beq	.L40
 692              		.loc 1 334 3 is_stmt 0 discriminator 1 view .LVU216
 693 000c 594B     		ldr	r3, .L59
 694 000e 9842     		cmp	r0, r3
 695 0010 20D0     		beq	.L40
 696              		.loc 1 334 3 discriminator 2 view .LVU217
 697 0012 03F58063 		add	r3, r3, #1024
 698 0016 9842     		cmp	r0, r3
 699 0018 1CD0     		beq	.L40
 700              		.loc 1 334 3 discriminator 3 view .LVU218
 701 001a 03F58063 		add	r3, r3, #1024
 702 001e 9842     		cmp	r0, r3
 703 0020 18D0     		beq	.L40
 704              		.loc 1 334 3 discriminator 4 view .LVU219
 705 0022 03F58063 		add	r3, r3, #1024
 706 0026 9842     		cmp	r0, r3
 707 0028 14D0     		beq	.L40
 708              		.loc 1 334 3 discriminator 5 view .LVU220
 709 002a 03F58063 		add	r3, r3, #1024
 710 002e 9842     		cmp	r0, r3
 711 0030 10D0     		beq	.L40
 712              		.loc 1 334 3 discriminator 6 view .LVU221
 713 0032 03F58063 		add	r3, r3, #1024
 714 0036 9842     		cmp	r0, r3
 715 0038 0CD0     		beq	.L40
 716              		.loc 1 334 3 discriminator 7 view .LVU222
 717 003a 03F58063 		add	r3, r3, #1024
 718 003e 9842     		cmp	r0, r3
 719 0040 08D0     		beq	.L40
 720              		.loc 1 334 3 discriminator 8 view .LVU223
 721 0042 03F58063 		add	r3, r3, #1024
 722 0046 9842     		cmp	r0, r3
 723 0048 04D0     		beq	.L40
 724              		.loc 1 334 3 discriminator 9 view .LVU224
 725 004a 4FF4A771 		mov	r1, #334
 726              	.LVL59:
 727              		.loc 1 334 3 discriminator 9 view .LVU225
 728 004e 4A48     		ldr	r0, .L59+4
 729              	.LVL60:
 730              		.loc 1 334 3 discriminator 9 view .LVU226
 731 0050 FFF7FEFF 		bl	assert_failed
 732              	.LVL61:
 733              	.L40:
 335:../../../core/ST/STM32L4xx_HAL_Driver/Src/stm32l4xx_hal_gpio.c ****   assert_param(IS_GPIO_PIN(GPIO_Pin));
 734              		.loc 1 335 3 is_stmt 1 view .LVU227
 735 0054 ABB2     		uxth	r3, r5
 736 0056 13B1     		cbz	r3, .L41
 737              		.loc 1 335 3 is_stmt 0 discriminator 2 view .LVU228
 738 0058 2B0C     		lsrs	r3, r5, #16
ARM GAS  C:\Users\tomra\AppData\Local\Temp\ccgdrd7s.s 			page 22


 739 005a 1B04     		lsls	r3, r3, #16
 740 005c 23B1     		cbz	r3, .L42
 741              	.L41:
 742              		.loc 1 335 3 discriminator 3 view .LVU229
 743 005e 40F24F11 		movw	r1, #335
 744 0062 4548     		ldr	r0, .L59+4
 745 0064 FFF7FEFF 		bl	assert_failed
 746              	.LVL62:
 747              	.L42:
 336:../../../core/ST/STM32L4xx_HAL_Driver/Src/stm32l4xx_hal_gpio.c **** 
 337:../../../core/ST/STM32L4xx_HAL_Driver/Src/stm32l4xx_hal_gpio.c ****   /* Configure the port pins */
 338:../../../core/ST/STM32L4xx_HAL_Driver/Src/stm32l4xx_hal_gpio.c ****   while ((GPIO_Pin >> position) != 0x00u)
 339:../../../core/ST/STM32L4xx_HAL_Driver/Src/stm32l4xx_hal_gpio.c ****   {
 340:../../../core/ST/STM32L4xx_HAL_Driver/Src/stm32l4xx_hal_gpio.c ****     /* Get current io position */
 341:../../../core/ST/STM32L4xx_HAL_Driver/Src/stm32l4xx_hal_gpio.c ****     iocurrent = (GPIO_Pin) & (1uL << position);
 342:../../../core/ST/STM32L4xx_HAL_Driver/Src/stm32l4xx_hal_gpio.c **** 
 343:../../../core/ST/STM32L4xx_HAL_Driver/Src/stm32l4xx_hal_gpio.c ****     if (iocurrent != 0x00u)
 344:../../../core/ST/STM32L4xx_HAL_Driver/Src/stm32l4xx_hal_gpio.c ****     {
 345:../../../core/ST/STM32L4xx_HAL_Driver/Src/stm32l4xx_hal_gpio.c ****       /*------------------------- GPIO Mode Configuration --------------------*/
 346:../../../core/ST/STM32L4xx_HAL_Driver/Src/stm32l4xx_hal_gpio.c ****       /* Configure IO in Analog Mode */
 347:../../../core/ST/STM32L4xx_HAL_Driver/Src/stm32l4xx_hal_gpio.c ****       GPIOx->MODER |= (GPIO_MODER_MODE0 << (position * 2u));
 348:../../../core/ST/STM32L4xx_HAL_Driver/Src/stm32l4xx_hal_gpio.c **** 
 349:../../../core/ST/STM32L4xx_HAL_Driver/Src/stm32l4xx_hal_gpio.c ****       /* Configure the default Alternate Function in current IO */
 350:../../../core/ST/STM32L4xx_HAL_Driver/Src/stm32l4xx_hal_gpio.c ****       GPIOx->AFR[position >> 3u] &= ~(0xFu << ((position & 0x07u) * 4u)) ;
 351:../../../core/ST/STM32L4xx_HAL_Driver/Src/stm32l4xx_hal_gpio.c **** 
 352:../../../core/ST/STM32L4xx_HAL_Driver/Src/stm32l4xx_hal_gpio.c ****       /* Configure the default value for IO Speed */
 353:../../../core/ST/STM32L4xx_HAL_Driver/Src/stm32l4xx_hal_gpio.c ****       GPIOx->OSPEEDR &= ~(GPIO_OSPEEDR_OSPEED0 << (position * 2u));
 354:../../../core/ST/STM32L4xx_HAL_Driver/Src/stm32l4xx_hal_gpio.c **** 
 355:../../../core/ST/STM32L4xx_HAL_Driver/Src/stm32l4xx_hal_gpio.c ****       /* Configure the default value IO Output Type */
 356:../../../core/ST/STM32L4xx_HAL_Driver/Src/stm32l4xx_hal_gpio.c ****       GPIOx->OTYPER  &= ~(GPIO_OTYPER_OT0 << position) ;
 357:../../../core/ST/STM32L4xx_HAL_Driver/Src/stm32l4xx_hal_gpio.c **** 
 358:../../../core/ST/STM32L4xx_HAL_Driver/Src/stm32l4xx_hal_gpio.c ****       /* Deactivate the Pull-up and Pull-down resistor for the current IO */
 359:../../../core/ST/STM32L4xx_HAL_Driver/Src/stm32l4xx_hal_gpio.c ****       GPIOx->PUPDR &= ~(GPIO_PUPDR_PUPD0 << (position * 2u));
 360:../../../core/ST/STM32L4xx_HAL_Driver/Src/stm32l4xx_hal_gpio.c **** 
 361:../../../core/ST/STM32L4xx_HAL_Driver/Src/stm32l4xx_hal_gpio.c **** #if defined(STM32L471xx) || defined(STM32L475xx) || defined(STM32L476xx) || defined(STM32L485xx) ||
 362:../../../core/ST/STM32L4xx_HAL_Driver/Src/stm32l4xx_hal_gpio.c ****       /* Deactivate the Control bit of Analog mode for the current IO */
 363:../../../core/ST/STM32L4xx_HAL_Driver/Src/stm32l4xx_hal_gpio.c ****       GPIOx->ASCR &= ~(GPIO_ASCR_ASC0<< position);
 364:../../../core/ST/STM32L4xx_HAL_Driver/Src/stm32l4xx_hal_gpio.c **** #endif /* STM32L471xx || STM32L475xx || STM32L476xx || STM32L485xx || STM32L486xx */
 365:../../../core/ST/STM32L4xx_HAL_Driver/Src/stm32l4xx_hal_gpio.c **** 
 366:../../../core/ST/STM32L4xx_HAL_Driver/Src/stm32l4xx_hal_gpio.c ****       /*------------------------- EXTI Mode Configuration --------------------*/
 367:../../../core/ST/STM32L4xx_HAL_Driver/Src/stm32l4xx_hal_gpio.c ****       /* Clear the External Interrupt or Event for the current IO */
 368:../../../core/ST/STM32L4xx_HAL_Driver/Src/stm32l4xx_hal_gpio.c **** 
 369:../../../core/ST/STM32L4xx_HAL_Driver/Src/stm32l4xx_hal_gpio.c ****       tmp = SYSCFG->EXTICR[position >> 2u];
 370:../../../core/ST/STM32L4xx_HAL_Driver/Src/stm32l4xx_hal_gpio.c ****       tmp &= (0x0FuL << (4u * (position & 0x03u)));
 371:../../../core/ST/STM32L4xx_HAL_Driver/Src/stm32l4xx_hal_gpio.c ****       if (tmp == (GPIO_GET_INDEX(GPIOx) << (4u * (position & 0x03u))))
 748              		.loc 1 371 19 view .LVU230
 749 0068 0023     		movs	r3, #0
 750 006a 07E0     		b	.L43
 751              	.LVL63:
 752              	.L58:
 753              		.loc 1 371 19 view .LVU231
 754 006c 0720     		movs	r0, #7
 755 006e 00E0     		b	.L45
 756              	.L47:
 757 0070 0020     		movs	r0, #0
 758              	.L45:
 759              		.loc 1 371 41 discriminator 32 view .LVU232
ARM GAS  C:\Users\tomra\AppData\Local\Temp\ccgdrd7s.s 			page 23


 760 0072 00FA02F2 		lsl	r2, r0, r2
 761              		.loc 1 371 10 discriminator 32 view .LVU233
 762 0076 8A42     		cmp	r2, r1
 763 0078 60D0     		beq	.L56
 764              	.LVL64:
 765              	.L44:
 372:../../../core/ST/STM32L4xx_HAL_Driver/Src/stm32l4xx_hal_gpio.c ****       {
 373:../../../core/ST/STM32L4xx_HAL_Driver/Src/stm32l4xx_hal_gpio.c ****         tmp = 0x0FuL << (4u * (position & 0x03u));
 374:../../../core/ST/STM32L4xx_HAL_Driver/Src/stm32l4xx_hal_gpio.c ****         SYSCFG->EXTICR[position >> 2u] &= ~tmp;
 375:../../../core/ST/STM32L4xx_HAL_Driver/Src/stm32l4xx_hal_gpio.c **** 
 376:../../../core/ST/STM32L4xx_HAL_Driver/Src/stm32l4xx_hal_gpio.c ****         /* Clear EXTI line configuration */
 377:../../../core/ST/STM32L4xx_HAL_Driver/Src/stm32l4xx_hal_gpio.c ****         EXTI->IMR1 &= ~(iocurrent);
 378:../../../core/ST/STM32L4xx_HAL_Driver/Src/stm32l4xx_hal_gpio.c ****         EXTI->EMR1 &= ~(iocurrent);
 379:../../../core/ST/STM32L4xx_HAL_Driver/Src/stm32l4xx_hal_gpio.c **** 
 380:../../../core/ST/STM32L4xx_HAL_Driver/Src/stm32l4xx_hal_gpio.c ****         /* Clear Rising Falling edge configuration */
 381:../../../core/ST/STM32L4xx_HAL_Driver/Src/stm32l4xx_hal_gpio.c ****         EXTI->RTSR1 &= ~(iocurrent);
 382:../../../core/ST/STM32L4xx_HAL_Driver/Src/stm32l4xx_hal_gpio.c ****         EXTI->FTSR1 &= ~(iocurrent);
 383:../../../core/ST/STM32L4xx_HAL_Driver/Src/stm32l4xx_hal_gpio.c ****       }
 384:../../../core/ST/STM32L4xx_HAL_Driver/Src/stm32l4xx_hal_gpio.c ****     }
 385:../../../core/ST/STM32L4xx_HAL_Driver/Src/stm32l4xx_hal_gpio.c **** 
 386:../../../core/ST/STM32L4xx_HAL_Driver/Src/stm32l4xx_hal_gpio.c ****     position++;
 766              		.loc 1 386 5 is_stmt 1 view .LVU234
 767              		.loc 1 386 13 is_stmt 0 view .LVU235
 768 007a 0133     		adds	r3, r3, #1
 769              	.LVL65:
 770              	.L43:
 338:../../../core/ST/STM32L4xx_HAL_Driver/Src/stm32l4xx_hal_gpio.c ****   {
 771              		.loc 1 338 9 is_stmt 1 view .LVU236
 772 007c 35FA03F2 		lsrs	r2, r5, r3
 773 0080 76D0     		beq	.L57
 341:../../../core/ST/STM32L4xx_HAL_Driver/Src/stm32l4xx_hal_gpio.c **** 
 774              		.loc 1 341 5 view .LVU237
 341:../../../core/ST/STM32L4xx_HAL_Driver/Src/stm32l4xx_hal_gpio.c **** 
 775              		.loc 1 341 35 is_stmt 0 view .LVU238
 776 0082 0122     		movs	r2, #1
 777 0084 9A40     		lsls	r2, r2, r3
 778              	.LVL66:
 343:../../../core/ST/STM32L4xx_HAL_Driver/Src/stm32l4xx_hal_gpio.c ****     {
 779              		.loc 1 343 5 is_stmt 1 view .LVU239
 343:../../../core/ST/STM32L4xx_HAL_Driver/Src/stm32l4xx_hal_gpio.c ****     {
 780              		.loc 1 343 8 is_stmt 0 view .LVU240
 781 0086 12EA050C 		ands	ip, r2, r5
 782              	.LVL67:
 343:../../../core/ST/STM32L4xx_HAL_Driver/Src/stm32l4xx_hal_gpio.c ****     {
 783              		.loc 1 343 8 view .LVU241
 784 008a F6D0     		beq	.L44
 347:../../../core/ST/STM32L4xx_HAL_Driver/Src/stm32l4xx_hal_gpio.c **** 
 785              		.loc 1 347 7 is_stmt 1 view .LVU242
 347:../../../core/ST/STM32L4xx_HAL_Driver/Src/stm32l4xx_hal_gpio.c **** 
 786              		.loc 1 347 20 is_stmt 0 view .LVU243
 787 008c 2068     		ldr	r0, [r4]
 347:../../../core/ST/STM32L4xx_HAL_Driver/Src/stm32l4xx_hal_gpio.c **** 
 788              		.loc 1 347 54 view .LVU244
 789 008e 5900     		lsls	r1, r3, #1
 347:../../../core/ST/STM32L4xx_HAL_Driver/Src/stm32l4xx_hal_gpio.c **** 
 790              		.loc 1 347 41 view .LVU245
 791 0090 0326     		movs	r6, #3
ARM GAS  C:\Users\tomra\AppData\Local\Temp\ccgdrd7s.s 			page 24


 792 0092 06FA01F1 		lsl	r1, r6, r1
 347:../../../core/ST/STM32L4xx_HAL_Driver/Src/stm32l4xx_hal_gpio.c **** 
 793              		.loc 1 347 20 view .LVU246
 794 0096 0843     		orrs	r0, r0, r1
 795 0098 2060     		str	r0, [r4]
 350:../../../core/ST/STM32L4xx_HAL_Driver/Src/stm32l4xx_hal_gpio.c **** 
 796              		.loc 1 350 7 is_stmt 1 view .LVU247
 350:../../../core/ST/STM32L4xx_HAL_Driver/Src/stm32l4xx_hal_gpio.c **** 
 797              		.loc 1 350 34 is_stmt 0 view .LVU248
 798 009a 23FA06F7 		lsr	r7, r3, r6
 799 009e 0837     		adds	r7, r7, #8
 800 00a0 54F827E0 		ldr	lr, [r4, r7, lsl #2]
 350:../../../core/ST/STM32L4xx_HAL_Driver/Src/stm32l4xx_hal_gpio.c **** 
 801              		.loc 1 350 58 view .LVU249
 802 00a4 03F00700 		and	r0, r3, #7
 350:../../../core/ST/STM32L4xx_HAL_Driver/Src/stm32l4xx_hal_gpio.c **** 
 803              		.loc 1 350 67 view .LVU250
 804 00a8 8000     		lsls	r0, r0, #2
 350:../../../core/ST/STM32L4xx_HAL_Driver/Src/stm32l4xx_hal_gpio.c **** 
 805              		.loc 1 350 44 view .LVU251
 806 00aa 0F26     		movs	r6, #15
 807 00ac 06FA00F0 		lsl	r0, r6, r0
 350:../../../core/ST/STM32L4xx_HAL_Driver/Src/stm32l4xx_hal_gpio.c **** 
 808              		.loc 1 350 34 view .LVU252
 809 00b0 2EEA0000 		bic	r0, lr, r0
 810 00b4 44F82700 		str	r0, [r4, r7, lsl #2]
 353:../../../core/ST/STM32L4xx_HAL_Driver/Src/stm32l4xx_hal_gpio.c **** 
 811              		.loc 1 353 7 is_stmt 1 view .LVU253
 353:../../../core/ST/STM32L4xx_HAL_Driver/Src/stm32l4xx_hal_gpio.c **** 
 812              		.loc 1 353 22 is_stmt 0 view .LVU254
 813 00b8 A068     		ldr	r0, [r4, #8]
 814 00ba 20EA0100 		bic	r0, r0, r1
 815 00be A060     		str	r0, [r4, #8]
 356:../../../core/ST/STM32L4xx_HAL_Driver/Src/stm32l4xx_hal_gpio.c **** 
 816              		.loc 1 356 7 is_stmt 1 view .LVU255
 356:../../../core/ST/STM32L4xx_HAL_Driver/Src/stm32l4xx_hal_gpio.c **** 
 817              		.loc 1 356 22 is_stmt 0 view .LVU256
 818 00c0 6068     		ldr	r0, [r4, #4]
 819 00c2 20EA0202 		bic	r2, r0, r2
 820 00c6 6260     		str	r2, [r4, #4]
 359:../../../core/ST/STM32L4xx_HAL_Driver/Src/stm32l4xx_hal_gpio.c **** 
 821              		.loc 1 359 7 is_stmt 1 view .LVU257
 359:../../../core/ST/STM32L4xx_HAL_Driver/Src/stm32l4xx_hal_gpio.c **** 
 822              		.loc 1 359 20 is_stmt 0 view .LVU258
 823 00c8 E268     		ldr	r2, [r4, #12]
 824 00ca 22EA0101 		bic	r1, r2, r1
 825 00ce E160     		str	r1, [r4, #12]
 369:../../../core/ST/STM32L4xx_HAL_Driver/Src/stm32l4xx_hal_gpio.c ****       tmp &= (0x0FuL << (4u * (position & 0x03u)));
 826              		.loc 1 369 7 is_stmt 1 view .LVU259
 369:../../../core/ST/STM32L4xx_HAL_Driver/Src/stm32l4xx_hal_gpio.c ****       tmp &= (0x0FuL << (4u * (position & 0x03u)));
 827              		.loc 1 369 37 is_stmt 0 view .LVU260
 828 00d0 9F08     		lsrs	r7, r3, #2
 369:../../../core/ST/STM32L4xx_HAL_Driver/Src/stm32l4xx_hal_gpio.c ****       tmp &= (0x0FuL << (4u * (position & 0x03u)));
 829              		.loc 1 369 11 view .LVU261
 830 00d2 B91C     		adds	r1, r7, #2
 831 00d4 294A     		ldr	r2, .L59+8
 832 00d6 52F82110 		ldr	r1, [r2, r1, lsl #2]
ARM GAS  C:\Users\tomra\AppData\Local\Temp\ccgdrd7s.s 			page 25


 833              	.LVL68:
 370:../../../core/ST/STM32L4xx_HAL_Driver/Src/stm32l4xx_hal_gpio.c ****       if (tmp == (GPIO_GET_INDEX(GPIOx) << (4u * (position & 0x03u))))
 834              		.loc 1 370 7 is_stmt 1 view .LVU262
 370:../../../core/ST/STM32L4xx_HAL_Driver/Src/stm32l4xx_hal_gpio.c ****       if (tmp == (GPIO_GET_INDEX(GPIOx) << (4u * (position & 0x03u))))
 835              		.loc 1 370 41 is_stmt 0 view .LVU263
 836 00da 03F00302 		and	r2, r3, #3
 370:../../../core/ST/STM32L4xx_HAL_Driver/Src/stm32l4xx_hal_gpio.c ****       if (tmp == (GPIO_GET_INDEX(GPIOx) << (4u * (position & 0x03u))))
 837              		.loc 1 370 29 view .LVU264
 838 00de 9200     		lsls	r2, r2, #2
 370:../../../core/ST/STM32L4xx_HAL_Driver/Src/stm32l4xx_hal_gpio.c ****       if (tmp == (GPIO_GET_INDEX(GPIOx) << (4u * (position & 0x03u))))
 839              		.loc 1 370 22 view .LVU265
 840 00e0 9640     		lsls	r6, r6, r2
 370:../../../core/ST/STM32L4xx_HAL_Driver/Src/stm32l4xx_hal_gpio.c ****       if (tmp == (GPIO_GET_INDEX(GPIOx) << (4u * (position & 0x03u))))
 841              		.loc 1 370 11 view .LVU266
 842 00e2 3140     		ands	r1, r1, r6
 843              	.LVL69:
 371:../../../core/ST/STM32L4xx_HAL_Driver/Src/stm32l4xx_hal_gpio.c ****       {
 844              		.loc 1 371 7 is_stmt 1 view .LVU267
 371:../../../core/ST/STM32L4xx_HAL_Driver/Src/stm32l4xx_hal_gpio.c ****       {
 845              		.loc 1 371 19 is_stmt 0 view .LVU268
 846 00e4 B4F1904F 		cmp	r4, #1207959552
 847 00e8 C2D0     		beq	.L47
 371:../../../core/ST/STM32L4xx_HAL_Driver/Src/stm32l4xx_hal_gpio.c ****       {
 848              		.loc 1 371 19 discriminator 1 view .LVU269
 849 00ea 2248     		ldr	r0, .L59
 850 00ec 8442     		cmp	r4, r0
 851 00ee 19D0     		beq	.L48
 371:../../../core/ST/STM32L4xx_HAL_Driver/Src/stm32l4xx_hal_gpio.c ****       {
 852              		.loc 1 371 19 discriminator 3 view .LVU270
 853 00f0 00F58060 		add	r0, r0, #1024
 854 00f4 8442     		cmp	r4, r0
 855 00f6 17D0     		beq	.L49
 371:../../../core/ST/STM32L4xx_HAL_Driver/Src/stm32l4xx_hal_gpio.c ****       {
 856              		.loc 1 371 19 discriminator 5 view .LVU271
 857 00f8 00F58060 		add	r0, r0, #1024
 858 00fc 8442     		cmp	r4, r0
 859 00fe 15D0     		beq	.L50
 371:../../../core/ST/STM32L4xx_HAL_Driver/Src/stm32l4xx_hal_gpio.c ****       {
 860              		.loc 1 371 19 discriminator 7 view .LVU272
 861 0100 00F58060 		add	r0, r0, #1024
 862 0104 8442     		cmp	r4, r0
 863 0106 13D0     		beq	.L51
 371:../../../core/ST/STM32L4xx_HAL_Driver/Src/stm32l4xx_hal_gpio.c ****       {
 864              		.loc 1 371 19 discriminator 9 view .LVU273
 865 0108 00F58060 		add	r0, r0, #1024
 866 010c 8442     		cmp	r4, r0
 867 010e 11D0     		beq	.L52
 371:../../../core/ST/STM32L4xx_HAL_Driver/Src/stm32l4xx_hal_gpio.c ****       {
 868              		.loc 1 371 19 discriminator 11 view .LVU274
 869 0110 00F58060 		add	r0, r0, #1024
 870 0114 8442     		cmp	r4, r0
 871 0116 0FD0     		beq	.L53
 371:../../../core/ST/STM32L4xx_HAL_Driver/Src/stm32l4xx_hal_gpio.c ****       {
 872              		.loc 1 371 19 discriminator 13 view .LVU275
 873 0118 00F58060 		add	r0, r0, #1024
 874 011c 8442     		cmp	r4, r0
 875 011e A5D0     		beq	.L58
ARM GAS  C:\Users\tomra\AppData\Local\Temp\ccgdrd7s.s 			page 26


 371:../../../core/ST/STM32L4xx_HAL_Driver/Src/stm32l4xx_hal_gpio.c ****       {
 876              		.loc 1 371 19 view .LVU276
 877 0120 0820     		movs	r0, #8
 878 0122 A6E7     		b	.L45
 879              	.L48:
 880 0124 0120     		movs	r0, #1
 881 0126 A4E7     		b	.L45
 882              	.L49:
 883 0128 0220     		movs	r0, #2
 884 012a A2E7     		b	.L45
 885              	.L50:
 886 012c 0320     		movs	r0, #3
 887 012e A0E7     		b	.L45
 888              	.L51:
 889 0130 0420     		movs	r0, #4
 890 0132 9EE7     		b	.L45
 891              	.L52:
 892 0134 0520     		movs	r0, #5
 893 0136 9CE7     		b	.L45
 894              	.L53:
 895 0138 0620     		movs	r0, #6
 896 013a 9AE7     		b	.L45
 897              	.L56:
 373:../../../core/ST/STM32L4xx_HAL_Driver/Src/stm32l4xx_hal_gpio.c ****         SYSCFG->EXTICR[position >> 2u] &= ~tmp;
 898              		.loc 1 373 9 is_stmt 1 view .LVU277
 899              	.LVL70:
 374:../../../core/ST/STM32L4xx_HAL_Driver/Src/stm32l4xx_hal_gpio.c **** 
 900              		.loc 1 374 9 view .LVU278
 374:../../../core/ST/STM32L4xx_HAL_Driver/Src/stm32l4xx_hal_gpio.c **** 
 901              		.loc 1 374 40 is_stmt 0 view .LVU279
 902 013c 0F48     		ldr	r0, .L59+8
 903 013e BA1C     		adds	r2, r7, #2
 904 0140 50F82210 		ldr	r1, [r0, r2, lsl #2]
 905 0144 21EA0606 		bic	r6, r1, r6
 906              	.LVL71:
 374:../../../core/ST/STM32L4xx_HAL_Driver/Src/stm32l4xx_hal_gpio.c **** 
 907              		.loc 1 374 40 view .LVU280
 908 0148 40F82260 		str	r6, [r0, r2, lsl #2]
 377:../../../core/ST/STM32L4xx_HAL_Driver/Src/stm32l4xx_hal_gpio.c ****         EXTI->EMR1 &= ~(iocurrent);
 909              		.loc 1 377 9 is_stmt 1 view .LVU281
 377:../../../core/ST/STM32L4xx_HAL_Driver/Src/stm32l4xx_hal_gpio.c ****         EXTI->EMR1 &= ~(iocurrent);
 910              		.loc 1 377 20 is_stmt 0 view .LVU282
 911 014c 0C4A     		ldr	r2, .L59+12
 912 014e 1168     		ldr	r1, [r2]
 913 0150 21EA0C01 		bic	r1, r1, ip
 914 0154 1160     		str	r1, [r2]
 378:../../../core/ST/STM32L4xx_HAL_Driver/Src/stm32l4xx_hal_gpio.c **** 
 915              		.loc 1 378 9 is_stmt 1 view .LVU283
 378:../../../core/ST/STM32L4xx_HAL_Driver/Src/stm32l4xx_hal_gpio.c **** 
 916              		.loc 1 378 20 is_stmt 0 view .LVU284
 917 0156 5168     		ldr	r1, [r2, #4]
 918 0158 21EA0C01 		bic	r1, r1, ip
 919 015c 5160     		str	r1, [r2, #4]
 381:../../../core/ST/STM32L4xx_HAL_Driver/Src/stm32l4xx_hal_gpio.c ****         EXTI->FTSR1 &= ~(iocurrent);
 920              		.loc 1 381 9 is_stmt 1 view .LVU285
 381:../../../core/ST/STM32L4xx_HAL_Driver/Src/stm32l4xx_hal_gpio.c ****         EXTI->FTSR1 &= ~(iocurrent);
 921              		.loc 1 381 21 is_stmt 0 view .LVU286
ARM GAS  C:\Users\tomra\AppData\Local\Temp\ccgdrd7s.s 			page 27


 922 015e 9168     		ldr	r1, [r2, #8]
 923 0160 21EA0C01 		bic	r1, r1, ip
 924 0164 9160     		str	r1, [r2, #8]
 382:../../../core/ST/STM32L4xx_HAL_Driver/Src/stm32l4xx_hal_gpio.c ****       }
 925              		.loc 1 382 9 is_stmt 1 view .LVU287
 382:../../../core/ST/STM32L4xx_HAL_Driver/Src/stm32l4xx_hal_gpio.c ****       }
 926              		.loc 1 382 21 is_stmt 0 view .LVU288
 927 0166 D168     		ldr	r1, [r2, #12]
 928 0168 21EA0C01 		bic	r1, r1, ip
 929 016c D160     		str	r1, [r2, #12]
 930 016e 84E7     		b	.L44
 931              	.LVL72:
 932              	.L57:
 387:../../../core/ST/STM32L4xx_HAL_Driver/Src/stm32l4xx_hal_gpio.c ****   }
 388:../../../core/ST/STM32L4xx_HAL_Driver/Src/stm32l4xx_hal_gpio.c **** }
 933              		.loc 1 388 1 view .LVU289
 934 0170 F8BD     		pop	{r3, r4, r5, r6, r7, pc}
 935              	.LVL73:
 936              	.L60:
 937              		.loc 1 388 1 view .LVU290
 938 0172 00BF     		.align	2
 939              	.L59:
 940 0174 00040048 		.word	1207960576
 941 0178 00000000 		.word	.LC0
 942 017c 00000140 		.word	1073807360
 943 0180 00040140 		.word	1073808384
 944              		.cfi_endproc
 945              	.LFE124:
 947              		.section	.text.HAL_GPIO_ReadPin,"ax",%progbits
 948              		.align	1
 949              		.global	HAL_GPIO_ReadPin
 950              		.syntax unified
 951              		.thumb
 952              		.thumb_func
 953              		.fpu fpv4-sp-d16
 955              	HAL_GPIO_ReadPin:
 956              	.LVL74:
 957              	.LFB125:
 389:../../../core/ST/STM32L4xx_HAL_Driver/Src/stm32l4xx_hal_gpio.c **** 
 390:../../../core/ST/STM32L4xx_HAL_Driver/Src/stm32l4xx_hal_gpio.c **** /**
 391:../../../core/ST/STM32L4xx_HAL_Driver/Src/stm32l4xx_hal_gpio.c ****   * @}
 392:../../../core/ST/STM32L4xx_HAL_Driver/Src/stm32l4xx_hal_gpio.c ****   */
 393:../../../core/ST/STM32L4xx_HAL_Driver/Src/stm32l4xx_hal_gpio.c **** 
 394:../../../core/ST/STM32L4xx_HAL_Driver/Src/stm32l4xx_hal_gpio.c **** /** @defgroup GPIO_Exported_Functions_Group2 IO operation functions
 395:../../../core/ST/STM32L4xx_HAL_Driver/Src/stm32l4xx_hal_gpio.c ****  *  @brief GPIO Read, Write, Toggle, Lock and EXTI management functions.
 396:../../../core/ST/STM32L4xx_HAL_Driver/Src/stm32l4xx_hal_gpio.c ****  *
 397:../../../core/ST/STM32L4xx_HAL_Driver/Src/stm32l4xx_hal_gpio.c **** @verbatim
 398:../../../core/ST/STM32L4xx_HAL_Driver/Src/stm32l4xx_hal_gpio.c ****  ===============================================================================
 399:../../../core/ST/STM32L4xx_HAL_Driver/Src/stm32l4xx_hal_gpio.c ****                        ##### IO operation functions #####
 400:../../../core/ST/STM32L4xx_HAL_Driver/Src/stm32l4xx_hal_gpio.c ****  ===============================================================================
 401:../../../core/ST/STM32L4xx_HAL_Driver/Src/stm32l4xx_hal_gpio.c **** 
 402:../../../core/ST/STM32L4xx_HAL_Driver/Src/stm32l4xx_hal_gpio.c **** @endverbatim
 403:../../../core/ST/STM32L4xx_HAL_Driver/Src/stm32l4xx_hal_gpio.c ****   * @{
 404:../../../core/ST/STM32L4xx_HAL_Driver/Src/stm32l4xx_hal_gpio.c ****   */
 405:../../../core/ST/STM32L4xx_HAL_Driver/Src/stm32l4xx_hal_gpio.c **** 
 406:../../../core/ST/STM32L4xx_HAL_Driver/Src/stm32l4xx_hal_gpio.c **** /**
 407:../../../core/ST/STM32L4xx_HAL_Driver/Src/stm32l4xx_hal_gpio.c ****   * @brief  Read the specified input port pin.
ARM GAS  C:\Users\tomra\AppData\Local\Temp\ccgdrd7s.s 			page 28


 408:../../../core/ST/STM32L4xx_HAL_Driver/Src/stm32l4xx_hal_gpio.c ****   * @param  GPIOx: where x can be (A..H) to select the GPIO peripheral for STM32L4 family
 409:../../../core/ST/STM32L4xx_HAL_Driver/Src/stm32l4xx_hal_gpio.c ****   * @param  GPIO_Pin: specifies the port bit to read.
 410:../../../core/ST/STM32L4xx_HAL_Driver/Src/stm32l4xx_hal_gpio.c ****   *         This parameter can be any combination of GPIO_Pin_x where x can be (0..15).
 411:../../../core/ST/STM32L4xx_HAL_Driver/Src/stm32l4xx_hal_gpio.c ****   * @retval The input port pin value.
 412:../../../core/ST/STM32L4xx_HAL_Driver/Src/stm32l4xx_hal_gpio.c ****   */
 413:../../../core/ST/STM32L4xx_HAL_Driver/Src/stm32l4xx_hal_gpio.c **** GPIO_PinState HAL_GPIO_ReadPin(GPIO_TypeDef* GPIOx, uint16_t GPIO_Pin)
 414:../../../core/ST/STM32L4xx_HAL_Driver/Src/stm32l4xx_hal_gpio.c **** {
 958              		.loc 1 414 1 is_stmt 1 view -0
 959              		.cfi_startproc
 960              		@ args = 0, pretend = 0, frame = 0
 961              		@ frame_needed = 0, uses_anonymous_args = 0
 962              		.loc 1 414 1 is_stmt 0 view .LVU292
 963 0000 38B5     		push	{r3, r4, r5, lr}
 964              	.LCFI4:
 965              		.cfi_def_cfa_offset 16
 966              		.cfi_offset 3, -16
 967              		.cfi_offset 4, -12
 968              		.cfi_offset 5, -8
 969              		.cfi_offset 14, -4
 970 0002 0446     		mov	r4, r0
 415:../../../core/ST/STM32L4xx_HAL_Driver/Src/stm32l4xx_hal_gpio.c ****   GPIO_PinState bitstatus;
 971              		.loc 1 415 3 is_stmt 1 view .LVU293
 416:../../../core/ST/STM32L4xx_HAL_Driver/Src/stm32l4xx_hal_gpio.c **** 
 417:../../../core/ST/STM32L4xx_HAL_Driver/Src/stm32l4xx_hal_gpio.c ****   /* Check the parameters */
 418:../../../core/ST/STM32L4xx_HAL_Driver/Src/stm32l4xx_hal_gpio.c ****   assert_param(IS_GPIO_PIN(GPIO_Pin));
 972              		.loc 1 418 3 view .LVU294
 973 0004 0D46     		mov	r5, r1
 974 0006 21B1     		cbz	r1, .L67
 975              	.LVL75:
 976              	.L63:
 419:../../../core/ST/STM32L4xx_HAL_Driver/Src/stm32l4xx_hal_gpio.c **** 
 420:../../../core/ST/STM32L4xx_HAL_Driver/Src/stm32l4xx_hal_gpio.c ****   if ((GPIOx->IDR & GPIO_Pin) != 0x00u)
 977              		.loc 1 420 3 view .LVU295
 978              		.loc 1 420 13 is_stmt 0 view .LVU296
 979 0008 2369     		ldr	r3, [r4, #16]
 980              		.loc 1 420 6 view .LVU297
 981 000a 1D42     		tst	r5, r3
 982 000c 07D0     		beq	.L65
 421:../../../core/ST/STM32L4xx_HAL_Driver/Src/stm32l4xx_hal_gpio.c ****   {
 422:../../../core/ST/STM32L4xx_HAL_Driver/Src/stm32l4xx_hal_gpio.c ****     bitstatus = GPIO_PIN_SET;
 983              		.loc 1 422 15 view .LVU298
 984 000e 0120     		movs	r0, #1
 985              	.L64:
 986              	.LVL76:
 423:../../../core/ST/STM32L4xx_HAL_Driver/Src/stm32l4xx_hal_gpio.c ****   }
 424:../../../core/ST/STM32L4xx_HAL_Driver/Src/stm32l4xx_hal_gpio.c ****   else
 425:../../../core/ST/STM32L4xx_HAL_Driver/Src/stm32l4xx_hal_gpio.c ****   {
 426:../../../core/ST/STM32L4xx_HAL_Driver/Src/stm32l4xx_hal_gpio.c ****     bitstatus = GPIO_PIN_RESET;
 427:../../../core/ST/STM32L4xx_HAL_Driver/Src/stm32l4xx_hal_gpio.c ****   }
 428:../../../core/ST/STM32L4xx_HAL_Driver/Src/stm32l4xx_hal_gpio.c ****   return bitstatus;
 987              		.loc 1 428 3 is_stmt 1 view .LVU299
 429:../../../core/ST/STM32L4xx_HAL_Driver/Src/stm32l4xx_hal_gpio.c **** }
 988              		.loc 1 429 1 is_stmt 0 view .LVU300
 989 0010 38BD     		pop	{r3, r4, r5, pc}
 990              	.LVL77:
 991              	.L67:
 418:../../../core/ST/STM32L4xx_HAL_Driver/Src/stm32l4xx_hal_gpio.c **** 
ARM GAS  C:\Users\tomra\AppData\Local\Temp\ccgdrd7s.s 			page 29


 992              		.loc 1 418 3 discriminator 3 view .LVU301
 993 0012 4FF4D171 		mov	r1, #418
 994              	.LVL78:
 418:../../../core/ST/STM32L4xx_HAL_Driver/Src/stm32l4xx_hal_gpio.c **** 
 995              		.loc 1 418 3 discriminator 3 view .LVU302
 996 0016 0348     		ldr	r0, .L68
 997              	.LVL79:
 418:../../../core/ST/STM32L4xx_HAL_Driver/Src/stm32l4xx_hal_gpio.c **** 
 998              		.loc 1 418 3 discriminator 3 view .LVU303
 999 0018 FFF7FEFF 		bl	assert_failed
 1000              	.LVL80:
 1001 001c F4E7     		b	.L63
 1002              	.L65:
 426:../../../core/ST/STM32L4xx_HAL_Driver/Src/stm32l4xx_hal_gpio.c ****   }
 1003              		.loc 1 426 15 view .LVU304
 1004 001e 0020     		movs	r0, #0
 1005 0020 F6E7     		b	.L64
 1006              	.L69:
 1007 0022 00BF     		.align	2
 1008              	.L68:
 1009 0024 00000000 		.word	.LC0
 1010              		.cfi_endproc
 1011              	.LFE125:
 1013              		.section	.text.HAL_GPIO_WritePin,"ax",%progbits
 1014              		.align	1
 1015              		.global	HAL_GPIO_WritePin
 1016              		.syntax unified
 1017              		.thumb
 1018              		.thumb_func
 1019              		.fpu fpv4-sp-d16
 1021              	HAL_GPIO_WritePin:
 1022              	.LVL81:
 1023              	.LFB126:
 430:../../../core/ST/STM32L4xx_HAL_Driver/Src/stm32l4xx_hal_gpio.c **** 
 431:../../../core/ST/STM32L4xx_HAL_Driver/Src/stm32l4xx_hal_gpio.c **** /**
 432:../../../core/ST/STM32L4xx_HAL_Driver/Src/stm32l4xx_hal_gpio.c ****   * @brief  Set or clear the selected data port bit.
 433:../../../core/ST/STM32L4xx_HAL_Driver/Src/stm32l4xx_hal_gpio.c ****   *
 434:../../../core/ST/STM32L4xx_HAL_Driver/Src/stm32l4xx_hal_gpio.c ****   * @note   This function uses GPIOx_BSRR and GPIOx_BRR registers to allow atomic read/modify
 435:../../../core/ST/STM32L4xx_HAL_Driver/Src/stm32l4xx_hal_gpio.c ****   *         accesses. In this way, there is no risk of an IRQ occurring between
 436:../../../core/ST/STM32L4xx_HAL_Driver/Src/stm32l4xx_hal_gpio.c ****   *         the read and the modify access.
 437:../../../core/ST/STM32L4xx_HAL_Driver/Src/stm32l4xx_hal_gpio.c ****   *
 438:../../../core/ST/STM32L4xx_HAL_Driver/Src/stm32l4xx_hal_gpio.c ****   * @param  GPIOx where x can be (A..H) to select the GPIO peripheral for STM32L4 family
 439:../../../core/ST/STM32L4xx_HAL_Driver/Src/stm32l4xx_hal_gpio.c ****   * @param  GPIO_Pin specifies the port bit to be written.
 440:../../../core/ST/STM32L4xx_HAL_Driver/Src/stm32l4xx_hal_gpio.c ****   *         This parameter can be any combination of GPIO_Pin_x where x can be (0..15).
 441:../../../core/ST/STM32L4xx_HAL_Driver/Src/stm32l4xx_hal_gpio.c ****   * @param  PinState specifies the value to be written to the selected bit.
 442:../../../core/ST/STM32L4xx_HAL_Driver/Src/stm32l4xx_hal_gpio.c ****   *         This parameter can be one of the GPIO_PinState enum values:
 443:../../../core/ST/STM32L4xx_HAL_Driver/Src/stm32l4xx_hal_gpio.c ****   *            @arg GPIO_PIN_RESET: to clear the port pin
 444:../../../core/ST/STM32L4xx_HAL_Driver/Src/stm32l4xx_hal_gpio.c ****   *            @arg GPIO_PIN_SET: to set the port pin
 445:../../../core/ST/STM32L4xx_HAL_Driver/Src/stm32l4xx_hal_gpio.c ****   * @retval None
 446:../../../core/ST/STM32L4xx_HAL_Driver/Src/stm32l4xx_hal_gpio.c ****   */
 447:../../../core/ST/STM32L4xx_HAL_Driver/Src/stm32l4xx_hal_gpio.c **** void HAL_GPIO_WritePin(GPIO_TypeDef* GPIOx, uint16_t GPIO_Pin, GPIO_PinState PinState)
 448:../../../core/ST/STM32L4xx_HAL_Driver/Src/stm32l4xx_hal_gpio.c **** {
 1024              		.loc 1 448 1 is_stmt 1 view -0
 1025              		.cfi_startproc
 1026              		@ args = 0, pretend = 0, frame = 0
 1027              		@ frame_needed = 0, uses_anonymous_args = 0
 1028              		.loc 1 448 1 is_stmt 0 view .LVU306
ARM GAS  C:\Users\tomra\AppData\Local\Temp\ccgdrd7s.s 			page 30


 1029 0000 70B5     		push	{r4, r5, r6, lr}
 1030              	.LCFI5:
 1031              		.cfi_def_cfa_offset 16
 1032              		.cfi_offset 4, -16
 1033              		.cfi_offset 5, -12
 1034              		.cfi_offset 6, -8
 1035              		.cfi_offset 14, -4
 1036 0002 0546     		mov	r5, r0
 1037 0004 1446     		mov	r4, r2
 449:../../../core/ST/STM32L4xx_HAL_Driver/Src/stm32l4xx_hal_gpio.c ****   /* Check the parameters */
 450:../../../core/ST/STM32L4xx_HAL_Driver/Src/stm32l4xx_hal_gpio.c ****   assert_param(IS_GPIO_PIN(GPIO_Pin));
 1038              		.loc 1 450 3 is_stmt 1 view .LVU307
 1039 0006 0E46     		mov	r6, r1
 1040 0008 21B1     		cbz	r1, .L77
 1041              	.LVL82:
 1042              	.L72:
 451:../../../core/ST/STM32L4xx_HAL_Driver/Src/stm32l4xx_hal_gpio.c ****   assert_param(IS_GPIO_PIN_ACTION(PinState));
 1043              		.loc 1 451 3 view .LVU308
 1044 000a 012C     		cmp	r4, #1
 1045 000c 08D8     		bhi	.L78
 1046              	.L73:
 452:../../../core/ST/STM32L4xx_HAL_Driver/Src/stm32l4xx_hal_gpio.c **** 
 453:../../../core/ST/STM32L4xx_HAL_Driver/Src/stm32l4xx_hal_gpio.c ****   if(PinState != GPIO_PIN_RESET)
 1047              		.loc 1 453 3 view .LVU309
 1048              		.loc 1 453 5 is_stmt 0 view .LVU310
 1049 000e 6CB1     		cbz	r4, .L74
 454:../../../core/ST/STM32L4xx_HAL_Driver/Src/stm32l4xx_hal_gpio.c ****   {
 455:../../../core/ST/STM32L4xx_HAL_Driver/Src/stm32l4xx_hal_gpio.c ****     GPIOx->BSRR = (uint32_t)GPIO_Pin;
 1050              		.loc 1 455 5 is_stmt 1 view .LVU311
 1051              		.loc 1 455 17 is_stmt 0 view .LVU312
 1052 0010 AE61     		str	r6, [r5, #24]
 1053              	.L70:
 456:../../../core/ST/STM32L4xx_HAL_Driver/Src/stm32l4xx_hal_gpio.c ****   }
 457:../../../core/ST/STM32L4xx_HAL_Driver/Src/stm32l4xx_hal_gpio.c ****   else
 458:../../../core/ST/STM32L4xx_HAL_Driver/Src/stm32l4xx_hal_gpio.c ****   {
 459:../../../core/ST/STM32L4xx_HAL_Driver/Src/stm32l4xx_hal_gpio.c ****     GPIOx->BRR = (uint32_t)GPIO_Pin;
 460:../../../core/ST/STM32L4xx_HAL_Driver/Src/stm32l4xx_hal_gpio.c ****   }
 461:../../../core/ST/STM32L4xx_HAL_Driver/Src/stm32l4xx_hal_gpio.c **** }
 1054              		.loc 1 461 1 view .LVU313
 1055 0012 70BD     		pop	{r4, r5, r6, pc}
 1056              	.LVL83:
 1057              	.L77:
 450:../../../core/ST/STM32L4xx_HAL_Driver/Src/stm32l4xx_hal_gpio.c ****   assert_param(IS_GPIO_PIN_ACTION(PinState));
 1058              		.loc 1 450 3 discriminator 3 view .LVU314
 1059 0014 4FF4E171 		mov	r1, #450
 1060              	.LVL84:
 450:../../../core/ST/STM32L4xx_HAL_Driver/Src/stm32l4xx_hal_gpio.c ****   assert_param(IS_GPIO_PIN_ACTION(PinState));
 1061              		.loc 1 450 3 discriminator 3 view .LVU315
 1062 0018 0548     		ldr	r0, .L79
 1063              	.LVL85:
 450:../../../core/ST/STM32L4xx_HAL_Driver/Src/stm32l4xx_hal_gpio.c ****   assert_param(IS_GPIO_PIN_ACTION(PinState));
 1064              		.loc 1 450 3 discriminator 3 view .LVU316
 1065 001a FFF7FEFF 		bl	assert_failed
 1066              	.LVL86:
 450:../../../core/ST/STM32L4xx_HAL_Driver/Src/stm32l4xx_hal_gpio.c ****   assert_param(IS_GPIO_PIN_ACTION(PinState));
 1067              		.loc 1 450 3 discriminator 3 view .LVU317
 1068 001e F4E7     		b	.L72
ARM GAS  C:\Users\tomra\AppData\Local\Temp\ccgdrd7s.s 			page 31


 1069              	.L78:
 451:../../../core/ST/STM32L4xx_HAL_Driver/Src/stm32l4xx_hal_gpio.c **** 
 1070              		.loc 1 451 3 discriminator 1 view .LVU318
 1071 0020 40F2C311 		movw	r1, #451
 1072 0024 0248     		ldr	r0, .L79
 1073 0026 FFF7FEFF 		bl	assert_failed
 1074              	.LVL87:
 1075 002a F0E7     		b	.L73
 1076              	.L74:
 459:../../../core/ST/STM32L4xx_HAL_Driver/Src/stm32l4xx_hal_gpio.c ****   }
 1077              		.loc 1 459 5 is_stmt 1 view .LVU319
 459:../../../core/ST/STM32L4xx_HAL_Driver/Src/stm32l4xx_hal_gpio.c ****   }
 1078              		.loc 1 459 16 is_stmt 0 view .LVU320
 1079 002c AE62     		str	r6, [r5, #40]
 1080              		.loc 1 461 1 view .LVU321
 1081 002e F0E7     		b	.L70
 1082              	.L80:
 1083              		.align	2
 1084              	.L79:
 1085 0030 00000000 		.word	.LC0
 1086              		.cfi_endproc
 1087              	.LFE126:
 1089              		.section	.text.HAL_GPIO_TogglePin,"ax",%progbits
 1090              		.align	1
 1091              		.global	HAL_GPIO_TogglePin
 1092              		.syntax unified
 1093              		.thumb
 1094              		.thumb_func
 1095              		.fpu fpv4-sp-d16
 1097              	HAL_GPIO_TogglePin:
 1098              	.LVL88:
 1099              	.LFB127:
 462:../../../core/ST/STM32L4xx_HAL_Driver/Src/stm32l4xx_hal_gpio.c **** 
 463:../../../core/ST/STM32L4xx_HAL_Driver/Src/stm32l4xx_hal_gpio.c **** /**
 464:../../../core/ST/STM32L4xx_HAL_Driver/Src/stm32l4xx_hal_gpio.c ****   * @brief  Toggle the specified GPIO pin.
 465:../../../core/ST/STM32L4xx_HAL_Driver/Src/stm32l4xx_hal_gpio.c ****   * @param  GPIOx where x can be (A..H) to select the GPIO peripheral for STM32L4 family
 466:../../../core/ST/STM32L4xx_HAL_Driver/Src/stm32l4xx_hal_gpio.c ****   * @param  GPIO_Pin specifies the pin to be toggled.
 467:../../../core/ST/STM32L4xx_HAL_Driver/Src/stm32l4xx_hal_gpio.c ****   * @retval None
 468:../../../core/ST/STM32L4xx_HAL_Driver/Src/stm32l4xx_hal_gpio.c ****   */
 469:../../../core/ST/STM32L4xx_HAL_Driver/Src/stm32l4xx_hal_gpio.c **** void HAL_GPIO_TogglePin(GPIO_TypeDef* GPIOx, uint16_t GPIO_Pin)
 470:../../../core/ST/STM32L4xx_HAL_Driver/Src/stm32l4xx_hal_gpio.c **** {
 1100              		.loc 1 470 1 is_stmt 1 view -0
 1101              		.cfi_startproc
 1102              		@ args = 0, pretend = 0, frame = 0
 1103              		@ frame_needed = 0, uses_anonymous_args = 0
 1104              		.loc 1 470 1 is_stmt 0 view .LVU323
 1105 0000 38B5     		push	{r3, r4, r5, lr}
 1106              	.LCFI6:
 1107              		.cfi_def_cfa_offset 16
 1108              		.cfi_offset 3, -16
 1109              		.cfi_offset 4, -12
 1110              		.cfi_offset 5, -8
 1111              		.cfi_offset 14, -4
 1112 0002 0446     		mov	r4, r0
 471:../../../core/ST/STM32L4xx_HAL_Driver/Src/stm32l4xx_hal_gpio.c ****   /* Check the parameters */
 472:../../../core/ST/STM32L4xx_HAL_Driver/Src/stm32l4xx_hal_gpio.c ****   assert_param(IS_GPIO_PIN(GPIO_Pin));
 1113              		.loc 1 472 3 is_stmt 1 view .LVU324
ARM GAS  C:\Users\tomra\AppData\Local\Temp\ccgdrd7s.s 			page 32


 1114 0004 0D46     		mov	r5, r1
 1115 0006 19B1     		cbz	r1, .L85
 1116              	.LVL89:
 1117              	.L83:
 473:../../../core/ST/STM32L4xx_HAL_Driver/Src/stm32l4xx_hal_gpio.c **** 
 474:../../../core/ST/STM32L4xx_HAL_Driver/Src/stm32l4xx_hal_gpio.c ****   GPIOx->ODR ^= GPIO_Pin;
 1118              		.loc 1 474 3 view .LVU325
 1119              		.loc 1 474 14 is_stmt 0 view .LVU326
 1120 0008 6369     		ldr	r3, [r4, #20]
 1121 000a 5D40     		eors	r5, r5, r3
 1122 000c 6561     		str	r5, [r4, #20]
 475:../../../core/ST/STM32L4xx_HAL_Driver/Src/stm32l4xx_hal_gpio.c **** }
 1123              		.loc 1 475 1 view .LVU327
 1124 000e 38BD     		pop	{r3, r4, r5, pc}
 1125              	.LVL90:
 1126              	.L85:
 472:../../../core/ST/STM32L4xx_HAL_Driver/Src/stm32l4xx_hal_gpio.c **** 
 1127              		.loc 1 472 3 discriminator 3 view .LVU328
 1128 0010 4FF4EC71 		mov	r1, #472
 1129              	.LVL91:
 472:../../../core/ST/STM32L4xx_HAL_Driver/Src/stm32l4xx_hal_gpio.c **** 
 1130              		.loc 1 472 3 discriminator 3 view .LVU329
 1131 0014 0148     		ldr	r0, .L86
 1132              	.LVL92:
 472:../../../core/ST/STM32L4xx_HAL_Driver/Src/stm32l4xx_hal_gpio.c **** 
 1133              		.loc 1 472 3 discriminator 3 view .LVU330
 1134 0016 FFF7FEFF 		bl	assert_failed
 1135              	.LVL93:
 1136 001a F5E7     		b	.L83
 1137              	.L87:
 1138              		.align	2
 1139              	.L86:
 1140 001c 00000000 		.word	.LC0
 1141              		.cfi_endproc
 1142              	.LFE127:
 1144              		.section	.text.HAL_GPIO_LockPin,"ax",%progbits
 1145              		.align	1
 1146              		.global	HAL_GPIO_LockPin
 1147              		.syntax unified
 1148              		.thumb
 1149              		.thumb_func
 1150              		.fpu fpv4-sp-d16
 1152              	HAL_GPIO_LockPin:
 1153              	.LVL94:
 1154              	.LFB128:
 476:../../../core/ST/STM32L4xx_HAL_Driver/Src/stm32l4xx_hal_gpio.c **** 
 477:../../../core/ST/STM32L4xx_HAL_Driver/Src/stm32l4xx_hal_gpio.c **** /**
 478:../../../core/ST/STM32L4xx_HAL_Driver/Src/stm32l4xx_hal_gpio.c **** * @brief  Lock GPIO Pins configuration registers.
 479:../../../core/ST/STM32L4xx_HAL_Driver/Src/stm32l4xx_hal_gpio.c ****   * @note   The locked registers are GPIOx_MODER, GPIOx_OTYPER, GPIOx_OSPEEDR,
 480:../../../core/ST/STM32L4xx_HAL_Driver/Src/stm32l4xx_hal_gpio.c ****   *         GPIOx_PUPDR, GPIOx_AFRL and GPIOx_AFRH.
 481:../../../core/ST/STM32L4xx_HAL_Driver/Src/stm32l4xx_hal_gpio.c ****   * @note   The configuration of the locked GPIO pins can no longer be modified
 482:../../../core/ST/STM32L4xx_HAL_Driver/Src/stm32l4xx_hal_gpio.c ****   *         until the next reset.
 483:../../../core/ST/STM32L4xx_HAL_Driver/Src/stm32l4xx_hal_gpio.c ****   * @param  GPIOx where x can be (A..H) to select the GPIO peripheral for STM32L4 family
 484:../../../core/ST/STM32L4xx_HAL_Driver/Src/stm32l4xx_hal_gpio.c ****   * @param  GPIO_Pin specifies the port bits to be locked.
 485:../../../core/ST/STM32L4xx_HAL_Driver/Src/stm32l4xx_hal_gpio.c ****   *         This parameter can be any combination of GPIO_Pin_x where x can be (0..15).
 486:../../../core/ST/STM32L4xx_HAL_Driver/Src/stm32l4xx_hal_gpio.c ****   * @retval None
 487:../../../core/ST/STM32L4xx_HAL_Driver/Src/stm32l4xx_hal_gpio.c ****   */
ARM GAS  C:\Users\tomra\AppData\Local\Temp\ccgdrd7s.s 			page 33


 488:../../../core/ST/STM32L4xx_HAL_Driver/Src/stm32l4xx_hal_gpio.c **** HAL_StatusTypeDef HAL_GPIO_LockPin(GPIO_TypeDef* GPIOx, uint16_t GPIO_Pin)
 489:../../../core/ST/STM32L4xx_HAL_Driver/Src/stm32l4xx_hal_gpio.c **** {
 1155              		.loc 1 489 1 is_stmt 1 view -0
 1156              		.cfi_startproc
 1157              		@ args = 0, pretend = 0, frame = 8
 1158              		@ frame_needed = 0, uses_anonymous_args = 0
 1159              		.loc 1 489 1 is_stmt 0 view .LVU332
 1160 0000 30B5     		push	{r4, r5, lr}
 1161              	.LCFI7:
 1162              		.cfi_def_cfa_offset 12
 1163              		.cfi_offset 4, -12
 1164              		.cfi_offset 5, -8
 1165              		.cfi_offset 14, -4
 1166 0002 83B0     		sub	sp, sp, #12
 1167              	.LCFI8:
 1168              		.cfi_def_cfa_offset 24
 1169 0004 0446     		mov	r4, r0
 1170 0006 0D46     		mov	r5, r1
 490:../../../core/ST/STM32L4xx_HAL_Driver/Src/stm32l4xx_hal_gpio.c ****   __IO uint32_t tmp = GPIO_LCKR_LCKK;
 1171              		.loc 1 490 3 is_stmt 1 view .LVU333
 1172              		.loc 1 490 17 is_stmt 0 view .LVU334
 1173 0008 4FF48033 		mov	r3, #65536
 1174 000c 0193     		str	r3, [sp, #4]
 491:../../../core/ST/STM32L4xx_HAL_Driver/Src/stm32l4xx_hal_gpio.c **** 
 492:../../../core/ST/STM32L4xx_HAL_Driver/Src/stm32l4xx_hal_gpio.c ****   /* Check the parameters */
 493:../../../core/ST/STM32L4xx_HAL_Driver/Src/stm32l4xx_hal_gpio.c ****   assert_param(IS_GPIO_LOCK_INSTANCE(GPIOx));
 1175              		.loc 1 493 3 is_stmt 1 view .LVU335
 1176 000e B0F1904F 		cmp	r0, #1207959552
 1177 0012 23D0     		beq	.L89
 1178              		.loc 1 493 3 is_stmt 0 discriminator 1 view .LVU336
 1179 0014 1E4B     		ldr	r3, .L96
 1180 0016 9842     		cmp	r0, r3
 1181 0018 20D0     		beq	.L89
 1182              		.loc 1 493 3 discriminator 2 view .LVU337
 1183 001a 03F58063 		add	r3, r3, #1024
 1184 001e 9842     		cmp	r0, r3
 1185 0020 1CD0     		beq	.L89
 1186              		.loc 1 493 3 discriminator 3 view .LVU338
 1187 0022 03F58063 		add	r3, r3, #1024
 1188 0026 9842     		cmp	r0, r3
 1189 0028 18D0     		beq	.L89
 1190              		.loc 1 493 3 discriminator 4 view .LVU339
 1191 002a 03F58063 		add	r3, r3, #1024
 1192 002e 9842     		cmp	r0, r3
 1193 0030 14D0     		beq	.L89
 1194              		.loc 1 493 3 discriminator 5 view .LVU340
 1195 0032 03F58063 		add	r3, r3, #1024
 1196 0036 9842     		cmp	r0, r3
 1197 0038 10D0     		beq	.L89
 1198              		.loc 1 493 3 discriminator 6 view .LVU341
 1199 003a 03F58063 		add	r3, r3, #1024
 1200 003e 9842     		cmp	r0, r3
 1201 0040 0CD0     		beq	.L89
 1202              		.loc 1 493 3 discriminator 7 view .LVU342
 1203 0042 03F58063 		add	r3, r3, #1024
 1204 0046 9842     		cmp	r0, r3
 1205 0048 08D0     		beq	.L89
ARM GAS  C:\Users\tomra\AppData\Local\Temp\ccgdrd7s.s 			page 34


 1206              		.loc 1 493 3 discriminator 8 view .LVU343
 1207 004a 03F58063 		add	r3, r3, #1024
 1208 004e 9842     		cmp	r0, r3
 1209 0050 04D0     		beq	.L89
 1210              		.loc 1 493 3 discriminator 9 view .LVU344
 1211 0052 40F2ED11 		movw	r1, #493
 1212              	.LVL95:
 1213              		.loc 1 493 3 discriminator 9 view .LVU345
 1214 0056 0F48     		ldr	r0, .L96+4
 1215              	.LVL96:
 1216              		.loc 1 493 3 discriminator 9 view .LVU346
 1217 0058 FFF7FEFF 		bl	assert_failed
 1218              	.LVL97:
 1219              	.L89:
 494:../../../core/ST/STM32L4xx_HAL_Driver/Src/stm32l4xx_hal_gpio.c ****   assert_param(IS_GPIO_PIN(GPIO_Pin));
 1220              		.loc 1 494 3 is_stmt 1 view .LVU347
 1221 005c 85B1     		cbz	r5, .L95
 1222              	.L91:
 495:../../../core/ST/STM32L4xx_HAL_Driver/Src/stm32l4xx_hal_gpio.c **** 
 496:../../../core/ST/STM32L4xx_HAL_Driver/Src/stm32l4xx_hal_gpio.c ****   /* Apply lock key write sequence */
 497:../../../core/ST/STM32L4xx_HAL_Driver/Src/stm32l4xx_hal_gpio.c ****   tmp |= GPIO_Pin;
 1223              		.loc 1 497 3 view .LVU348
 1224              		.loc 1 497 7 is_stmt 0 view .LVU349
 1225 005e 019B     		ldr	r3, [sp, #4]
 1226 0060 2B43     		orrs	r3, r3, r5
 1227 0062 0193     		str	r3, [sp, #4]
 498:../../../core/ST/STM32L4xx_HAL_Driver/Src/stm32l4xx_hal_gpio.c ****   /* Set LCKx bit(s): LCKK='1' + LCK[15-0] */
 499:../../../core/ST/STM32L4xx_HAL_Driver/Src/stm32l4xx_hal_gpio.c ****   GPIOx->LCKR = tmp;
 1228              		.loc 1 499 3 is_stmt 1 view .LVU350
 1229              		.loc 1 499 15 is_stmt 0 view .LVU351
 1230 0064 019B     		ldr	r3, [sp, #4]
 1231 0066 E361     		str	r3, [r4, #28]
 500:../../../core/ST/STM32L4xx_HAL_Driver/Src/stm32l4xx_hal_gpio.c ****   /* Reset LCKx bit(s): LCKK='0' + LCK[15-0] */
 501:../../../core/ST/STM32L4xx_HAL_Driver/Src/stm32l4xx_hal_gpio.c ****   GPIOx->LCKR = GPIO_Pin;
 1232              		.loc 1 501 3 is_stmt 1 view .LVU352
 1233              		.loc 1 501 15 is_stmt 0 view .LVU353
 1234 0068 E561     		str	r5, [r4, #28]
 502:../../../core/ST/STM32L4xx_HAL_Driver/Src/stm32l4xx_hal_gpio.c ****   /* Set LCKx bit(s): LCKK='1' + LCK[15-0] */
 503:../../../core/ST/STM32L4xx_HAL_Driver/Src/stm32l4xx_hal_gpio.c ****   GPIOx->LCKR = tmp;
 1235              		.loc 1 503 3 is_stmt 1 view .LVU354
 1236              		.loc 1 503 15 is_stmt 0 view .LVU355
 1237 006a 019B     		ldr	r3, [sp, #4]
 1238 006c E361     		str	r3, [r4, #28]
 504:../../../core/ST/STM32L4xx_HAL_Driver/Src/stm32l4xx_hal_gpio.c ****   /* Read LCKK bit*/
 505:../../../core/ST/STM32L4xx_HAL_Driver/Src/stm32l4xx_hal_gpio.c ****   tmp = GPIOx->LCKR;
 1239              		.loc 1 505 3 is_stmt 1 view .LVU356
 1240              		.loc 1 505 14 is_stmt 0 view .LVU357
 1241 006e E369     		ldr	r3, [r4, #28]
 1242              		.loc 1 505 7 view .LVU358
 1243 0070 0193     		str	r3, [sp, #4]
 506:../../../core/ST/STM32L4xx_HAL_Driver/Src/stm32l4xx_hal_gpio.c **** 
 507:../../../core/ST/STM32L4xx_HAL_Driver/Src/stm32l4xx_hal_gpio.c ****   if ((GPIOx->LCKR & GPIO_LCKR_LCKK) != 0x00u)
 1244              		.loc 1 507 3 is_stmt 1 view .LVU359
 1245              		.loc 1 507 13 is_stmt 0 view .LVU360
 1246 0072 E369     		ldr	r3, [r4, #28]
 1247              		.loc 1 507 6 view .LVU361
 1248 0074 13F4803F 		tst	r3, #65536
ARM GAS  C:\Users\tomra\AppData\Local\Temp\ccgdrd7s.s 			page 35


 1249 0078 08D0     		beq	.L93
 508:../../../core/ST/STM32L4xx_HAL_Driver/Src/stm32l4xx_hal_gpio.c ****   {
 509:../../../core/ST/STM32L4xx_HAL_Driver/Src/stm32l4xx_hal_gpio.c ****     return HAL_OK;
 1250              		.loc 1 509 12 view .LVU362
 1251 007a 0020     		movs	r0, #0
 1252              	.L92:
 510:../../../core/ST/STM32L4xx_HAL_Driver/Src/stm32l4xx_hal_gpio.c ****   }
 511:../../../core/ST/STM32L4xx_HAL_Driver/Src/stm32l4xx_hal_gpio.c ****   else
 512:../../../core/ST/STM32L4xx_HAL_Driver/Src/stm32l4xx_hal_gpio.c ****   {
 513:../../../core/ST/STM32L4xx_HAL_Driver/Src/stm32l4xx_hal_gpio.c ****     return HAL_ERROR;
 514:../../../core/ST/STM32L4xx_HAL_Driver/Src/stm32l4xx_hal_gpio.c ****   }
 515:../../../core/ST/STM32L4xx_HAL_Driver/Src/stm32l4xx_hal_gpio.c **** }
 1253              		.loc 1 515 1 view .LVU363
 1254 007c 03B0     		add	sp, sp, #12
 1255              	.LCFI9:
 1256              		.cfi_remember_state
 1257              		.cfi_def_cfa_offset 12
 1258              		@ sp needed
 1259 007e 30BD     		pop	{r4, r5, pc}
 1260              	.LVL98:
 1261              	.L95:
 1262              	.LCFI10:
 1263              		.cfi_restore_state
 494:../../../core/ST/STM32L4xx_HAL_Driver/Src/stm32l4xx_hal_gpio.c **** 
 1264              		.loc 1 494 3 discriminator 3 view .LVU364
 1265 0080 4FF4F771 		mov	r1, #494
 1266 0084 0348     		ldr	r0, .L96+4
 1267 0086 FFF7FEFF 		bl	assert_failed
 1268              	.LVL99:
 1269 008a E8E7     		b	.L91
 1270              	.L93:
 513:../../../core/ST/STM32L4xx_HAL_Driver/Src/stm32l4xx_hal_gpio.c ****   }
 1271              		.loc 1 513 12 view .LVU365
 1272 008c 0120     		movs	r0, #1
 1273 008e F5E7     		b	.L92
 1274              	.L97:
 1275              		.align	2
 1276              	.L96:
 1277 0090 00040048 		.word	1207960576
 1278 0094 00000000 		.word	.LC0
 1279              		.cfi_endproc
 1280              	.LFE128:
 1282              		.section	.text.HAL_GPIO_EXTI_Callback,"ax",%progbits
 1283              		.align	1
 1284              		.weak	HAL_GPIO_EXTI_Callback
 1285              		.syntax unified
 1286              		.thumb
 1287              		.thumb_func
 1288              		.fpu fpv4-sp-d16
 1290              	HAL_GPIO_EXTI_Callback:
 1291              	.LVL100:
 1292              	.LFB130:
 516:../../../core/ST/STM32L4xx_HAL_Driver/Src/stm32l4xx_hal_gpio.c **** 
 517:../../../core/ST/STM32L4xx_HAL_Driver/Src/stm32l4xx_hal_gpio.c **** /**
 518:../../../core/ST/STM32L4xx_HAL_Driver/Src/stm32l4xx_hal_gpio.c ****   * @brief  Handle EXTI interrupt request.
 519:../../../core/ST/STM32L4xx_HAL_Driver/Src/stm32l4xx_hal_gpio.c ****   * @param  GPIO_Pin Specifies the port pin connected to corresponding EXTI line.
 520:../../../core/ST/STM32L4xx_HAL_Driver/Src/stm32l4xx_hal_gpio.c ****   * @retval None
ARM GAS  C:\Users\tomra\AppData\Local\Temp\ccgdrd7s.s 			page 36


 521:../../../core/ST/STM32L4xx_HAL_Driver/Src/stm32l4xx_hal_gpio.c ****   */
 522:../../../core/ST/STM32L4xx_HAL_Driver/Src/stm32l4xx_hal_gpio.c **** void HAL_GPIO_EXTI_IRQHandler(uint16_t GPIO_Pin)
 523:../../../core/ST/STM32L4xx_HAL_Driver/Src/stm32l4xx_hal_gpio.c **** {
 524:../../../core/ST/STM32L4xx_HAL_Driver/Src/stm32l4xx_hal_gpio.c ****   /* EXTI line interrupt detected */
 525:../../../core/ST/STM32L4xx_HAL_Driver/Src/stm32l4xx_hal_gpio.c ****   if(__HAL_GPIO_EXTI_GET_IT(GPIO_Pin) != 0x00u)
 526:../../../core/ST/STM32L4xx_HAL_Driver/Src/stm32l4xx_hal_gpio.c ****   {
 527:../../../core/ST/STM32L4xx_HAL_Driver/Src/stm32l4xx_hal_gpio.c ****     __HAL_GPIO_EXTI_CLEAR_IT(GPIO_Pin);
 528:../../../core/ST/STM32L4xx_HAL_Driver/Src/stm32l4xx_hal_gpio.c ****     HAL_GPIO_EXTI_Callback(GPIO_Pin);
 529:../../../core/ST/STM32L4xx_HAL_Driver/Src/stm32l4xx_hal_gpio.c ****   }
 530:../../../core/ST/STM32L4xx_HAL_Driver/Src/stm32l4xx_hal_gpio.c **** }
 531:../../../core/ST/STM32L4xx_HAL_Driver/Src/stm32l4xx_hal_gpio.c **** 
 532:../../../core/ST/STM32L4xx_HAL_Driver/Src/stm32l4xx_hal_gpio.c **** /**
 533:../../../core/ST/STM32L4xx_HAL_Driver/Src/stm32l4xx_hal_gpio.c ****   * @brief  EXTI line detection callback.
 534:../../../core/ST/STM32L4xx_HAL_Driver/Src/stm32l4xx_hal_gpio.c ****   * @param  GPIO_Pin: Specifies the port pin connected to corresponding EXTI line.
 535:../../../core/ST/STM32L4xx_HAL_Driver/Src/stm32l4xx_hal_gpio.c ****   * @retval None
 536:../../../core/ST/STM32L4xx_HAL_Driver/Src/stm32l4xx_hal_gpio.c ****   */
 537:../../../core/ST/STM32L4xx_HAL_Driver/Src/stm32l4xx_hal_gpio.c **** __weak void HAL_GPIO_EXTI_Callback(uint16_t GPIO_Pin)
 538:../../../core/ST/STM32L4xx_HAL_Driver/Src/stm32l4xx_hal_gpio.c **** {
 1293              		.loc 1 538 1 is_stmt 1 view -0
 1294              		.cfi_startproc
 1295              		@ args = 0, pretend = 0, frame = 0
 1296              		@ frame_needed = 0, uses_anonymous_args = 0
 1297              		@ link register save eliminated.
 539:../../../core/ST/STM32L4xx_HAL_Driver/Src/stm32l4xx_hal_gpio.c ****   /* Prevent unused argument(s) compilation warning */
 540:../../../core/ST/STM32L4xx_HAL_Driver/Src/stm32l4xx_hal_gpio.c ****   UNUSED(GPIO_Pin);
 1298              		.loc 1 540 3 view .LVU367
 541:../../../core/ST/STM32L4xx_HAL_Driver/Src/stm32l4xx_hal_gpio.c **** 
 542:../../../core/ST/STM32L4xx_HAL_Driver/Src/stm32l4xx_hal_gpio.c ****   /* NOTE: This function should not be modified, when the callback is needed,
 543:../../../core/ST/STM32L4xx_HAL_Driver/Src/stm32l4xx_hal_gpio.c ****            the HAL_GPIO_EXTI_Callback could be implemented in the user file
 544:../../../core/ST/STM32L4xx_HAL_Driver/Src/stm32l4xx_hal_gpio.c ****    */
 545:../../../core/ST/STM32L4xx_HAL_Driver/Src/stm32l4xx_hal_gpio.c **** }
 1299              		.loc 1 545 1 is_stmt 0 view .LVU368
 1300 0000 7047     		bx	lr
 1301              		.cfi_endproc
 1302              	.LFE130:
 1304              		.section	.text.HAL_GPIO_EXTI_IRQHandler,"ax",%progbits
 1305              		.align	1
 1306              		.global	HAL_GPIO_EXTI_IRQHandler
 1307              		.syntax unified
 1308              		.thumb
 1309              		.thumb_func
 1310              		.fpu fpv4-sp-d16
 1312              	HAL_GPIO_EXTI_IRQHandler:
 1313              	.LVL101:
 1314              	.LFB129:
 523:../../../core/ST/STM32L4xx_HAL_Driver/Src/stm32l4xx_hal_gpio.c ****   /* EXTI line interrupt detected */
 1315              		.loc 1 523 1 is_stmt 1 view -0
 1316              		.cfi_startproc
 1317              		@ args = 0, pretend = 0, frame = 0
 1318              		@ frame_needed = 0, uses_anonymous_args = 0
 523:../../../core/ST/STM32L4xx_HAL_Driver/Src/stm32l4xx_hal_gpio.c ****   /* EXTI line interrupt detected */
 1319              		.loc 1 523 1 is_stmt 0 view .LVU370
 1320 0000 08B5     		push	{r3, lr}
 1321              	.LCFI11:
 1322              		.cfi_def_cfa_offset 8
 1323              		.cfi_offset 3, -8
 1324              		.cfi_offset 14, -4
ARM GAS  C:\Users\tomra\AppData\Local\Temp\ccgdrd7s.s 			page 37


 525:../../../core/ST/STM32L4xx_HAL_Driver/Src/stm32l4xx_hal_gpio.c ****   {
 1325              		.loc 1 525 3 is_stmt 1 view .LVU371
 525:../../../core/ST/STM32L4xx_HAL_Driver/Src/stm32l4xx_hal_gpio.c ****   {
 1326              		.loc 1 525 6 is_stmt 0 view .LVU372
 1327 0002 054B     		ldr	r3, .L103
 1328 0004 5B69     		ldr	r3, [r3, #20]
 525:../../../core/ST/STM32L4xx_HAL_Driver/Src/stm32l4xx_hal_gpio.c ****   {
 1329              		.loc 1 525 5 view .LVU373
 1330 0006 0342     		tst	r3, r0
 1331 0008 00D1     		bne	.L102
 1332              	.LVL102:
 1333              	.L99:
 530:../../../core/ST/STM32L4xx_HAL_Driver/Src/stm32l4xx_hal_gpio.c **** 
 1334              		.loc 1 530 1 view .LVU374
 1335 000a 08BD     		pop	{r3, pc}
 1336              	.LVL103:
 1337              	.L102:
 527:../../../core/ST/STM32L4xx_HAL_Driver/Src/stm32l4xx_hal_gpio.c ****     HAL_GPIO_EXTI_Callback(GPIO_Pin);
 1338              		.loc 1 527 5 is_stmt 1 view .LVU375
 1339 000c 024B     		ldr	r3, .L103
 1340 000e 5861     		str	r0, [r3, #20]
 528:../../../core/ST/STM32L4xx_HAL_Driver/Src/stm32l4xx_hal_gpio.c ****   }
 1341              		.loc 1 528 5 view .LVU376
 1342 0010 FFF7FEFF 		bl	HAL_GPIO_EXTI_Callback
 1343              	.LVL104:
 530:../../../core/ST/STM32L4xx_HAL_Driver/Src/stm32l4xx_hal_gpio.c **** 
 1344              		.loc 1 530 1 is_stmt 0 view .LVU377
 1345 0014 F9E7     		b	.L99
 1346              	.L104:
 1347 0016 00BF     		.align	2
 1348              	.L103:
 1349 0018 00040140 		.word	1073808384
 1350              		.cfi_endproc
 1351              	.LFE129:
 1353              		.text
 1354              	.Letext0:
 1355              		.file 2 "c:\\program files (x86)\\gnu tools arm embedded\\9 2019-q4-major\\arm-none-eabi\\include\
 1356              		.file 3 "c:\\program files (x86)\\gnu tools arm embedded\\9 2019-q4-major\\arm-none-eabi\\include\
 1357              		.file 4 "../../../core/ST/CMSIS/Include/core_cm4.h"
 1358              		.file 5 "../../../core/ST/CMSIS/Device/ST/STM32L4xx/Include/system_stm32l4xx.h"
 1359              		.file 6 "../../../core/ST/CMSIS/Device/ST/STM32L4xx/Include/stm32l496xx.h"
 1360              		.file 7 "../../../core/ST/STM32L4xx_HAL_Driver/Inc/stm32l4xx_hal_def.h"
 1361              		.file 8 "../../../core/ST/STM32L4xx_HAL_Driver/Inc/stm32l4xx_hal_gpio.h"
 1362              		.file 9 "../../../core/ST/STM32L4xx_HAL_Driver/Inc/stm32l4xx_hal.h"
 1363              		.file 10 "../../../core/platform/octa/inc/stm32l4xx_hal_conf.h"
ARM GAS  C:\Users\tomra\AppData\Local\Temp\ccgdrd7s.s 			page 38

