ARM GAS  C:\Users\tomra\AppData\Local\Temp\ccsXPgWC.s 			page 1


   1              		.cpu cortex-m4
   2              		.eabi_attribute 27, 1
   3              		.eabi_attribute 28, 1
   4              		.eabi_attribute 20, 1
   5              		.eabi_attribute 21, 1
   6              		.eabi_attribute 23, 3
   7              		.eabi_attribute 24, 1
   8              		.eabi_attribute 25, 1
   9              		.eabi_attribute 26, 1
  10              		.eabi_attribute 30, 1
  11              		.eabi_attribute 34, 1
  12              		.eabi_attribute 18, 4
  13              		.file	"timers.c"
  14              		.text
  15              	.Ltext0:
  16              		.cfi_sections	.debug_frame
  17              		.section	.text.prvGetNextExpireTime,"ax",%progbits
  18              		.align	1
  19              		.arch armv7e-m
  20              		.syntax unified
  21              		.thumb
  22              		.thumb_func
  23              		.fpu fpv4-sp-d16
  25              	prvGetNextExpireTime:
  26              	.LVL0:
  27              	.LFB16:
  28              		.file 1 "../../../core/ST/Middlewares/Third_Party/FreeRTOS/Source/timers.c"
   1:../../../core/ST/Middlewares/Third_Party/FreeRTOS/Source/timers.c **** /*
   2:../../../core/ST/Middlewares/Third_Party/FreeRTOS/Source/timers.c ****  * FreeRTOS Kernel V10.0.1
   3:../../../core/ST/Middlewares/Third_Party/FreeRTOS/Source/timers.c ****  * Copyright (C) 2017 Amazon.com, Inc. or its affiliates.  All Rights Reserved.
   4:../../../core/ST/Middlewares/Third_Party/FreeRTOS/Source/timers.c ****  *
   5:../../../core/ST/Middlewares/Third_Party/FreeRTOS/Source/timers.c ****  * Permission is hereby granted, free of charge, to any person obtaining a copy of
   6:../../../core/ST/Middlewares/Third_Party/FreeRTOS/Source/timers.c ****  * this software and associated documentation files (the "Software"), to deal in
   7:../../../core/ST/Middlewares/Third_Party/FreeRTOS/Source/timers.c ****  * the Software without restriction, including without limitation the rights to
   8:../../../core/ST/Middlewares/Third_Party/FreeRTOS/Source/timers.c ****  * use, copy, modify, merge, publish, distribute, sublicense, and/or sell copies of
   9:../../../core/ST/Middlewares/Third_Party/FreeRTOS/Source/timers.c ****  * the Software, and to permit persons to whom the Software is furnished to do so,
  10:../../../core/ST/Middlewares/Third_Party/FreeRTOS/Source/timers.c ****  * subject to the following conditions:
  11:../../../core/ST/Middlewares/Third_Party/FreeRTOS/Source/timers.c ****  *
  12:../../../core/ST/Middlewares/Third_Party/FreeRTOS/Source/timers.c ****  * The above copyright notice and this permission notice shall be included in all
  13:../../../core/ST/Middlewares/Third_Party/FreeRTOS/Source/timers.c ****  * copies or substantial portions of the Software.
  14:../../../core/ST/Middlewares/Third_Party/FreeRTOS/Source/timers.c ****  *
  15:../../../core/ST/Middlewares/Third_Party/FreeRTOS/Source/timers.c ****  * THE SOFTWARE IS PROVIDED "AS IS", WITHOUT WARRANTY OF ANY KIND, EXPRESS OR
  16:../../../core/ST/Middlewares/Third_Party/FreeRTOS/Source/timers.c ****  * IMPLIED, INCLUDING BUT NOT LIMITED TO THE WARRANTIES OF MERCHANTABILITY, FITNESS
  17:../../../core/ST/Middlewares/Third_Party/FreeRTOS/Source/timers.c ****  * FOR A PARTICULAR PURPOSE AND NONINFRINGEMENT. IN NO EVENT SHALL THE AUTHORS OR
  18:../../../core/ST/Middlewares/Third_Party/FreeRTOS/Source/timers.c ****  * COPYRIGHT HOLDERS BE LIABLE FOR ANY CLAIM, DAMAGES OR OTHER LIABILITY, WHETHER
  19:../../../core/ST/Middlewares/Third_Party/FreeRTOS/Source/timers.c ****  * IN AN ACTION OF CONTRACT, TORT OR OTHERWISE, ARISING FROM, OUT OF OR IN
  20:../../../core/ST/Middlewares/Third_Party/FreeRTOS/Source/timers.c ****  * CONNECTION WITH THE SOFTWARE OR THE USE OR OTHER DEALINGS IN THE SOFTWARE.
  21:../../../core/ST/Middlewares/Third_Party/FreeRTOS/Source/timers.c ****  *
  22:../../../core/ST/Middlewares/Third_Party/FreeRTOS/Source/timers.c ****  * http://www.FreeRTOS.org
  23:../../../core/ST/Middlewares/Third_Party/FreeRTOS/Source/timers.c ****  * http://aws.amazon.com/freertos
  24:../../../core/ST/Middlewares/Third_Party/FreeRTOS/Source/timers.c ****  *
  25:../../../core/ST/Middlewares/Third_Party/FreeRTOS/Source/timers.c ****  * 1 tab == 4 spaces!
  26:../../../core/ST/Middlewares/Third_Party/FreeRTOS/Source/timers.c ****  */
  27:../../../core/ST/Middlewares/Third_Party/FreeRTOS/Source/timers.c **** 
  28:../../../core/ST/Middlewares/Third_Party/FreeRTOS/Source/timers.c **** /* Standard includes. */
  29:../../../core/ST/Middlewares/Third_Party/FreeRTOS/Source/timers.c **** #include <stdlib.h>
  30:../../../core/ST/Middlewares/Third_Party/FreeRTOS/Source/timers.c **** 
ARM GAS  C:\Users\tomra\AppData\Local\Temp\ccsXPgWC.s 			page 2


  31:../../../core/ST/Middlewares/Third_Party/FreeRTOS/Source/timers.c **** /* Defining MPU_WRAPPERS_INCLUDED_FROM_API_FILE prevents task.h from redefining
  32:../../../core/ST/Middlewares/Third_Party/FreeRTOS/Source/timers.c **** all the API functions to use the MPU wrappers.  That should only be done when
  33:../../../core/ST/Middlewares/Third_Party/FreeRTOS/Source/timers.c **** task.h is included from an application file. */
  34:../../../core/ST/Middlewares/Third_Party/FreeRTOS/Source/timers.c **** #define MPU_WRAPPERS_INCLUDED_FROM_API_FILE
  35:../../../core/ST/Middlewares/Third_Party/FreeRTOS/Source/timers.c **** 
  36:../../../core/ST/Middlewares/Third_Party/FreeRTOS/Source/timers.c **** #include "FreeRTOS.h"
  37:../../../core/ST/Middlewares/Third_Party/FreeRTOS/Source/timers.c **** #include "task.h"
  38:../../../core/ST/Middlewares/Third_Party/FreeRTOS/Source/timers.c **** #include "queue.h"
  39:../../../core/ST/Middlewares/Third_Party/FreeRTOS/Source/timers.c **** #include "timers.h"
  40:../../../core/ST/Middlewares/Third_Party/FreeRTOS/Source/timers.c **** 
  41:../../../core/ST/Middlewares/Third_Party/FreeRTOS/Source/timers.c **** #if ( INCLUDE_xTimerPendFunctionCall == 1 ) && ( configUSE_TIMERS == 0 )
  42:../../../core/ST/Middlewares/Third_Party/FreeRTOS/Source/timers.c **** 	#error configUSE_TIMERS must be set to 1 to make the xTimerPendFunctionCall() function available.
  43:../../../core/ST/Middlewares/Third_Party/FreeRTOS/Source/timers.c **** #endif
  44:../../../core/ST/Middlewares/Third_Party/FreeRTOS/Source/timers.c **** 
  45:../../../core/ST/Middlewares/Third_Party/FreeRTOS/Source/timers.c **** /* Lint e961 and e750 are suppressed as a MISRA exception justified because the
  46:../../../core/ST/Middlewares/Third_Party/FreeRTOS/Source/timers.c **** MPU ports require MPU_WRAPPERS_INCLUDED_FROM_API_FILE to be defined for the
  47:../../../core/ST/Middlewares/Third_Party/FreeRTOS/Source/timers.c **** header files above, but not in this file, in order to generate the correct
  48:../../../core/ST/Middlewares/Third_Party/FreeRTOS/Source/timers.c **** privileged Vs unprivileged linkage and placement. */
  49:../../../core/ST/Middlewares/Third_Party/FreeRTOS/Source/timers.c **** #undef MPU_WRAPPERS_INCLUDED_FROM_API_FILE /*lint !e961 !e750. */
  50:../../../core/ST/Middlewares/Third_Party/FreeRTOS/Source/timers.c **** 
  51:../../../core/ST/Middlewares/Third_Party/FreeRTOS/Source/timers.c **** 
  52:../../../core/ST/Middlewares/Third_Party/FreeRTOS/Source/timers.c **** /* This entire source file will be skipped if the application is not configured
  53:../../../core/ST/Middlewares/Third_Party/FreeRTOS/Source/timers.c **** to include software timer functionality.  This #if is closed at the very bottom
  54:../../../core/ST/Middlewares/Third_Party/FreeRTOS/Source/timers.c **** of this file.  If you want to include software timer functionality then ensure
  55:../../../core/ST/Middlewares/Third_Party/FreeRTOS/Source/timers.c **** configUSE_TIMERS is set to 1 in FreeRTOSConfig.h. */
  56:../../../core/ST/Middlewares/Third_Party/FreeRTOS/Source/timers.c **** #if ( configUSE_TIMERS == 1 )
  57:../../../core/ST/Middlewares/Third_Party/FreeRTOS/Source/timers.c **** 
  58:../../../core/ST/Middlewares/Third_Party/FreeRTOS/Source/timers.c **** /* Misc definitions. */
  59:../../../core/ST/Middlewares/Third_Party/FreeRTOS/Source/timers.c **** #define tmrNO_DELAY		( TickType_t ) 0U
  60:../../../core/ST/Middlewares/Third_Party/FreeRTOS/Source/timers.c **** 
  61:../../../core/ST/Middlewares/Third_Party/FreeRTOS/Source/timers.c **** /* The name assigned to the timer service task.  This can be overridden by
  62:../../../core/ST/Middlewares/Third_Party/FreeRTOS/Source/timers.c **** defining trmTIMER_SERVICE_TASK_NAME in FreeRTOSConfig.h. */
  63:../../../core/ST/Middlewares/Third_Party/FreeRTOS/Source/timers.c **** #ifndef configTIMER_SERVICE_TASK_NAME
  64:../../../core/ST/Middlewares/Third_Party/FreeRTOS/Source/timers.c **** 	#define configTIMER_SERVICE_TASK_NAME "Tmr Svc"
  65:../../../core/ST/Middlewares/Third_Party/FreeRTOS/Source/timers.c **** #endif
  66:../../../core/ST/Middlewares/Third_Party/FreeRTOS/Source/timers.c **** 
  67:../../../core/ST/Middlewares/Third_Party/FreeRTOS/Source/timers.c **** /* The definition of the timers themselves. */
  68:../../../core/ST/Middlewares/Third_Party/FreeRTOS/Source/timers.c **** typedef struct tmrTimerControl
  69:../../../core/ST/Middlewares/Third_Party/FreeRTOS/Source/timers.c **** {
  70:../../../core/ST/Middlewares/Third_Party/FreeRTOS/Source/timers.c **** 	const char				*pcTimerName;		/*<< Text name.  This is not used by the kernel, it is included simpl
  71:../../../core/ST/Middlewares/Third_Party/FreeRTOS/Source/timers.c **** 	ListItem_t				xTimerListItem;		/*<< Standard linked list item as used by all kernel features for e
  72:../../../core/ST/Middlewares/Third_Party/FreeRTOS/Source/timers.c **** 	TickType_t				xTimerPeriodInTicks;/*<< How quickly and often the timer expires. */
  73:../../../core/ST/Middlewares/Third_Party/FreeRTOS/Source/timers.c **** 	UBaseType_t				uxAutoReload;		/*<< Set to pdTRUE if the timer should be automatically restarted on
  74:../../../core/ST/Middlewares/Third_Party/FreeRTOS/Source/timers.c **** 	void 					*pvTimerID;			/*<< An ID to identify the timer.  This allows the timer to be identified 
  75:../../../core/ST/Middlewares/Third_Party/FreeRTOS/Source/timers.c **** 	TimerCallbackFunction_t	pxCallbackFunction;	/*<< The function that will be called when the timer e
  76:../../../core/ST/Middlewares/Third_Party/FreeRTOS/Source/timers.c **** 	#if( configUSE_TRACE_FACILITY == 1 )
  77:../../../core/ST/Middlewares/Third_Party/FreeRTOS/Source/timers.c **** 		UBaseType_t			uxTimerNumber;		/*<< An ID assigned by trace tools such as FreeRTOS+Trace */
  78:../../../core/ST/Middlewares/Third_Party/FreeRTOS/Source/timers.c **** 	#endif
  79:../../../core/ST/Middlewares/Third_Party/FreeRTOS/Source/timers.c **** 
  80:../../../core/ST/Middlewares/Third_Party/FreeRTOS/Source/timers.c **** 	#if( ( configSUPPORT_STATIC_ALLOCATION == 1 ) && ( configSUPPORT_DYNAMIC_ALLOCATION == 1 ) )
  81:../../../core/ST/Middlewares/Third_Party/FreeRTOS/Source/timers.c **** 		uint8_t 			ucStaticallyAllocated; /*<< Set to pdTRUE if the timer was created statically so no at
  82:../../../core/ST/Middlewares/Third_Party/FreeRTOS/Source/timers.c **** 	#endif
  83:../../../core/ST/Middlewares/Third_Party/FreeRTOS/Source/timers.c **** } xTIMER;
  84:../../../core/ST/Middlewares/Third_Party/FreeRTOS/Source/timers.c **** 
  85:../../../core/ST/Middlewares/Third_Party/FreeRTOS/Source/timers.c **** /* The old xTIMER name is maintained above then typedefed to the new Timer_t
  86:../../../core/ST/Middlewares/Third_Party/FreeRTOS/Source/timers.c **** name below to enable the use of older kernel aware debuggers. */
  87:../../../core/ST/Middlewares/Third_Party/FreeRTOS/Source/timers.c **** typedef xTIMER Timer_t;
ARM GAS  C:\Users\tomra\AppData\Local\Temp\ccsXPgWC.s 			page 3


  88:../../../core/ST/Middlewares/Third_Party/FreeRTOS/Source/timers.c **** 
  89:../../../core/ST/Middlewares/Third_Party/FreeRTOS/Source/timers.c **** /* The definition of messages that can be sent and received on the timer queue.
  90:../../../core/ST/Middlewares/Third_Party/FreeRTOS/Source/timers.c **** Two types of message can be queued - messages that manipulate a software timer,
  91:../../../core/ST/Middlewares/Third_Party/FreeRTOS/Source/timers.c **** and messages that request the execution of a non-timer related callback.  The
  92:../../../core/ST/Middlewares/Third_Party/FreeRTOS/Source/timers.c **** two message types are defined in two separate structures, xTimerParametersType
  93:../../../core/ST/Middlewares/Third_Party/FreeRTOS/Source/timers.c **** and xCallbackParametersType respectively. */
  94:../../../core/ST/Middlewares/Third_Party/FreeRTOS/Source/timers.c **** typedef struct tmrTimerParameters
  95:../../../core/ST/Middlewares/Third_Party/FreeRTOS/Source/timers.c **** {
  96:../../../core/ST/Middlewares/Third_Party/FreeRTOS/Source/timers.c **** 	TickType_t			xMessageValue;		/*<< An optional value used by a subset of commands, for example, whe
  97:../../../core/ST/Middlewares/Third_Party/FreeRTOS/Source/timers.c **** 	Timer_t *			pxTimer;			/*<< The timer to which the command will be applied. */
  98:../../../core/ST/Middlewares/Third_Party/FreeRTOS/Source/timers.c **** } TimerParameter_t;
  99:../../../core/ST/Middlewares/Third_Party/FreeRTOS/Source/timers.c **** 
 100:../../../core/ST/Middlewares/Third_Party/FreeRTOS/Source/timers.c **** 
 101:../../../core/ST/Middlewares/Third_Party/FreeRTOS/Source/timers.c **** typedef struct tmrCallbackParameters
 102:../../../core/ST/Middlewares/Third_Party/FreeRTOS/Source/timers.c **** {
 103:../../../core/ST/Middlewares/Third_Party/FreeRTOS/Source/timers.c **** 	PendedFunction_t	pxCallbackFunction;	/* << The callback function to execute. */
 104:../../../core/ST/Middlewares/Third_Party/FreeRTOS/Source/timers.c **** 	void *pvParameter1;						/* << The value that will be used as the callback functions first paramet
 105:../../../core/ST/Middlewares/Third_Party/FreeRTOS/Source/timers.c **** 	uint32_t ulParameter2;					/* << The value that will be used as the callback functions second para
 106:../../../core/ST/Middlewares/Third_Party/FreeRTOS/Source/timers.c **** } CallbackParameters_t;
 107:../../../core/ST/Middlewares/Third_Party/FreeRTOS/Source/timers.c **** 
 108:../../../core/ST/Middlewares/Third_Party/FreeRTOS/Source/timers.c **** /* The structure that contains the two message types, along with an identifier
 109:../../../core/ST/Middlewares/Third_Party/FreeRTOS/Source/timers.c **** that is used to determine which message type is valid. */
 110:../../../core/ST/Middlewares/Third_Party/FreeRTOS/Source/timers.c **** typedef struct tmrTimerQueueMessage
 111:../../../core/ST/Middlewares/Third_Party/FreeRTOS/Source/timers.c **** {
 112:../../../core/ST/Middlewares/Third_Party/FreeRTOS/Source/timers.c **** 	BaseType_t			xMessageID;			/*<< The command being sent to the timer service task. */
 113:../../../core/ST/Middlewares/Third_Party/FreeRTOS/Source/timers.c **** 	union
 114:../../../core/ST/Middlewares/Third_Party/FreeRTOS/Source/timers.c **** 	{
 115:../../../core/ST/Middlewares/Third_Party/FreeRTOS/Source/timers.c **** 		TimerParameter_t xTimerParameters;
 116:../../../core/ST/Middlewares/Third_Party/FreeRTOS/Source/timers.c **** 
 117:../../../core/ST/Middlewares/Third_Party/FreeRTOS/Source/timers.c **** 		/* Don't include xCallbackParameters if it is not going to be used as
 118:../../../core/ST/Middlewares/Third_Party/FreeRTOS/Source/timers.c **** 		it makes the structure (and therefore the timer queue) larger. */
 119:../../../core/ST/Middlewares/Third_Party/FreeRTOS/Source/timers.c **** 		#if ( INCLUDE_xTimerPendFunctionCall == 1 )
 120:../../../core/ST/Middlewares/Third_Party/FreeRTOS/Source/timers.c **** 			CallbackParameters_t xCallbackParameters;
 121:../../../core/ST/Middlewares/Third_Party/FreeRTOS/Source/timers.c **** 		#endif /* INCLUDE_xTimerPendFunctionCall */
 122:../../../core/ST/Middlewares/Third_Party/FreeRTOS/Source/timers.c **** 	} u;
 123:../../../core/ST/Middlewares/Third_Party/FreeRTOS/Source/timers.c **** } DaemonTaskMessage_t;
 124:../../../core/ST/Middlewares/Third_Party/FreeRTOS/Source/timers.c **** 
 125:../../../core/ST/Middlewares/Third_Party/FreeRTOS/Source/timers.c **** /*lint -save -e956 A manual analysis and inspection has been used to determine
 126:../../../core/ST/Middlewares/Third_Party/FreeRTOS/Source/timers.c **** which static variables must be declared volatile. */
 127:../../../core/ST/Middlewares/Third_Party/FreeRTOS/Source/timers.c **** 
 128:../../../core/ST/Middlewares/Third_Party/FreeRTOS/Source/timers.c **** /* The list in which active timers are stored.  Timers are referenced in expire
 129:../../../core/ST/Middlewares/Third_Party/FreeRTOS/Source/timers.c **** time order, with the nearest expiry time at the front of the list.  Only the
 130:../../../core/ST/Middlewares/Third_Party/FreeRTOS/Source/timers.c **** timer service task is allowed to access these lists. */
 131:../../../core/ST/Middlewares/Third_Party/FreeRTOS/Source/timers.c **** PRIVILEGED_DATA static List_t xActiveTimerList1 = {0};
 132:../../../core/ST/Middlewares/Third_Party/FreeRTOS/Source/timers.c **** PRIVILEGED_DATA static List_t xActiveTimerList2 = {0};
 133:../../../core/ST/Middlewares/Third_Party/FreeRTOS/Source/timers.c **** PRIVILEGED_DATA static List_t *pxCurrentTimerList = NULL;
 134:../../../core/ST/Middlewares/Third_Party/FreeRTOS/Source/timers.c **** PRIVILEGED_DATA static List_t *pxOverflowTimerList = NULL;
 135:../../../core/ST/Middlewares/Third_Party/FreeRTOS/Source/timers.c **** 
 136:../../../core/ST/Middlewares/Third_Party/FreeRTOS/Source/timers.c **** /* A queue that is used to send commands to the timer service task. */
 137:../../../core/ST/Middlewares/Third_Party/FreeRTOS/Source/timers.c **** PRIVILEGED_DATA static QueueHandle_t xTimerQueue = NULL;
 138:../../../core/ST/Middlewares/Third_Party/FreeRTOS/Source/timers.c **** PRIVILEGED_DATA static TaskHandle_t xTimerTaskHandle = NULL;
 139:../../../core/ST/Middlewares/Third_Party/FreeRTOS/Source/timers.c **** 
 140:../../../core/ST/Middlewares/Third_Party/FreeRTOS/Source/timers.c **** /*lint -restore */
 141:../../../core/ST/Middlewares/Third_Party/FreeRTOS/Source/timers.c **** 
 142:../../../core/ST/Middlewares/Third_Party/FreeRTOS/Source/timers.c **** /*-----------------------------------------------------------*/
 143:../../../core/ST/Middlewares/Third_Party/FreeRTOS/Source/timers.c **** 
 144:../../../core/ST/Middlewares/Third_Party/FreeRTOS/Source/timers.c **** #if( configSUPPORT_STATIC_ALLOCATION == 1 )
ARM GAS  C:\Users\tomra\AppData\Local\Temp\ccsXPgWC.s 			page 4


 145:../../../core/ST/Middlewares/Third_Party/FreeRTOS/Source/timers.c **** 
 146:../../../core/ST/Middlewares/Third_Party/FreeRTOS/Source/timers.c **** 	/* If static allocation is supported then the application must provide the
 147:../../../core/ST/Middlewares/Third_Party/FreeRTOS/Source/timers.c **** 	following callback function - which enables the application to optionally
 148:../../../core/ST/Middlewares/Third_Party/FreeRTOS/Source/timers.c **** 	provide the memory that will be used by the timer task as the task's stack
 149:../../../core/ST/Middlewares/Third_Party/FreeRTOS/Source/timers.c **** 	and TCB. */
 150:../../../core/ST/Middlewares/Third_Party/FreeRTOS/Source/timers.c **** 	extern void vApplicationGetTimerTaskMemory( StaticTask_t **ppxTimerTaskTCBBuffer, StackType_t **pp
 151:../../../core/ST/Middlewares/Third_Party/FreeRTOS/Source/timers.c **** 
 152:../../../core/ST/Middlewares/Third_Party/FreeRTOS/Source/timers.c **** #endif
 153:../../../core/ST/Middlewares/Third_Party/FreeRTOS/Source/timers.c **** 
 154:../../../core/ST/Middlewares/Third_Party/FreeRTOS/Source/timers.c **** /*
 155:../../../core/ST/Middlewares/Third_Party/FreeRTOS/Source/timers.c ****  * Initialise the infrastructure used by the timer service task if it has not
 156:../../../core/ST/Middlewares/Third_Party/FreeRTOS/Source/timers.c ****  * been initialised already.
 157:../../../core/ST/Middlewares/Third_Party/FreeRTOS/Source/timers.c ****  */
 158:../../../core/ST/Middlewares/Third_Party/FreeRTOS/Source/timers.c **** static void prvCheckForValidListAndQueue( void ) PRIVILEGED_FUNCTION;
 159:../../../core/ST/Middlewares/Third_Party/FreeRTOS/Source/timers.c **** 
 160:../../../core/ST/Middlewares/Third_Party/FreeRTOS/Source/timers.c **** /*
 161:../../../core/ST/Middlewares/Third_Party/FreeRTOS/Source/timers.c ****  * The timer service task (daemon).  Timer functionality is controlled by this
 162:../../../core/ST/Middlewares/Third_Party/FreeRTOS/Source/timers.c ****  * task.  Other tasks communicate with the timer service task using the
 163:../../../core/ST/Middlewares/Third_Party/FreeRTOS/Source/timers.c ****  * xTimerQueue queue.
 164:../../../core/ST/Middlewares/Third_Party/FreeRTOS/Source/timers.c ****  */
 165:../../../core/ST/Middlewares/Third_Party/FreeRTOS/Source/timers.c **** static void prvTimerTask( void *pvParameters ) PRIVILEGED_FUNCTION;
 166:../../../core/ST/Middlewares/Third_Party/FreeRTOS/Source/timers.c **** 
 167:../../../core/ST/Middlewares/Third_Party/FreeRTOS/Source/timers.c **** /*
 168:../../../core/ST/Middlewares/Third_Party/FreeRTOS/Source/timers.c ****  * Called by the timer service task to interpret and process a command it
 169:../../../core/ST/Middlewares/Third_Party/FreeRTOS/Source/timers.c ****  * received on the timer queue.
 170:../../../core/ST/Middlewares/Third_Party/FreeRTOS/Source/timers.c ****  */
 171:../../../core/ST/Middlewares/Third_Party/FreeRTOS/Source/timers.c **** static void prvProcessReceivedCommands( void ) PRIVILEGED_FUNCTION;
 172:../../../core/ST/Middlewares/Third_Party/FreeRTOS/Source/timers.c **** 
 173:../../../core/ST/Middlewares/Third_Party/FreeRTOS/Source/timers.c **** /*
 174:../../../core/ST/Middlewares/Third_Party/FreeRTOS/Source/timers.c ****  * Insert the timer into either xActiveTimerList1, or xActiveTimerList2,
 175:../../../core/ST/Middlewares/Third_Party/FreeRTOS/Source/timers.c ****  * depending on if the expire time causes a timer counter overflow.
 176:../../../core/ST/Middlewares/Third_Party/FreeRTOS/Source/timers.c ****  */
 177:../../../core/ST/Middlewares/Third_Party/FreeRTOS/Source/timers.c **** static BaseType_t prvInsertTimerInActiveList( Timer_t * const pxTimer, const TickType_t xNextExpiry
 178:../../../core/ST/Middlewares/Third_Party/FreeRTOS/Source/timers.c **** 
 179:../../../core/ST/Middlewares/Third_Party/FreeRTOS/Source/timers.c **** /*
 180:../../../core/ST/Middlewares/Third_Party/FreeRTOS/Source/timers.c ****  * An active timer has reached its expire time.  Reload the timer if it is an
 181:../../../core/ST/Middlewares/Third_Party/FreeRTOS/Source/timers.c ****  * auto reload timer, then call its callback.
 182:../../../core/ST/Middlewares/Third_Party/FreeRTOS/Source/timers.c ****  */
 183:../../../core/ST/Middlewares/Third_Party/FreeRTOS/Source/timers.c **** static void prvProcessExpiredTimer( const TickType_t xNextExpireTime, const TickType_t xTimeNow ) P
 184:../../../core/ST/Middlewares/Third_Party/FreeRTOS/Source/timers.c **** 
 185:../../../core/ST/Middlewares/Third_Party/FreeRTOS/Source/timers.c **** /*
 186:../../../core/ST/Middlewares/Third_Party/FreeRTOS/Source/timers.c ****  * The tick count has overflowed.  Switch the timer lists after ensuring the
 187:../../../core/ST/Middlewares/Third_Party/FreeRTOS/Source/timers.c ****  * current timer list does not still reference some timers.
 188:../../../core/ST/Middlewares/Third_Party/FreeRTOS/Source/timers.c ****  */
 189:../../../core/ST/Middlewares/Third_Party/FreeRTOS/Source/timers.c **** static void prvSwitchTimerLists( void ) PRIVILEGED_FUNCTION;
 190:../../../core/ST/Middlewares/Third_Party/FreeRTOS/Source/timers.c **** 
 191:../../../core/ST/Middlewares/Third_Party/FreeRTOS/Source/timers.c **** /*
 192:../../../core/ST/Middlewares/Third_Party/FreeRTOS/Source/timers.c ****  * Obtain the current tick count, setting *pxTimerListsWereSwitched to pdTRUE
 193:../../../core/ST/Middlewares/Third_Party/FreeRTOS/Source/timers.c ****  * if a tick count overflow occurred since prvSampleTimeNow() was last called.
 194:../../../core/ST/Middlewares/Third_Party/FreeRTOS/Source/timers.c ****  */
 195:../../../core/ST/Middlewares/Third_Party/FreeRTOS/Source/timers.c **** static TickType_t prvSampleTimeNow( BaseType_t * const pxTimerListsWereSwitched ) PRIVILEGED_FUNCTI
 196:../../../core/ST/Middlewares/Third_Party/FreeRTOS/Source/timers.c **** 
 197:../../../core/ST/Middlewares/Third_Party/FreeRTOS/Source/timers.c **** /*
 198:../../../core/ST/Middlewares/Third_Party/FreeRTOS/Source/timers.c ****  * If the timer list contains any active timers then return the expire time of
 199:../../../core/ST/Middlewares/Third_Party/FreeRTOS/Source/timers.c ****  * the timer that will expire first and set *pxListWasEmpty to false.  If the
 200:../../../core/ST/Middlewares/Third_Party/FreeRTOS/Source/timers.c ****  * timer list does not contain any timers then return 0 and set *pxListWasEmpty
 201:../../../core/ST/Middlewares/Third_Party/FreeRTOS/Source/timers.c ****  * to pdTRUE.
ARM GAS  C:\Users\tomra\AppData\Local\Temp\ccsXPgWC.s 			page 5


 202:../../../core/ST/Middlewares/Third_Party/FreeRTOS/Source/timers.c ****  */
 203:../../../core/ST/Middlewares/Third_Party/FreeRTOS/Source/timers.c **** static TickType_t prvGetNextExpireTime( BaseType_t * const pxListWasEmpty ) PRIVILEGED_FUNCTION;
 204:../../../core/ST/Middlewares/Third_Party/FreeRTOS/Source/timers.c **** 
 205:../../../core/ST/Middlewares/Third_Party/FreeRTOS/Source/timers.c **** /*
 206:../../../core/ST/Middlewares/Third_Party/FreeRTOS/Source/timers.c ****  * If a timer has expired, process it.  Otherwise, block the timer service task
 207:../../../core/ST/Middlewares/Third_Party/FreeRTOS/Source/timers.c ****  * until either a timer does expire or a command is received.
 208:../../../core/ST/Middlewares/Third_Party/FreeRTOS/Source/timers.c ****  */
 209:../../../core/ST/Middlewares/Third_Party/FreeRTOS/Source/timers.c **** static void prvProcessTimerOrBlockTask( const TickType_t xNextExpireTime, BaseType_t xListWasEmpty 
 210:../../../core/ST/Middlewares/Third_Party/FreeRTOS/Source/timers.c **** 
 211:../../../core/ST/Middlewares/Third_Party/FreeRTOS/Source/timers.c **** /*
 212:../../../core/ST/Middlewares/Third_Party/FreeRTOS/Source/timers.c ****  * Called after a Timer_t structure has been allocated either statically or
 213:../../../core/ST/Middlewares/Third_Party/FreeRTOS/Source/timers.c ****  * dynamically to fill in the structure's members.
 214:../../../core/ST/Middlewares/Third_Party/FreeRTOS/Source/timers.c ****  */
 215:../../../core/ST/Middlewares/Third_Party/FreeRTOS/Source/timers.c **** static void prvInitialiseNewTimer(	const char * const pcTimerName,			/*lint !e971 Unqualified char 
 216:../../../core/ST/Middlewares/Third_Party/FreeRTOS/Source/timers.c **** 									const TickType_t xTimerPeriodInTicks,
 217:../../../core/ST/Middlewares/Third_Party/FreeRTOS/Source/timers.c **** 									const UBaseType_t uxAutoReload,
 218:../../../core/ST/Middlewares/Third_Party/FreeRTOS/Source/timers.c **** 									void * const pvTimerID,
 219:../../../core/ST/Middlewares/Third_Party/FreeRTOS/Source/timers.c **** 									TimerCallbackFunction_t pxCallbackFunction,
 220:../../../core/ST/Middlewares/Third_Party/FreeRTOS/Source/timers.c **** 									Timer_t *pxNewTimer ) PRIVILEGED_FUNCTION;
 221:../../../core/ST/Middlewares/Third_Party/FreeRTOS/Source/timers.c **** /*-----------------------------------------------------------*/
 222:../../../core/ST/Middlewares/Third_Party/FreeRTOS/Source/timers.c **** 
 223:../../../core/ST/Middlewares/Third_Party/FreeRTOS/Source/timers.c **** BaseType_t xTimerCreateTimerTask( void )
 224:../../../core/ST/Middlewares/Third_Party/FreeRTOS/Source/timers.c **** {
 225:../../../core/ST/Middlewares/Third_Party/FreeRTOS/Source/timers.c **** BaseType_t xReturn = pdFAIL;
 226:../../../core/ST/Middlewares/Third_Party/FreeRTOS/Source/timers.c **** 
 227:../../../core/ST/Middlewares/Third_Party/FreeRTOS/Source/timers.c **** 	/* This function is called when the scheduler is started if
 228:../../../core/ST/Middlewares/Third_Party/FreeRTOS/Source/timers.c **** 	configUSE_TIMERS is set to 1.  Check that the infrastructure used by the
 229:../../../core/ST/Middlewares/Third_Party/FreeRTOS/Source/timers.c **** 	timer service task has been created/initialised.  If timers have already
 230:../../../core/ST/Middlewares/Third_Party/FreeRTOS/Source/timers.c **** 	been created then the initialisation will already have been performed. */
 231:../../../core/ST/Middlewares/Third_Party/FreeRTOS/Source/timers.c **** 	prvCheckForValidListAndQueue();
 232:../../../core/ST/Middlewares/Third_Party/FreeRTOS/Source/timers.c **** 
 233:../../../core/ST/Middlewares/Third_Party/FreeRTOS/Source/timers.c **** 	if( xTimerQueue != NULL )
 234:../../../core/ST/Middlewares/Third_Party/FreeRTOS/Source/timers.c **** 	{
 235:../../../core/ST/Middlewares/Third_Party/FreeRTOS/Source/timers.c **** 		#if( configSUPPORT_STATIC_ALLOCATION == 1 )
 236:../../../core/ST/Middlewares/Third_Party/FreeRTOS/Source/timers.c **** 		{
 237:../../../core/ST/Middlewares/Third_Party/FreeRTOS/Source/timers.c **** 			StaticTask_t *pxTimerTaskTCBBuffer = NULL;
 238:../../../core/ST/Middlewares/Third_Party/FreeRTOS/Source/timers.c **** 			StackType_t *pxTimerTaskStackBuffer = NULL;
 239:../../../core/ST/Middlewares/Third_Party/FreeRTOS/Source/timers.c **** 			uint32_t ulTimerTaskStackSize;
 240:../../../core/ST/Middlewares/Third_Party/FreeRTOS/Source/timers.c **** 
 241:../../../core/ST/Middlewares/Third_Party/FreeRTOS/Source/timers.c **** 			vApplicationGetTimerTaskMemory( &pxTimerTaskTCBBuffer, &pxTimerTaskStackBuffer, &ulTimerTaskStac
 242:../../../core/ST/Middlewares/Third_Party/FreeRTOS/Source/timers.c **** 			xTimerTaskHandle = xTaskCreateStatic(	prvTimerTask,
 243:../../../core/ST/Middlewares/Third_Party/FreeRTOS/Source/timers.c **** 													configTIMER_SERVICE_TASK_NAME,
 244:../../../core/ST/Middlewares/Third_Party/FreeRTOS/Source/timers.c **** 													ulTimerTaskStackSize,
 245:../../../core/ST/Middlewares/Third_Party/FreeRTOS/Source/timers.c **** 													NULL,
 246:../../../core/ST/Middlewares/Third_Party/FreeRTOS/Source/timers.c **** 													( ( UBaseType_t ) configTIMER_TASK_PRIORITY ) | portPRIVILEGE_BIT,
 247:../../../core/ST/Middlewares/Third_Party/FreeRTOS/Source/timers.c **** 													pxTimerTaskStackBuffer,
 248:../../../core/ST/Middlewares/Third_Party/FreeRTOS/Source/timers.c **** 													pxTimerTaskTCBBuffer );
 249:../../../core/ST/Middlewares/Third_Party/FreeRTOS/Source/timers.c **** 
 250:../../../core/ST/Middlewares/Third_Party/FreeRTOS/Source/timers.c **** 			if( xTimerTaskHandle != NULL )
 251:../../../core/ST/Middlewares/Third_Party/FreeRTOS/Source/timers.c **** 			{
 252:../../../core/ST/Middlewares/Third_Party/FreeRTOS/Source/timers.c **** 				xReturn = pdPASS;
 253:../../../core/ST/Middlewares/Third_Party/FreeRTOS/Source/timers.c **** 			}
 254:../../../core/ST/Middlewares/Third_Party/FreeRTOS/Source/timers.c **** 		}
 255:../../../core/ST/Middlewares/Third_Party/FreeRTOS/Source/timers.c **** 		#else
 256:../../../core/ST/Middlewares/Third_Party/FreeRTOS/Source/timers.c **** 		{
 257:../../../core/ST/Middlewares/Third_Party/FreeRTOS/Source/timers.c **** 			xReturn = xTaskCreate(	prvTimerTask,
 258:../../../core/ST/Middlewares/Third_Party/FreeRTOS/Source/timers.c **** 									configTIMER_SERVICE_TASK_NAME,
ARM GAS  C:\Users\tomra\AppData\Local\Temp\ccsXPgWC.s 			page 6


 259:../../../core/ST/Middlewares/Third_Party/FreeRTOS/Source/timers.c **** 									configTIMER_TASK_STACK_DEPTH,
 260:../../../core/ST/Middlewares/Third_Party/FreeRTOS/Source/timers.c **** 									NULL,
 261:../../../core/ST/Middlewares/Third_Party/FreeRTOS/Source/timers.c **** 									( ( UBaseType_t ) configTIMER_TASK_PRIORITY ) | portPRIVILEGE_BIT,
 262:../../../core/ST/Middlewares/Third_Party/FreeRTOS/Source/timers.c **** 									&xTimerTaskHandle );
 263:../../../core/ST/Middlewares/Third_Party/FreeRTOS/Source/timers.c **** 		}
 264:../../../core/ST/Middlewares/Third_Party/FreeRTOS/Source/timers.c **** 		#endif /* configSUPPORT_STATIC_ALLOCATION */
 265:../../../core/ST/Middlewares/Third_Party/FreeRTOS/Source/timers.c **** 	}
 266:../../../core/ST/Middlewares/Third_Party/FreeRTOS/Source/timers.c **** 	else
 267:../../../core/ST/Middlewares/Third_Party/FreeRTOS/Source/timers.c **** 	{
 268:../../../core/ST/Middlewares/Third_Party/FreeRTOS/Source/timers.c **** 		mtCOVERAGE_TEST_MARKER();
 269:../../../core/ST/Middlewares/Third_Party/FreeRTOS/Source/timers.c **** 	}
 270:../../../core/ST/Middlewares/Third_Party/FreeRTOS/Source/timers.c **** 
 271:../../../core/ST/Middlewares/Third_Party/FreeRTOS/Source/timers.c **** 	configASSERT( xReturn );
 272:../../../core/ST/Middlewares/Third_Party/FreeRTOS/Source/timers.c **** 	return xReturn;
 273:../../../core/ST/Middlewares/Third_Party/FreeRTOS/Source/timers.c **** }
 274:../../../core/ST/Middlewares/Third_Party/FreeRTOS/Source/timers.c **** /*-----------------------------------------------------------*/
 275:../../../core/ST/Middlewares/Third_Party/FreeRTOS/Source/timers.c **** 
 276:../../../core/ST/Middlewares/Third_Party/FreeRTOS/Source/timers.c **** #if( configSUPPORT_DYNAMIC_ALLOCATION == 1 )
 277:../../../core/ST/Middlewares/Third_Party/FreeRTOS/Source/timers.c **** 
 278:../../../core/ST/Middlewares/Third_Party/FreeRTOS/Source/timers.c **** 	TimerHandle_t xTimerCreate(	const char * const pcTimerName,			/*lint !e971 Unqualified char types 
 279:../../../core/ST/Middlewares/Third_Party/FreeRTOS/Source/timers.c **** 								const TickType_t xTimerPeriodInTicks,
 280:../../../core/ST/Middlewares/Third_Party/FreeRTOS/Source/timers.c **** 								const UBaseType_t uxAutoReload,
 281:../../../core/ST/Middlewares/Third_Party/FreeRTOS/Source/timers.c **** 								void * const pvTimerID,
 282:../../../core/ST/Middlewares/Third_Party/FreeRTOS/Source/timers.c **** 								TimerCallbackFunction_t pxCallbackFunction )
 283:../../../core/ST/Middlewares/Third_Party/FreeRTOS/Source/timers.c **** 	{
 284:../../../core/ST/Middlewares/Third_Party/FreeRTOS/Source/timers.c **** 	Timer_t *pxNewTimer;
 285:../../../core/ST/Middlewares/Third_Party/FreeRTOS/Source/timers.c **** 
 286:../../../core/ST/Middlewares/Third_Party/FreeRTOS/Source/timers.c **** 		pxNewTimer = ( Timer_t * ) pvPortMalloc( sizeof( Timer_t ) );
 287:../../../core/ST/Middlewares/Third_Party/FreeRTOS/Source/timers.c **** 
 288:../../../core/ST/Middlewares/Third_Party/FreeRTOS/Source/timers.c **** 		if( pxNewTimer != NULL )
 289:../../../core/ST/Middlewares/Third_Party/FreeRTOS/Source/timers.c **** 		{
 290:../../../core/ST/Middlewares/Third_Party/FreeRTOS/Source/timers.c **** 			prvInitialiseNewTimer( pcTimerName, xTimerPeriodInTicks, uxAutoReload, pvTimerID, pxCallbackFunc
 291:../../../core/ST/Middlewares/Third_Party/FreeRTOS/Source/timers.c **** 
 292:../../../core/ST/Middlewares/Third_Party/FreeRTOS/Source/timers.c **** 			#if( configSUPPORT_STATIC_ALLOCATION == 1 )
 293:../../../core/ST/Middlewares/Third_Party/FreeRTOS/Source/timers.c **** 			{
 294:../../../core/ST/Middlewares/Third_Party/FreeRTOS/Source/timers.c **** 				/* Timers can be created statically or dynamically, so note this
 295:../../../core/ST/Middlewares/Third_Party/FreeRTOS/Source/timers.c **** 				timer was created dynamically in case the timer is later
 296:../../../core/ST/Middlewares/Third_Party/FreeRTOS/Source/timers.c **** 				deleted. */
 297:../../../core/ST/Middlewares/Third_Party/FreeRTOS/Source/timers.c **** 				pxNewTimer->ucStaticallyAllocated = pdFALSE;
 298:../../../core/ST/Middlewares/Third_Party/FreeRTOS/Source/timers.c **** 			}
 299:../../../core/ST/Middlewares/Third_Party/FreeRTOS/Source/timers.c **** 			#endif /* configSUPPORT_STATIC_ALLOCATION */
 300:../../../core/ST/Middlewares/Third_Party/FreeRTOS/Source/timers.c **** 		}
 301:../../../core/ST/Middlewares/Third_Party/FreeRTOS/Source/timers.c **** 
 302:../../../core/ST/Middlewares/Third_Party/FreeRTOS/Source/timers.c **** 		return pxNewTimer;
 303:../../../core/ST/Middlewares/Third_Party/FreeRTOS/Source/timers.c **** 	}
 304:../../../core/ST/Middlewares/Third_Party/FreeRTOS/Source/timers.c **** 
 305:../../../core/ST/Middlewares/Third_Party/FreeRTOS/Source/timers.c **** #endif /* configSUPPORT_STATIC_ALLOCATION */
 306:../../../core/ST/Middlewares/Third_Party/FreeRTOS/Source/timers.c **** /*-----------------------------------------------------------*/
 307:../../../core/ST/Middlewares/Third_Party/FreeRTOS/Source/timers.c **** 
 308:../../../core/ST/Middlewares/Third_Party/FreeRTOS/Source/timers.c **** #if( configSUPPORT_STATIC_ALLOCATION == 1 )
 309:../../../core/ST/Middlewares/Third_Party/FreeRTOS/Source/timers.c **** 
 310:../../../core/ST/Middlewares/Third_Party/FreeRTOS/Source/timers.c **** 	TimerHandle_t xTimerCreateStatic(	const char * const pcTimerName,		/*lint !e971 Unqualified char t
 311:../../../core/ST/Middlewares/Third_Party/FreeRTOS/Source/timers.c **** 										const TickType_t xTimerPeriodInTicks,
 312:../../../core/ST/Middlewares/Third_Party/FreeRTOS/Source/timers.c **** 										const UBaseType_t uxAutoReload,
 313:../../../core/ST/Middlewares/Third_Party/FreeRTOS/Source/timers.c **** 										void * const pvTimerID,
 314:../../../core/ST/Middlewares/Third_Party/FreeRTOS/Source/timers.c **** 										TimerCallbackFunction_t pxCallbackFunction,
 315:../../../core/ST/Middlewares/Third_Party/FreeRTOS/Source/timers.c **** 										StaticTimer_t *pxTimerBuffer )
ARM GAS  C:\Users\tomra\AppData\Local\Temp\ccsXPgWC.s 			page 7


 316:../../../core/ST/Middlewares/Third_Party/FreeRTOS/Source/timers.c **** 	{
 317:../../../core/ST/Middlewares/Third_Party/FreeRTOS/Source/timers.c **** 	Timer_t *pxNewTimer;
 318:../../../core/ST/Middlewares/Third_Party/FreeRTOS/Source/timers.c **** 
 319:../../../core/ST/Middlewares/Third_Party/FreeRTOS/Source/timers.c **** 		#if( configASSERT_DEFINED == 1 )
 320:../../../core/ST/Middlewares/Third_Party/FreeRTOS/Source/timers.c **** 		{
 321:../../../core/ST/Middlewares/Third_Party/FreeRTOS/Source/timers.c **** 			/* Sanity check that the size of the structure used to declare a
 322:../../../core/ST/Middlewares/Third_Party/FreeRTOS/Source/timers.c **** 			variable of type StaticTimer_t equals the size of the real timer
 323:../../../core/ST/Middlewares/Third_Party/FreeRTOS/Source/timers.c **** 			structure. */
 324:../../../core/ST/Middlewares/Third_Party/FreeRTOS/Source/timers.c **** 			volatile size_t xSize = sizeof( StaticTimer_t );
 325:../../../core/ST/Middlewares/Third_Party/FreeRTOS/Source/timers.c **** 			configASSERT( xSize == sizeof( Timer_t ) );
 326:../../../core/ST/Middlewares/Third_Party/FreeRTOS/Source/timers.c **** 		}
 327:../../../core/ST/Middlewares/Third_Party/FreeRTOS/Source/timers.c **** 		#endif /* configASSERT_DEFINED */
 328:../../../core/ST/Middlewares/Third_Party/FreeRTOS/Source/timers.c **** 
 329:../../../core/ST/Middlewares/Third_Party/FreeRTOS/Source/timers.c **** 		/* A pointer to a StaticTimer_t structure MUST be provided, use it. */
 330:../../../core/ST/Middlewares/Third_Party/FreeRTOS/Source/timers.c **** 		configASSERT( pxTimerBuffer );
 331:../../../core/ST/Middlewares/Third_Party/FreeRTOS/Source/timers.c **** 		pxNewTimer = ( Timer_t * ) pxTimerBuffer; /*lint !e740 Unusual cast is ok as the structures are d
 332:../../../core/ST/Middlewares/Third_Party/FreeRTOS/Source/timers.c **** 
 333:../../../core/ST/Middlewares/Third_Party/FreeRTOS/Source/timers.c **** 		if( pxNewTimer != NULL )
 334:../../../core/ST/Middlewares/Third_Party/FreeRTOS/Source/timers.c **** 		{
 335:../../../core/ST/Middlewares/Third_Party/FreeRTOS/Source/timers.c **** 			prvInitialiseNewTimer( pcTimerName, xTimerPeriodInTicks, uxAutoReload, pvTimerID, pxCallbackFunc
 336:../../../core/ST/Middlewares/Third_Party/FreeRTOS/Source/timers.c **** 
 337:../../../core/ST/Middlewares/Third_Party/FreeRTOS/Source/timers.c **** 			#if( configSUPPORT_DYNAMIC_ALLOCATION == 1 )
 338:../../../core/ST/Middlewares/Third_Party/FreeRTOS/Source/timers.c **** 			{
 339:../../../core/ST/Middlewares/Third_Party/FreeRTOS/Source/timers.c **** 				/* Timers can be created statically or dynamically so note this
 340:../../../core/ST/Middlewares/Third_Party/FreeRTOS/Source/timers.c **** 				timer was created statically in case it is later deleted. */
 341:../../../core/ST/Middlewares/Third_Party/FreeRTOS/Source/timers.c **** 				pxNewTimer->ucStaticallyAllocated = pdTRUE;
 342:../../../core/ST/Middlewares/Third_Party/FreeRTOS/Source/timers.c **** 			}
 343:../../../core/ST/Middlewares/Third_Party/FreeRTOS/Source/timers.c **** 			#endif /* configSUPPORT_DYNAMIC_ALLOCATION */
 344:../../../core/ST/Middlewares/Third_Party/FreeRTOS/Source/timers.c **** 		}
 345:../../../core/ST/Middlewares/Third_Party/FreeRTOS/Source/timers.c **** 
 346:../../../core/ST/Middlewares/Third_Party/FreeRTOS/Source/timers.c **** 		return pxNewTimer;
 347:../../../core/ST/Middlewares/Third_Party/FreeRTOS/Source/timers.c **** 	}
 348:../../../core/ST/Middlewares/Third_Party/FreeRTOS/Source/timers.c **** 
 349:../../../core/ST/Middlewares/Third_Party/FreeRTOS/Source/timers.c **** #endif /* configSUPPORT_STATIC_ALLOCATION */
 350:../../../core/ST/Middlewares/Third_Party/FreeRTOS/Source/timers.c **** /*-----------------------------------------------------------*/
 351:../../../core/ST/Middlewares/Third_Party/FreeRTOS/Source/timers.c **** 
 352:../../../core/ST/Middlewares/Third_Party/FreeRTOS/Source/timers.c **** static void prvInitialiseNewTimer(	const char * const pcTimerName,			/*lint !e971 Unqualified char 
 353:../../../core/ST/Middlewares/Third_Party/FreeRTOS/Source/timers.c **** 									const TickType_t xTimerPeriodInTicks,
 354:../../../core/ST/Middlewares/Third_Party/FreeRTOS/Source/timers.c **** 									const UBaseType_t uxAutoReload,
 355:../../../core/ST/Middlewares/Third_Party/FreeRTOS/Source/timers.c **** 									void * const pvTimerID,
 356:../../../core/ST/Middlewares/Third_Party/FreeRTOS/Source/timers.c **** 									TimerCallbackFunction_t pxCallbackFunction,
 357:../../../core/ST/Middlewares/Third_Party/FreeRTOS/Source/timers.c **** 									Timer_t *pxNewTimer )
 358:../../../core/ST/Middlewares/Third_Party/FreeRTOS/Source/timers.c **** {
 359:../../../core/ST/Middlewares/Third_Party/FreeRTOS/Source/timers.c **** 	/* 0 is not a valid value for xTimerPeriodInTicks. */
 360:../../../core/ST/Middlewares/Third_Party/FreeRTOS/Source/timers.c **** 	configASSERT( ( xTimerPeriodInTicks > 0 ) );
 361:../../../core/ST/Middlewares/Third_Party/FreeRTOS/Source/timers.c **** 
 362:../../../core/ST/Middlewares/Third_Party/FreeRTOS/Source/timers.c **** 	if( pxNewTimer != NULL )
 363:../../../core/ST/Middlewares/Third_Party/FreeRTOS/Source/timers.c **** 	{
 364:../../../core/ST/Middlewares/Third_Party/FreeRTOS/Source/timers.c **** 		/* Ensure the infrastructure used by the timer service task has been
 365:../../../core/ST/Middlewares/Third_Party/FreeRTOS/Source/timers.c **** 		created/initialised. */
 366:../../../core/ST/Middlewares/Third_Party/FreeRTOS/Source/timers.c **** 		prvCheckForValidListAndQueue();
 367:../../../core/ST/Middlewares/Third_Party/FreeRTOS/Source/timers.c **** 
 368:../../../core/ST/Middlewares/Third_Party/FreeRTOS/Source/timers.c **** 		/* Initialise the timer structure members using the function
 369:../../../core/ST/Middlewares/Third_Party/FreeRTOS/Source/timers.c **** 		parameters. */
 370:../../../core/ST/Middlewares/Third_Party/FreeRTOS/Source/timers.c **** 		pxNewTimer->pcTimerName = pcTimerName;
 371:../../../core/ST/Middlewares/Third_Party/FreeRTOS/Source/timers.c **** 		pxNewTimer->xTimerPeriodInTicks = xTimerPeriodInTicks;
 372:../../../core/ST/Middlewares/Third_Party/FreeRTOS/Source/timers.c **** 		pxNewTimer->uxAutoReload = uxAutoReload;
ARM GAS  C:\Users\tomra\AppData\Local\Temp\ccsXPgWC.s 			page 8


 373:../../../core/ST/Middlewares/Third_Party/FreeRTOS/Source/timers.c **** 		pxNewTimer->pvTimerID = pvTimerID;
 374:../../../core/ST/Middlewares/Third_Party/FreeRTOS/Source/timers.c **** 		pxNewTimer->pxCallbackFunction = pxCallbackFunction;
 375:../../../core/ST/Middlewares/Third_Party/FreeRTOS/Source/timers.c **** 		vListInitialiseItem( &( pxNewTimer->xTimerListItem ) );
 376:../../../core/ST/Middlewares/Third_Party/FreeRTOS/Source/timers.c **** 		traceTIMER_CREATE( pxNewTimer );
 377:../../../core/ST/Middlewares/Third_Party/FreeRTOS/Source/timers.c **** 	}
 378:../../../core/ST/Middlewares/Third_Party/FreeRTOS/Source/timers.c **** }
 379:../../../core/ST/Middlewares/Third_Party/FreeRTOS/Source/timers.c **** /*-----------------------------------------------------------*/
 380:../../../core/ST/Middlewares/Third_Party/FreeRTOS/Source/timers.c **** 
 381:../../../core/ST/Middlewares/Third_Party/FreeRTOS/Source/timers.c **** BaseType_t xTimerGenericCommand( TimerHandle_t xTimer, const BaseType_t xCommandID, const TickType_
 382:../../../core/ST/Middlewares/Third_Party/FreeRTOS/Source/timers.c **** {
 383:../../../core/ST/Middlewares/Third_Party/FreeRTOS/Source/timers.c **** BaseType_t xReturn = pdFAIL;
 384:../../../core/ST/Middlewares/Third_Party/FreeRTOS/Source/timers.c **** DaemonTaskMessage_t xMessage;
 385:../../../core/ST/Middlewares/Third_Party/FreeRTOS/Source/timers.c **** 
 386:../../../core/ST/Middlewares/Third_Party/FreeRTOS/Source/timers.c **** 	configASSERT( xTimer );
 387:../../../core/ST/Middlewares/Third_Party/FreeRTOS/Source/timers.c **** 
 388:../../../core/ST/Middlewares/Third_Party/FreeRTOS/Source/timers.c **** 	/* Send a message to the timer service task to perform a particular action
 389:../../../core/ST/Middlewares/Third_Party/FreeRTOS/Source/timers.c **** 	on a particular timer definition. */
 390:../../../core/ST/Middlewares/Third_Party/FreeRTOS/Source/timers.c **** 	if( xTimerQueue != NULL )
 391:../../../core/ST/Middlewares/Third_Party/FreeRTOS/Source/timers.c **** 	{
 392:../../../core/ST/Middlewares/Third_Party/FreeRTOS/Source/timers.c **** 		/* Send a command to the timer service task to start the xTimer timer. */
 393:../../../core/ST/Middlewares/Third_Party/FreeRTOS/Source/timers.c **** 		xMessage.xMessageID = xCommandID;
 394:../../../core/ST/Middlewares/Third_Party/FreeRTOS/Source/timers.c **** 		xMessage.u.xTimerParameters.xMessageValue = xOptionalValue;
 395:../../../core/ST/Middlewares/Third_Party/FreeRTOS/Source/timers.c **** 		xMessage.u.xTimerParameters.pxTimer = ( Timer_t * ) xTimer;
 396:../../../core/ST/Middlewares/Third_Party/FreeRTOS/Source/timers.c **** 
 397:../../../core/ST/Middlewares/Third_Party/FreeRTOS/Source/timers.c **** 		if( xCommandID < tmrFIRST_FROM_ISR_COMMAND )
 398:../../../core/ST/Middlewares/Third_Party/FreeRTOS/Source/timers.c **** 		{
 399:../../../core/ST/Middlewares/Third_Party/FreeRTOS/Source/timers.c **** 			if( xTaskGetSchedulerState() == taskSCHEDULER_RUNNING )
 400:../../../core/ST/Middlewares/Third_Party/FreeRTOS/Source/timers.c **** 			{
 401:../../../core/ST/Middlewares/Third_Party/FreeRTOS/Source/timers.c **** 				xReturn = xQueueSendToBack( xTimerQueue, &xMessage, xTicksToWait );
 402:../../../core/ST/Middlewares/Third_Party/FreeRTOS/Source/timers.c **** 			}
 403:../../../core/ST/Middlewares/Third_Party/FreeRTOS/Source/timers.c **** 			else
 404:../../../core/ST/Middlewares/Third_Party/FreeRTOS/Source/timers.c **** 			{
 405:../../../core/ST/Middlewares/Third_Party/FreeRTOS/Source/timers.c **** 				xReturn = xQueueSendToBack( xTimerQueue, &xMessage, tmrNO_DELAY );
 406:../../../core/ST/Middlewares/Third_Party/FreeRTOS/Source/timers.c **** 			}
 407:../../../core/ST/Middlewares/Third_Party/FreeRTOS/Source/timers.c **** 		}
 408:../../../core/ST/Middlewares/Third_Party/FreeRTOS/Source/timers.c **** 		else
 409:../../../core/ST/Middlewares/Third_Party/FreeRTOS/Source/timers.c **** 		{
 410:../../../core/ST/Middlewares/Third_Party/FreeRTOS/Source/timers.c **** 			xReturn = xQueueSendToBackFromISR( xTimerQueue, &xMessage, pxHigherPriorityTaskWoken );
 411:../../../core/ST/Middlewares/Third_Party/FreeRTOS/Source/timers.c **** 		}
 412:../../../core/ST/Middlewares/Third_Party/FreeRTOS/Source/timers.c **** 
 413:../../../core/ST/Middlewares/Third_Party/FreeRTOS/Source/timers.c **** 		traceTIMER_COMMAND_SEND( xTimer, xCommandID, xOptionalValue, xReturn );
 414:../../../core/ST/Middlewares/Third_Party/FreeRTOS/Source/timers.c **** 	}
 415:../../../core/ST/Middlewares/Third_Party/FreeRTOS/Source/timers.c **** 	else
 416:../../../core/ST/Middlewares/Third_Party/FreeRTOS/Source/timers.c **** 	{
 417:../../../core/ST/Middlewares/Third_Party/FreeRTOS/Source/timers.c **** 		mtCOVERAGE_TEST_MARKER();
 418:../../../core/ST/Middlewares/Third_Party/FreeRTOS/Source/timers.c **** 	}
 419:../../../core/ST/Middlewares/Third_Party/FreeRTOS/Source/timers.c **** 
 420:../../../core/ST/Middlewares/Third_Party/FreeRTOS/Source/timers.c **** 	return xReturn;
 421:../../../core/ST/Middlewares/Third_Party/FreeRTOS/Source/timers.c **** }
 422:../../../core/ST/Middlewares/Third_Party/FreeRTOS/Source/timers.c **** /*-----------------------------------------------------------*/
 423:../../../core/ST/Middlewares/Third_Party/FreeRTOS/Source/timers.c **** 
 424:../../../core/ST/Middlewares/Third_Party/FreeRTOS/Source/timers.c **** TaskHandle_t xTimerGetTimerDaemonTaskHandle( void )
 425:../../../core/ST/Middlewares/Third_Party/FreeRTOS/Source/timers.c **** {
 426:../../../core/ST/Middlewares/Third_Party/FreeRTOS/Source/timers.c **** 	/* If xTimerGetTimerDaemonTaskHandle() is called before the scheduler has been
 427:../../../core/ST/Middlewares/Third_Party/FreeRTOS/Source/timers.c **** 	started, then xTimerTaskHandle will be NULL. */
 428:../../../core/ST/Middlewares/Third_Party/FreeRTOS/Source/timers.c **** 	configASSERT( ( xTimerTaskHandle != NULL ) );
 429:../../../core/ST/Middlewares/Third_Party/FreeRTOS/Source/timers.c **** 	return xTimerTaskHandle;
ARM GAS  C:\Users\tomra\AppData\Local\Temp\ccsXPgWC.s 			page 9


 430:../../../core/ST/Middlewares/Third_Party/FreeRTOS/Source/timers.c **** }
 431:../../../core/ST/Middlewares/Third_Party/FreeRTOS/Source/timers.c **** /*-----------------------------------------------------------*/
 432:../../../core/ST/Middlewares/Third_Party/FreeRTOS/Source/timers.c **** 
 433:../../../core/ST/Middlewares/Third_Party/FreeRTOS/Source/timers.c **** TickType_t xTimerGetPeriod( TimerHandle_t xTimer )
 434:../../../core/ST/Middlewares/Third_Party/FreeRTOS/Source/timers.c **** {
 435:../../../core/ST/Middlewares/Third_Party/FreeRTOS/Source/timers.c **** Timer_t *pxTimer = ( Timer_t * ) xTimer;
 436:../../../core/ST/Middlewares/Third_Party/FreeRTOS/Source/timers.c **** 
 437:../../../core/ST/Middlewares/Third_Party/FreeRTOS/Source/timers.c **** 	configASSERT( xTimer );
 438:../../../core/ST/Middlewares/Third_Party/FreeRTOS/Source/timers.c **** 	return pxTimer->xTimerPeriodInTicks;
 439:../../../core/ST/Middlewares/Third_Party/FreeRTOS/Source/timers.c **** }
 440:../../../core/ST/Middlewares/Third_Party/FreeRTOS/Source/timers.c **** /*-----------------------------------------------------------*/
 441:../../../core/ST/Middlewares/Third_Party/FreeRTOS/Source/timers.c **** 
 442:../../../core/ST/Middlewares/Third_Party/FreeRTOS/Source/timers.c **** TickType_t xTimerGetExpiryTime( TimerHandle_t xTimer )
 443:../../../core/ST/Middlewares/Third_Party/FreeRTOS/Source/timers.c **** {
 444:../../../core/ST/Middlewares/Third_Party/FreeRTOS/Source/timers.c **** Timer_t * pxTimer = ( Timer_t * ) xTimer;
 445:../../../core/ST/Middlewares/Third_Party/FreeRTOS/Source/timers.c **** TickType_t xReturn;
 446:../../../core/ST/Middlewares/Third_Party/FreeRTOS/Source/timers.c **** 
 447:../../../core/ST/Middlewares/Third_Party/FreeRTOS/Source/timers.c **** 	configASSERT( xTimer );
 448:../../../core/ST/Middlewares/Third_Party/FreeRTOS/Source/timers.c **** 	xReturn = listGET_LIST_ITEM_VALUE( &( pxTimer->xTimerListItem ) );
 449:../../../core/ST/Middlewares/Third_Party/FreeRTOS/Source/timers.c **** 	return xReturn;
 450:../../../core/ST/Middlewares/Third_Party/FreeRTOS/Source/timers.c **** }
 451:../../../core/ST/Middlewares/Third_Party/FreeRTOS/Source/timers.c **** /*-----------------------------------------------------------*/
 452:../../../core/ST/Middlewares/Third_Party/FreeRTOS/Source/timers.c **** 
 453:../../../core/ST/Middlewares/Third_Party/FreeRTOS/Source/timers.c **** const char * pcTimerGetName( TimerHandle_t xTimer ) /*lint !e971 Unqualified char types are allowed
 454:../../../core/ST/Middlewares/Third_Party/FreeRTOS/Source/timers.c **** {
 455:../../../core/ST/Middlewares/Third_Party/FreeRTOS/Source/timers.c **** Timer_t *pxTimer = ( Timer_t * ) xTimer;
 456:../../../core/ST/Middlewares/Third_Party/FreeRTOS/Source/timers.c **** 
 457:../../../core/ST/Middlewares/Third_Party/FreeRTOS/Source/timers.c **** 	configASSERT( xTimer );
 458:../../../core/ST/Middlewares/Third_Party/FreeRTOS/Source/timers.c **** 	return pxTimer->pcTimerName;
 459:../../../core/ST/Middlewares/Third_Party/FreeRTOS/Source/timers.c **** }
 460:../../../core/ST/Middlewares/Third_Party/FreeRTOS/Source/timers.c **** /*-----------------------------------------------------------*/
 461:../../../core/ST/Middlewares/Third_Party/FreeRTOS/Source/timers.c **** 
 462:../../../core/ST/Middlewares/Third_Party/FreeRTOS/Source/timers.c **** static void prvProcessExpiredTimer( const TickType_t xNextExpireTime, const TickType_t xTimeNow )
 463:../../../core/ST/Middlewares/Third_Party/FreeRTOS/Source/timers.c **** {
 464:../../../core/ST/Middlewares/Third_Party/FreeRTOS/Source/timers.c **** BaseType_t xResult;
 465:../../../core/ST/Middlewares/Third_Party/FreeRTOS/Source/timers.c **** Timer_t * const pxTimer = ( Timer_t * ) listGET_OWNER_OF_HEAD_ENTRY( pxCurrentTimerList );
 466:../../../core/ST/Middlewares/Third_Party/FreeRTOS/Source/timers.c **** 
 467:../../../core/ST/Middlewares/Third_Party/FreeRTOS/Source/timers.c **** 	/* Remove the timer from the list of active timers.  A check has already
 468:../../../core/ST/Middlewares/Third_Party/FreeRTOS/Source/timers.c **** 	been performed to ensure the list is not empty. */
 469:../../../core/ST/Middlewares/Third_Party/FreeRTOS/Source/timers.c **** 	( void ) uxListRemove( &( pxTimer->xTimerListItem ) );
 470:../../../core/ST/Middlewares/Third_Party/FreeRTOS/Source/timers.c **** 	traceTIMER_EXPIRED( pxTimer );
 471:../../../core/ST/Middlewares/Third_Party/FreeRTOS/Source/timers.c **** 
 472:../../../core/ST/Middlewares/Third_Party/FreeRTOS/Source/timers.c **** 	/* If the timer is an auto reload timer then calculate the next
 473:../../../core/ST/Middlewares/Third_Party/FreeRTOS/Source/timers.c **** 	expiry time and re-insert the timer in the list of active timers. */
 474:../../../core/ST/Middlewares/Third_Party/FreeRTOS/Source/timers.c **** 	if( pxTimer->uxAutoReload == ( UBaseType_t ) pdTRUE )
 475:../../../core/ST/Middlewares/Third_Party/FreeRTOS/Source/timers.c **** 	{
 476:../../../core/ST/Middlewares/Third_Party/FreeRTOS/Source/timers.c **** 		/* The timer is inserted into a list using a time relative to anything
 477:../../../core/ST/Middlewares/Third_Party/FreeRTOS/Source/timers.c **** 		other than the current time.  It will therefore be inserted into the
 478:../../../core/ST/Middlewares/Third_Party/FreeRTOS/Source/timers.c **** 		correct list relative to the time this task thinks it is now. */
 479:../../../core/ST/Middlewares/Third_Party/FreeRTOS/Source/timers.c **** 		if( prvInsertTimerInActiveList( pxTimer, ( xNextExpireTime + pxTimer->xTimerPeriodInTicks ), xTim
 480:../../../core/ST/Middlewares/Third_Party/FreeRTOS/Source/timers.c **** 		{
 481:../../../core/ST/Middlewares/Third_Party/FreeRTOS/Source/timers.c **** 			/* The timer expired before it was added to the active timer
 482:../../../core/ST/Middlewares/Third_Party/FreeRTOS/Source/timers.c **** 			list.  Reload it now.  */
 483:../../../core/ST/Middlewares/Third_Party/FreeRTOS/Source/timers.c **** 			xResult = xTimerGenericCommand( pxTimer, tmrCOMMAND_START_DONT_TRACE, xNextExpireTime, NULL, tmr
 484:../../../core/ST/Middlewares/Third_Party/FreeRTOS/Source/timers.c **** 			configASSERT( xResult );
 485:../../../core/ST/Middlewares/Third_Party/FreeRTOS/Source/timers.c **** 			( void ) xResult;
 486:../../../core/ST/Middlewares/Third_Party/FreeRTOS/Source/timers.c **** 		}
ARM GAS  C:\Users\tomra\AppData\Local\Temp\ccsXPgWC.s 			page 10


 487:../../../core/ST/Middlewares/Third_Party/FreeRTOS/Source/timers.c **** 		else
 488:../../../core/ST/Middlewares/Third_Party/FreeRTOS/Source/timers.c **** 		{
 489:../../../core/ST/Middlewares/Third_Party/FreeRTOS/Source/timers.c **** 			mtCOVERAGE_TEST_MARKER();
 490:../../../core/ST/Middlewares/Third_Party/FreeRTOS/Source/timers.c **** 		}
 491:../../../core/ST/Middlewares/Third_Party/FreeRTOS/Source/timers.c **** 	}
 492:../../../core/ST/Middlewares/Third_Party/FreeRTOS/Source/timers.c **** 	else
 493:../../../core/ST/Middlewares/Third_Party/FreeRTOS/Source/timers.c **** 	{
 494:../../../core/ST/Middlewares/Third_Party/FreeRTOS/Source/timers.c **** 		mtCOVERAGE_TEST_MARKER();
 495:../../../core/ST/Middlewares/Third_Party/FreeRTOS/Source/timers.c **** 	}
 496:../../../core/ST/Middlewares/Third_Party/FreeRTOS/Source/timers.c **** 
 497:../../../core/ST/Middlewares/Third_Party/FreeRTOS/Source/timers.c **** 	/* Call the timer callback. */
 498:../../../core/ST/Middlewares/Third_Party/FreeRTOS/Source/timers.c **** 	pxTimer->pxCallbackFunction( ( TimerHandle_t ) pxTimer );
 499:../../../core/ST/Middlewares/Third_Party/FreeRTOS/Source/timers.c **** }
 500:../../../core/ST/Middlewares/Third_Party/FreeRTOS/Source/timers.c **** /*-----------------------------------------------------------*/
 501:../../../core/ST/Middlewares/Third_Party/FreeRTOS/Source/timers.c **** 
 502:../../../core/ST/Middlewares/Third_Party/FreeRTOS/Source/timers.c **** static void prvTimerTask( void *pvParameters )
 503:../../../core/ST/Middlewares/Third_Party/FreeRTOS/Source/timers.c **** {
 504:../../../core/ST/Middlewares/Third_Party/FreeRTOS/Source/timers.c **** TickType_t xNextExpireTime;
 505:../../../core/ST/Middlewares/Third_Party/FreeRTOS/Source/timers.c **** BaseType_t xListWasEmpty;
 506:../../../core/ST/Middlewares/Third_Party/FreeRTOS/Source/timers.c **** 
 507:../../../core/ST/Middlewares/Third_Party/FreeRTOS/Source/timers.c **** 	/* Just to avoid compiler warnings. */
 508:../../../core/ST/Middlewares/Third_Party/FreeRTOS/Source/timers.c **** 	( void ) pvParameters;
 509:../../../core/ST/Middlewares/Third_Party/FreeRTOS/Source/timers.c **** 
 510:../../../core/ST/Middlewares/Third_Party/FreeRTOS/Source/timers.c **** 	#if( configUSE_DAEMON_TASK_STARTUP_HOOK == 1 )
 511:../../../core/ST/Middlewares/Third_Party/FreeRTOS/Source/timers.c **** 	{
 512:../../../core/ST/Middlewares/Third_Party/FreeRTOS/Source/timers.c **** 		extern void vApplicationDaemonTaskStartupHook( void );
 513:../../../core/ST/Middlewares/Third_Party/FreeRTOS/Source/timers.c **** 
 514:../../../core/ST/Middlewares/Third_Party/FreeRTOS/Source/timers.c **** 		/* Allow the application writer to execute some code in the context of
 515:../../../core/ST/Middlewares/Third_Party/FreeRTOS/Source/timers.c **** 		this task at the point the task starts executing.  This is useful if the
 516:../../../core/ST/Middlewares/Third_Party/FreeRTOS/Source/timers.c **** 		application includes initialisation code that would benefit from
 517:../../../core/ST/Middlewares/Third_Party/FreeRTOS/Source/timers.c **** 		executing after the scheduler has been started. */
 518:../../../core/ST/Middlewares/Third_Party/FreeRTOS/Source/timers.c **** 		vApplicationDaemonTaskStartupHook();
 519:../../../core/ST/Middlewares/Third_Party/FreeRTOS/Source/timers.c **** 	}
 520:../../../core/ST/Middlewares/Third_Party/FreeRTOS/Source/timers.c **** 	#endif /* configUSE_DAEMON_TASK_STARTUP_HOOK */
 521:../../../core/ST/Middlewares/Third_Party/FreeRTOS/Source/timers.c **** 
 522:../../../core/ST/Middlewares/Third_Party/FreeRTOS/Source/timers.c **** 	for( ;; )
 523:../../../core/ST/Middlewares/Third_Party/FreeRTOS/Source/timers.c **** 	{
 524:../../../core/ST/Middlewares/Third_Party/FreeRTOS/Source/timers.c **** 		/* Query the timers list to see if it contains any timers, and if so,
 525:../../../core/ST/Middlewares/Third_Party/FreeRTOS/Source/timers.c **** 		obtain the time at which the next timer will expire. */
 526:../../../core/ST/Middlewares/Third_Party/FreeRTOS/Source/timers.c **** 		xNextExpireTime = prvGetNextExpireTime( &xListWasEmpty );
 527:../../../core/ST/Middlewares/Third_Party/FreeRTOS/Source/timers.c **** 
 528:../../../core/ST/Middlewares/Third_Party/FreeRTOS/Source/timers.c **** 		/* If a timer has expired, process it.  Otherwise, block this task
 529:../../../core/ST/Middlewares/Third_Party/FreeRTOS/Source/timers.c **** 		until either a timer does expire, or a command is received. */
 530:../../../core/ST/Middlewares/Third_Party/FreeRTOS/Source/timers.c **** 		prvProcessTimerOrBlockTask( xNextExpireTime, xListWasEmpty );
 531:../../../core/ST/Middlewares/Third_Party/FreeRTOS/Source/timers.c **** 
 532:../../../core/ST/Middlewares/Third_Party/FreeRTOS/Source/timers.c **** 		/* Empty the command queue. */
 533:../../../core/ST/Middlewares/Third_Party/FreeRTOS/Source/timers.c **** 		prvProcessReceivedCommands();
 534:../../../core/ST/Middlewares/Third_Party/FreeRTOS/Source/timers.c **** 	}
 535:../../../core/ST/Middlewares/Third_Party/FreeRTOS/Source/timers.c **** }
 536:../../../core/ST/Middlewares/Third_Party/FreeRTOS/Source/timers.c **** /*-----------------------------------------------------------*/
 537:../../../core/ST/Middlewares/Third_Party/FreeRTOS/Source/timers.c **** 
 538:../../../core/ST/Middlewares/Third_Party/FreeRTOS/Source/timers.c **** static void prvProcessTimerOrBlockTask( const TickType_t xNextExpireTime, BaseType_t xListWasEmpty 
 539:../../../core/ST/Middlewares/Third_Party/FreeRTOS/Source/timers.c **** {
 540:../../../core/ST/Middlewares/Third_Party/FreeRTOS/Source/timers.c **** TickType_t xTimeNow;
 541:../../../core/ST/Middlewares/Third_Party/FreeRTOS/Source/timers.c **** BaseType_t xTimerListsWereSwitched;
 542:../../../core/ST/Middlewares/Third_Party/FreeRTOS/Source/timers.c **** 
 543:../../../core/ST/Middlewares/Third_Party/FreeRTOS/Source/timers.c **** 	vTaskSuspendAll();
ARM GAS  C:\Users\tomra\AppData\Local\Temp\ccsXPgWC.s 			page 11


 544:../../../core/ST/Middlewares/Third_Party/FreeRTOS/Source/timers.c **** 	{
 545:../../../core/ST/Middlewares/Third_Party/FreeRTOS/Source/timers.c **** 		/* Obtain the time now to make an assessment as to whether the timer
 546:../../../core/ST/Middlewares/Third_Party/FreeRTOS/Source/timers.c **** 		has expired or not.  If obtaining the time causes the lists to switch
 547:../../../core/ST/Middlewares/Third_Party/FreeRTOS/Source/timers.c **** 		then don't process this timer as any timers that remained in the list
 548:../../../core/ST/Middlewares/Third_Party/FreeRTOS/Source/timers.c **** 		when the lists were switched will have been processed within the
 549:../../../core/ST/Middlewares/Third_Party/FreeRTOS/Source/timers.c **** 		prvSampleTimeNow() function. */
 550:../../../core/ST/Middlewares/Third_Party/FreeRTOS/Source/timers.c **** 		xTimeNow = prvSampleTimeNow( &xTimerListsWereSwitched );
 551:../../../core/ST/Middlewares/Third_Party/FreeRTOS/Source/timers.c **** 		if( xTimerListsWereSwitched == pdFALSE )
 552:../../../core/ST/Middlewares/Third_Party/FreeRTOS/Source/timers.c **** 		{
 553:../../../core/ST/Middlewares/Third_Party/FreeRTOS/Source/timers.c **** 			/* The tick count has not overflowed, has the timer expired? */
 554:../../../core/ST/Middlewares/Third_Party/FreeRTOS/Source/timers.c **** 			if( ( xListWasEmpty == pdFALSE ) && ( xNextExpireTime <= xTimeNow ) )
 555:../../../core/ST/Middlewares/Third_Party/FreeRTOS/Source/timers.c **** 			{
 556:../../../core/ST/Middlewares/Third_Party/FreeRTOS/Source/timers.c **** 				( void ) xTaskResumeAll();
 557:../../../core/ST/Middlewares/Third_Party/FreeRTOS/Source/timers.c **** 				prvProcessExpiredTimer( xNextExpireTime, xTimeNow );
 558:../../../core/ST/Middlewares/Third_Party/FreeRTOS/Source/timers.c **** 			}
 559:../../../core/ST/Middlewares/Third_Party/FreeRTOS/Source/timers.c **** 			else
 560:../../../core/ST/Middlewares/Third_Party/FreeRTOS/Source/timers.c **** 			{
 561:../../../core/ST/Middlewares/Third_Party/FreeRTOS/Source/timers.c **** 				/* The tick count has not overflowed, and the next expire
 562:../../../core/ST/Middlewares/Third_Party/FreeRTOS/Source/timers.c **** 				time has not been reached yet.  This task should therefore
 563:../../../core/ST/Middlewares/Third_Party/FreeRTOS/Source/timers.c **** 				block to wait for the next expire time or a command to be
 564:../../../core/ST/Middlewares/Third_Party/FreeRTOS/Source/timers.c **** 				received - whichever comes first.  The following line cannot
 565:../../../core/ST/Middlewares/Third_Party/FreeRTOS/Source/timers.c **** 				be reached unless xNextExpireTime > xTimeNow, except in the
 566:../../../core/ST/Middlewares/Third_Party/FreeRTOS/Source/timers.c **** 				case when the current timer list is empty. */
 567:../../../core/ST/Middlewares/Third_Party/FreeRTOS/Source/timers.c **** 				if( xListWasEmpty != pdFALSE )
 568:../../../core/ST/Middlewares/Third_Party/FreeRTOS/Source/timers.c **** 				{
 569:../../../core/ST/Middlewares/Third_Party/FreeRTOS/Source/timers.c **** 					/* The current timer list is empty - is the overflow list
 570:../../../core/ST/Middlewares/Third_Party/FreeRTOS/Source/timers.c **** 					also empty? */
 571:../../../core/ST/Middlewares/Third_Party/FreeRTOS/Source/timers.c **** 					xListWasEmpty = listLIST_IS_EMPTY( pxOverflowTimerList );
 572:../../../core/ST/Middlewares/Third_Party/FreeRTOS/Source/timers.c **** 				}
 573:../../../core/ST/Middlewares/Third_Party/FreeRTOS/Source/timers.c **** 
 574:../../../core/ST/Middlewares/Third_Party/FreeRTOS/Source/timers.c **** 				vQueueWaitForMessageRestricted( xTimerQueue, ( xNextExpireTime - xTimeNow ), xListWasEmpty );
 575:../../../core/ST/Middlewares/Third_Party/FreeRTOS/Source/timers.c **** 
 576:../../../core/ST/Middlewares/Third_Party/FreeRTOS/Source/timers.c **** 				if( xTaskResumeAll() == pdFALSE )
 577:../../../core/ST/Middlewares/Third_Party/FreeRTOS/Source/timers.c **** 				{
 578:../../../core/ST/Middlewares/Third_Party/FreeRTOS/Source/timers.c **** 					/* Yield to wait for either a command to arrive, or the
 579:../../../core/ST/Middlewares/Third_Party/FreeRTOS/Source/timers.c **** 					block time to expire.  If a command arrived between the
 580:../../../core/ST/Middlewares/Third_Party/FreeRTOS/Source/timers.c **** 					critical section being exited and this yield then the yield
 581:../../../core/ST/Middlewares/Third_Party/FreeRTOS/Source/timers.c **** 					will not cause the task to block. */
 582:../../../core/ST/Middlewares/Third_Party/FreeRTOS/Source/timers.c **** 					portYIELD_WITHIN_API();
 583:../../../core/ST/Middlewares/Third_Party/FreeRTOS/Source/timers.c **** 				}
 584:../../../core/ST/Middlewares/Third_Party/FreeRTOS/Source/timers.c **** 				else
 585:../../../core/ST/Middlewares/Third_Party/FreeRTOS/Source/timers.c **** 				{
 586:../../../core/ST/Middlewares/Third_Party/FreeRTOS/Source/timers.c **** 					mtCOVERAGE_TEST_MARKER();
 587:../../../core/ST/Middlewares/Third_Party/FreeRTOS/Source/timers.c **** 				}
 588:../../../core/ST/Middlewares/Third_Party/FreeRTOS/Source/timers.c **** 			}
 589:../../../core/ST/Middlewares/Third_Party/FreeRTOS/Source/timers.c **** 		}
 590:../../../core/ST/Middlewares/Third_Party/FreeRTOS/Source/timers.c **** 		else
 591:../../../core/ST/Middlewares/Third_Party/FreeRTOS/Source/timers.c **** 		{
 592:../../../core/ST/Middlewares/Third_Party/FreeRTOS/Source/timers.c **** 			( void ) xTaskResumeAll();
 593:../../../core/ST/Middlewares/Third_Party/FreeRTOS/Source/timers.c **** 		}
 594:../../../core/ST/Middlewares/Third_Party/FreeRTOS/Source/timers.c **** 	}
 595:../../../core/ST/Middlewares/Third_Party/FreeRTOS/Source/timers.c **** }
 596:../../../core/ST/Middlewares/Third_Party/FreeRTOS/Source/timers.c **** /*-----------------------------------------------------------*/
 597:../../../core/ST/Middlewares/Third_Party/FreeRTOS/Source/timers.c **** 
 598:../../../core/ST/Middlewares/Third_Party/FreeRTOS/Source/timers.c **** static TickType_t prvGetNextExpireTime( BaseType_t * const pxListWasEmpty )
 599:../../../core/ST/Middlewares/Third_Party/FreeRTOS/Source/timers.c **** {
  29              		.loc 1 599 1 view -0
ARM GAS  C:\Users\tomra\AppData\Local\Temp\ccsXPgWC.s 			page 12


  30              		.cfi_startproc
  31              		@ args = 0, pretend = 0, frame = 0
  32              		@ frame_needed = 0, uses_anonymous_args = 0
  33              		@ link register save eliminated.
 600:../../../core/ST/Middlewares/Third_Party/FreeRTOS/Source/timers.c **** TickType_t xNextExpireTime;
  34              		.loc 1 600 1 view .LVU1
 601:../../../core/ST/Middlewares/Third_Party/FreeRTOS/Source/timers.c **** 
 602:../../../core/ST/Middlewares/Third_Party/FreeRTOS/Source/timers.c **** 	/* Timers are listed in expiry time order, with the head of the list
 603:../../../core/ST/Middlewares/Third_Party/FreeRTOS/Source/timers.c **** 	referencing the task that will expire first.  Obtain the time at which
 604:../../../core/ST/Middlewares/Third_Party/FreeRTOS/Source/timers.c **** 	the timer with the nearest expiry time will expire.  If there are no
 605:../../../core/ST/Middlewares/Third_Party/FreeRTOS/Source/timers.c **** 	active timers then just set the next expire time to 0.  That will cause
 606:../../../core/ST/Middlewares/Third_Party/FreeRTOS/Source/timers.c **** 	this task to unblock when the tick count overflows, at which point the
 607:../../../core/ST/Middlewares/Third_Party/FreeRTOS/Source/timers.c **** 	timer lists will be switched and the next expiry time can be
 608:../../../core/ST/Middlewares/Third_Party/FreeRTOS/Source/timers.c **** 	re-assessed.  */
 609:../../../core/ST/Middlewares/Third_Party/FreeRTOS/Source/timers.c **** 	*pxListWasEmpty = listLIST_IS_EMPTY( pxCurrentTimerList );
  35              		.loc 1 609 2 view .LVU2
  36              		.loc 1 609 20 is_stmt 0 view .LVU3
  37 0000 064B     		ldr	r3, .L4
  38 0002 1A68     		ldr	r2, [r3]
  39 0004 1368     		ldr	r3, [r2]
  40 0006 B3FA83F3 		clz	r3, r3
  41 000a 5B09     		lsrs	r3, r3, #5
  42              		.loc 1 609 18 view .LVU4
  43 000c 0360     		str	r3, [r0]
 610:../../../core/ST/Middlewares/Third_Party/FreeRTOS/Source/timers.c **** 	if( *pxListWasEmpty == pdFALSE )
  44              		.loc 1 610 2 is_stmt 1 view .LVU5
  45              		.loc 1 610 4 is_stmt 0 view .LVU6
  46 000e 13B9     		cbnz	r3, .L3
 611:../../../core/ST/Middlewares/Third_Party/FreeRTOS/Source/timers.c **** 	{
 612:../../../core/ST/Middlewares/Third_Party/FreeRTOS/Source/timers.c **** 		xNextExpireTime = listGET_ITEM_VALUE_OF_HEAD_ENTRY( pxCurrentTimerList );
  47              		.loc 1 612 3 is_stmt 1 view .LVU7
  48              		.loc 1 612 21 is_stmt 0 view .LVU8
  49 0010 D368     		ldr	r3, [r2, #12]
  50              		.loc 1 612 19 view .LVU9
  51 0012 1868     		ldr	r0, [r3]
  52              	.LVL1:
  53              		.loc 1 612 19 view .LVU10
  54 0014 7047     		bx	lr
  55              	.LVL2:
  56              	.L3:
 613:../../../core/ST/Middlewares/Third_Party/FreeRTOS/Source/timers.c **** 	}
 614:../../../core/ST/Middlewares/Third_Party/FreeRTOS/Source/timers.c **** 	else
 615:../../../core/ST/Middlewares/Third_Party/FreeRTOS/Source/timers.c **** 	{
 616:../../../core/ST/Middlewares/Third_Party/FreeRTOS/Source/timers.c **** 		/* Ensure the task unblocks when the tick count rolls over. */
 617:../../../core/ST/Middlewares/Third_Party/FreeRTOS/Source/timers.c **** 		xNextExpireTime = ( TickType_t ) 0U;
  57              		.loc 1 617 19 view .LVU11
  58 0016 0020     		movs	r0, #0
  59              	.LVL3:
 618:../../../core/ST/Middlewares/Third_Party/FreeRTOS/Source/timers.c **** 	}
 619:../../../core/ST/Middlewares/Third_Party/FreeRTOS/Source/timers.c **** 
 620:../../../core/ST/Middlewares/Third_Party/FreeRTOS/Source/timers.c **** 	return xNextExpireTime;
  60              		.loc 1 620 2 is_stmt 1 view .LVU12
 621:../../../core/ST/Middlewares/Third_Party/FreeRTOS/Source/timers.c **** }
  61              		.loc 1 621 1 is_stmt 0 view .LVU13
  62 0018 7047     		bx	lr
  63              	.L5:
  64 001a 00BF     		.align	2
ARM GAS  C:\Users\tomra\AppData\Local\Temp\ccsXPgWC.s 			page 13


  65              	.L4:
  66 001c 00000000 		.word	.LANCHOR0
  67              		.cfi_endproc
  68              	.LFE16:
  70              		.section	.text.prvInsertTimerInActiveList,"ax",%progbits
  71              		.align	1
  72              		.syntax unified
  73              		.thumb
  74              		.thumb_func
  75              		.fpu fpv4-sp-d16
  77              	prvInsertTimerInActiveList:
  78              	.LVL4:
  79              	.LFB18:
 622:../../../core/ST/Middlewares/Third_Party/FreeRTOS/Source/timers.c **** /*-----------------------------------------------------------*/
 623:../../../core/ST/Middlewares/Third_Party/FreeRTOS/Source/timers.c **** 
 624:../../../core/ST/Middlewares/Third_Party/FreeRTOS/Source/timers.c **** static TickType_t prvSampleTimeNow( BaseType_t * const pxTimerListsWereSwitched )
 625:../../../core/ST/Middlewares/Third_Party/FreeRTOS/Source/timers.c **** {
 626:../../../core/ST/Middlewares/Third_Party/FreeRTOS/Source/timers.c **** TickType_t xTimeNow;
 627:../../../core/ST/Middlewares/Third_Party/FreeRTOS/Source/timers.c **** PRIVILEGED_DATA static TickType_t xLastTime = ( TickType_t ) 0U; /*lint !e956 Variable is only acce
 628:../../../core/ST/Middlewares/Third_Party/FreeRTOS/Source/timers.c **** 
 629:../../../core/ST/Middlewares/Third_Party/FreeRTOS/Source/timers.c **** 	xTimeNow = xTaskGetTickCount();
 630:../../../core/ST/Middlewares/Third_Party/FreeRTOS/Source/timers.c **** 
 631:../../../core/ST/Middlewares/Third_Party/FreeRTOS/Source/timers.c **** 	if( xTimeNow < xLastTime )
 632:../../../core/ST/Middlewares/Third_Party/FreeRTOS/Source/timers.c **** 	{
 633:../../../core/ST/Middlewares/Third_Party/FreeRTOS/Source/timers.c **** 		prvSwitchTimerLists();
 634:../../../core/ST/Middlewares/Third_Party/FreeRTOS/Source/timers.c **** 		*pxTimerListsWereSwitched = pdTRUE;
 635:../../../core/ST/Middlewares/Third_Party/FreeRTOS/Source/timers.c **** 	}
 636:../../../core/ST/Middlewares/Third_Party/FreeRTOS/Source/timers.c **** 	else
 637:../../../core/ST/Middlewares/Third_Party/FreeRTOS/Source/timers.c **** 	{
 638:../../../core/ST/Middlewares/Third_Party/FreeRTOS/Source/timers.c **** 		*pxTimerListsWereSwitched = pdFALSE;
 639:../../../core/ST/Middlewares/Third_Party/FreeRTOS/Source/timers.c **** 	}
 640:../../../core/ST/Middlewares/Third_Party/FreeRTOS/Source/timers.c **** 
 641:../../../core/ST/Middlewares/Third_Party/FreeRTOS/Source/timers.c **** 	xLastTime = xTimeNow;
 642:../../../core/ST/Middlewares/Third_Party/FreeRTOS/Source/timers.c **** 
 643:../../../core/ST/Middlewares/Third_Party/FreeRTOS/Source/timers.c **** 	return xTimeNow;
 644:../../../core/ST/Middlewares/Third_Party/FreeRTOS/Source/timers.c **** }
 645:../../../core/ST/Middlewares/Third_Party/FreeRTOS/Source/timers.c **** /*-----------------------------------------------------------*/
 646:../../../core/ST/Middlewares/Third_Party/FreeRTOS/Source/timers.c **** 
 647:../../../core/ST/Middlewares/Third_Party/FreeRTOS/Source/timers.c **** static BaseType_t prvInsertTimerInActiveList( Timer_t * const pxTimer, const TickType_t xNextExpiry
 648:../../../core/ST/Middlewares/Third_Party/FreeRTOS/Source/timers.c **** {
  80              		.loc 1 648 1 is_stmt 1 view -0
  81              		.cfi_startproc
  82              		@ args = 0, pretend = 0, frame = 0
  83              		@ frame_needed = 0, uses_anonymous_args = 0
  84              		.loc 1 648 1 is_stmt 0 view .LVU15
  85 0000 08B5     		push	{r3, lr}
  86              	.LCFI0:
  87              		.cfi_def_cfa_offset 8
  88              		.cfi_offset 3, -8
  89              		.cfi_offset 14, -4
 649:../../../core/ST/Middlewares/Third_Party/FreeRTOS/Source/timers.c **** BaseType_t xProcessTimerNow = pdFALSE;
  90              		.loc 1 649 1 is_stmt 1 view .LVU16
  91              	.LVL5:
 650:../../../core/ST/Middlewares/Third_Party/FreeRTOS/Source/timers.c **** 
 651:../../../core/ST/Middlewares/Third_Party/FreeRTOS/Source/timers.c **** 	listSET_LIST_ITEM_VALUE( &( pxTimer->xTimerListItem ), xNextExpiryTime );
  92              		.loc 1 651 2 view .LVU17
  93 0002 4160     		str	r1, [r0, #4]
ARM GAS  C:\Users\tomra\AppData\Local\Temp\ccsXPgWC.s 			page 14


 652:../../../core/ST/Middlewares/Third_Party/FreeRTOS/Source/timers.c **** 	listSET_LIST_ITEM_OWNER( &( pxTimer->xTimerListItem ), pxTimer );
  94              		.loc 1 652 2 view .LVU18
  95 0004 0061     		str	r0, [r0, #16]
 653:../../../core/ST/Middlewares/Third_Party/FreeRTOS/Source/timers.c **** 
 654:../../../core/ST/Middlewares/Third_Party/FreeRTOS/Source/timers.c **** 	if( xNextExpiryTime <= xTimeNow )
  96              		.loc 1 654 2 view .LVU19
  97              		.loc 1 654 4 is_stmt 0 view .LVU20
  98 0006 9142     		cmp	r1, r2
  99 0008 0CD8     		bhi	.L7
 655:../../../core/ST/Middlewares/Third_Party/FreeRTOS/Source/timers.c **** 	{
 656:../../../core/ST/Middlewares/Third_Party/FreeRTOS/Source/timers.c **** 		/* Has the expiry time elapsed between the command to start/reset a
 657:../../../core/ST/Middlewares/Third_Party/FreeRTOS/Source/timers.c **** 		timer was issued, and the time the command was processed? */
 658:../../../core/ST/Middlewares/Third_Party/FreeRTOS/Source/timers.c **** 		if( ( ( TickType_t ) ( xTimeNow - xCommandTime ) ) >= pxTimer->xTimerPeriodInTicks ) /*lint !e961
 100              		.loc 1 658 3 is_stmt 1 view .LVU21
 101              		.loc 1 658 9 is_stmt 0 view .LVU22
 102 000a D21A     		subs	r2, r2, r3
 103              	.LVL6:
 104              		.loc 1 658 64 view .LVU23
 105 000c 8369     		ldr	r3, [r0, #24]
 106              	.LVL7:
 107              		.loc 1 658 5 view .LVU24
 108 000e 9A42     		cmp	r2, r3
 109 0010 01D3     		bcc	.L13
 659:../../../core/ST/Middlewares/Third_Party/FreeRTOS/Source/timers.c **** 		{
 660:../../../core/ST/Middlewares/Third_Party/FreeRTOS/Source/timers.c **** 			/* The time between a command being issued and the command being
 661:../../../core/ST/Middlewares/Third_Party/FreeRTOS/Source/timers.c **** 			processed actually exceeds the timers period.  */
 662:../../../core/ST/Middlewares/Third_Party/FreeRTOS/Source/timers.c **** 			xProcessTimerNow = pdTRUE;
 110              		.loc 1 662 21 view .LVU25
 111 0012 0120     		movs	r0, #1
 112              	.LVL8:
 113              	.L6:
 663:../../../core/ST/Middlewares/Third_Party/FreeRTOS/Source/timers.c **** 		}
 664:../../../core/ST/Middlewares/Third_Party/FreeRTOS/Source/timers.c **** 		else
 665:../../../core/ST/Middlewares/Third_Party/FreeRTOS/Source/timers.c **** 		{
 666:../../../core/ST/Middlewares/Third_Party/FreeRTOS/Source/timers.c **** 			vListInsert( pxOverflowTimerList, &( pxTimer->xTimerListItem ) );
 667:../../../core/ST/Middlewares/Third_Party/FreeRTOS/Source/timers.c **** 		}
 668:../../../core/ST/Middlewares/Third_Party/FreeRTOS/Source/timers.c **** 	}
 669:../../../core/ST/Middlewares/Third_Party/FreeRTOS/Source/timers.c **** 	else
 670:../../../core/ST/Middlewares/Third_Party/FreeRTOS/Source/timers.c **** 	{
 671:../../../core/ST/Middlewares/Third_Party/FreeRTOS/Source/timers.c **** 		if( ( xTimeNow < xCommandTime ) && ( xNextExpiryTime >= xCommandTime ) )
 672:../../../core/ST/Middlewares/Third_Party/FreeRTOS/Source/timers.c **** 		{
 673:../../../core/ST/Middlewares/Third_Party/FreeRTOS/Source/timers.c **** 			/* If, since the command was issued, the tick count has overflowed
 674:../../../core/ST/Middlewares/Third_Party/FreeRTOS/Source/timers.c **** 			but the expiry time has not, then the timer must have already passed
 675:../../../core/ST/Middlewares/Third_Party/FreeRTOS/Source/timers.c **** 			its expiry time and should be processed immediately. */
 676:../../../core/ST/Middlewares/Third_Party/FreeRTOS/Source/timers.c **** 			xProcessTimerNow = pdTRUE;
 677:../../../core/ST/Middlewares/Third_Party/FreeRTOS/Source/timers.c **** 		}
 678:../../../core/ST/Middlewares/Third_Party/FreeRTOS/Source/timers.c **** 		else
 679:../../../core/ST/Middlewares/Third_Party/FreeRTOS/Source/timers.c **** 		{
 680:../../../core/ST/Middlewares/Third_Party/FreeRTOS/Source/timers.c **** 			vListInsert( pxCurrentTimerList, &( pxTimer->xTimerListItem ) );
 681:../../../core/ST/Middlewares/Third_Party/FreeRTOS/Source/timers.c **** 		}
 682:../../../core/ST/Middlewares/Third_Party/FreeRTOS/Source/timers.c **** 	}
 683:../../../core/ST/Middlewares/Third_Party/FreeRTOS/Source/timers.c **** 
 684:../../../core/ST/Middlewares/Third_Party/FreeRTOS/Source/timers.c **** 	return xProcessTimerNow;
 685:../../../core/ST/Middlewares/Third_Party/FreeRTOS/Source/timers.c **** }
 114              		.loc 1 685 1 view .LVU26
 115 0014 08BD     		pop	{r3, pc}
 116              	.LVL9:
ARM GAS  C:\Users\tomra\AppData\Local\Temp\ccsXPgWC.s 			page 15


 117              	.L13:
 666:../../../core/ST/Middlewares/Third_Party/FreeRTOS/Source/timers.c **** 		}
 118              		.loc 1 666 4 is_stmt 1 view .LVU27
 119 0016 011D     		adds	r1, r0, #4
 120              	.LVL10:
 666:../../../core/ST/Middlewares/Third_Party/FreeRTOS/Source/timers.c **** 		}
 121              		.loc 1 666 4 is_stmt 0 view .LVU28
 122 0018 094B     		ldr	r3, .L14
 123 001a 1868     		ldr	r0, [r3]
 124              	.LVL11:
 666:../../../core/ST/Middlewares/Third_Party/FreeRTOS/Source/timers.c **** 		}
 125              		.loc 1 666 4 view .LVU29
 126 001c FFF7FEFF 		bl	vListInsert
 127              	.LVL12:
 649:../../../core/ST/Middlewares/Third_Party/FreeRTOS/Source/timers.c **** 
 128              		.loc 1 649 12 view .LVU30
 129 0020 0020     		movs	r0, #0
 130 0022 F7E7     		b	.L6
 131              	.LVL13:
 132              	.L7:
 671:../../../core/ST/Middlewares/Third_Party/FreeRTOS/Source/timers.c **** 		{
 133              		.loc 1 671 3 is_stmt 1 view .LVU31
 671:../../../core/ST/Middlewares/Third_Party/FreeRTOS/Source/timers.c **** 		{
 134              		.loc 1 671 5 is_stmt 0 view .LVU32
 135 0024 9A42     		cmp	r2, r3
 136 0026 01D2     		bcs	.L9
 671:../../../core/ST/Middlewares/Third_Party/FreeRTOS/Source/timers.c **** 		{
 137              		.loc 1 671 35 discriminator 1 view .LVU33
 138 0028 9942     		cmp	r1, r3
 139 002a 06D2     		bcs	.L11
 140              	.L9:
 680:../../../core/ST/Middlewares/Third_Party/FreeRTOS/Source/timers.c **** 		}
 141              		.loc 1 680 4 is_stmt 1 view .LVU34
 142 002c 011D     		adds	r1, r0, #4
 143              	.LVL14:
 680:../../../core/ST/Middlewares/Third_Party/FreeRTOS/Source/timers.c **** 		}
 144              		.loc 1 680 4 is_stmt 0 view .LVU35
 145 002e 054B     		ldr	r3, .L14+4
 146              	.LVL15:
 680:../../../core/ST/Middlewares/Third_Party/FreeRTOS/Source/timers.c **** 		}
 147              		.loc 1 680 4 view .LVU36
 148 0030 1868     		ldr	r0, [r3]
 149              	.LVL16:
 680:../../../core/ST/Middlewares/Third_Party/FreeRTOS/Source/timers.c **** 		}
 150              		.loc 1 680 4 view .LVU37
 151 0032 FFF7FEFF 		bl	vListInsert
 152              	.LVL17:
 649:../../../core/ST/Middlewares/Third_Party/FreeRTOS/Source/timers.c **** 
 153              		.loc 1 649 12 view .LVU38
 154 0036 0020     		movs	r0, #0
 155 0038 ECE7     		b	.L6
 156              	.LVL18:
 157              	.L11:
 676:../../../core/ST/Middlewares/Third_Party/FreeRTOS/Source/timers.c **** 		}
 158              		.loc 1 676 21 view .LVU39
 159 003a 0120     		movs	r0, #1
 160              	.LVL19:
ARM GAS  C:\Users\tomra\AppData\Local\Temp\ccsXPgWC.s 			page 16


 684:../../../core/ST/Middlewares/Third_Party/FreeRTOS/Source/timers.c **** }
 161              		.loc 1 684 2 is_stmt 1 view .LVU40
 684:../../../core/ST/Middlewares/Third_Party/FreeRTOS/Source/timers.c **** }
 162              		.loc 1 684 9 is_stmt 0 view .LVU41
 163 003c EAE7     		b	.L6
 164              	.L15:
 165 003e 00BF     		.align	2
 166              	.L14:
 167 0040 00000000 		.word	.LANCHOR1
 168 0044 00000000 		.word	.LANCHOR0
 169              		.cfi_endproc
 170              	.LFE18:
 172              		.section	.rodata.prvCheckForValidListAndQueue.str1.4,"aMS",%progbits,1
 173              		.align	2
 174              	.LC0:
 175 0000 546D7251 		.ascii	"TmrQ\000"
 175      00
 176              		.section	.text.prvCheckForValidListAndQueue,"ax",%progbits
 177              		.align	1
 178              		.syntax unified
 179              		.thumb
 180              		.thumb_func
 181              		.fpu fpv4-sp-d16
 183              	prvCheckForValidListAndQueue:
 184              	.LFB21:
 686:../../../core/ST/Middlewares/Third_Party/FreeRTOS/Source/timers.c **** /*-----------------------------------------------------------*/
 687:../../../core/ST/Middlewares/Third_Party/FreeRTOS/Source/timers.c **** 
 688:../../../core/ST/Middlewares/Third_Party/FreeRTOS/Source/timers.c **** static void	prvProcessReceivedCommands( void )
 689:../../../core/ST/Middlewares/Third_Party/FreeRTOS/Source/timers.c **** {
 690:../../../core/ST/Middlewares/Third_Party/FreeRTOS/Source/timers.c **** DaemonTaskMessage_t xMessage;
 691:../../../core/ST/Middlewares/Third_Party/FreeRTOS/Source/timers.c **** Timer_t *pxTimer;
 692:../../../core/ST/Middlewares/Third_Party/FreeRTOS/Source/timers.c **** BaseType_t xTimerListsWereSwitched, xResult;
 693:../../../core/ST/Middlewares/Third_Party/FreeRTOS/Source/timers.c **** TickType_t xTimeNow;
 694:../../../core/ST/Middlewares/Third_Party/FreeRTOS/Source/timers.c **** 
 695:../../../core/ST/Middlewares/Third_Party/FreeRTOS/Source/timers.c **** 	while( xQueueReceive( xTimerQueue, &xMessage, tmrNO_DELAY ) != pdFAIL ) /*lint !e603 xMessage does
 696:../../../core/ST/Middlewares/Third_Party/FreeRTOS/Source/timers.c **** 	{
 697:../../../core/ST/Middlewares/Third_Party/FreeRTOS/Source/timers.c **** 		#if ( INCLUDE_xTimerPendFunctionCall == 1 )
 698:../../../core/ST/Middlewares/Third_Party/FreeRTOS/Source/timers.c **** 		{
 699:../../../core/ST/Middlewares/Third_Party/FreeRTOS/Source/timers.c **** 			/* Negative commands are pended function calls rather than timer
 700:../../../core/ST/Middlewares/Third_Party/FreeRTOS/Source/timers.c **** 			commands. */
 701:../../../core/ST/Middlewares/Third_Party/FreeRTOS/Source/timers.c **** 			if( xMessage.xMessageID < ( BaseType_t ) 0 )
 702:../../../core/ST/Middlewares/Third_Party/FreeRTOS/Source/timers.c **** 			{
 703:../../../core/ST/Middlewares/Third_Party/FreeRTOS/Source/timers.c **** 				const CallbackParameters_t * const pxCallback = &( xMessage.u.xCallbackParameters );
 704:../../../core/ST/Middlewares/Third_Party/FreeRTOS/Source/timers.c **** 
 705:../../../core/ST/Middlewares/Third_Party/FreeRTOS/Source/timers.c **** 				/* The timer uses the xCallbackParameters member to request a
 706:../../../core/ST/Middlewares/Third_Party/FreeRTOS/Source/timers.c **** 				callback be executed.  Check the callback is not NULL. */
 707:../../../core/ST/Middlewares/Third_Party/FreeRTOS/Source/timers.c **** 				configASSERT( pxCallback );
 708:../../../core/ST/Middlewares/Third_Party/FreeRTOS/Source/timers.c **** 
 709:../../../core/ST/Middlewares/Third_Party/FreeRTOS/Source/timers.c **** 				/* Call the function. */
 710:../../../core/ST/Middlewares/Third_Party/FreeRTOS/Source/timers.c **** 				pxCallback->pxCallbackFunction( pxCallback->pvParameter1, pxCallback->ulParameter2 );
 711:../../../core/ST/Middlewares/Third_Party/FreeRTOS/Source/timers.c **** 			}
 712:../../../core/ST/Middlewares/Third_Party/FreeRTOS/Source/timers.c **** 			else
 713:../../../core/ST/Middlewares/Third_Party/FreeRTOS/Source/timers.c **** 			{
 714:../../../core/ST/Middlewares/Third_Party/FreeRTOS/Source/timers.c **** 				mtCOVERAGE_TEST_MARKER();
 715:../../../core/ST/Middlewares/Third_Party/FreeRTOS/Source/timers.c **** 			}
 716:../../../core/ST/Middlewares/Third_Party/FreeRTOS/Source/timers.c **** 		}
 717:../../../core/ST/Middlewares/Third_Party/FreeRTOS/Source/timers.c **** 		#endif /* INCLUDE_xTimerPendFunctionCall */
ARM GAS  C:\Users\tomra\AppData\Local\Temp\ccsXPgWC.s 			page 17


 718:../../../core/ST/Middlewares/Third_Party/FreeRTOS/Source/timers.c **** 
 719:../../../core/ST/Middlewares/Third_Party/FreeRTOS/Source/timers.c **** 		/* Commands that are positive are timer commands rather than pended
 720:../../../core/ST/Middlewares/Third_Party/FreeRTOS/Source/timers.c **** 		function calls. */
 721:../../../core/ST/Middlewares/Third_Party/FreeRTOS/Source/timers.c **** 		if( xMessage.xMessageID >= ( BaseType_t ) 0 )
 722:../../../core/ST/Middlewares/Third_Party/FreeRTOS/Source/timers.c **** 		{
 723:../../../core/ST/Middlewares/Third_Party/FreeRTOS/Source/timers.c **** 			/* The messages uses the xTimerParameters member to work on a
 724:../../../core/ST/Middlewares/Third_Party/FreeRTOS/Source/timers.c **** 			software timer. */
 725:../../../core/ST/Middlewares/Third_Party/FreeRTOS/Source/timers.c **** 			pxTimer = xMessage.u.xTimerParameters.pxTimer;
 726:../../../core/ST/Middlewares/Third_Party/FreeRTOS/Source/timers.c **** 
 727:../../../core/ST/Middlewares/Third_Party/FreeRTOS/Source/timers.c **** 			if( listIS_CONTAINED_WITHIN( NULL, &( pxTimer->xTimerListItem ) ) == pdFALSE ) /*lint !e961. The
 728:../../../core/ST/Middlewares/Third_Party/FreeRTOS/Source/timers.c **** 			{
 729:../../../core/ST/Middlewares/Third_Party/FreeRTOS/Source/timers.c **** 				/* The timer is in a list, remove it. */
 730:../../../core/ST/Middlewares/Third_Party/FreeRTOS/Source/timers.c **** 				( void ) uxListRemove( &( pxTimer->xTimerListItem ) );
 731:../../../core/ST/Middlewares/Third_Party/FreeRTOS/Source/timers.c **** 			}
 732:../../../core/ST/Middlewares/Third_Party/FreeRTOS/Source/timers.c **** 			else
 733:../../../core/ST/Middlewares/Third_Party/FreeRTOS/Source/timers.c **** 			{
 734:../../../core/ST/Middlewares/Third_Party/FreeRTOS/Source/timers.c **** 				mtCOVERAGE_TEST_MARKER();
 735:../../../core/ST/Middlewares/Third_Party/FreeRTOS/Source/timers.c **** 			}
 736:../../../core/ST/Middlewares/Third_Party/FreeRTOS/Source/timers.c **** 
 737:../../../core/ST/Middlewares/Third_Party/FreeRTOS/Source/timers.c **** 			traceTIMER_COMMAND_RECEIVED( pxTimer, xMessage.xMessageID, xMessage.u.xTimerParameters.xMessageV
 738:../../../core/ST/Middlewares/Third_Party/FreeRTOS/Source/timers.c **** 
 739:../../../core/ST/Middlewares/Third_Party/FreeRTOS/Source/timers.c **** 			/* In this case the xTimerListsWereSwitched parameter is not used, but
 740:../../../core/ST/Middlewares/Third_Party/FreeRTOS/Source/timers.c **** 			it must be present in the function call.  prvSampleTimeNow() must be
 741:../../../core/ST/Middlewares/Third_Party/FreeRTOS/Source/timers.c **** 			called after the message is received from xTimerQueue so there is no
 742:../../../core/ST/Middlewares/Third_Party/FreeRTOS/Source/timers.c **** 			possibility of a higher priority task adding a message to the message
 743:../../../core/ST/Middlewares/Third_Party/FreeRTOS/Source/timers.c **** 			queue with a time that is ahead of the timer daemon task (because it
 744:../../../core/ST/Middlewares/Third_Party/FreeRTOS/Source/timers.c **** 			pre-empted the timer daemon task after the xTimeNow value was set). */
 745:../../../core/ST/Middlewares/Third_Party/FreeRTOS/Source/timers.c **** 			xTimeNow = prvSampleTimeNow( &xTimerListsWereSwitched );
 746:../../../core/ST/Middlewares/Third_Party/FreeRTOS/Source/timers.c **** 
 747:../../../core/ST/Middlewares/Third_Party/FreeRTOS/Source/timers.c **** 			switch( xMessage.xMessageID )
 748:../../../core/ST/Middlewares/Third_Party/FreeRTOS/Source/timers.c **** 			{
 749:../../../core/ST/Middlewares/Third_Party/FreeRTOS/Source/timers.c **** 				case tmrCOMMAND_START :
 750:../../../core/ST/Middlewares/Third_Party/FreeRTOS/Source/timers.c **** 			    case tmrCOMMAND_START_FROM_ISR :
 751:../../../core/ST/Middlewares/Third_Party/FreeRTOS/Source/timers.c **** 			    case tmrCOMMAND_RESET :
 752:../../../core/ST/Middlewares/Third_Party/FreeRTOS/Source/timers.c **** 			    case tmrCOMMAND_RESET_FROM_ISR :
 753:../../../core/ST/Middlewares/Third_Party/FreeRTOS/Source/timers.c **** 				case tmrCOMMAND_START_DONT_TRACE :
 754:../../../core/ST/Middlewares/Third_Party/FreeRTOS/Source/timers.c **** 					/* Start or restart a timer. */
 755:../../../core/ST/Middlewares/Third_Party/FreeRTOS/Source/timers.c **** 					if( prvInsertTimerInActiveList( pxTimer,  xMessage.u.xTimerParameters.xMessageValue + pxTimer-
 756:../../../core/ST/Middlewares/Third_Party/FreeRTOS/Source/timers.c **** 					{
 757:../../../core/ST/Middlewares/Third_Party/FreeRTOS/Source/timers.c **** 						/* The timer expired before it was added to the active
 758:../../../core/ST/Middlewares/Third_Party/FreeRTOS/Source/timers.c **** 						timer list.  Process it now. */
 759:../../../core/ST/Middlewares/Third_Party/FreeRTOS/Source/timers.c **** 						pxTimer->pxCallbackFunction( ( TimerHandle_t ) pxTimer );
 760:../../../core/ST/Middlewares/Third_Party/FreeRTOS/Source/timers.c **** 						traceTIMER_EXPIRED( pxTimer );
 761:../../../core/ST/Middlewares/Third_Party/FreeRTOS/Source/timers.c **** 
 762:../../../core/ST/Middlewares/Third_Party/FreeRTOS/Source/timers.c **** 						if( pxTimer->uxAutoReload == ( UBaseType_t ) pdTRUE )
 763:../../../core/ST/Middlewares/Third_Party/FreeRTOS/Source/timers.c **** 						{
 764:../../../core/ST/Middlewares/Third_Party/FreeRTOS/Source/timers.c **** 							xResult = xTimerGenericCommand( pxTimer, tmrCOMMAND_START_DONT_TRACE, xMessage.u.xTimerParam
 765:../../../core/ST/Middlewares/Third_Party/FreeRTOS/Source/timers.c **** 							configASSERT( xResult );
 766:../../../core/ST/Middlewares/Third_Party/FreeRTOS/Source/timers.c **** 							( void ) xResult;
 767:../../../core/ST/Middlewares/Third_Party/FreeRTOS/Source/timers.c **** 						}
 768:../../../core/ST/Middlewares/Third_Party/FreeRTOS/Source/timers.c **** 						else
 769:../../../core/ST/Middlewares/Third_Party/FreeRTOS/Source/timers.c **** 						{
 770:../../../core/ST/Middlewares/Third_Party/FreeRTOS/Source/timers.c **** 							mtCOVERAGE_TEST_MARKER();
 771:../../../core/ST/Middlewares/Third_Party/FreeRTOS/Source/timers.c **** 						}
 772:../../../core/ST/Middlewares/Third_Party/FreeRTOS/Source/timers.c **** 					}
 773:../../../core/ST/Middlewares/Third_Party/FreeRTOS/Source/timers.c **** 					else
 774:../../../core/ST/Middlewares/Third_Party/FreeRTOS/Source/timers.c **** 					{
ARM GAS  C:\Users\tomra\AppData\Local\Temp\ccsXPgWC.s 			page 18


 775:../../../core/ST/Middlewares/Third_Party/FreeRTOS/Source/timers.c **** 						mtCOVERAGE_TEST_MARKER();
 776:../../../core/ST/Middlewares/Third_Party/FreeRTOS/Source/timers.c **** 					}
 777:../../../core/ST/Middlewares/Third_Party/FreeRTOS/Source/timers.c **** 					break;
 778:../../../core/ST/Middlewares/Third_Party/FreeRTOS/Source/timers.c **** 
 779:../../../core/ST/Middlewares/Third_Party/FreeRTOS/Source/timers.c **** 				case tmrCOMMAND_STOP :
 780:../../../core/ST/Middlewares/Third_Party/FreeRTOS/Source/timers.c **** 				case tmrCOMMAND_STOP_FROM_ISR :
 781:../../../core/ST/Middlewares/Third_Party/FreeRTOS/Source/timers.c **** 					/* The timer has already been removed from the active list.
 782:../../../core/ST/Middlewares/Third_Party/FreeRTOS/Source/timers.c **** 					There is nothing to do here. */
 783:../../../core/ST/Middlewares/Third_Party/FreeRTOS/Source/timers.c **** 					break;
 784:../../../core/ST/Middlewares/Third_Party/FreeRTOS/Source/timers.c **** 
 785:../../../core/ST/Middlewares/Third_Party/FreeRTOS/Source/timers.c **** 				case tmrCOMMAND_CHANGE_PERIOD :
 786:../../../core/ST/Middlewares/Third_Party/FreeRTOS/Source/timers.c **** 				case tmrCOMMAND_CHANGE_PERIOD_FROM_ISR :
 787:../../../core/ST/Middlewares/Third_Party/FreeRTOS/Source/timers.c **** 					pxTimer->xTimerPeriodInTicks = xMessage.u.xTimerParameters.xMessageValue;
 788:../../../core/ST/Middlewares/Third_Party/FreeRTOS/Source/timers.c **** 					configASSERT( ( pxTimer->xTimerPeriodInTicks > 0 ) );
 789:../../../core/ST/Middlewares/Third_Party/FreeRTOS/Source/timers.c **** 
 790:../../../core/ST/Middlewares/Third_Party/FreeRTOS/Source/timers.c **** 					/* The new period does not really have a reference, and can
 791:../../../core/ST/Middlewares/Third_Party/FreeRTOS/Source/timers.c **** 					be longer or shorter than the old one.  The command time is
 792:../../../core/ST/Middlewares/Third_Party/FreeRTOS/Source/timers.c **** 					therefore set to the current time, and as the period cannot
 793:../../../core/ST/Middlewares/Third_Party/FreeRTOS/Source/timers.c **** 					be zero the next expiry time can only be in the future,
 794:../../../core/ST/Middlewares/Third_Party/FreeRTOS/Source/timers.c **** 					meaning (unlike for the xTimerStart() case above) there is
 795:../../../core/ST/Middlewares/Third_Party/FreeRTOS/Source/timers.c **** 					no fail case that needs to be handled here. */
 796:../../../core/ST/Middlewares/Third_Party/FreeRTOS/Source/timers.c **** 					( void ) prvInsertTimerInActiveList( pxTimer, ( xTimeNow + pxTimer->xTimerPeriodInTicks ), xTi
 797:../../../core/ST/Middlewares/Third_Party/FreeRTOS/Source/timers.c **** 					break;
 798:../../../core/ST/Middlewares/Third_Party/FreeRTOS/Source/timers.c **** 
 799:../../../core/ST/Middlewares/Third_Party/FreeRTOS/Source/timers.c **** 				case tmrCOMMAND_DELETE :
 800:../../../core/ST/Middlewares/Third_Party/FreeRTOS/Source/timers.c **** 					/* The timer has already been removed from the active list,
 801:../../../core/ST/Middlewares/Third_Party/FreeRTOS/Source/timers.c **** 					just free up the memory if the memory was dynamically
 802:../../../core/ST/Middlewares/Third_Party/FreeRTOS/Source/timers.c **** 					allocated. */
 803:../../../core/ST/Middlewares/Third_Party/FreeRTOS/Source/timers.c **** 					#if( ( configSUPPORT_DYNAMIC_ALLOCATION == 1 ) && ( configSUPPORT_STATIC_ALLOCATION == 0 ) )
 804:../../../core/ST/Middlewares/Third_Party/FreeRTOS/Source/timers.c **** 					{
 805:../../../core/ST/Middlewares/Third_Party/FreeRTOS/Source/timers.c **** 						/* The timer can only have been allocated dynamically -
 806:../../../core/ST/Middlewares/Third_Party/FreeRTOS/Source/timers.c **** 						free it again. */
 807:../../../core/ST/Middlewares/Third_Party/FreeRTOS/Source/timers.c **** 						vPortFree( pxTimer );
 808:../../../core/ST/Middlewares/Third_Party/FreeRTOS/Source/timers.c **** 					}
 809:../../../core/ST/Middlewares/Third_Party/FreeRTOS/Source/timers.c **** 					#elif( ( configSUPPORT_DYNAMIC_ALLOCATION == 1 ) && ( configSUPPORT_STATIC_ALLOCATION == 1 ) )
 810:../../../core/ST/Middlewares/Third_Party/FreeRTOS/Source/timers.c **** 					{
 811:../../../core/ST/Middlewares/Third_Party/FreeRTOS/Source/timers.c **** 						/* The timer could have been allocated statically or
 812:../../../core/ST/Middlewares/Third_Party/FreeRTOS/Source/timers.c **** 						dynamically, so check before attempting to free the
 813:../../../core/ST/Middlewares/Third_Party/FreeRTOS/Source/timers.c **** 						memory. */
 814:../../../core/ST/Middlewares/Third_Party/FreeRTOS/Source/timers.c **** 						if( pxTimer->ucStaticallyAllocated == ( uint8_t ) pdFALSE )
 815:../../../core/ST/Middlewares/Third_Party/FreeRTOS/Source/timers.c **** 						{
 816:../../../core/ST/Middlewares/Third_Party/FreeRTOS/Source/timers.c **** 							vPortFree( pxTimer );
 817:../../../core/ST/Middlewares/Third_Party/FreeRTOS/Source/timers.c **** 						}
 818:../../../core/ST/Middlewares/Third_Party/FreeRTOS/Source/timers.c **** 						else
 819:../../../core/ST/Middlewares/Third_Party/FreeRTOS/Source/timers.c **** 						{
 820:../../../core/ST/Middlewares/Third_Party/FreeRTOS/Source/timers.c **** 							mtCOVERAGE_TEST_MARKER();
 821:../../../core/ST/Middlewares/Third_Party/FreeRTOS/Source/timers.c **** 						}
 822:../../../core/ST/Middlewares/Third_Party/FreeRTOS/Source/timers.c **** 					}
 823:../../../core/ST/Middlewares/Third_Party/FreeRTOS/Source/timers.c **** 					#endif /* configSUPPORT_DYNAMIC_ALLOCATION */
 824:../../../core/ST/Middlewares/Third_Party/FreeRTOS/Source/timers.c **** 					break;
 825:../../../core/ST/Middlewares/Third_Party/FreeRTOS/Source/timers.c **** 
 826:../../../core/ST/Middlewares/Third_Party/FreeRTOS/Source/timers.c **** 				default	:
 827:../../../core/ST/Middlewares/Third_Party/FreeRTOS/Source/timers.c **** 					/* Don't expect to get here. */
 828:../../../core/ST/Middlewares/Third_Party/FreeRTOS/Source/timers.c **** 					break;
 829:../../../core/ST/Middlewares/Third_Party/FreeRTOS/Source/timers.c **** 			}
 830:../../../core/ST/Middlewares/Third_Party/FreeRTOS/Source/timers.c **** 		}
 831:../../../core/ST/Middlewares/Third_Party/FreeRTOS/Source/timers.c **** 	}
ARM GAS  C:\Users\tomra\AppData\Local\Temp\ccsXPgWC.s 			page 19


 832:../../../core/ST/Middlewares/Third_Party/FreeRTOS/Source/timers.c **** }
 833:../../../core/ST/Middlewares/Third_Party/FreeRTOS/Source/timers.c **** /*-----------------------------------------------------------*/
 834:../../../core/ST/Middlewares/Third_Party/FreeRTOS/Source/timers.c **** 
 835:../../../core/ST/Middlewares/Third_Party/FreeRTOS/Source/timers.c **** static void prvSwitchTimerLists( void )
 836:../../../core/ST/Middlewares/Third_Party/FreeRTOS/Source/timers.c **** {
 837:../../../core/ST/Middlewares/Third_Party/FreeRTOS/Source/timers.c **** TickType_t xNextExpireTime, xReloadTime;
 838:../../../core/ST/Middlewares/Third_Party/FreeRTOS/Source/timers.c **** List_t *pxTemp;
 839:../../../core/ST/Middlewares/Third_Party/FreeRTOS/Source/timers.c **** Timer_t *pxTimer;
 840:../../../core/ST/Middlewares/Third_Party/FreeRTOS/Source/timers.c **** BaseType_t xResult;
 841:../../../core/ST/Middlewares/Third_Party/FreeRTOS/Source/timers.c **** 
 842:../../../core/ST/Middlewares/Third_Party/FreeRTOS/Source/timers.c **** 	/* The tick count has overflowed.  The timer lists must be switched.
 843:../../../core/ST/Middlewares/Third_Party/FreeRTOS/Source/timers.c **** 	If there are any timers still referenced from the current timer list
 844:../../../core/ST/Middlewares/Third_Party/FreeRTOS/Source/timers.c **** 	then they must have expired and should be processed before the lists
 845:../../../core/ST/Middlewares/Third_Party/FreeRTOS/Source/timers.c **** 	are switched. */
 846:../../../core/ST/Middlewares/Third_Party/FreeRTOS/Source/timers.c **** 	while( listLIST_IS_EMPTY( pxCurrentTimerList ) == pdFALSE )
 847:../../../core/ST/Middlewares/Third_Party/FreeRTOS/Source/timers.c **** 	{
 848:../../../core/ST/Middlewares/Third_Party/FreeRTOS/Source/timers.c **** 		xNextExpireTime = listGET_ITEM_VALUE_OF_HEAD_ENTRY( pxCurrentTimerList );
 849:../../../core/ST/Middlewares/Third_Party/FreeRTOS/Source/timers.c **** 
 850:../../../core/ST/Middlewares/Third_Party/FreeRTOS/Source/timers.c **** 		/* Remove the timer from the list. */
 851:../../../core/ST/Middlewares/Third_Party/FreeRTOS/Source/timers.c **** 		pxTimer = ( Timer_t * ) listGET_OWNER_OF_HEAD_ENTRY( pxCurrentTimerList );
 852:../../../core/ST/Middlewares/Third_Party/FreeRTOS/Source/timers.c **** 		( void ) uxListRemove( &( pxTimer->xTimerListItem ) );
 853:../../../core/ST/Middlewares/Third_Party/FreeRTOS/Source/timers.c **** 		traceTIMER_EXPIRED( pxTimer );
 854:../../../core/ST/Middlewares/Third_Party/FreeRTOS/Source/timers.c **** 
 855:../../../core/ST/Middlewares/Third_Party/FreeRTOS/Source/timers.c **** 		/* Execute its callback, then send a command to restart the timer if
 856:../../../core/ST/Middlewares/Third_Party/FreeRTOS/Source/timers.c **** 		it is an auto-reload timer.  It cannot be restarted here as the lists
 857:../../../core/ST/Middlewares/Third_Party/FreeRTOS/Source/timers.c **** 		have not yet been switched. */
 858:../../../core/ST/Middlewares/Third_Party/FreeRTOS/Source/timers.c **** 		pxTimer->pxCallbackFunction( ( TimerHandle_t ) pxTimer );
 859:../../../core/ST/Middlewares/Third_Party/FreeRTOS/Source/timers.c **** 
 860:../../../core/ST/Middlewares/Third_Party/FreeRTOS/Source/timers.c **** 		if( pxTimer->uxAutoReload == ( UBaseType_t ) pdTRUE )
 861:../../../core/ST/Middlewares/Third_Party/FreeRTOS/Source/timers.c **** 		{
 862:../../../core/ST/Middlewares/Third_Party/FreeRTOS/Source/timers.c **** 			/* Calculate the reload value, and if the reload value results in
 863:../../../core/ST/Middlewares/Third_Party/FreeRTOS/Source/timers.c **** 			the timer going into the same timer list then it has already expired
 864:../../../core/ST/Middlewares/Third_Party/FreeRTOS/Source/timers.c **** 			and the timer should be re-inserted into the current list so it is
 865:../../../core/ST/Middlewares/Third_Party/FreeRTOS/Source/timers.c **** 			processed again within this loop.  Otherwise a command should be sent
 866:../../../core/ST/Middlewares/Third_Party/FreeRTOS/Source/timers.c **** 			to restart the timer to ensure it is only inserted into a list after
 867:../../../core/ST/Middlewares/Third_Party/FreeRTOS/Source/timers.c **** 			the lists have been swapped. */
 868:../../../core/ST/Middlewares/Third_Party/FreeRTOS/Source/timers.c **** 			xReloadTime = ( xNextExpireTime + pxTimer->xTimerPeriodInTicks );
 869:../../../core/ST/Middlewares/Third_Party/FreeRTOS/Source/timers.c **** 			if( xReloadTime > xNextExpireTime )
 870:../../../core/ST/Middlewares/Third_Party/FreeRTOS/Source/timers.c **** 			{
 871:../../../core/ST/Middlewares/Third_Party/FreeRTOS/Source/timers.c **** 				listSET_LIST_ITEM_VALUE( &( pxTimer->xTimerListItem ), xReloadTime );
 872:../../../core/ST/Middlewares/Third_Party/FreeRTOS/Source/timers.c **** 				listSET_LIST_ITEM_OWNER( &( pxTimer->xTimerListItem ), pxTimer );
 873:../../../core/ST/Middlewares/Third_Party/FreeRTOS/Source/timers.c **** 				vListInsert( pxCurrentTimerList, &( pxTimer->xTimerListItem ) );
 874:../../../core/ST/Middlewares/Third_Party/FreeRTOS/Source/timers.c **** 			}
 875:../../../core/ST/Middlewares/Third_Party/FreeRTOS/Source/timers.c **** 			else
 876:../../../core/ST/Middlewares/Third_Party/FreeRTOS/Source/timers.c **** 			{
 877:../../../core/ST/Middlewares/Third_Party/FreeRTOS/Source/timers.c **** 				xResult = xTimerGenericCommand( pxTimer, tmrCOMMAND_START_DONT_TRACE, xNextExpireTime, NULL, tm
 878:../../../core/ST/Middlewares/Third_Party/FreeRTOS/Source/timers.c **** 				configASSERT( xResult );
 879:../../../core/ST/Middlewares/Third_Party/FreeRTOS/Source/timers.c **** 				( void ) xResult;
 880:../../../core/ST/Middlewares/Third_Party/FreeRTOS/Source/timers.c **** 			}
 881:../../../core/ST/Middlewares/Third_Party/FreeRTOS/Source/timers.c **** 		}
 882:../../../core/ST/Middlewares/Third_Party/FreeRTOS/Source/timers.c **** 		else
 883:../../../core/ST/Middlewares/Third_Party/FreeRTOS/Source/timers.c **** 		{
 884:../../../core/ST/Middlewares/Third_Party/FreeRTOS/Source/timers.c **** 			mtCOVERAGE_TEST_MARKER();
 885:../../../core/ST/Middlewares/Third_Party/FreeRTOS/Source/timers.c **** 		}
 886:../../../core/ST/Middlewares/Third_Party/FreeRTOS/Source/timers.c **** 	}
 887:../../../core/ST/Middlewares/Third_Party/FreeRTOS/Source/timers.c **** 
 888:../../../core/ST/Middlewares/Third_Party/FreeRTOS/Source/timers.c **** 	pxTemp = pxCurrentTimerList;
ARM GAS  C:\Users\tomra\AppData\Local\Temp\ccsXPgWC.s 			page 20


 889:../../../core/ST/Middlewares/Third_Party/FreeRTOS/Source/timers.c **** 	pxCurrentTimerList = pxOverflowTimerList;
 890:../../../core/ST/Middlewares/Third_Party/FreeRTOS/Source/timers.c **** 	pxOverflowTimerList = pxTemp;
 891:../../../core/ST/Middlewares/Third_Party/FreeRTOS/Source/timers.c **** }
 892:../../../core/ST/Middlewares/Third_Party/FreeRTOS/Source/timers.c **** /*-----------------------------------------------------------*/
 893:../../../core/ST/Middlewares/Third_Party/FreeRTOS/Source/timers.c **** 
 894:../../../core/ST/Middlewares/Third_Party/FreeRTOS/Source/timers.c **** static void prvCheckForValidListAndQueue( void )
 895:../../../core/ST/Middlewares/Third_Party/FreeRTOS/Source/timers.c **** {
 185              		.loc 1 895 1 is_stmt 1 view -0
 186              		.cfi_startproc
 187              		@ args = 0, pretend = 0, frame = 0
 188              		@ frame_needed = 0, uses_anonymous_args = 0
 189 0000 38B5     		push	{r3, r4, r5, lr}
 190              	.LCFI1:
 191              		.cfi_def_cfa_offset 16
 192              		.cfi_offset 3, -16
 193              		.cfi_offset 4, -12
 194              		.cfi_offset 5, -8
 195              		.cfi_offset 14, -4
 896:../../../core/ST/Middlewares/Third_Party/FreeRTOS/Source/timers.c **** 	/* Check that the list from which active timers are referenced, and the
 897:../../../core/ST/Middlewares/Third_Party/FreeRTOS/Source/timers.c **** 	queue used to communicate with the timer service, have been
 898:../../../core/ST/Middlewares/Third_Party/FreeRTOS/Source/timers.c **** 	initialised. */
 899:../../../core/ST/Middlewares/Third_Party/FreeRTOS/Source/timers.c **** 	taskENTER_CRITICAL();
 196              		.loc 1 899 2 view .LVU43
 197 0002 FFF7FEFF 		bl	vPortEnterCritical
 198              	.LVL20:
 900:../../../core/ST/Middlewares/Third_Party/FreeRTOS/Source/timers.c **** 	{
 901:../../../core/ST/Middlewares/Third_Party/FreeRTOS/Source/timers.c **** 		if( xTimerQueue == NULL )
 199              		.loc 1 901 3 view .LVU44
 200              		.loc 1 901 19 is_stmt 0 view .LVU45
 201 0006 0F4B     		ldr	r3, .L20
 202 0008 1B68     		ldr	r3, [r3]
 203              		.loc 1 901 5 view .LVU46
 204 000a 13B1     		cbz	r3, .L19
 205              	.L17:
 902:../../../core/ST/Middlewares/Third_Party/FreeRTOS/Source/timers.c **** 		{
 903:../../../core/ST/Middlewares/Third_Party/FreeRTOS/Source/timers.c **** 			vListInitialise( &xActiveTimerList1 );
 904:../../../core/ST/Middlewares/Third_Party/FreeRTOS/Source/timers.c **** 			vListInitialise( &xActiveTimerList2 );
 905:../../../core/ST/Middlewares/Third_Party/FreeRTOS/Source/timers.c **** 			pxCurrentTimerList = &xActiveTimerList1;
 906:../../../core/ST/Middlewares/Third_Party/FreeRTOS/Source/timers.c **** 			pxOverflowTimerList = &xActiveTimerList2;
 907:../../../core/ST/Middlewares/Third_Party/FreeRTOS/Source/timers.c **** 
 908:../../../core/ST/Middlewares/Third_Party/FreeRTOS/Source/timers.c **** 			#if( configSUPPORT_STATIC_ALLOCATION == 1 )
 909:../../../core/ST/Middlewares/Third_Party/FreeRTOS/Source/timers.c **** 			{
 910:../../../core/ST/Middlewares/Third_Party/FreeRTOS/Source/timers.c **** 				/* The timer queue is allocated statically in case
 911:../../../core/ST/Middlewares/Third_Party/FreeRTOS/Source/timers.c **** 				configSUPPORT_DYNAMIC_ALLOCATION is 0. */
 912:../../../core/ST/Middlewares/Third_Party/FreeRTOS/Source/timers.c **** 				static StaticQueue_t xStaticTimerQueue; /*lint !e956 Ok to declare in this manner to prevent ad
 913:../../../core/ST/Middlewares/Third_Party/FreeRTOS/Source/timers.c **** 				static uint8_t ucStaticTimerQueueStorage[ ( size_t ) configTIMER_QUEUE_LENGTH * sizeof( DaemonT
 914:../../../core/ST/Middlewares/Third_Party/FreeRTOS/Source/timers.c **** 
 915:../../../core/ST/Middlewares/Third_Party/FreeRTOS/Source/timers.c **** 				xTimerQueue = xQueueCreateStatic( ( UBaseType_t ) configTIMER_QUEUE_LENGTH, ( UBaseType_t ) siz
 916:../../../core/ST/Middlewares/Third_Party/FreeRTOS/Source/timers.c **** 			}
 917:../../../core/ST/Middlewares/Third_Party/FreeRTOS/Source/timers.c **** 			#else
 918:../../../core/ST/Middlewares/Third_Party/FreeRTOS/Source/timers.c **** 			{
 919:../../../core/ST/Middlewares/Third_Party/FreeRTOS/Source/timers.c **** 				xTimerQueue = xQueueCreate( ( UBaseType_t ) configTIMER_QUEUE_LENGTH, sizeof( DaemonTaskMessage
 920:../../../core/ST/Middlewares/Third_Party/FreeRTOS/Source/timers.c **** 			}
 921:../../../core/ST/Middlewares/Third_Party/FreeRTOS/Source/timers.c **** 			#endif
 922:../../../core/ST/Middlewares/Third_Party/FreeRTOS/Source/timers.c **** 
 923:../../../core/ST/Middlewares/Third_Party/FreeRTOS/Source/timers.c **** 			#if ( configQUEUE_REGISTRY_SIZE > 0 )
 924:../../../core/ST/Middlewares/Third_Party/FreeRTOS/Source/timers.c **** 			{
ARM GAS  C:\Users\tomra\AppData\Local\Temp\ccsXPgWC.s 			page 21


 925:../../../core/ST/Middlewares/Third_Party/FreeRTOS/Source/timers.c **** 				if( xTimerQueue != NULL )
 926:../../../core/ST/Middlewares/Third_Party/FreeRTOS/Source/timers.c **** 				{
 927:../../../core/ST/Middlewares/Third_Party/FreeRTOS/Source/timers.c **** 					vQueueAddToRegistry( xTimerQueue, "TmrQ" );
 928:../../../core/ST/Middlewares/Third_Party/FreeRTOS/Source/timers.c **** 				}
 929:../../../core/ST/Middlewares/Third_Party/FreeRTOS/Source/timers.c **** 				else
 930:../../../core/ST/Middlewares/Third_Party/FreeRTOS/Source/timers.c **** 				{
 931:../../../core/ST/Middlewares/Third_Party/FreeRTOS/Source/timers.c **** 					mtCOVERAGE_TEST_MARKER();
 932:../../../core/ST/Middlewares/Third_Party/FreeRTOS/Source/timers.c **** 				}
 933:../../../core/ST/Middlewares/Third_Party/FreeRTOS/Source/timers.c **** 			}
 934:../../../core/ST/Middlewares/Third_Party/FreeRTOS/Source/timers.c **** 			#endif /* configQUEUE_REGISTRY_SIZE */
 935:../../../core/ST/Middlewares/Third_Party/FreeRTOS/Source/timers.c **** 		}
 936:../../../core/ST/Middlewares/Third_Party/FreeRTOS/Source/timers.c **** 		else
 937:../../../core/ST/Middlewares/Third_Party/FreeRTOS/Source/timers.c **** 		{
 938:../../../core/ST/Middlewares/Third_Party/FreeRTOS/Source/timers.c **** 			mtCOVERAGE_TEST_MARKER();
 206              		.loc 1 938 28 is_stmt 1 view .LVU47
 939:../../../core/ST/Middlewares/Third_Party/FreeRTOS/Source/timers.c **** 		}
 940:../../../core/ST/Middlewares/Third_Party/FreeRTOS/Source/timers.c **** 	}
 941:../../../core/ST/Middlewares/Third_Party/FreeRTOS/Source/timers.c **** 	taskEXIT_CRITICAL();
 207              		.loc 1 941 2 view .LVU48
 208 000c FFF7FEFF 		bl	vPortExitCritical
 209              	.LVL21:
 942:../../../core/ST/Middlewares/Third_Party/FreeRTOS/Source/timers.c **** }
 210              		.loc 1 942 1 is_stmt 0 view .LVU49
 211 0010 38BD     		pop	{r3, r4, r5, pc}
 212              	.L19:
 903:../../../core/ST/Middlewares/Third_Party/FreeRTOS/Source/timers.c **** 			vListInitialise( &xActiveTimerList2 );
 213              		.loc 1 903 4 is_stmt 1 view .LVU50
 214 0012 0D4D     		ldr	r5, .L20+4
 215 0014 2846     		mov	r0, r5
 216 0016 FFF7FEFF 		bl	vListInitialise
 217              	.LVL22:
 904:../../../core/ST/Middlewares/Third_Party/FreeRTOS/Source/timers.c **** 			pxCurrentTimerList = &xActiveTimerList1;
 218              		.loc 1 904 4 view .LVU51
 219 001a 0C4C     		ldr	r4, .L20+8
 220 001c 2046     		mov	r0, r4
 221 001e FFF7FEFF 		bl	vListInitialise
 222              	.LVL23:
 905:../../../core/ST/Middlewares/Third_Party/FreeRTOS/Source/timers.c **** 			pxOverflowTimerList = &xActiveTimerList2;
 223              		.loc 1 905 4 view .LVU52
 905:../../../core/ST/Middlewares/Third_Party/FreeRTOS/Source/timers.c **** 			pxOverflowTimerList = &xActiveTimerList2;
 224              		.loc 1 905 23 is_stmt 0 view .LVU53
 225 0022 0B4B     		ldr	r3, .L20+12
 226 0024 1D60     		str	r5, [r3]
 906:../../../core/ST/Middlewares/Third_Party/FreeRTOS/Source/timers.c **** 
 227              		.loc 1 906 4 is_stmt 1 view .LVU54
 906:../../../core/ST/Middlewares/Third_Party/FreeRTOS/Source/timers.c **** 
 228              		.loc 1 906 24 is_stmt 0 view .LVU55
 229 0026 0B4B     		ldr	r3, .L20+16
 230 0028 1C60     		str	r4, [r3]
 919:../../../core/ST/Middlewares/Third_Party/FreeRTOS/Source/timers.c **** 			}
 231              		.loc 1 919 5 is_stmt 1 view .LVU56
 919:../../../core/ST/Middlewares/Third_Party/FreeRTOS/Source/timers.c **** 			}
 232              		.loc 1 919 19 is_stmt 0 view .LVU57
 233 002a 0022     		movs	r2, #0
 234 002c 0C21     		movs	r1, #12
 235 002e 0A20     		movs	r0, #10
 236 0030 FFF7FEFF 		bl	xQueueGenericCreate
ARM GAS  C:\Users\tomra\AppData\Local\Temp\ccsXPgWC.s 			page 22


 237              	.LVL24:
 919:../../../core/ST/Middlewares/Third_Party/FreeRTOS/Source/timers.c **** 			}
 238              		.loc 1 919 17 view .LVU58
 239 0034 034B     		ldr	r3, .L20
 240 0036 1860     		str	r0, [r3]
 925:../../../core/ST/Middlewares/Third_Party/FreeRTOS/Source/timers.c **** 				{
 241              		.loc 1 925 5 is_stmt 1 view .LVU59
 925:../../../core/ST/Middlewares/Third_Party/FreeRTOS/Source/timers.c **** 				{
 242              		.loc 1 925 7 is_stmt 0 view .LVU60
 243 0038 0028     		cmp	r0, #0
 244 003a E7D0     		beq	.L17
 927:../../../core/ST/Middlewares/Third_Party/FreeRTOS/Source/timers.c **** 				}
 245              		.loc 1 927 6 is_stmt 1 view .LVU61
 246 003c 0649     		ldr	r1, .L20+20
 247 003e FFF7FEFF 		bl	vQueueAddToRegistry
 248              	.LVL25:
 249 0042 E3E7     		b	.L17
 250              	.L21:
 251              		.align	2
 252              	.L20:
 253 0044 00000000 		.word	.LANCHOR2
 254 0048 00000000 		.word	.LANCHOR3
 255 004c 00000000 		.word	.LANCHOR4
 256 0050 00000000 		.word	.LANCHOR0
 257 0054 00000000 		.word	.LANCHOR1
 258 0058 00000000 		.word	.LC0
 259              		.cfi_endproc
 260              	.LFE21:
 262              		.section	.rodata.prvInitialiseNewTimer.str1.4,"aMS",%progbits,1
 263              		.align	2
 264              	.LC1:
 265 0000 2E2E2F2E 		.ascii	"../../../core/ST/Middlewares/Third_Party/FreeRTOS/S"
 265      2E2F2E2E 
 265      2F636F72 
 265      652F5354 
 265      2F4D6964 
 266 0033 6F757263 		.ascii	"ource/timers.c\000"
 266      652F7469 
 266      6D657273 
 266      2E6300
 267              		.section	.text.prvInitialiseNewTimer,"ax",%progbits
 268              		.align	1
 269              		.syntax unified
 270              		.thumb
 271              		.thumb_func
 272              		.fpu fpv4-sp-d16
 274              	prvInitialiseNewTimer:
 275              	.LVL26:
 276              	.LFB7:
 358:../../../core/ST/Middlewares/Third_Party/FreeRTOS/Source/timers.c **** 	/* 0 is not a valid value for xTimerPeriodInTicks. */
 277              		.loc 1 358 1 view -0
 278              		.cfi_startproc
 279              		@ args = 8, pretend = 0, frame = 0
 280              		@ frame_needed = 0, uses_anonymous_args = 0
 358:../../../core/ST/Middlewares/Third_Party/FreeRTOS/Source/timers.c **** 	/* 0 is not a valid value for xTimerPeriodInTicks. */
 281              		.loc 1 358 1 is_stmt 0 view .LVU63
 282 0000 2DE9F041 		push	{r4, r5, r6, r7, r8, lr}
ARM GAS  C:\Users\tomra\AppData\Local\Temp\ccsXPgWC.s 			page 23


 283              	.LCFI2:
 284              		.cfi_def_cfa_offset 24
 285              		.cfi_offset 4, -24
 286              		.cfi_offset 5, -20
 287              		.cfi_offset 6, -16
 288              		.cfi_offset 7, -12
 289              		.cfi_offset 8, -8
 290              		.cfi_offset 14, -4
 291 0004 0746     		mov	r7, r0
 292 0006 1646     		mov	r6, r2
 293 0008 1D46     		mov	r5, r3
 294 000a 079C     		ldr	r4, [sp, #28]
 360:../../../core/ST/Middlewares/Third_Party/FreeRTOS/Source/timers.c **** 
 295              		.loc 1 360 2 is_stmt 1 view .LVU64
 296 000c 8846     		mov	r8, r1
 297 000e 71B1     		cbz	r1, .L26
 298              	.LVL27:
 299              	.L23:
 362:../../../core/ST/Middlewares/Third_Party/FreeRTOS/Source/timers.c **** 	{
 300              		.loc 1 362 2 view .LVU65
 362:../../../core/ST/Middlewares/Third_Party/FreeRTOS/Source/timers.c **** 	{
 301              		.loc 1 362 4 is_stmt 0 view .LVU66
 302 0010 5CB1     		cbz	r4, .L22
 366:../../../core/ST/Middlewares/Third_Party/FreeRTOS/Source/timers.c **** 
 303              		.loc 1 366 3 is_stmt 1 view .LVU67
 304 0012 FFF7FEFF 		bl	prvCheckForValidListAndQueue
 305              	.LVL28:
 370:../../../core/ST/Middlewares/Third_Party/FreeRTOS/Source/timers.c **** 		pxNewTimer->xTimerPeriodInTicks = xTimerPeriodInTicks;
 306              		.loc 1 370 3 view .LVU68
 370:../../../core/ST/Middlewares/Third_Party/FreeRTOS/Source/timers.c **** 		pxNewTimer->xTimerPeriodInTicks = xTimerPeriodInTicks;
 307              		.loc 1 370 27 is_stmt 0 view .LVU69
 308 0016 2760     		str	r7, [r4]
 371:../../../core/ST/Middlewares/Third_Party/FreeRTOS/Source/timers.c **** 		pxNewTimer->uxAutoReload = uxAutoReload;
 309              		.loc 1 371 3 is_stmt 1 view .LVU70
 371:../../../core/ST/Middlewares/Third_Party/FreeRTOS/Source/timers.c **** 		pxNewTimer->uxAutoReload = uxAutoReload;
 310              		.loc 1 371 35 is_stmt 0 view .LVU71
 311 0018 C4F81880 		str	r8, [r4, #24]
 372:../../../core/ST/Middlewares/Third_Party/FreeRTOS/Source/timers.c **** 		pxNewTimer->pvTimerID = pvTimerID;
 312              		.loc 1 372 3 is_stmt 1 view .LVU72
 372:../../../core/ST/Middlewares/Third_Party/FreeRTOS/Source/timers.c **** 		pxNewTimer->pvTimerID = pvTimerID;
 313              		.loc 1 372 28 is_stmt 0 view .LVU73
 314 001c E661     		str	r6, [r4, #28]
 373:../../../core/ST/Middlewares/Third_Party/FreeRTOS/Source/timers.c **** 		pxNewTimer->pxCallbackFunction = pxCallbackFunction;
 315              		.loc 1 373 3 is_stmt 1 view .LVU74
 373:../../../core/ST/Middlewares/Third_Party/FreeRTOS/Source/timers.c **** 		pxNewTimer->pxCallbackFunction = pxCallbackFunction;
 316              		.loc 1 373 25 is_stmt 0 view .LVU75
 317 001e 2562     		str	r5, [r4, #32]
 374:../../../core/ST/Middlewares/Third_Party/FreeRTOS/Source/timers.c **** 		vListInitialiseItem( &( pxNewTimer->xTimerListItem ) );
 318              		.loc 1 374 3 is_stmt 1 view .LVU76
 374:../../../core/ST/Middlewares/Third_Party/FreeRTOS/Source/timers.c **** 		vListInitialiseItem( &( pxNewTimer->xTimerListItem ) );
 319              		.loc 1 374 34 is_stmt 0 view .LVU77
 320 0020 069B     		ldr	r3, [sp, #24]
 321 0022 6362     		str	r3, [r4, #36]
 375:../../../core/ST/Middlewares/Third_Party/FreeRTOS/Source/timers.c **** 		traceTIMER_CREATE( pxNewTimer );
 322              		.loc 1 375 3 is_stmt 1 view .LVU78
 323 0024 201D     		adds	r0, r4, #4
 324 0026 FFF7FEFF 		bl	vListInitialiseItem
ARM GAS  C:\Users\tomra\AppData\Local\Temp\ccsXPgWC.s 			page 24


 325              	.LVL29:
 376:../../../core/ST/Middlewares/Third_Party/FreeRTOS/Source/timers.c **** 	}
 326              		.loc 1 376 34 view .LVU79
 327              	.L22:
 378:../../../core/ST/Middlewares/Third_Party/FreeRTOS/Source/timers.c **** /*-----------------------------------------------------------*/
 328              		.loc 1 378 1 is_stmt 0 view .LVU80
 329 002a BDE8F081 		pop	{r4, r5, r6, r7, r8, pc}
 330              	.LVL30:
 331              	.L26:
 332              	.LBB2:
 360:../../../core/ST/Middlewares/Third_Party/FreeRTOS/Source/timers.c **** 
 333              		.loc 1 360 2 is_stmt 1 discriminator 1 view .LVU81
 334 002e 4FF4B471 		mov	r1, #360
 335              	.LVL31:
 360:../../../core/ST/Middlewares/Third_Party/FreeRTOS/Source/timers.c **** 
 336              		.loc 1 360 2 is_stmt 0 discriminator 1 view .LVU82
 337 0032 0248     		ldr	r0, .L27
 338              	.LVL32:
 360:../../../core/ST/Middlewares/Third_Party/FreeRTOS/Source/timers.c **** 
 339              		.loc 1 360 2 discriminator 1 view .LVU83
 340 0034 FFF7FEFF 		bl	assert_failed
 341              	.LVL33:
 360:../../../core/ST/Middlewares/Third_Party/FreeRTOS/Source/timers.c **** 
 342              		.loc 1 360 2 discriminator 1 view .LVU84
 343 0038 EAE7     		b	.L23
 344              	.L28:
 345 003a 00BF     		.align	2
 346              	.L27:
 347 003c 00000000 		.word	.LC1
 348              	.LBE2:
 349              		.cfi_endproc
 350              	.LFE7:
 352              		.section	.rodata.xTimerCreateTimerTask.str1.4,"aMS",%progbits,1
 353              		.align	2
 354              	.LC2:
 355 0000 546D7220 		.ascii	"Tmr Svc\000"
 355      53766300 
 356              		.section	.text.xTimerCreateTimerTask,"ax",%progbits
 357              		.align	1
 358              		.global	xTimerCreateTimerTask
 359              		.syntax unified
 360              		.thumb
 361              		.thumb_func
 362              		.fpu fpv4-sp-d16
 364              	xTimerCreateTimerTask:
 365              	.LFB5:
 224:../../../core/ST/Middlewares/Third_Party/FreeRTOS/Source/timers.c **** BaseType_t xReturn = pdFAIL;
 366              		.loc 1 224 1 is_stmt 1 view -0
 367              		.cfi_startproc
 368              		@ args = 0, pretend = 0, frame = 0
 369              		@ frame_needed = 0, uses_anonymous_args = 0
 370 0000 10B5     		push	{r4, lr}
 371              	.LCFI3:
 372              		.cfi_def_cfa_offset 8
 373              		.cfi_offset 4, -8
 374              		.cfi_offset 14, -4
 375 0002 82B0     		sub	sp, sp, #8
ARM GAS  C:\Users\tomra\AppData\Local\Temp\ccsXPgWC.s 			page 25


 376              	.LCFI4:
 377              		.cfi_def_cfa_offset 16
 225:../../../core/ST/Middlewares/Third_Party/FreeRTOS/Source/timers.c **** 
 378              		.loc 1 225 1 view .LVU86
 379              	.LVL34:
 231:../../../core/ST/Middlewares/Third_Party/FreeRTOS/Source/timers.c **** 
 380              		.loc 1 231 2 view .LVU87
 381 0004 FFF7FEFF 		bl	prvCheckForValidListAndQueue
 382              	.LVL35:
 233:../../../core/ST/Middlewares/Third_Party/FreeRTOS/Source/timers.c **** 	{
 383              		.loc 1 233 2 view .LVU88
 233:../../../core/ST/Middlewares/Third_Party/FreeRTOS/Source/timers.c **** 	{
 384              		.loc 1 233 18 is_stmt 0 view .LVU89
 385 0008 0C4B     		ldr	r3, .L34
 386 000a 1B68     		ldr	r3, [r3]
 233:../../../core/ST/Middlewares/Third_Party/FreeRTOS/Source/timers.c **** 	{
 387              		.loc 1 233 4 view .LVU90
 388 000c A3B1     		cbz	r3, .L32
 257:../../../core/ST/Middlewares/Third_Party/FreeRTOS/Source/timers.c **** 									configTIMER_SERVICE_TASK_NAME,
 389              		.loc 1 257 4 is_stmt 1 view .LVU91
 257:../../../core/ST/Middlewares/Third_Party/FreeRTOS/Source/timers.c **** 									configTIMER_SERVICE_TASK_NAME,
 390              		.loc 1 257 14 is_stmt 0 view .LVU92
 391 000e 0C4B     		ldr	r3, .L34+4
 392 0010 0193     		str	r3, [sp, #4]
 393 0012 0323     		movs	r3, #3
 394 0014 0093     		str	r3, [sp]
 395 0016 0023     		movs	r3, #0
 396 0018 4FF40072 		mov	r2, #512
 397 001c 0949     		ldr	r1, .L34+8
 398 001e 0A48     		ldr	r0, .L34+12
 399 0020 FFF7FEFF 		bl	xTaskCreate
 400              	.LVL36:
 268:../../../core/ST/Middlewares/Third_Party/FreeRTOS/Source/timers.c **** 	}
 401              		.loc 1 268 27 is_stmt 1 view .LVU93
 271:../../../core/ST/Middlewares/Third_Party/FreeRTOS/Source/timers.c **** 	return xReturn;
 402              		.loc 1 271 2 view .LVU94
 403 0024 0446     		mov	r4, r0
 404 0026 20B9     		cbnz	r0, .L29
 405              	.LVL37:
 406              	.L30:
 407              	.LBB3:
 271:../../../core/ST/Middlewares/Third_Party/FreeRTOS/Source/timers.c **** 	return xReturn;
 408              		.loc 1 271 2 discriminator 1 view .LVU95
 409 0028 40F20F11 		movw	r1, #271
 410 002c 0748     		ldr	r0, .L34+16
 411 002e FFF7FEFF 		bl	assert_failed
 412              	.LVL38:
 413              	.LBE3:
 272:../../../core/ST/Middlewares/Third_Party/FreeRTOS/Source/timers.c **** }
 414              		.loc 1 272 2 discriminator 1 view .LVU96
 415              	.L29:
 273:../../../core/ST/Middlewares/Third_Party/FreeRTOS/Source/timers.c **** /*-----------------------------------------------------------*/
 416              		.loc 1 273 1 is_stmt 0 view .LVU97
 417 0032 2046     		mov	r0, r4
 418 0034 02B0     		add	sp, sp, #8
 419              	.LCFI5:
 420              		.cfi_remember_state
ARM GAS  C:\Users\tomra\AppData\Local\Temp\ccsXPgWC.s 			page 26


 421              		.cfi_def_cfa_offset 8
 422              		@ sp needed
 423 0036 10BD     		pop	{r4, pc}
 424              	.LVL39:
 425              	.L32:
 426              	.LCFI6:
 427              		.cfi_restore_state
 225:../../../core/ST/Middlewares/Third_Party/FreeRTOS/Source/timers.c **** 
 428              		.loc 1 225 12 view .LVU98
 429 0038 0024     		movs	r4, #0
 430 003a F5E7     		b	.L30
 431              	.L35:
 432              		.align	2
 433              	.L34:
 434 003c 00000000 		.word	.LANCHOR2
 435 0040 00000000 		.word	.LANCHOR5
 436 0044 00000000 		.word	.LC2
 437 0048 00000000 		.word	prvTimerTask
 438 004c 00000000 		.word	.LC1
 439              		.cfi_endproc
 440              	.LFE5:
 442              		.section	.text.xTimerCreate,"ax",%progbits
 443              		.align	1
 444              		.global	xTimerCreate
 445              		.syntax unified
 446              		.thumb
 447              		.thumb_func
 448              		.fpu fpv4-sp-d16
 450              	xTimerCreate:
 451              	.LVL40:
 452              	.LFB6:
 283:../../../core/ST/Middlewares/Third_Party/FreeRTOS/Source/timers.c **** 	Timer_t *pxNewTimer;
 453              		.loc 1 283 2 is_stmt 1 view -0
 454              		.cfi_startproc
 455              		@ args = 4, pretend = 0, frame = 0
 456              		@ frame_needed = 0, uses_anonymous_args = 0
 283:../../../core/ST/Middlewares/Third_Party/FreeRTOS/Source/timers.c **** 	Timer_t *pxNewTimer;
 457              		.loc 1 283 2 is_stmt 0 view .LVU100
 458 0000 2DE9F041 		push	{r4, r5, r6, r7, r8, lr}
 459              	.LCFI7:
 460              		.cfi_def_cfa_offset 24
 461              		.cfi_offset 4, -24
 462              		.cfi_offset 5, -20
 463              		.cfi_offset 6, -16
 464              		.cfi_offset 7, -12
 465              		.cfi_offset 8, -8
 466              		.cfi_offset 14, -4
 467 0004 82B0     		sub	sp, sp, #8
 468              	.LCFI8:
 469              		.cfi_def_cfa_offset 32
 470 0006 0446     		mov	r4, r0
 471 0008 8846     		mov	r8, r1
 472 000a 1546     		mov	r5, r2
 473 000c 1E46     		mov	r6, r3
 284:../../../core/ST/Middlewares/Third_Party/FreeRTOS/Source/timers.c **** 
 474              		.loc 1 284 2 is_stmt 1 view .LVU101
 286:../../../core/ST/Middlewares/Third_Party/FreeRTOS/Source/timers.c **** 
ARM GAS  C:\Users\tomra\AppData\Local\Temp\ccsXPgWC.s 			page 27


 475              		.loc 1 286 3 view .LVU102
 286:../../../core/ST/Middlewares/Third_Party/FreeRTOS/Source/timers.c **** 
 476              		.loc 1 286 30 is_stmt 0 view .LVU103
 477 000e 2C20     		movs	r0, #44
 478              	.LVL41:
 286:../../../core/ST/Middlewares/Third_Party/FreeRTOS/Source/timers.c **** 
 479              		.loc 1 286 30 view .LVU104
 480 0010 FFF7FEFF 		bl	pvPortMalloc
 481              	.LVL42:
 288:../../../core/ST/Middlewares/Third_Party/FreeRTOS/Source/timers.c **** 		{
 482              		.loc 1 288 3 is_stmt 1 view .LVU105
 288:../../../core/ST/Middlewares/Third_Party/FreeRTOS/Source/timers.c **** 		{
 483              		.loc 1 288 5 is_stmt 0 view .LVU106
 484 0014 0746     		mov	r7, r0
 485 0016 40B1     		cbz	r0, .L36
 290:../../../core/ST/Middlewares/Third_Party/FreeRTOS/Source/timers.c **** 
 486              		.loc 1 290 4 is_stmt 1 view .LVU107
 487 0018 0190     		str	r0, [sp, #4]
 488 001a 089B     		ldr	r3, [sp, #32]
 489 001c 0093     		str	r3, [sp]
 490 001e 3346     		mov	r3, r6
 491 0020 2A46     		mov	r2, r5
 492 0022 4146     		mov	r1, r8
 493 0024 2046     		mov	r0, r4
 494              	.LVL43:
 290:../../../core/ST/Middlewares/Third_Party/FreeRTOS/Source/timers.c **** 
 495              		.loc 1 290 4 is_stmt 0 view .LVU108
 496 0026 FFF7FEFF 		bl	prvInitialiseNewTimer
 497              	.LVL44:
 302:../../../core/ST/Middlewares/Third_Party/FreeRTOS/Source/timers.c **** 	}
 498              		.loc 1 302 3 is_stmt 1 view .LVU109
 499              	.L36:
 303:../../../core/ST/Middlewares/Third_Party/FreeRTOS/Source/timers.c **** 
 500              		.loc 1 303 2 is_stmt 0 view .LVU110
 501 002a 3846     		mov	r0, r7
 502 002c 02B0     		add	sp, sp, #8
 503              	.LCFI9:
 504              		.cfi_def_cfa_offset 24
 505              		@ sp needed
 506 002e BDE8F081 		pop	{r4, r5, r6, r7, r8, pc}
 303:../../../core/ST/Middlewares/Third_Party/FreeRTOS/Source/timers.c **** 
 507              		.loc 1 303 2 view .LVU111
 508              		.cfi_endproc
 509              	.LFE6:
 511              		.section	.text.xTimerGenericCommand,"ax",%progbits
 512              		.align	1
 513              		.global	xTimerGenericCommand
 514              		.syntax unified
 515              		.thumb
 516              		.thumb_func
 517              		.fpu fpv4-sp-d16
 519              	xTimerGenericCommand:
 520              	.LVL45:
 521              	.LFB8:
 382:../../../core/ST/Middlewares/Third_Party/FreeRTOS/Source/timers.c **** BaseType_t xReturn = pdFAIL;
 522              		.loc 1 382 1 is_stmt 1 view -0
 523              		.cfi_startproc
ARM GAS  C:\Users\tomra\AppData\Local\Temp\ccsXPgWC.s 			page 28


 524              		@ args = 4, pretend = 0, frame = 16
 525              		@ frame_needed = 0, uses_anonymous_args = 0
 382:../../../core/ST/Middlewares/Third_Party/FreeRTOS/Source/timers.c **** BaseType_t xReturn = pdFAIL;
 526              		.loc 1 382 1 is_stmt 0 view .LVU113
 527 0000 F0B5     		push	{r4, r5, r6, r7, lr}
 528              	.LCFI10:
 529              		.cfi_def_cfa_offset 20
 530              		.cfi_offset 4, -20
 531              		.cfi_offset 5, -16
 532              		.cfi_offset 6, -12
 533              		.cfi_offset 7, -8
 534              		.cfi_offset 14, -4
 535 0002 85B0     		sub	sp, sp, #20
 536              	.LCFI11:
 537              		.cfi_def_cfa_offset 40
 538 0004 0C46     		mov	r4, r1
 539 0006 1546     		mov	r5, r2
 540 0008 1E46     		mov	r6, r3
 383:../../../core/ST/Middlewares/Third_Party/FreeRTOS/Source/timers.c **** DaemonTaskMessage_t xMessage;
 541              		.loc 1 383 1 is_stmt 1 view .LVU114
 542              	.LVL46:
 384:../../../core/ST/Middlewares/Third_Party/FreeRTOS/Source/timers.c **** 
 543              		.loc 1 384 1 view .LVU115
 386:../../../core/ST/Middlewares/Third_Party/FreeRTOS/Source/timers.c **** 
 544              		.loc 1 386 2 view .LVU116
 545 000a 0746     		mov	r7, r0
 546 000c 98B1     		cbz	r0, .L46
 547              	.LVL47:
 548              	.L40:
 390:../../../core/ST/Middlewares/Third_Party/FreeRTOS/Source/timers.c **** 	{
 549              		.loc 1 390 2 view .LVU117
 390:../../../core/ST/Middlewares/Third_Party/FreeRTOS/Source/timers.c **** 	{
 550              		.loc 1 390 18 is_stmt 0 view .LVU118
 551 000e 154B     		ldr	r3, .L48
 552 0010 1868     		ldr	r0, [r3]
 390:../../../core/ST/Middlewares/Third_Party/FreeRTOS/Source/timers.c **** 	{
 553              		.loc 1 390 4 view .LVU119
 554 0012 28B3     		cbz	r0, .L44
 393:../../../core/ST/Middlewares/Third_Party/FreeRTOS/Source/timers.c **** 		xMessage.u.xTimerParameters.xMessageValue = xOptionalValue;
 555              		.loc 1 393 3 is_stmt 1 view .LVU120
 393:../../../core/ST/Middlewares/Third_Party/FreeRTOS/Source/timers.c **** 		xMessage.u.xTimerParameters.xMessageValue = xOptionalValue;
 556              		.loc 1 393 23 is_stmt 0 view .LVU121
 557 0014 0194     		str	r4, [sp, #4]
 394:../../../core/ST/Middlewares/Third_Party/FreeRTOS/Source/timers.c **** 		xMessage.u.xTimerParameters.pxTimer = ( Timer_t * ) xTimer;
 558              		.loc 1 394 3 is_stmt 1 view .LVU122
 394:../../../core/ST/Middlewares/Third_Party/FreeRTOS/Source/timers.c **** 		xMessage.u.xTimerParameters.pxTimer = ( Timer_t * ) xTimer;
 559              		.loc 1 394 45 is_stmt 0 view .LVU123
 560 0016 0295     		str	r5, [sp, #8]
 395:../../../core/ST/Middlewares/Third_Party/FreeRTOS/Source/timers.c **** 
 561              		.loc 1 395 3 is_stmt 1 view .LVU124
 395:../../../core/ST/Middlewares/Third_Party/FreeRTOS/Source/timers.c **** 
 562              		.loc 1 395 39 is_stmt 0 view .LVU125
 563 0018 0397     		str	r7, [sp, #12]
 397:../../../core/ST/Middlewares/Third_Party/FreeRTOS/Source/timers.c **** 		{
 564              		.loc 1 397 3 is_stmt 1 view .LVU126
 397:../../../core/ST/Middlewares/Third_Party/FreeRTOS/Source/timers.c **** 		{
 565              		.loc 1 397 5 is_stmt 0 view .LVU127
ARM GAS  C:\Users\tomra\AppData\Local\Temp\ccsXPgWC.s 			page 29


 566 001a 052C     		cmp	r4, #5
 567 001c 19DC     		bgt	.L42
 399:../../../core/ST/Middlewares/Third_Party/FreeRTOS/Source/timers.c **** 			{
 568              		.loc 1 399 4 is_stmt 1 view .LVU128
 399:../../../core/ST/Middlewares/Third_Party/FreeRTOS/Source/timers.c **** 			{
 569              		.loc 1 399 8 is_stmt 0 view .LVU129
 570 001e FFF7FEFF 		bl	xTaskGetSchedulerState
 571              	.LVL48:
 399:../../../core/ST/Middlewares/Third_Party/FreeRTOS/Source/timers.c **** 			{
 572              		.loc 1 399 6 view .LVU130
 573 0022 0228     		cmp	r0, #2
 574 0024 0DD0     		beq	.L47
 405:../../../core/ST/Middlewares/Third_Party/FreeRTOS/Source/timers.c **** 			}
 575              		.loc 1 405 5 is_stmt 1 view .LVU131
 405:../../../core/ST/Middlewares/Third_Party/FreeRTOS/Source/timers.c **** 			}
 576              		.loc 1 405 15 is_stmt 0 view .LVU132
 577 0026 0023     		movs	r3, #0
 578 0028 1A46     		mov	r2, r3
 579 002a 01A9     		add	r1, sp, #4
 580 002c 0D48     		ldr	r0, .L48
 581 002e 0068     		ldr	r0, [r0]
 582 0030 FFF7FEFF 		bl	xQueueGenericSend
 583              	.LVL49:
 405:../../../core/ST/Middlewares/Third_Party/FreeRTOS/Source/timers.c **** 			}
 584              		.loc 1 405 15 view .LVU133
 585 0034 12E0     		b	.L39
 586              	.LVL50:
 587              	.L46:
 588              	.LBB4:
 386:../../../core/ST/Middlewares/Third_Party/FreeRTOS/Source/timers.c **** 
 589              		.loc 1 386 2 is_stmt 1 discriminator 1 view .LVU134
 590 0036 4FF4C171 		mov	r1, #386
 591              	.LVL51:
 386:../../../core/ST/Middlewares/Third_Party/FreeRTOS/Source/timers.c **** 
 592              		.loc 1 386 2 is_stmt 0 discriminator 1 view .LVU135
 593 003a 0B48     		ldr	r0, .L48+4
 594              	.LVL52:
 386:../../../core/ST/Middlewares/Third_Party/FreeRTOS/Source/timers.c **** 
 595              		.loc 1 386 2 discriminator 1 view .LVU136
 596 003c FFF7FEFF 		bl	assert_failed
 597              	.LVL53:
 386:../../../core/ST/Middlewares/Third_Party/FreeRTOS/Source/timers.c **** 
 598              		.loc 1 386 2 discriminator 1 view .LVU137
 599 0040 E5E7     		b	.L40
 600              	.L47:
 386:../../../core/ST/Middlewares/Third_Party/FreeRTOS/Source/timers.c **** 
 601              		.loc 1 386 2 discriminator 1 view .LVU138
 602              	.LBE4:
 401:../../../core/ST/Middlewares/Third_Party/FreeRTOS/Source/timers.c **** 			}
 603              		.loc 1 401 5 is_stmt 1 view .LVU139
 401:../../../core/ST/Middlewares/Third_Party/FreeRTOS/Source/timers.c **** 			}
 604              		.loc 1 401 15 is_stmt 0 view .LVU140
 605 0042 0023     		movs	r3, #0
 606 0044 0A9A     		ldr	r2, [sp, #40]
 607 0046 01A9     		add	r1, sp, #4
 608 0048 0648     		ldr	r0, .L48
 609 004a 0068     		ldr	r0, [r0]
ARM GAS  C:\Users\tomra\AppData\Local\Temp\ccsXPgWC.s 			page 30


 610 004c FFF7FEFF 		bl	xQueueGenericSend
 611              	.LVL54:
 401:../../../core/ST/Middlewares/Third_Party/FreeRTOS/Source/timers.c **** 			}
 612              		.loc 1 401 15 view .LVU141
 613 0050 04E0     		b	.L39
 614              	.LVL55:
 615              	.L42:
 410:../../../core/ST/Middlewares/Third_Party/FreeRTOS/Source/timers.c **** 		}
 616              		.loc 1 410 4 is_stmt 1 view .LVU142
 410:../../../core/ST/Middlewares/Third_Party/FreeRTOS/Source/timers.c **** 		}
 617              		.loc 1 410 14 is_stmt 0 view .LVU143
 618 0052 0023     		movs	r3, #0
 619 0054 3246     		mov	r2, r6
 620 0056 01A9     		add	r1, sp, #4
 621 0058 FFF7FEFF 		bl	xQueueGenericSendFromISR
 622              	.LVL56:
 623              	.L39:
 421:../../../core/ST/Middlewares/Third_Party/FreeRTOS/Source/timers.c **** /*-----------------------------------------------------------*/
 624              		.loc 1 421 1 view .LVU144
 625 005c 05B0     		add	sp, sp, #20
 626              	.LCFI12:
 627              		.cfi_remember_state
 628              		.cfi_def_cfa_offset 20
 629              		@ sp needed
 630 005e F0BD     		pop	{r4, r5, r6, r7, pc}
 631              	.LVL57:
 632              	.L44:
 633              	.LCFI13:
 634              		.cfi_restore_state
 383:../../../core/ST/Middlewares/Third_Party/FreeRTOS/Source/timers.c **** DaemonTaskMessage_t xMessage;
 635              		.loc 1 383 12 view .LVU145
 636 0060 0020     		movs	r0, #0
 417:../../../core/ST/Middlewares/Third_Party/FreeRTOS/Source/timers.c **** 	}
 637              		.loc 1 417 27 is_stmt 1 view .LVU146
 420:../../../core/ST/Middlewares/Third_Party/FreeRTOS/Source/timers.c **** }
 638              		.loc 1 420 2 view .LVU147
 420:../../../core/ST/Middlewares/Third_Party/FreeRTOS/Source/timers.c **** }
 639              		.loc 1 420 9 is_stmt 0 view .LVU148
 640 0062 FBE7     		b	.L39
 641              	.L49:
 642              		.align	2
 643              	.L48:
 644 0064 00000000 		.word	.LANCHOR2
 645 0068 00000000 		.word	.LC1
 646              		.cfi_endproc
 647              	.LFE8:
 649              		.section	.text.prvSwitchTimerLists,"ax",%progbits
 650              		.align	1
 651              		.syntax unified
 652              		.thumb
 653              		.thumb_func
 654              		.fpu fpv4-sp-d16
 656              	prvSwitchTimerLists:
 657              	.LFB20:
 836:../../../core/ST/Middlewares/Third_Party/FreeRTOS/Source/timers.c **** TickType_t xNextExpireTime, xReloadTime;
 658              		.loc 1 836 1 is_stmt 1 view -0
 659              		.cfi_startproc
ARM GAS  C:\Users\tomra\AppData\Local\Temp\ccsXPgWC.s 			page 31


 660              		@ args = 0, pretend = 0, frame = 0
 661              		@ frame_needed = 0, uses_anonymous_args = 0
 662 0000 70B5     		push	{r4, r5, r6, lr}
 663              	.LCFI14:
 664              		.cfi_def_cfa_offset 16
 665              		.cfi_offset 4, -16
 666              		.cfi_offset 5, -12
 667              		.cfi_offset 6, -8
 668              		.cfi_offset 14, -4
 669 0002 82B0     		sub	sp, sp, #8
 670              	.LCFI15:
 671              		.cfi_def_cfa_offset 24
 837:../../../core/ST/Middlewares/Third_Party/FreeRTOS/Source/timers.c **** List_t *pxTemp;
 672              		.loc 1 837 1 view .LVU150
 838:../../../core/ST/Middlewares/Third_Party/FreeRTOS/Source/timers.c **** Timer_t *pxTimer;
 673              		.loc 1 838 1 view .LVU151
 839:../../../core/ST/Middlewares/Third_Party/FreeRTOS/Source/timers.c **** BaseType_t xResult;
 674              		.loc 1 839 1 view .LVU152
 840:../../../core/ST/Middlewares/Third_Party/FreeRTOS/Source/timers.c **** 
 675              		.loc 1 840 1 view .LVU153
 846:../../../core/ST/Middlewares/Third_Party/FreeRTOS/Source/timers.c **** 	{
 676              		.loc 1 846 2 view .LVU154
 677              	.L52:
 884:../../../core/ST/Middlewares/Third_Party/FreeRTOS/Source/timers.c **** 		}
 678              		.loc 1 884 28 view .LVU155
 846:../../../core/ST/Middlewares/Third_Party/FreeRTOS/Source/timers.c **** 	{
 679              		.loc 1 846 7 view .LVU156
 846:../../../core/ST/Middlewares/Third_Party/FreeRTOS/Source/timers.c **** 	{
 680              		.loc 1 846 9 is_stmt 0 view .LVU157
 681 0004 194B     		ldr	r3, .L58
 682 0006 1B68     		ldr	r3, [r3]
 683 0008 1A68     		ldr	r2, [r3]
 846:../../../core/ST/Middlewares/Third_Party/FreeRTOS/Source/timers.c **** 	{
 684              		.loc 1 846 7 view .LVU158
 685 000a 3AB3     		cbz	r2, .L57
 848:../../../core/ST/Middlewares/Third_Party/FreeRTOS/Source/timers.c **** 
 686              		.loc 1 848 3 is_stmt 1 view .LVU159
 848:../../../core/ST/Middlewares/Third_Party/FreeRTOS/Source/timers.c **** 
 687              		.loc 1 848 21 is_stmt 0 view .LVU160
 688 000c DB68     		ldr	r3, [r3, #12]
 848:../../../core/ST/Middlewares/Third_Party/FreeRTOS/Source/timers.c **** 
 689              		.loc 1 848 19 view .LVU161
 690 000e 1E68     		ldr	r6, [r3]
 691              	.LVL58:
 851:../../../core/ST/Middlewares/Third_Party/FreeRTOS/Source/timers.c **** 		( void ) uxListRemove( &( pxTimer->xTimerListItem ) );
 692              		.loc 1 851 3 is_stmt 1 view .LVU162
 851:../../../core/ST/Middlewares/Third_Party/FreeRTOS/Source/timers.c **** 		( void ) uxListRemove( &( pxTimer->xTimerListItem ) );
 693              		.loc 1 851 11 is_stmt 0 view .LVU163
 694 0010 DC68     		ldr	r4, [r3, #12]
 695              	.LVL59:
 852:../../../core/ST/Middlewares/Third_Party/FreeRTOS/Source/timers.c **** 		traceTIMER_EXPIRED( pxTimer );
 696              		.loc 1 852 3 is_stmt 1 view .LVU164
 852:../../../core/ST/Middlewares/Third_Party/FreeRTOS/Source/timers.c **** 		traceTIMER_EXPIRED( pxTimer );
 697              		.loc 1 852 12 is_stmt 0 view .LVU165
 698 0012 251D     		adds	r5, r4, #4
 699 0014 2846     		mov	r0, r5
 700 0016 FFF7FEFF 		bl	uxListRemove
ARM GAS  C:\Users\tomra\AppData\Local\Temp\ccsXPgWC.s 			page 32


 701              	.LVL60:
 853:../../../core/ST/Middlewares/Third_Party/FreeRTOS/Source/timers.c **** 
 702              		.loc 1 853 32 is_stmt 1 view .LVU166
 858:../../../core/ST/Middlewares/Third_Party/FreeRTOS/Source/timers.c **** 
 703              		.loc 1 858 3 view .LVU167
 858:../../../core/ST/Middlewares/Third_Party/FreeRTOS/Source/timers.c **** 
 704              		.loc 1 858 10 is_stmt 0 view .LVU168
 705 001a 636A     		ldr	r3, [r4, #36]
 858:../../../core/ST/Middlewares/Third_Party/FreeRTOS/Source/timers.c **** 
 706              		.loc 1 858 3 view .LVU169
 707 001c 2046     		mov	r0, r4
 708 001e 9847     		blx	r3
 709              	.LVL61:
 860:../../../core/ST/Middlewares/Third_Party/FreeRTOS/Source/timers.c **** 		{
 710              		.loc 1 860 3 is_stmt 1 view .LVU170
 860:../../../core/ST/Middlewares/Third_Party/FreeRTOS/Source/timers.c **** 		{
 711              		.loc 1 860 14 is_stmt 0 view .LVU171
 712 0020 E369     		ldr	r3, [r4, #28]
 860:../../../core/ST/Middlewares/Third_Party/FreeRTOS/Source/timers.c **** 		{
 713              		.loc 1 860 5 view .LVU172
 714 0022 012B     		cmp	r3, #1
 715 0024 EED1     		bne	.L52
 868:../../../core/ST/Middlewares/Third_Party/FreeRTOS/Source/timers.c **** 			if( xReloadTime > xNextExpireTime )
 716              		.loc 1 868 4 is_stmt 1 view .LVU173
 868:../../../core/ST/Middlewares/Third_Party/FreeRTOS/Source/timers.c **** 			if( xReloadTime > xNextExpireTime )
 717              		.loc 1 868 45 is_stmt 0 view .LVU174
 718 0026 A369     		ldr	r3, [r4, #24]
 868:../../../core/ST/Middlewares/Third_Party/FreeRTOS/Source/timers.c **** 			if( xReloadTime > xNextExpireTime )
 719              		.loc 1 868 16 view .LVU175
 720 0028 3344     		add	r3, r3, r6
 721              	.LVL62:
 869:../../../core/ST/Middlewares/Third_Party/FreeRTOS/Source/timers.c **** 			{
 722              		.loc 1 869 4 is_stmt 1 view .LVU176
 869:../../../core/ST/Middlewares/Third_Party/FreeRTOS/Source/timers.c **** 			{
 723              		.loc 1 869 6 is_stmt 0 view .LVU177
 724 002a 9E42     		cmp	r6, r3
 725 002c 07D2     		bcs	.L53
 871:../../../core/ST/Middlewares/Third_Party/FreeRTOS/Source/timers.c **** 				listSET_LIST_ITEM_OWNER( &( pxTimer->xTimerListItem ), pxTimer );
 726              		.loc 1 871 5 is_stmt 1 view .LVU178
 727 002e 6360     		str	r3, [r4, #4]
 872:../../../core/ST/Middlewares/Third_Party/FreeRTOS/Source/timers.c **** 				vListInsert( pxCurrentTimerList, &( pxTimer->xTimerListItem ) );
 728              		.loc 1 872 5 view .LVU179
 729 0030 2461     		str	r4, [r4, #16]
 873:../../../core/ST/Middlewares/Third_Party/FreeRTOS/Source/timers.c **** 			}
 730              		.loc 1 873 5 view .LVU180
 731 0032 2946     		mov	r1, r5
 732 0034 0D4B     		ldr	r3, .L58
 733              	.LVL63:
 873:../../../core/ST/Middlewares/Third_Party/FreeRTOS/Source/timers.c **** 			}
 734              		.loc 1 873 5 is_stmt 0 view .LVU181
 735 0036 1868     		ldr	r0, [r3]
 736 0038 FFF7FEFF 		bl	vListInsert
 737              	.LVL64:
 873:../../../core/ST/Middlewares/Third_Party/FreeRTOS/Source/timers.c **** 			}
 738              		.loc 1 873 5 view .LVU182
 739 003c E2E7     		b	.L52
 740              	.LVL65:
ARM GAS  C:\Users\tomra\AppData\Local\Temp\ccsXPgWC.s 			page 33


 741              	.L53:
 877:../../../core/ST/Middlewares/Third_Party/FreeRTOS/Source/timers.c **** 				configASSERT( xResult );
 742              		.loc 1 877 5 is_stmt 1 view .LVU183
 877:../../../core/ST/Middlewares/Third_Party/FreeRTOS/Source/timers.c **** 				configASSERT( xResult );
 743              		.loc 1 877 15 is_stmt 0 view .LVU184
 744 003e 0021     		movs	r1, #0
 745 0040 0091     		str	r1, [sp]
 746 0042 0B46     		mov	r3, r1
 747              	.LVL66:
 877:../../../core/ST/Middlewares/Third_Party/FreeRTOS/Source/timers.c **** 				configASSERT( xResult );
 748              		.loc 1 877 15 view .LVU185
 749 0044 3246     		mov	r2, r6
 750 0046 2046     		mov	r0, r4
 751 0048 FFF7FEFF 		bl	xTimerGenericCommand
 752              	.LVL67:
 878:../../../core/ST/Middlewares/Third_Party/FreeRTOS/Source/timers.c **** 				( void ) xResult;
 753              		.loc 1 878 5 is_stmt 1 view .LVU186
 754 004c 0028     		cmp	r0, #0
 755 004e D9D1     		bne	.L52
 756              	.LBB5:
 878:../../../core/ST/Middlewares/Third_Party/FreeRTOS/Source/timers.c **** 				( void ) xResult;
 757              		.loc 1 878 5 discriminator 1 view .LVU187
 758 0050 40F26E31 		movw	r1, #878
 759 0054 0648     		ldr	r0, .L58+4
 760              	.LVL68:
 878:../../../core/ST/Middlewares/Third_Party/FreeRTOS/Source/timers.c **** 				( void ) xResult;
 761              		.loc 1 878 5 is_stmt 0 discriminator 1 view .LVU188
 762 0056 FFF7FEFF 		bl	assert_failed
 763              	.LVL69:
 764 005a D3E7     		b	.L52
 765              	.LVL70:
 766              	.L57:
 878:../../../core/ST/Middlewares/Third_Party/FreeRTOS/Source/timers.c **** 				( void ) xResult;
 767              		.loc 1 878 5 discriminator 1 view .LVU189
 768              	.LBE5:
 888:../../../core/ST/Middlewares/Third_Party/FreeRTOS/Source/timers.c **** 	pxCurrentTimerList = pxOverflowTimerList;
 769              		.loc 1 888 2 is_stmt 1 view .LVU190
 889:../../../core/ST/Middlewares/Third_Party/FreeRTOS/Source/timers.c **** 	pxOverflowTimerList = pxTemp;
 770              		.loc 1 889 2 view .LVU191
 889:../../../core/ST/Middlewares/Third_Party/FreeRTOS/Source/timers.c **** 	pxOverflowTimerList = pxTemp;
 771              		.loc 1 889 21 is_stmt 0 view .LVU192
 772 005c 054A     		ldr	r2, .L58+8
 773 005e 1068     		ldr	r0, [r2]
 774 0060 0249     		ldr	r1, .L58
 775 0062 0860     		str	r0, [r1]
 890:../../../core/ST/Middlewares/Third_Party/FreeRTOS/Source/timers.c **** }
 776              		.loc 1 890 2 is_stmt 1 view .LVU193
 890:../../../core/ST/Middlewares/Third_Party/FreeRTOS/Source/timers.c **** }
 777              		.loc 1 890 22 is_stmt 0 view .LVU194
 778 0064 1360     		str	r3, [r2]
 891:../../../core/ST/Middlewares/Third_Party/FreeRTOS/Source/timers.c **** /*-----------------------------------------------------------*/
 779              		.loc 1 891 1 view .LVU195
 780 0066 02B0     		add	sp, sp, #8
 781              	.LCFI16:
 782              		.cfi_def_cfa_offset 16
 783              		@ sp needed
 784 0068 70BD     		pop	{r4, r5, r6, pc}
ARM GAS  C:\Users\tomra\AppData\Local\Temp\ccsXPgWC.s 			page 34


 785              	.L59:
 786 006a 00BF     		.align	2
 787              	.L58:
 788 006c 00000000 		.word	.LANCHOR0
 789 0070 00000000 		.word	.LC1
 790 0074 00000000 		.word	.LANCHOR1
 791              		.cfi_endproc
 792              	.LFE20:
 794              		.section	.text.prvSampleTimeNow,"ax",%progbits
 795              		.align	1
 796              		.syntax unified
 797              		.thumb
 798              		.thumb_func
 799              		.fpu fpv4-sp-d16
 801              	prvSampleTimeNow:
 802              	.LVL71:
 803              	.LFB17:
 625:../../../core/ST/Middlewares/Third_Party/FreeRTOS/Source/timers.c **** TickType_t xTimeNow;
 804              		.loc 1 625 1 is_stmt 1 view -0
 805              		.cfi_startproc
 806              		@ args = 0, pretend = 0, frame = 0
 807              		@ frame_needed = 0, uses_anonymous_args = 0
 625:../../../core/ST/Middlewares/Third_Party/FreeRTOS/Source/timers.c **** TickType_t xTimeNow;
 808              		.loc 1 625 1 is_stmt 0 view .LVU197
 809 0000 38B5     		push	{r3, r4, r5, lr}
 810              	.LCFI17:
 811              		.cfi_def_cfa_offset 16
 812              		.cfi_offset 3, -16
 813              		.cfi_offset 4, -12
 814              		.cfi_offset 5, -8
 815              		.cfi_offset 14, -4
 816 0002 0546     		mov	r5, r0
 626:../../../core/ST/Middlewares/Third_Party/FreeRTOS/Source/timers.c **** PRIVILEGED_DATA static TickType_t xLastTime = ( TickType_t ) 0U; /*lint !e956 Variable is only acce
 817              		.loc 1 626 1 is_stmt 1 view .LVU198
 627:../../../core/ST/Middlewares/Third_Party/FreeRTOS/Source/timers.c **** 
 818              		.loc 1 627 17 view .LVU199
 629:../../../core/ST/Middlewares/Third_Party/FreeRTOS/Source/timers.c **** 
 819              		.loc 1 629 2 view .LVU200
 629:../../../core/ST/Middlewares/Third_Party/FreeRTOS/Source/timers.c **** 
 820              		.loc 1 629 13 is_stmt 0 view .LVU201
 821 0004 FFF7FEFF 		bl	xTaskGetTickCount
 822              	.LVL72:
 629:../../../core/ST/Middlewares/Third_Party/FreeRTOS/Source/timers.c **** 
 823              		.loc 1 629 13 view .LVU202
 824 0008 0446     		mov	r4, r0
 825              	.LVL73:
 631:../../../core/ST/Middlewares/Third_Party/FreeRTOS/Source/timers.c **** 	{
 826              		.loc 1 631 2 is_stmt 1 view .LVU203
 631:../../../core/ST/Middlewares/Third_Party/FreeRTOS/Source/timers.c **** 	{
 827              		.loc 1 631 15 is_stmt 0 view .LVU204
 828 000a 074B     		ldr	r3, .L65
 829 000c 1B68     		ldr	r3, [r3]
 631:../../../core/ST/Middlewares/Third_Party/FreeRTOS/Source/timers.c **** 	{
 830              		.loc 1 631 4 view .LVU205
 831 000e 8342     		cmp	r3, r0
 832 0010 05D8     		bhi	.L64
 638:../../../core/ST/Middlewares/Third_Party/FreeRTOS/Source/timers.c **** 	}
ARM GAS  C:\Users\tomra\AppData\Local\Temp\ccsXPgWC.s 			page 35


 833              		.loc 1 638 3 is_stmt 1 view .LVU206
 638:../../../core/ST/Middlewares/Third_Party/FreeRTOS/Source/timers.c **** 	}
 834              		.loc 1 638 29 is_stmt 0 view .LVU207
 835 0012 0023     		movs	r3, #0
 836 0014 2B60     		str	r3, [r5]
 837              	.LVL74:
 838              	.L62:
 641:../../../core/ST/Middlewares/Third_Party/FreeRTOS/Source/timers.c **** 
 839              		.loc 1 641 2 is_stmt 1 view .LVU208
 641:../../../core/ST/Middlewares/Third_Party/FreeRTOS/Source/timers.c **** 
 840              		.loc 1 641 12 is_stmt 0 view .LVU209
 841 0016 044B     		ldr	r3, .L65
 842 0018 1C60     		str	r4, [r3]
 643:../../../core/ST/Middlewares/Third_Party/FreeRTOS/Source/timers.c **** }
 843              		.loc 1 643 2 is_stmt 1 view .LVU210
 644:../../../core/ST/Middlewares/Third_Party/FreeRTOS/Source/timers.c **** /*-----------------------------------------------------------*/
 844              		.loc 1 644 1 is_stmt 0 view .LVU211
 845 001a 2046     		mov	r0, r4
 846 001c 38BD     		pop	{r3, r4, r5, pc}
 847              	.LVL75:
 848              	.L64:
 633:../../../core/ST/Middlewares/Third_Party/FreeRTOS/Source/timers.c **** 		*pxTimerListsWereSwitched = pdTRUE;
 849              		.loc 1 633 3 is_stmt 1 view .LVU212
 850 001e FFF7FEFF 		bl	prvSwitchTimerLists
 851              	.LVL76:
 634:../../../core/ST/Middlewares/Third_Party/FreeRTOS/Source/timers.c **** 	}
 852              		.loc 1 634 3 view .LVU213
 634:../../../core/ST/Middlewares/Third_Party/FreeRTOS/Source/timers.c **** 	}
 853              		.loc 1 634 29 is_stmt 0 view .LVU214
 854 0022 0123     		movs	r3, #1
 855 0024 2B60     		str	r3, [r5]
 856 0026 F6E7     		b	.L62
 857              	.L66:
 858              		.align	2
 859              	.L65:
 860 0028 00000000 		.word	.LANCHOR6
 861              		.cfi_endproc
 862              	.LFE17:
 864              		.section	.text.prvProcessExpiredTimer,"ax",%progbits
 865              		.align	1
 866              		.syntax unified
 867              		.thumb
 868              		.thumb_func
 869              		.fpu fpv4-sp-d16
 871              	prvProcessExpiredTimer:
 872              	.LVL77:
 873              	.LFB13:
 463:../../../core/ST/Middlewares/Third_Party/FreeRTOS/Source/timers.c **** BaseType_t xResult;
 874              		.loc 1 463 1 is_stmt 1 view -0
 875              		.cfi_startproc
 876              		@ args = 0, pretend = 0, frame = 0
 877              		@ frame_needed = 0, uses_anonymous_args = 0
 463:../../../core/ST/Middlewares/Third_Party/FreeRTOS/Source/timers.c **** BaseType_t xResult;
 878              		.loc 1 463 1 is_stmt 0 view .LVU216
 879 0000 70B5     		push	{r4, r5, r6, lr}
 880              	.LCFI18:
 881              		.cfi_def_cfa_offset 16
ARM GAS  C:\Users\tomra\AppData\Local\Temp\ccsXPgWC.s 			page 36


 882              		.cfi_offset 4, -16
 883              		.cfi_offset 5, -12
 884              		.cfi_offset 6, -8
 885              		.cfi_offset 14, -4
 886 0002 82B0     		sub	sp, sp, #8
 887              	.LCFI19:
 888              		.cfi_def_cfa_offset 24
 889 0004 0646     		mov	r6, r0
 890 0006 0D46     		mov	r5, r1
 464:../../../core/ST/Middlewares/Third_Party/FreeRTOS/Source/timers.c **** Timer_t * const pxTimer = ( Timer_t * ) listGET_OWNER_OF_HEAD_ENTRY( pxCurrentTimerList );
 891              		.loc 1 464 1 is_stmt 1 view .LVU217
 465:../../../core/ST/Middlewares/Third_Party/FreeRTOS/Source/timers.c **** 
 892              		.loc 1 465 1 view .LVU218
 465:../../../core/ST/Middlewares/Third_Party/FreeRTOS/Source/timers.c **** 
 893              		.loc 1 465 41 is_stmt 0 view .LVU219
 894 0008 134B     		ldr	r3, .L71
 895 000a 1B68     		ldr	r3, [r3]
 896 000c DB68     		ldr	r3, [r3, #12]
 465:../../../core/ST/Middlewares/Third_Party/FreeRTOS/Source/timers.c **** 
 897              		.loc 1 465 17 view .LVU220
 898 000e DC68     		ldr	r4, [r3, #12]
 899              	.LVL78:
 469:../../../core/ST/Middlewares/Third_Party/FreeRTOS/Source/timers.c **** 	traceTIMER_EXPIRED( pxTimer );
 900              		.loc 1 469 2 is_stmt 1 view .LVU221
 469:../../../core/ST/Middlewares/Third_Party/FreeRTOS/Source/timers.c **** 	traceTIMER_EXPIRED( pxTimer );
 901              		.loc 1 469 11 is_stmt 0 view .LVU222
 902 0010 201D     		adds	r0, r4, #4
 903              	.LVL79:
 469:../../../core/ST/Middlewares/Third_Party/FreeRTOS/Source/timers.c **** 	traceTIMER_EXPIRED( pxTimer );
 904              		.loc 1 469 11 view .LVU223
 905 0012 FFF7FEFF 		bl	uxListRemove
 906              	.LVL80:
 470:../../../core/ST/Middlewares/Third_Party/FreeRTOS/Source/timers.c **** 
 907              		.loc 1 470 31 is_stmt 1 view .LVU224
 474:../../../core/ST/Middlewares/Third_Party/FreeRTOS/Source/timers.c **** 	{
 908              		.loc 1 474 2 view .LVU225
 474:../../../core/ST/Middlewares/Third_Party/FreeRTOS/Source/timers.c **** 	{
 909              		.loc 1 474 13 is_stmt 0 view .LVU226
 910 0016 E369     		ldr	r3, [r4, #28]
 474:../../../core/ST/Middlewares/Third_Party/FreeRTOS/Source/timers.c **** 	{
 911              		.loc 1 474 4 view .LVU227
 912 0018 012B     		cmp	r3, #1
 913 001a 04D0     		beq	.L70
 914              	.L68:
 494:../../../core/ST/Middlewares/Third_Party/FreeRTOS/Source/timers.c **** 	}
 915              		.loc 1 494 27 is_stmt 1 view .LVU228
 498:../../../core/ST/Middlewares/Third_Party/FreeRTOS/Source/timers.c **** }
 916              		.loc 1 498 2 view .LVU229
 498:../../../core/ST/Middlewares/Third_Party/FreeRTOS/Source/timers.c **** }
 917              		.loc 1 498 9 is_stmt 0 view .LVU230
 918 001c 636A     		ldr	r3, [r4, #36]
 498:../../../core/ST/Middlewares/Third_Party/FreeRTOS/Source/timers.c **** }
 919              		.loc 1 498 2 view .LVU231
 920 001e 2046     		mov	r0, r4
 921 0020 9847     		blx	r3
 922              	.LVL81:
 499:../../../core/ST/Middlewares/Third_Party/FreeRTOS/Source/timers.c **** /*-----------------------------------------------------------*/
ARM GAS  C:\Users\tomra\AppData\Local\Temp\ccsXPgWC.s 			page 37


 923              		.loc 1 499 1 view .LVU232
 924 0022 02B0     		add	sp, sp, #8
 925              	.LCFI20:
 926              		.cfi_remember_state
 927              		.cfi_def_cfa_offset 16
 928              		@ sp needed
 929 0024 70BD     		pop	{r4, r5, r6, pc}
 930              	.LVL82:
 931              	.L70:
 932              	.LCFI21:
 933              		.cfi_restore_state
 479:../../../core/ST/Middlewares/Third_Party/FreeRTOS/Source/timers.c **** 		{
 934              		.loc 1 479 3 is_stmt 1 view .LVU233
 479:../../../core/ST/Middlewares/Third_Party/FreeRTOS/Source/timers.c **** 		{
 935              		.loc 1 479 71 is_stmt 0 view .LVU234
 936 0026 A169     		ldr	r1, [r4, #24]
 479:../../../core/ST/Middlewares/Third_Party/FreeRTOS/Source/timers.c **** 		{
 937              		.loc 1 479 7 view .LVU235
 938 0028 3346     		mov	r3, r6
 939 002a 2A46     		mov	r2, r5
 940 002c 3144     		add	r1, r1, r6
 941 002e 2046     		mov	r0, r4
 942 0030 FFF7FEFF 		bl	prvInsertTimerInActiveList
 943              	.LVL83:
 479:../../../core/ST/Middlewares/Third_Party/FreeRTOS/Source/timers.c **** 		{
 944              		.loc 1 479 5 view .LVU236
 945 0034 0028     		cmp	r0, #0
 946 0036 F1D0     		beq	.L68
 483:../../../core/ST/Middlewares/Third_Party/FreeRTOS/Source/timers.c **** 			configASSERT( xResult );
 947              		.loc 1 483 4 is_stmt 1 view .LVU237
 483:../../../core/ST/Middlewares/Third_Party/FreeRTOS/Source/timers.c **** 			configASSERT( xResult );
 948              		.loc 1 483 14 is_stmt 0 view .LVU238
 949 0038 0021     		movs	r1, #0
 950 003a 0091     		str	r1, [sp]
 951 003c 0B46     		mov	r3, r1
 952 003e 3246     		mov	r2, r6
 953 0040 2046     		mov	r0, r4
 954 0042 FFF7FEFF 		bl	xTimerGenericCommand
 955              	.LVL84:
 484:../../../core/ST/Middlewares/Third_Party/FreeRTOS/Source/timers.c **** 			( void ) xResult;
 956              		.loc 1 484 4 is_stmt 1 view .LVU239
 957 0046 0028     		cmp	r0, #0
 958 0048 E8D1     		bne	.L68
 959              	.LBB6:
 484:../../../core/ST/Middlewares/Third_Party/FreeRTOS/Source/timers.c **** 			( void ) xResult;
 960              		.loc 1 484 4 discriminator 1 view .LVU240
 961 004a 4FF4F271 		mov	r1, #484
 962 004e 0348     		ldr	r0, .L71+4
 963              	.LVL85:
 484:../../../core/ST/Middlewares/Third_Party/FreeRTOS/Source/timers.c **** 			( void ) xResult;
 964              		.loc 1 484 4 is_stmt 0 discriminator 1 view .LVU241
 965 0050 FFF7FEFF 		bl	assert_failed
 966              	.LVL86:
 967 0054 E2E7     		b	.L68
 968              	.L72:
 969 0056 00BF     		.align	2
 970              	.L71:
ARM GAS  C:\Users\tomra\AppData\Local\Temp\ccsXPgWC.s 			page 38


 971 0058 00000000 		.word	.LANCHOR0
 972 005c 00000000 		.word	.LC1
 973              	.LBE6:
 974              		.cfi_endproc
 975              	.LFE13:
 977              		.section	.text.prvProcessTimerOrBlockTask,"ax",%progbits
 978              		.align	1
 979              		.syntax unified
 980              		.thumb
 981              		.thumb_func
 982              		.fpu fpv4-sp-d16
 984              	prvProcessTimerOrBlockTask:
 985              	.LVL87:
 986              	.LFB15:
 539:../../../core/ST/Middlewares/Third_Party/FreeRTOS/Source/timers.c **** TickType_t xTimeNow;
 987              		.loc 1 539 1 is_stmt 1 view -0
 988              		.cfi_startproc
 989              		@ args = 0, pretend = 0, frame = 8
 990              		@ frame_needed = 0, uses_anonymous_args = 0
 539:../../../core/ST/Middlewares/Third_Party/FreeRTOS/Source/timers.c **** TickType_t xTimeNow;
 991              		.loc 1 539 1 is_stmt 0 view .LVU243
 992 0000 70B5     		push	{r4, r5, r6, lr}
 993              	.LCFI22:
 994              		.cfi_def_cfa_offset 16
 995              		.cfi_offset 4, -16
 996              		.cfi_offset 5, -12
 997              		.cfi_offset 6, -8
 998              		.cfi_offset 14, -4
 999 0002 82B0     		sub	sp, sp, #8
 1000              	.LCFI23:
 1001              		.cfi_def_cfa_offset 24
 1002 0004 0646     		mov	r6, r0
 1003 0006 0C46     		mov	r4, r1
 540:../../../core/ST/Middlewares/Third_Party/FreeRTOS/Source/timers.c **** BaseType_t xTimerListsWereSwitched;
 1004              		.loc 1 540 1 is_stmt 1 view .LVU244
 541:../../../core/ST/Middlewares/Third_Party/FreeRTOS/Source/timers.c **** 
 1005              		.loc 1 541 1 view .LVU245
 543:../../../core/ST/Middlewares/Third_Party/FreeRTOS/Source/timers.c **** 	{
 1006              		.loc 1 543 2 view .LVU246
 1007 0008 FFF7FEFF 		bl	vTaskSuspendAll
 1008              	.LVL88:
 550:../../../core/ST/Middlewares/Third_Party/FreeRTOS/Source/timers.c **** 		if( xTimerListsWereSwitched == pdFALSE )
 1009              		.loc 1 550 3 view .LVU247
 550:../../../core/ST/Middlewares/Third_Party/FreeRTOS/Source/timers.c **** 		if( xTimerListsWereSwitched == pdFALSE )
 1010              		.loc 1 550 14 is_stmt 0 view .LVU248
 1011 000c 01A8     		add	r0, sp, #4
 1012 000e FFF7FEFF 		bl	prvSampleTimeNow
 1013              	.LVL89:
 551:../../../core/ST/Middlewares/Third_Party/FreeRTOS/Source/timers.c **** 		{
 1014              		.loc 1 551 3 is_stmt 1 view .LVU249
 551:../../../core/ST/Middlewares/Third_Party/FreeRTOS/Source/timers.c **** 		{
 1015              		.loc 1 551 31 is_stmt 0 view .LVU250
 1016 0012 019B     		ldr	r3, [sp, #4]
 551:../../../core/ST/Middlewares/Third_Party/FreeRTOS/Source/timers.c **** 		{
 1017              		.loc 1 551 5 view .LVU251
 1018 0014 1BBB     		cbnz	r3, .L74
 1019 0016 0546     		mov	r5, r0
ARM GAS  C:\Users\tomra\AppData\Local\Temp\ccsXPgWC.s 			page 39


 554:../../../core/ST/Middlewares/Third_Party/FreeRTOS/Source/timers.c **** 			{
 1020              		.loc 1 554 4 is_stmt 1 view .LVU252
 554:../../../core/ST/Middlewares/Third_Party/FreeRTOS/Source/timers.c **** 			{
 1021              		.loc 1 554 6 is_stmt 0 view .LVU253
 1022 0018 0CB9     		cbnz	r4, .L75
 554:../../../core/ST/Middlewares/Third_Party/FreeRTOS/Source/timers.c **** 			{
 1023              		.loc 1 554 37 discriminator 1 view .LVU254
 1024 001a B042     		cmp	r0, r6
 1025 001c 18D2     		bcs	.L79
 1026              	.L75:
 567:../../../core/ST/Middlewares/Third_Party/FreeRTOS/Source/timers.c **** 				{
 1027              		.loc 1 567 5 is_stmt 1 view .LVU255
 567:../../../core/ST/Middlewares/Third_Party/FreeRTOS/Source/timers.c **** 				{
 1028              		.loc 1 567 7 is_stmt 0 view .LVU256
 1029 001e 2CB1     		cbz	r4, .L77
 571:../../../core/ST/Middlewares/Third_Party/FreeRTOS/Source/timers.c **** 				}
 1030              		.loc 1 571 6 is_stmt 1 view .LVU257
 571:../../../core/ST/Middlewares/Third_Party/FreeRTOS/Source/timers.c **** 				}
 1031              		.loc 1 571 22 is_stmt 0 view .LVU258
 1032 0020 114B     		ldr	r3, .L80
 1033 0022 1B68     		ldr	r3, [r3]
 1034 0024 1C68     		ldr	r4, [r3]
 1035              	.LVL90:
 571:../../../core/ST/Middlewares/Third_Party/FreeRTOS/Source/timers.c **** 				}
 1036              		.loc 1 571 22 view .LVU259
 1037 0026 B4FA84F4 		clz	r4, r4
 1038 002a 6409     		lsrs	r4, r4, #5
 1039              	.LVL91:
 1040              	.L77:
 574:../../../core/ST/Middlewares/Third_Party/FreeRTOS/Source/timers.c **** 
 1041              		.loc 1 574 5 is_stmt 1 view .LVU260
 1042 002c 2246     		mov	r2, r4
 1043 002e 711B     		subs	r1, r6, r5
 1044 0030 0E4B     		ldr	r3, .L80+4
 1045 0032 1868     		ldr	r0, [r3]
 1046              	.LVL92:
 574:../../../core/ST/Middlewares/Third_Party/FreeRTOS/Source/timers.c **** 
 1047              		.loc 1 574 5 is_stmt 0 view .LVU261
 1048 0034 FFF7FEFF 		bl	vQueueWaitForMessageRestricted
 1049              	.LVL93:
 576:../../../core/ST/Middlewares/Third_Party/FreeRTOS/Source/timers.c **** 				{
 1050              		.loc 1 576 5 is_stmt 1 view .LVU262
 576:../../../core/ST/Middlewares/Third_Party/FreeRTOS/Source/timers.c **** 				{
 1051              		.loc 1 576 9 is_stmt 0 view .LVU263
 1052 0038 FFF7FEFF 		bl	xTaskResumeAll
 1053              	.LVL94:
 576:../../../core/ST/Middlewares/Third_Party/FreeRTOS/Source/timers.c **** 				{
 1054              		.loc 1 576 7 view .LVU264
 1055 003c 88B9     		cbnz	r0, .L73
 582:../../../core/ST/Middlewares/Third_Party/FreeRTOS/Source/timers.c **** 				}
 1056              		.loc 1 582 6 is_stmt 1 view .LVU265
 1057 003e 0C4B     		ldr	r3, .L80+8
 1058 0040 4FF08052 		mov	r2, #268435456
 1059 0044 1A60     		str	r2, [r3]
 582:../../../core/ST/Middlewares/Third_Party/FreeRTOS/Source/timers.c **** 				}
 1060              		.loc 1 582 6 view .LVU266
 1061              		.syntax unified
ARM GAS  C:\Users\tomra\AppData\Local\Temp\ccsXPgWC.s 			page 40


 1062              	@ 582 "../../../core/ST/Middlewares/Third_Party/FreeRTOS/Source/timers.c" 1
 1063 0046 BFF34F8F 		dsb
 1064              	@ 0 "" 2
 582:../../../core/ST/Middlewares/Third_Party/FreeRTOS/Source/timers.c **** 				}
 1065              		.loc 1 582 6 view .LVU267
 1066              	@ 582 "../../../core/ST/Middlewares/Third_Party/FreeRTOS/Source/timers.c" 1
 1067 004a BFF36F8F 		isb
 1068              	@ 0 "" 2
 582:../../../core/ST/Middlewares/Third_Party/FreeRTOS/Source/timers.c **** 				}
 1069              		.loc 1 582 28 view .LVU268
 1070              		.thumb
 1071              		.syntax unified
 1072 004e 08E0     		b	.L73
 1073              	.LVL95:
 1074              	.L79:
 556:../../../core/ST/Middlewares/Third_Party/FreeRTOS/Source/timers.c **** 				prvProcessExpiredTimer( xNextExpireTime, xTimeNow );
 1075              		.loc 1 556 5 view .LVU269
 556:../../../core/ST/Middlewares/Third_Party/FreeRTOS/Source/timers.c **** 				prvProcessExpiredTimer( xNextExpireTime, xTimeNow );
 1076              		.loc 1 556 14 is_stmt 0 view .LVU270
 1077 0050 FFF7FEFF 		bl	xTaskResumeAll
 1078              	.LVL96:
 557:../../../core/ST/Middlewares/Third_Party/FreeRTOS/Source/timers.c **** 			}
 1079              		.loc 1 557 5 is_stmt 1 view .LVU271
 1080 0054 2946     		mov	r1, r5
 1081 0056 3046     		mov	r0, r6
 1082 0058 FFF7FEFF 		bl	prvProcessExpiredTimer
 1083              	.LVL97:
 1084 005c 01E0     		b	.L73
 1085              	.LVL98:
 1086              	.L74:
 592:../../../core/ST/Middlewares/Third_Party/FreeRTOS/Source/timers.c **** 		}
 1087              		.loc 1 592 4 view .LVU272
 592:../../../core/ST/Middlewares/Third_Party/FreeRTOS/Source/timers.c **** 		}
 1088              		.loc 1 592 13 is_stmt 0 view .LVU273
 1089 005e FFF7FEFF 		bl	xTaskResumeAll
 1090              	.LVL99:
 1091              	.L73:
 595:../../../core/ST/Middlewares/Third_Party/FreeRTOS/Source/timers.c **** /*-----------------------------------------------------------*/
 1092              		.loc 1 595 1 view .LVU274
 1093 0062 02B0     		add	sp, sp, #8
 1094              	.LCFI24:
 1095              		.cfi_def_cfa_offset 16
 1096              		@ sp needed
 1097 0064 70BD     		pop	{r4, r5, r6, pc}
 1098              	.LVL100:
 1099              	.L81:
 595:../../../core/ST/Middlewares/Third_Party/FreeRTOS/Source/timers.c **** /*-----------------------------------------------------------*/
 1100              		.loc 1 595 1 view .LVU275
 1101 0066 00BF     		.align	2
 1102              	.L80:
 1103 0068 00000000 		.word	.LANCHOR1
 1104 006c 00000000 		.word	.LANCHOR2
 1105 0070 04ED00E0 		.word	-536810236
 1106              		.cfi_endproc
 1107              	.LFE15:
 1109              		.section	.text.prvProcessReceivedCommands,"ax",%progbits
 1110              		.align	1
ARM GAS  C:\Users\tomra\AppData\Local\Temp\ccsXPgWC.s 			page 41


 1111              		.syntax unified
 1112              		.thumb
 1113              		.thumb_func
 1114              		.fpu fpv4-sp-d16
 1116              	prvProcessReceivedCommands:
 1117              	.LFB19:
 689:../../../core/ST/Middlewares/Third_Party/FreeRTOS/Source/timers.c **** DaemonTaskMessage_t xMessage;
 1118              		.loc 1 689 1 is_stmt 1 view -0
 1119              		.cfi_startproc
 1120              		@ args = 0, pretend = 0, frame = 16
 1121              		@ frame_needed = 0, uses_anonymous_args = 0
 1122 0000 30B5     		push	{r4, r5, lr}
 1123              	.LCFI25:
 1124              		.cfi_def_cfa_offset 12
 1125              		.cfi_offset 4, -12
 1126              		.cfi_offset 5, -8
 1127              		.cfi_offset 14, -4
 1128 0002 87B0     		sub	sp, sp, #28
 1129              	.LCFI26:
 1130              		.cfi_def_cfa_offset 40
 690:../../../core/ST/Middlewares/Third_Party/FreeRTOS/Source/timers.c **** Timer_t *pxTimer;
 1131              		.loc 1 690 1 view .LVU277
 691:../../../core/ST/Middlewares/Third_Party/FreeRTOS/Source/timers.c **** BaseType_t xTimerListsWereSwitched, xResult;
 1132              		.loc 1 691 1 view .LVU278
 692:../../../core/ST/Middlewares/Third_Party/FreeRTOS/Source/timers.c **** TickType_t xTimeNow;
 1133              		.loc 1 692 1 view .LVU279
 693:../../../core/ST/Middlewares/Third_Party/FreeRTOS/Source/timers.c **** 
 1134              		.loc 1 693 1 view .LVU280
 695:../../../core/ST/Middlewares/Third_Party/FreeRTOS/Source/timers.c **** 	{
 1135              		.loc 1 695 2 view .LVU281
 1136              	.L84:
 695:../../../core/ST/Middlewares/Third_Party/FreeRTOS/Source/timers.c **** 	{
 1137              		.loc 1 695 7 view .LVU282
 695:../../../core/ST/Middlewares/Third_Party/FreeRTOS/Source/timers.c **** 	{
 1138              		.loc 1 695 9 is_stmt 0 view .LVU283
 1139 0004 0022     		movs	r2, #0
 1140 0006 03A9     		add	r1, sp, #12
 1141 0008 324B     		ldr	r3, .L97
 1142 000a 1868     		ldr	r0, [r3]
 1143 000c FFF7FEFF 		bl	xQueueReceive
 1144              	.LVL101:
 695:../../../core/ST/Middlewares/Third_Party/FreeRTOS/Source/timers.c **** 	{
 1145              		.loc 1 695 7 view .LVU284
 1146 0010 0028     		cmp	r0, #0
 1147 0012 5CD0     		beq	.L95
 721:../../../core/ST/Middlewares/Third_Party/FreeRTOS/Source/timers.c **** 		{
 1148              		.loc 1 721 3 is_stmt 1 view .LVU285
 721:../../../core/ST/Middlewares/Third_Party/FreeRTOS/Source/timers.c **** 		{
 1149              		.loc 1 721 15 is_stmt 0 view .LVU286
 1150 0014 039B     		ldr	r3, [sp, #12]
 721:../../../core/ST/Middlewares/Third_Party/FreeRTOS/Source/timers.c **** 		{
 1151              		.loc 1 721 5 view .LVU287
 1152 0016 002B     		cmp	r3, #0
 1153 0018 F4DB     		blt	.L84
 725:../../../core/ST/Middlewares/Third_Party/FreeRTOS/Source/timers.c **** 
 1154              		.loc 1 725 4 is_stmt 1 view .LVU288
 725:../../../core/ST/Middlewares/Third_Party/FreeRTOS/Source/timers.c **** 
ARM GAS  C:\Users\tomra\AppData\Local\Temp\ccsXPgWC.s 			page 42


 1155              		.loc 1 725 12 is_stmt 0 view .LVU289
 1156 001a 059C     		ldr	r4, [sp, #20]
 1157              	.LVL102:
 727:../../../core/ST/Middlewares/Third_Party/FreeRTOS/Source/timers.c **** 			{
 1158              		.loc 1 727 4 is_stmt 1 view .LVU290
 727:../../../core/ST/Middlewares/Third_Party/FreeRTOS/Source/timers.c **** 			{
 1159              		.loc 1 727 8 is_stmt 0 view .LVU291
 1160 001c 6369     		ldr	r3, [r4, #20]
 727:../../../core/ST/Middlewares/Third_Party/FreeRTOS/Source/timers.c **** 			{
 1161              		.loc 1 727 6 view .LVU292
 1162 001e 13B1     		cbz	r3, .L85
 730:../../../core/ST/Middlewares/Third_Party/FreeRTOS/Source/timers.c **** 			}
 1163              		.loc 1 730 5 is_stmt 1 view .LVU293
 730:../../../core/ST/Middlewares/Third_Party/FreeRTOS/Source/timers.c **** 			}
 1164              		.loc 1 730 14 is_stmt 0 view .LVU294
 1165 0020 201D     		adds	r0, r4, #4
 1166 0022 FFF7FEFF 		bl	uxListRemove
 1167              	.LVL103:
 1168              	.L85:
 734:../../../core/ST/Middlewares/Third_Party/FreeRTOS/Source/timers.c **** 			}
 1169              		.loc 1 734 29 is_stmt 1 view .LVU295
 737:../../../core/ST/Middlewares/Third_Party/FreeRTOS/Source/timers.c **** 
 1170              		.loc 1 737 106 view .LVU296
 745:../../../core/ST/Middlewares/Third_Party/FreeRTOS/Source/timers.c **** 
 1171              		.loc 1 745 4 view .LVU297
 745:../../../core/ST/Middlewares/Third_Party/FreeRTOS/Source/timers.c **** 
 1172              		.loc 1 745 15 is_stmt 0 view .LVU298
 1173 0026 02A8     		add	r0, sp, #8
 1174 0028 FFF7FEFF 		bl	prvSampleTimeNow
 1175              	.LVL104:
 1176 002c 0546     		mov	r5, r0
 1177              	.LVL105:
 747:../../../core/ST/Middlewares/Third_Party/FreeRTOS/Source/timers.c **** 			{
 1178              		.loc 1 747 4 is_stmt 1 view .LVU299
 747:../../../core/ST/Middlewares/Third_Party/FreeRTOS/Source/timers.c **** 			{
 1179              		.loc 1 747 20 is_stmt 0 view .LVU300
 1180 002e 039B     		ldr	r3, [sp, #12]
 1181 0030 092B     		cmp	r3, #9
 1182 0032 E7D8     		bhi	.L84
 1183 0034 01A2     		adr	r2, .L88
 1184 0036 52F823F0 		ldr	pc, [r2, r3, lsl #2]
 1185 003a 00BF     		.p2align 2
 1186              	.L88:
 1187 003c 65000000 		.word	.L89+1
 1188 0040 65000000 		.word	.L89+1
 1189 0044 65000000 		.word	.L89+1
 1190 0048 05000000 		.word	.L84+1
 1191 004c A5000000 		.word	.L87+1
 1192 0050 C7000000 		.word	.L90+1
 1193 0054 65000000 		.word	.L89+1
 1194 0058 65000000 		.word	.L89+1
 1195 005c 05000000 		.word	.L84+1
 1196 0060 A5000000 		.word	.L87+1
 1197              		.p2align 1
 1198              	.L89:
 755:../../../core/ST/Middlewares/Third_Party/FreeRTOS/Source/timers.c **** 					{
 1199              		.loc 1 755 6 is_stmt 1 view .LVU301
ARM GAS  C:\Users\tomra\AppData\Local\Temp\ccsXPgWC.s 			page 43


 755:../../../core/ST/Middlewares/Third_Party/FreeRTOS/Source/timers.c **** 					{
 1200              		.loc 1 755 75 is_stmt 0 view .LVU302
 1201 0064 049B     		ldr	r3, [sp, #16]
 755:../../../core/ST/Middlewares/Third_Party/FreeRTOS/Source/timers.c **** 					{
 1202              		.loc 1 755 99 view .LVU303
 1203 0066 A169     		ldr	r1, [r4, #24]
 755:../../../core/ST/Middlewares/Third_Party/FreeRTOS/Source/timers.c **** 					{
 1204              		.loc 1 755 10 view .LVU304
 1205 0068 0246     		mov	r2, r0
 1206 006a 1944     		add	r1, r1, r3
 1207 006c 2046     		mov	r0, r4
 1208              	.LVL106:
 755:../../../core/ST/Middlewares/Third_Party/FreeRTOS/Source/timers.c **** 					{
 1209              		.loc 1 755 10 view .LVU305
 1210 006e FFF7FEFF 		bl	prvInsertTimerInActiveList
 1211              	.LVL107:
 755:../../../core/ST/Middlewares/Third_Party/FreeRTOS/Source/timers.c **** 					{
 1212              		.loc 1 755 8 view .LVU306
 1213 0072 0028     		cmp	r0, #0
 1214 0074 C6D0     		beq	.L84
 759:../../../core/ST/Middlewares/Third_Party/FreeRTOS/Source/timers.c **** 						traceTIMER_EXPIRED( pxTimer );
 1215              		.loc 1 759 7 is_stmt 1 view .LVU307
 759:../../../core/ST/Middlewares/Third_Party/FreeRTOS/Source/timers.c **** 						traceTIMER_EXPIRED( pxTimer );
 1216              		.loc 1 759 14 is_stmt 0 view .LVU308
 1217 0076 636A     		ldr	r3, [r4, #36]
 759:../../../core/ST/Middlewares/Third_Party/FreeRTOS/Source/timers.c **** 						traceTIMER_EXPIRED( pxTimer );
 1218              		.loc 1 759 7 view .LVU309
 1219 0078 2046     		mov	r0, r4
 1220 007a 9847     		blx	r3
 1221              	.LVL108:
 760:../../../core/ST/Middlewares/Third_Party/FreeRTOS/Source/timers.c **** 
 1222              		.loc 1 760 36 is_stmt 1 view .LVU310
 762:../../../core/ST/Middlewares/Third_Party/FreeRTOS/Source/timers.c **** 						{
 1223              		.loc 1 762 7 view .LVU311
 762:../../../core/ST/Middlewares/Third_Party/FreeRTOS/Source/timers.c **** 						{
 1224              		.loc 1 762 18 is_stmt 0 view .LVU312
 1225 007c E369     		ldr	r3, [r4, #28]
 762:../../../core/ST/Middlewares/Third_Party/FreeRTOS/Source/timers.c **** 						{
 1226              		.loc 1 762 9 view .LVU313
 1227 007e 012B     		cmp	r3, #1
 1228 0080 C0D1     		bne	.L84
 764:../../../core/ST/Middlewares/Third_Party/FreeRTOS/Source/timers.c **** 							configASSERT( xResult );
 1229              		.loc 1 764 8 is_stmt 1 view .LVU314
 764:../../../core/ST/Middlewares/Third_Party/FreeRTOS/Source/timers.c **** 							configASSERT( xResult );
 1230              		.loc 1 764 129 is_stmt 0 view .LVU315
 1231 0082 A269     		ldr	r2, [r4, #24]
 764:../../../core/ST/Middlewares/Third_Party/FreeRTOS/Source/timers.c **** 							configASSERT( xResult );
 1232              		.loc 1 764 18 view .LVU316
 1233 0084 0021     		movs	r1, #0
 1234 0086 0091     		str	r1, [sp]
 1235 0088 0B46     		mov	r3, r1
 1236 008a 0498     		ldr	r0, [sp, #16]
 1237 008c 0244     		add	r2, r2, r0
 1238 008e 2046     		mov	r0, r4
 1239 0090 FFF7FEFF 		bl	xTimerGenericCommand
 1240              	.LVL109:
 765:../../../core/ST/Middlewares/Third_Party/FreeRTOS/Source/timers.c **** 							( void ) xResult;
ARM GAS  C:\Users\tomra\AppData\Local\Temp\ccsXPgWC.s 			page 44


 1241              		.loc 1 765 8 is_stmt 1 view .LVU317
 1242 0094 0028     		cmp	r0, #0
 1243 0096 B5D1     		bne	.L84
 1244              	.LBB7:
 765:../../../core/ST/Middlewares/Third_Party/FreeRTOS/Source/timers.c **** 							( void ) xResult;
 1245              		.loc 1 765 8 discriminator 1 view .LVU318
 1246 0098 40F2FD21 		movw	r1, #765
 1247 009c 0E48     		ldr	r0, .L97+4
 1248              	.LVL110:
 765:../../../core/ST/Middlewares/Third_Party/FreeRTOS/Source/timers.c **** 							( void ) xResult;
 1249              		.loc 1 765 8 is_stmt 0 discriminator 1 view .LVU319
 1250 009e FFF7FEFF 		bl	assert_failed
 1251              	.LVL111:
 1252 00a2 AFE7     		b	.L84
 1253              	.LVL112:
 1254              	.L87:
 765:../../../core/ST/Middlewares/Third_Party/FreeRTOS/Source/timers.c **** 							( void ) xResult;
 1255              		.loc 1 765 8 discriminator 1 view .LVU320
 1256              	.LBE7:
 787:../../../core/ST/Middlewares/Third_Party/FreeRTOS/Source/timers.c **** 					configASSERT( ( pxTimer->xTimerPeriodInTicks > 0 ) );
 1257              		.loc 1 787 6 is_stmt 1 view .LVU321
 787:../../../core/ST/Middlewares/Third_Party/FreeRTOS/Source/timers.c **** 					configASSERT( ( pxTimer->xTimerPeriodInTicks > 0 ) );
 1258              		.loc 1 787 64 is_stmt 0 view .LVU322
 1259 00a4 049B     		ldr	r3, [sp, #16]
 787:../../../core/ST/Middlewares/Third_Party/FreeRTOS/Source/timers.c **** 					configASSERT( ( pxTimer->xTimerPeriodInTicks > 0 ) );
 1260              		.loc 1 787 35 view .LVU323
 1261 00a6 A361     		str	r3, [r4, #24]
 788:../../../core/ST/Middlewares/Third_Party/FreeRTOS/Source/timers.c **** 
 1262              		.loc 1 788 6 is_stmt 1 view .LVU324
 1263 00a8 3BB1     		cbz	r3, .L96
 1264              	.LVL113:
 1265              	.L92:
 796:../../../core/ST/Middlewares/Third_Party/FreeRTOS/Source/timers.c **** 					break;
 1266              		.loc 1 796 6 view .LVU325
 796:../../../core/ST/Middlewares/Third_Party/FreeRTOS/Source/timers.c **** 					break;
 1267              		.loc 1 796 72 is_stmt 0 view .LVU326
 1268 00aa A169     		ldr	r1, [r4, #24]
 796:../../../core/ST/Middlewares/Third_Party/FreeRTOS/Source/timers.c **** 					break;
 1269              		.loc 1 796 15 view .LVU327
 1270 00ac 2B46     		mov	r3, r5
 1271 00ae 2A46     		mov	r2, r5
 1272 00b0 2944     		add	r1, r1, r5
 1273 00b2 2046     		mov	r0, r4
 1274 00b4 FFF7FEFF 		bl	prvInsertTimerInActiveList
 1275              	.LVL114:
 797:../../../core/ST/Middlewares/Third_Party/FreeRTOS/Source/timers.c **** 
 1276              		.loc 1 797 6 is_stmt 1 view .LVU328
 1277 00b8 A4E7     		b	.L84
 1278              	.LVL115:
 1279              	.L96:
 1280              	.LBB8:
 788:../../../core/ST/Middlewares/Third_Party/FreeRTOS/Source/timers.c **** 
 1281              		.loc 1 788 6 discriminator 1 view .LVU329
 1282 00ba 4FF44571 		mov	r1, #788
 1283 00be 0648     		ldr	r0, .L97+4
 1284              	.LVL116:
 788:../../../core/ST/Middlewares/Third_Party/FreeRTOS/Source/timers.c **** 
ARM GAS  C:\Users\tomra\AppData\Local\Temp\ccsXPgWC.s 			page 45


 1285              		.loc 1 788 6 is_stmt 0 discriminator 1 view .LVU330
 1286 00c0 FFF7FEFF 		bl	assert_failed
 1287              	.LVL117:
 1288 00c4 F1E7     		b	.L92
 1289              	.LVL118:
 1290              	.L90:
 788:../../../core/ST/Middlewares/Third_Party/FreeRTOS/Source/timers.c **** 
 1291              		.loc 1 788 6 discriminator 1 view .LVU331
 1292              	.LBE8:
 807:../../../core/ST/Middlewares/Third_Party/FreeRTOS/Source/timers.c **** 					}
 1293              		.loc 1 807 7 is_stmt 1 view .LVU332
 1294 00c6 2046     		mov	r0, r4
 1295              	.LVL119:
 807:../../../core/ST/Middlewares/Third_Party/FreeRTOS/Source/timers.c **** 					}
 1296              		.loc 1 807 7 is_stmt 0 view .LVU333
 1297 00c8 FFF7FEFF 		bl	vPortFree
 1298              	.LVL120:
 824:../../../core/ST/Middlewares/Third_Party/FreeRTOS/Source/timers.c **** 
 1299              		.loc 1 824 6 is_stmt 1 view .LVU334
 1300 00cc 9AE7     		b	.L84
 1301              	.LVL121:
 1302              	.L95:
 832:../../../core/ST/Middlewares/Third_Party/FreeRTOS/Source/timers.c **** /*-----------------------------------------------------------*/
 1303              		.loc 1 832 1 is_stmt 0 view .LVU335
 1304 00ce 07B0     		add	sp, sp, #28
 1305              	.LCFI27:
 1306              		.cfi_def_cfa_offset 12
 1307              		@ sp needed
 1308 00d0 30BD     		pop	{r4, r5, pc}
 1309              	.L98:
 1310 00d2 00BF     		.align	2
 1311              	.L97:
 1312 00d4 00000000 		.word	.LANCHOR2
 1313 00d8 00000000 		.word	.LC1
 1314              		.cfi_endproc
 1315              	.LFE19:
 1317              		.section	.text.prvTimerTask,"ax",%progbits
 1318              		.align	1
 1319              		.syntax unified
 1320              		.thumb
 1321              		.thumb_func
 1322              		.fpu fpv4-sp-d16
 1324              	prvTimerTask:
 1325              	.LFB14:
 503:../../../core/ST/Middlewares/Third_Party/FreeRTOS/Source/timers.c **** TickType_t xNextExpireTime;
 1326              		.loc 1 503 1 is_stmt 1 view -0
 1327              		.cfi_startproc
 1328              		@ args = 0, pretend = 0, frame = 8
 1329              		@ frame_needed = 0, uses_anonymous_args = 0
 1330              	.LVL122:
 503:../../../core/ST/Middlewares/Third_Party/FreeRTOS/Source/timers.c **** TickType_t xNextExpireTime;
 1331              		.loc 1 503 1 is_stmt 0 view .LVU337
 1332 0000 00B5     		push	{lr}
 1333              	.LCFI28:
 1334              		.cfi_def_cfa_offset 4
 1335              		.cfi_offset 14, -4
 1336 0002 83B0     		sub	sp, sp, #12
ARM GAS  C:\Users\tomra\AppData\Local\Temp\ccsXPgWC.s 			page 46


 1337              	.LCFI29:
 1338              		.cfi_def_cfa_offset 16
 1339              	.LVL123:
 1340              	.L100:
 504:../../../core/ST/Middlewares/Third_Party/FreeRTOS/Source/timers.c **** BaseType_t xListWasEmpty;
 1341              		.loc 1 504 1 is_stmt 1 discriminator 1 view .LVU338
 505:../../../core/ST/Middlewares/Third_Party/FreeRTOS/Source/timers.c **** 
 1342              		.loc 1 505 1 discriminator 1 view .LVU339
 508:../../../core/ST/Middlewares/Third_Party/FreeRTOS/Source/timers.c **** 
 1343              		.loc 1 508 2 discriminator 1 view .LVU340
 522:../../../core/ST/Middlewares/Third_Party/FreeRTOS/Source/timers.c **** 	{
 1344              		.loc 1 522 2 discriminator 1 view .LVU341
 526:../../../core/ST/Middlewares/Third_Party/FreeRTOS/Source/timers.c **** 
 1345              		.loc 1 526 3 discriminator 1 view .LVU342
 526:../../../core/ST/Middlewares/Third_Party/FreeRTOS/Source/timers.c **** 
 1346              		.loc 1 526 21 is_stmt 0 discriminator 1 view .LVU343
 1347 0004 01A8     		add	r0, sp, #4
 1348 0006 FFF7FEFF 		bl	prvGetNextExpireTime
 1349              	.LVL124:
 530:../../../core/ST/Middlewares/Third_Party/FreeRTOS/Source/timers.c **** 
 1350              		.loc 1 530 3 is_stmt 1 discriminator 1 view .LVU344
 1351 000a 0199     		ldr	r1, [sp, #4]
 1352 000c FFF7FEFF 		bl	prvProcessTimerOrBlockTask
 1353              	.LVL125:
 533:../../../core/ST/Middlewares/Third_Party/FreeRTOS/Source/timers.c **** 	}
 1354              		.loc 1 533 3 discriminator 1 view .LVU345
 1355 0010 FFF7FEFF 		bl	prvProcessReceivedCommands
 1356              	.LVL126:
 522:../../../core/ST/Middlewares/Third_Party/FreeRTOS/Source/timers.c **** 	{
 1357              		.loc 1 522 8 discriminator 1 view .LVU346
 1358 0014 F6E7     		b	.L100
 1359              		.cfi_endproc
 1360              	.LFE14:
 1362              		.section	.text.xTimerGetTimerDaemonTaskHandle,"ax",%progbits
 1363              		.align	1
 1364              		.global	xTimerGetTimerDaemonTaskHandle
 1365              		.syntax unified
 1366              		.thumb
 1367              		.thumb_func
 1368              		.fpu fpv4-sp-d16
 1370              	xTimerGetTimerDaemonTaskHandle:
 1371              	.LFB9:
 425:../../../core/ST/Middlewares/Third_Party/FreeRTOS/Source/timers.c **** 	/* If xTimerGetTimerDaemonTaskHandle() is called before the scheduler has been
 1372              		.loc 1 425 1 view -0
 1373              		.cfi_startproc
 1374              		@ args = 0, pretend = 0, frame = 0
 1375              		@ frame_needed = 0, uses_anonymous_args = 0
 1376 0000 08B5     		push	{r3, lr}
 1377              	.LCFI30:
 1378              		.cfi_def_cfa_offset 8
 1379              		.cfi_offset 3, -8
 1380              		.cfi_offset 14, -4
 428:../../../core/ST/Middlewares/Third_Party/FreeRTOS/Source/timers.c **** 	return xTimerTaskHandle;
 1381              		.loc 1 428 2 view .LVU348
 1382 0002 064B     		ldr	r3, .L106
 1383 0004 1B68     		ldr	r3, [r3]
 1384 0006 13B1     		cbz	r3, .L105
ARM GAS  C:\Users\tomra\AppData\Local\Temp\ccsXPgWC.s 			page 47


 1385              	.L103:
 429:../../../core/ST/Middlewares/Third_Party/FreeRTOS/Source/timers.c **** }
 1386              		.loc 1 429 2 view .LVU349
 430:../../../core/ST/Middlewares/Third_Party/FreeRTOS/Source/timers.c **** /*-----------------------------------------------------------*/
 1387              		.loc 1 430 1 is_stmt 0 view .LVU350
 1388 0008 044B     		ldr	r3, .L106
 1389 000a 1868     		ldr	r0, [r3]
 1390 000c 08BD     		pop	{r3, pc}
 1391              	.L105:
 1392              	.LBB9:
 428:../../../core/ST/Middlewares/Third_Party/FreeRTOS/Source/timers.c **** 	return xTimerTaskHandle;
 1393              		.loc 1 428 2 is_stmt 1 discriminator 1 view .LVU351
 1394 000e 4FF4D671 		mov	r1, #428
 1395 0012 0348     		ldr	r0, .L106+4
 1396 0014 FFF7FEFF 		bl	assert_failed
 1397              	.LVL127:
 1398 0018 F6E7     		b	.L103
 1399              	.L107:
 1400 001a 00BF     		.align	2
 1401              	.L106:
 1402 001c 00000000 		.word	.LANCHOR5
 1403 0020 00000000 		.word	.LC1
 1404              	.LBE9:
 1405              		.cfi_endproc
 1406              	.LFE9:
 1408              		.section	.text.xTimerGetPeriod,"ax",%progbits
 1409              		.align	1
 1410              		.global	xTimerGetPeriod
 1411              		.syntax unified
 1412              		.thumb
 1413              		.thumb_func
 1414              		.fpu fpv4-sp-d16
 1416              	xTimerGetPeriod:
 1417              	.LVL128:
 1418              	.LFB10:
 434:../../../core/ST/Middlewares/Third_Party/FreeRTOS/Source/timers.c **** Timer_t *pxTimer = ( Timer_t * ) xTimer;
 1419              		.loc 1 434 1 view -0
 1420              		.cfi_startproc
 1421              		@ args = 0, pretend = 0, frame = 0
 1422              		@ frame_needed = 0, uses_anonymous_args = 0
 434:../../../core/ST/Middlewares/Third_Party/FreeRTOS/Source/timers.c **** Timer_t *pxTimer = ( Timer_t * ) xTimer;
 1423              		.loc 1 434 1 is_stmt 0 view .LVU353
 1424 0000 10B5     		push	{r4, lr}
 1425              	.LCFI31:
 1426              		.cfi_def_cfa_offset 8
 1427              		.cfi_offset 4, -8
 1428              		.cfi_offset 14, -4
 435:../../../core/ST/Middlewares/Third_Party/FreeRTOS/Source/timers.c **** 
 1429              		.loc 1 435 1 is_stmt 1 view .LVU354
 1430              	.LVL129:
 437:../../../core/ST/Middlewares/Third_Party/FreeRTOS/Source/timers.c **** 	return pxTimer->xTimerPeriodInTicks;
 1431              		.loc 1 437 2 view .LVU355
 1432 0002 0446     		mov	r4, r0
 1433 0004 08B1     		cbz	r0, .L111
 1434              	.LVL130:
 1435              	.L109:
 438:../../../core/ST/Middlewares/Third_Party/FreeRTOS/Source/timers.c **** }
ARM GAS  C:\Users\tomra\AppData\Local\Temp\ccsXPgWC.s 			page 48


 1436              		.loc 1 438 2 view .LVU356
 439:../../../core/ST/Middlewares/Third_Party/FreeRTOS/Source/timers.c **** /*-----------------------------------------------------------*/
 1437              		.loc 1 439 1 is_stmt 0 view .LVU357
 1438 0006 A069     		ldr	r0, [r4, #24]
 1439 0008 10BD     		pop	{r4, pc}
 1440              	.LVL131:
 1441              	.L111:
 1442              	.LBB10:
 437:../../../core/ST/Middlewares/Third_Party/FreeRTOS/Source/timers.c **** 	return pxTimer->xTimerPeriodInTicks;
 1443              		.loc 1 437 2 is_stmt 1 discriminator 1 view .LVU358
 1444 000a 40F2B511 		movw	r1, #437
 1445 000e 0248     		ldr	r0, .L112
 1446              	.LVL132:
 437:../../../core/ST/Middlewares/Third_Party/FreeRTOS/Source/timers.c **** 	return pxTimer->xTimerPeriodInTicks;
 1447              		.loc 1 437 2 is_stmt 0 discriminator 1 view .LVU359
 1448 0010 FFF7FEFF 		bl	assert_failed
 1449              	.LVL133:
 1450 0014 F7E7     		b	.L109
 1451              	.L113:
 1452 0016 00BF     		.align	2
 1453              	.L112:
 1454 0018 00000000 		.word	.LC1
 1455              	.LBE10:
 1456              		.cfi_endproc
 1457              	.LFE10:
 1459              		.section	.text.xTimerGetExpiryTime,"ax",%progbits
 1460              		.align	1
 1461              		.global	xTimerGetExpiryTime
 1462              		.syntax unified
 1463              		.thumb
 1464              		.thumb_func
 1465              		.fpu fpv4-sp-d16
 1467              	xTimerGetExpiryTime:
 1468              	.LVL134:
 1469              	.LFB11:
 443:../../../core/ST/Middlewares/Third_Party/FreeRTOS/Source/timers.c **** Timer_t * pxTimer = ( Timer_t * ) xTimer;
 1470              		.loc 1 443 1 is_stmt 1 view -0
 1471              		.cfi_startproc
 1472              		@ args = 0, pretend = 0, frame = 0
 1473              		@ frame_needed = 0, uses_anonymous_args = 0
 443:../../../core/ST/Middlewares/Third_Party/FreeRTOS/Source/timers.c **** Timer_t * pxTimer = ( Timer_t * ) xTimer;
 1474              		.loc 1 443 1 is_stmt 0 view .LVU361
 1475 0000 10B5     		push	{r4, lr}
 1476              	.LCFI32:
 1477              		.cfi_def_cfa_offset 8
 1478              		.cfi_offset 4, -8
 1479              		.cfi_offset 14, -4
 444:../../../core/ST/Middlewares/Third_Party/FreeRTOS/Source/timers.c **** TickType_t xReturn;
 1480              		.loc 1 444 1 is_stmt 1 view .LVU362
 1481              	.LVL135:
 445:../../../core/ST/Middlewares/Third_Party/FreeRTOS/Source/timers.c **** 
 1482              		.loc 1 445 1 view .LVU363
 447:../../../core/ST/Middlewares/Third_Party/FreeRTOS/Source/timers.c **** 	xReturn = listGET_LIST_ITEM_VALUE( &( pxTimer->xTimerListItem ) );
 1483              		.loc 1 447 2 view .LVU364
 1484 0002 0446     		mov	r4, r0
 1485 0004 08B1     		cbz	r0, .L117
 1486              	.LVL136:
ARM GAS  C:\Users\tomra\AppData\Local\Temp\ccsXPgWC.s 			page 49


 1487              	.L115:
 448:../../../core/ST/Middlewares/Third_Party/FreeRTOS/Source/timers.c **** 	return xReturn;
 1488              		.loc 1 448 2 view .LVU365
 449:../../../core/ST/Middlewares/Third_Party/FreeRTOS/Source/timers.c **** }
 1489              		.loc 1 449 2 view .LVU366
 450:../../../core/ST/Middlewares/Third_Party/FreeRTOS/Source/timers.c **** /*-----------------------------------------------------------*/
 1490              		.loc 1 450 1 is_stmt 0 view .LVU367
 1491 0006 6068     		ldr	r0, [r4, #4]
 1492 0008 10BD     		pop	{r4, pc}
 1493              	.LVL137:
 1494              	.L117:
 1495              	.LBB11:
 447:../../../core/ST/Middlewares/Third_Party/FreeRTOS/Source/timers.c **** 	xReturn = listGET_LIST_ITEM_VALUE( &( pxTimer->xTimerListItem ) );
 1496              		.loc 1 447 2 is_stmt 1 discriminator 1 view .LVU368
 1497 000a 40F2BF11 		movw	r1, #447
 1498 000e 0248     		ldr	r0, .L118
 1499              	.LVL138:
 447:../../../core/ST/Middlewares/Third_Party/FreeRTOS/Source/timers.c **** 	xReturn = listGET_LIST_ITEM_VALUE( &( pxTimer->xTimerListItem ) );
 1500              		.loc 1 447 2 is_stmt 0 discriminator 1 view .LVU369
 1501 0010 FFF7FEFF 		bl	assert_failed
 1502              	.LVL139:
 1503 0014 F7E7     		b	.L115
 1504              	.L119:
 1505 0016 00BF     		.align	2
 1506              	.L118:
 1507 0018 00000000 		.word	.LC1
 1508              	.LBE11:
 1509              		.cfi_endproc
 1510              	.LFE11:
 1512              		.section	.text.pcTimerGetName,"ax",%progbits
 1513              		.align	1
 1514              		.global	pcTimerGetName
 1515              		.syntax unified
 1516              		.thumb
 1517              		.thumb_func
 1518              		.fpu fpv4-sp-d16
 1520              	pcTimerGetName:
 1521              	.LVL140:
 1522              	.LFB12:
 454:../../../core/ST/Middlewares/Third_Party/FreeRTOS/Source/timers.c **** Timer_t *pxTimer = ( Timer_t * ) xTimer;
 1523              		.loc 1 454 1 is_stmt 1 view -0
 1524              		.cfi_startproc
 1525              		@ args = 0, pretend = 0, frame = 0
 1526              		@ frame_needed = 0, uses_anonymous_args = 0
 454:../../../core/ST/Middlewares/Third_Party/FreeRTOS/Source/timers.c **** Timer_t *pxTimer = ( Timer_t * ) xTimer;
 1527              		.loc 1 454 1 is_stmt 0 view .LVU371
 1528 0000 10B5     		push	{r4, lr}
 1529              	.LCFI33:
 1530              		.cfi_def_cfa_offset 8
 1531              		.cfi_offset 4, -8
 1532              		.cfi_offset 14, -4
 455:../../../core/ST/Middlewares/Third_Party/FreeRTOS/Source/timers.c **** 
 1533              		.loc 1 455 1 is_stmt 1 view .LVU372
 1534              	.LVL141:
 457:../../../core/ST/Middlewares/Third_Party/FreeRTOS/Source/timers.c **** 	return pxTimer->pcTimerName;
 1535              		.loc 1 457 2 view .LVU373
 1536 0002 0446     		mov	r4, r0
ARM GAS  C:\Users\tomra\AppData\Local\Temp\ccsXPgWC.s 			page 50


 1537 0004 08B1     		cbz	r0, .L123
 1538              	.LVL142:
 1539              	.L121:
 458:../../../core/ST/Middlewares/Third_Party/FreeRTOS/Source/timers.c **** }
 1540              		.loc 1 458 2 view .LVU374
 459:../../../core/ST/Middlewares/Third_Party/FreeRTOS/Source/timers.c **** /*-----------------------------------------------------------*/
 1541              		.loc 1 459 1 is_stmt 0 view .LVU375
 1542 0006 2068     		ldr	r0, [r4]
 1543 0008 10BD     		pop	{r4, pc}
 1544              	.LVL143:
 1545              	.L123:
 1546              	.LBB12:
 457:../../../core/ST/Middlewares/Third_Party/FreeRTOS/Source/timers.c **** 	return pxTimer->pcTimerName;
 1547              		.loc 1 457 2 is_stmt 1 discriminator 1 view .LVU376
 1548 000a 40F2C911 		movw	r1, #457
 1549 000e 0248     		ldr	r0, .L124
 1550              	.LVL144:
 457:../../../core/ST/Middlewares/Third_Party/FreeRTOS/Source/timers.c **** 	return pxTimer->pcTimerName;
 1551              		.loc 1 457 2 is_stmt 0 discriminator 1 view .LVU377
 1552 0010 FFF7FEFF 		bl	assert_failed
 1553              	.LVL145:
 1554 0014 F7E7     		b	.L121
 1555              	.L125:
 1556 0016 00BF     		.align	2
 1557              	.L124:
 1558 0018 00000000 		.word	.LC1
 1559              	.LBE12:
 1560              		.cfi_endproc
 1561              	.LFE12:
 1563              		.section	.text.xTimerIsTimerActive,"ax",%progbits
 1564              		.align	1
 1565              		.global	xTimerIsTimerActive
 1566              		.syntax unified
 1567              		.thumb
 1568              		.thumb_func
 1569              		.fpu fpv4-sp-d16
 1571              	xTimerIsTimerActive:
 1572              	.LVL146:
 1573              	.LFB22:
 943:../../../core/ST/Middlewares/Third_Party/FreeRTOS/Source/timers.c **** /*-----------------------------------------------------------*/
 944:../../../core/ST/Middlewares/Third_Party/FreeRTOS/Source/timers.c **** 
 945:../../../core/ST/Middlewares/Third_Party/FreeRTOS/Source/timers.c **** BaseType_t xTimerIsTimerActive( TimerHandle_t xTimer )
 946:../../../core/ST/Middlewares/Third_Party/FreeRTOS/Source/timers.c **** {
 1574              		.loc 1 946 1 is_stmt 1 view -0
 1575              		.cfi_startproc
 1576              		@ args = 0, pretend = 0, frame = 0
 1577              		@ frame_needed = 0, uses_anonymous_args = 0
 1578              		.loc 1 946 1 is_stmt 0 view .LVU379
 1579 0000 10B5     		push	{r4, lr}
 1580              	.LCFI34:
 1581              		.cfi_def_cfa_offset 8
 1582              		.cfi_offset 4, -8
 1583              		.cfi_offset 14, -4
 947:../../../core/ST/Middlewares/Third_Party/FreeRTOS/Source/timers.c **** BaseType_t xTimerIsInActiveList;
 1584              		.loc 1 947 1 is_stmt 1 view .LVU380
 948:../../../core/ST/Middlewares/Third_Party/FreeRTOS/Source/timers.c **** Timer_t *pxTimer = ( Timer_t * ) xTimer;
 1585              		.loc 1 948 1 view .LVU381
ARM GAS  C:\Users\tomra\AppData\Local\Temp\ccsXPgWC.s 			page 51


 1586              	.LVL147:
 949:../../../core/ST/Middlewares/Third_Party/FreeRTOS/Source/timers.c **** 
 950:../../../core/ST/Middlewares/Third_Party/FreeRTOS/Source/timers.c **** 	configASSERT( xTimer );
 1587              		.loc 1 950 2 view .LVU382
 1588 0002 0446     		mov	r4, r0
 1589 0004 48B1     		cbz	r0, .L129
 1590              	.LVL148:
 1591              	.L127:
 951:../../../core/ST/Middlewares/Third_Party/FreeRTOS/Source/timers.c **** 
 952:../../../core/ST/Middlewares/Third_Party/FreeRTOS/Source/timers.c **** 	/* Is the timer in the list of active timers? */
 953:../../../core/ST/Middlewares/Third_Party/FreeRTOS/Source/timers.c **** 	taskENTER_CRITICAL();
 1592              		.loc 1 953 2 view .LVU383
 1593 0006 FFF7FEFF 		bl	vPortEnterCritical
 1594              	.LVL149:
 954:../../../core/ST/Middlewares/Third_Party/FreeRTOS/Source/timers.c **** 	{
 955:../../../core/ST/Middlewares/Third_Party/FreeRTOS/Source/timers.c **** 		/* Checking to see if it is in the NULL list in effect checks to see if
 956:../../../core/ST/Middlewares/Third_Party/FreeRTOS/Source/timers.c **** 		it is referenced from either the current or the overflow timer lists in
 957:../../../core/ST/Middlewares/Third_Party/FreeRTOS/Source/timers.c **** 		one go, but the logic has to be reversed, hence the '!'. */
 958:../../../core/ST/Middlewares/Third_Party/FreeRTOS/Source/timers.c **** 		xTimerIsInActiveList = ( BaseType_t ) !( listIS_CONTAINED_WITHIN( NULL, &( pxTimer->xTimerListIte
 1595              		.loc 1 958 3 view .LVU384
 1596              		.loc 1 958 44 is_stmt 0 view .LVU385
 1597 000a 6469     		ldr	r4, [r4, #20]
 1598              	.LVL150:
 1599              		.loc 1 958 26 view .LVU386
 1600 000c 003C     		subs	r4, r4, #0
 1601 000e 18BF     		it	ne
 1602 0010 0124     		movne	r4, #1
 1603              	.LVL151:
 959:../../../core/ST/Middlewares/Third_Party/FreeRTOS/Source/timers.c **** 	}
 960:../../../core/ST/Middlewares/Third_Party/FreeRTOS/Source/timers.c **** 	taskEXIT_CRITICAL();
 1604              		.loc 1 960 2 is_stmt 1 view .LVU387
 1605 0012 FFF7FEFF 		bl	vPortExitCritical
 1606              	.LVL152:
 961:../../../core/ST/Middlewares/Third_Party/FreeRTOS/Source/timers.c **** 
 962:../../../core/ST/Middlewares/Third_Party/FreeRTOS/Source/timers.c **** 	return xTimerIsInActiveList;
 1607              		.loc 1 962 2 view .LVU388
 963:../../../core/ST/Middlewares/Third_Party/FreeRTOS/Source/timers.c **** } /*lint !e818 Can't be pointer to const due to the typedef. */
 1608              		.loc 1 963 1 is_stmt 0 view .LVU389
 1609 0016 2046     		mov	r0, r4
 1610 0018 10BD     		pop	{r4, pc}
 1611              	.LVL153:
 1612              	.L129:
 1613              	.LBB13:
 950:../../../core/ST/Middlewares/Third_Party/FreeRTOS/Source/timers.c **** 
 1614              		.loc 1 950 2 is_stmt 1 discriminator 1 view .LVU390
 1615 001a 40F2B631 		movw	r1, #950
 1616 001e 0248     		ldr	r0, .L130
 1617              	.LVL154:
 950:../../../core/ST/Middlewares/Third_Party/FreeRTOS/Source/timers.c **** 
 1618              		.loc 1 950 2 is_stmt 0 discriminator 1 view .LVU391
 1619 0020 FFF7FEFF 		bl	assert_failed
 1620              	.LVL155:
 1621 0024 EFE7     		b	.L127
 1622              	.L131:
 1623 0026 00BF     		.align	2
 1624              	.L130:
 1625 0028 00000000 		.word	.LC1
ARM GAS  C:\Users\tomra\AppData\Local\Temp\ccsXPgWC.s 			page 52


 1626              	.LBE13:
 1627              		.cfi_endproc
 1628              	.LFE22:
 1630              		.section	.text.pvTimerGetTimerID,"ax",%progbits
 1631              		.align	1
 1632              		.global	pvTimerGetTimerID
 1633              		.syntax unified
 1634              		.thumb
 1635              		.thumb_func
 1636              		.fpu fpv4-sp-d16
 1638              	pvTimerGetTimerID:
 1639              	.LVL156:
 1640              	.LFB23:
 964:../../../core/ST/Middlewares/Third_Party/FreeRTOS/Source/timers.c **** /*-----------------------------------------------------------*/
 965:../../../core/ST/Middlewares/Third_Party/FreeRTOS/Source/timers.c **** 
 966:../../../core/ST/Middlewares/Third_Party/FreeRTOS/Source/timers.c **** void *pvTimerGetTimerID( const TimerHandle_t xTimer )
 967:../../../core/ST/Middlewares/Third_Party/FreeRTOS/Source/timers.c **** {
 1641              		.loc 1 967 1 is_stmt 1 view -0
 1642              		.cfi_startproc
 1643              		@ args = 0, pretend = 0, frame = 0
 1644              		@ frame_needed = 0, uses_anonymous_args = 0
 1645              		.loc 1 967 1 is_stmt 0 view .LVU393
 1646 0000 10B5     		push	{r4, lr}
 1647              	.LCFI35:
 1648              		.cfi_def_cfa_offset 8
 1649              		.cfi_offset 4, -8
 1650              		.cfi_offset 14, -4
 968:../../../core/ST/Middlewares/Third_Party/FreeRTOS/Source/timers.c **** Timer_t * const pxTimer = ( Timer_t * ) xTimer;
 1651              		.loc 1 968 1 is_stmt 1 view .LVU394
 1652              	.LVL157:
 969:../../../core/ST/Middlewares/Third_Party/FreeRTOS/Source/timers.c **** void *pvReturn;
 1653              		.loc 1 969 1 view .LVU395
 970:../../../core/ST/Middlewares/Third_Party/FreeRTOS/Source/timers.c **** 
 971:../../../core/ST/Middlewares/Third_Party/FreeRTOS/Source/timers.c **** 	configASSERT( xTimer );
 1654              		.loc 1 971 2 view .LVU396
 1655 0002 0446     		mov	r4, r0
 1656 0004 30B1     		cbz	r0, .L135
 1657              	.LVL158:
 1658              	.L133:
 972:../../../core/ST/Middlewares/Third_Party/FreeRTOS/Source/timers.c **** 
 973:../../../core/ST/Middlewares/Third_Party/FreeRTOS/Source/timers.c **** 	taskENTER_CRITICAL();
 1659              		.loc 1 973 2 view .LVU397
 1660 0006 FFF7FEFF 		bl	vPortEnterCritical
 1661              	.LVL159:
 974:../../../core/ST/Middlewares/Third_Party/FreeRTOS/Source/timers.c **** 	{
 975:../../../core/ST/Middlewares/Third_Party/FreeRTOS/Source/timers.c **** 		pvReturn = pxTimer->pvTimerID;
 1662              		.loc 1 975 3 view .LVU398
 1663              		.loc 1 975 12 is_stmt 0 view .LVU399
 1664 000a 246A     		ldr	r4, [r4, #32]
 1665              	.LVL160:
 976:../../../core/ST/Middlewares/Third_Party/FreeRTOS/Source/timers.c **** 	}
 977:../../../core/ST/Middlewares/Third_Party/FreeRTOS/Source/timers.c **** 	taskEXIT_CRITICAL();
 1666              		.loc 1 977 2 is_stmt 1 view .LVU400
 1667 000c FFF7FEFF 		bl	vPortExitCritical
 1668              	.LVL161:
 978:../../../core/ST/Middlewares/Third_Party/FreeRTOS/Source/timers.c **** 
 979:../../../core/ST/Middlewares/Third_Party/FreeRTOS/Source/timers.c **** 	return pvReturn;
ARM GAS  C:\Users\tomra\AppData\Local\Temp\ccsXPgWC.s 			page 53


 1669              		.loc 1 979 2 view .LVU401
 980:../../../core/ST/Middlewares/Third_Party/FreeRTOS/Source/timers.c **** }
 1670              		.loc 1 980 1 is_stmt 0 view .LVU402
 1671 0010 2046     		mov	r0, r4
 1672 0012 10BD     		pop	{r4, pc}
 1673              	.LVL162:
 1674              	.L135:
 1675              	.LBB14:
 971:../../../core/ST/Middlewares/Third_Party/FreeRTOS/Source/timers.c **** 
 1676              		.loc 1 971 2 is_stmt 1 discriminator 1 view .LVU403
 1677 0014 40F2CB31 		movw	r1, #971
 1678 0018 0148     		ldr	r0, .L136
 1679              	.LVL163:
 971:../../../core/ST/Middlewares/Third_Party/FreeRTOS/Source/timers.c **** 
 1680              		.loc 1 971 2 is_stmt 0 discriminator 1 view .LVU404
 1681 001a FFF7FEFF 		bl	assert_failed
 1682              	.LVL164:
 1683 001e F2E7     		b	.L133
 1684              	.L137:
 1685              		.align	2
 1686              	.L136:
 1687 0020 00000000 		.word	.LC1
 1688              	.LBE14:
 1689              		.cfi_endproc
 1690              	.LFE23:
 1692              		.section	.text.vTimerSetTimerID,"ax",%progbits
 1693              		.align	1
 1694              		.global	vTimerSetTimerID
 1695              		.syntax unified
 1696              		.thumb
 1697              		.thumb_func
 1698              		.fpu fpv4-sp-d16
 1700              	vTimerSetTimerID:
 1701              	.LVL165:
 1702              	.LFB24:
 981:../../../core/ST/Middlewares/Third_Party/FreeRTOS/Source/timers.c **** /*-----------------------------------------------------------*/
 982:../../../core/ST/Middlewares/Third_Party/FreeRTOS/Source/timers.c **** 
 983:../../../core/ST/Middlewares/Third_Party/FreeRTOS/Source/timers.c **** void vTimerSetTimerID( TimerHandle_t xTimer, void *pvNewID )
 984:../../../core/ST/Middlewares/Third_Party/FreeRTOS/Source/timers.c **** {
 1703              		.loc 1 984 1 is_stmt 1 view -0
 1704              		.cfi_startproc
 1705              		@ args = 0, pretend = 0, frame = 0
 1706              		@ frame_needed = 0, uses_anonymous_args = 0
 1707              		.loc 1 984 1 is_stmt 0 view .LVU406
 1708 0000 38B5     		push	{r3, r4, r5, lr}
 1709              	.LCFI36:
 1710              		.cfi_def_cfa_offset 16
 1711              		.cfi_offset 3, -16
 1712              		.cfi_offset 4, -12
 1713              		.cfi_offset 5, -8
 1714              		.cfi_offset 14, -4
 1715 0002 0C46     		mov	r4, r1
 985:../../../core/ST/Middlewares/Third_Party/FreeRTOS/Source/timers.c **** Timer_t * const pxTimer = ( Timer_t * ) xTimer;
 1716              		.loc 1 985 1 is_stmt 1 view .LVU407
 1717              	.LVL166:
 986:../../../core/ST/Middlewares/Third_Party/FreeRTOS/Source/timers.c **** 
 987:../../../core/ST/Middlewares/Third_Party/FreeRTOS/Source/timers.c **** 	configASSERT( xTimer );
ARM GAS  C:\Users\tomra\AppData\Local\Temp\ccsXPgWC.s 			page 54


 1718              		.loc 1 987 2 view .LVU408
 1719 0004 0546     		mov	r5, r0
 1720 0006 28B1     		cbz	r0, .L141
 1721              	.LVL167:
 1722              	.L139:
 988:../../../core/ST/Middlewares/Third_Party/FreeRTOS/Source/timers.c **** 
 989:../../../core/ST/Middlewares/Third_Party/FreeRTOS/Source/timers.c **** 	taskENTER_CRITICAL();
 1723              		.loc 1 989 2 view .LVU409
 1724 0008 FFF7FEFF 		bl	vPortEnterCritical
 1725              	.LVL168:
 990:../../../core/ST/Middlewares/Third_Party/FreeRTOS/Source/timers.c **** 	{
 991:../../../core/ST/Middlewares/Third_Party/FreeRTOS/Source/timers.c **** 		pxTimer->pvTimerID = pvNewID;
 1726              		.loc 1 991 3 view .LVU410
 1727              		.loc 1 991 22 is_stmt 0 view .LVU411
 1728 000c 2C62     		str	r4, [r5, #32]
 992:../../../core/ST/Middlewares/Third_Party/FreeRTOS/Source/timers.c **** 	}
 993:../../../core/ST/Middlewares/Third_Party/FreeRTOS/Source/timers.c **** 	taskEXIT_CRITICAL();
 1729              		.loc 1 993 2 is_stmt 1 view .LVU412
 1730 000e FFF7FEFF 		bl	vPortExitCritical
 1731              	.LVL169:
 994:../../../core/ST/Middlewares/Third_Party/FreeRTOS/Source/timers.c **** }
 1732              		.loc 1 994 1 is_stmt 0 view .LVU413
 1733 0012 38BD     		pop	{r3, r4, r5, pc}
 1734              	.LVL170:
 1735              	.L141:
 1736              	.LBB15:
 987:../../../core/ST/Middlewares/Third_Party/FreeRTOS/Source/timers.c **** 
 1737              		.loc 1 987 2 is_stmt 1 discriminator 1 view .LVU414
 1738 0014 40F2DB31 		movw	r1, #987
 1739              	.LVL171:
 987:../../../core/ST/Middlewares/Third_Party/FreeRTOS/Source/timers.c **** 
 1740              		.loc 1 987 2 is_stmt 0 discriminator 1 view .LVU415
 1741 0018 0148     		ldr	r0, .L142
 1742              	.LVL172:
 987:../../../core/ST/Middlewares/Third_Party/FreeRTOS/Source/timers.c **** 
 1743              		.loc 1 987 2 discriminator 1 view .LVU416
 1744 001a FFF7FEFF 		bl	assert_failed
 1745              	.LVL173:
 1746 001e F3E7     		b	.L139
 1747              	.L143:
 1748              		.align	2
 1749              	.L142:
 1750 0020 00000000 		.word	.LC1
 1751              	.LBE15:
 1752              		.cfi_endproc
 1753              	.LFE24:
 1755              		.section	.text.uxTimerGetTimerNumber,"ax",%progbits
 1756              		.align	1
 1757              		.global	uxTimerGetTimerNumber
 1758              		.syntax unified
 1759              		.thumb
 1760              		.thumb_func
 1761              		.fpu fpv4-sp-d16
 1763              	uxTimerGetTimerNumber:
 1764              	.LVL174:
 1765              	.LFB25:
 995:../../../core/ST/Middlewares/Third_Party/FreeRTOS/Source/timers.c **** /*-----------------------------------------------------------*/
ARM GAS  C:\Users\tomra\AppData\Local\Temp\ccsXPgWC.s 			page 55


 996:../../../core/ST/Middlewares/Third_Party/FreeRTOS/Source/timers.c **** 
 997:../../../core/ST/Middlewares/Third_Party/FreeRTOS/Source/timers.c **** #if( INCLUDE_xTimerPendFunctionCall == 1 )
 998:../../../core/ST/Middlewares/Third_Party/FreeRTOS/Source/timers.c **** 
 999:../../../core/ST/Middlewares/Third_Party/FreeRTOS/Source/timers.c **** 	BaseType_t xTimerPendFunctionCallFromISR( PendedFunction_t xFunctionToPend, void *pvParameter1, ui
1000:../../../core/ST/Middlewares/Third_Party/FreeRTOS/Source/timers.c **** 	{
1001:../../../core/ST/Middlewares/Third_Party/FreeRTOS/Source/timers.c **** 	DaemonTaskMessage_t xMessage;
1002:../../../core/ST/Middlewares/Third_Party/FreeRTOS/Source/timers.c **** 	BaseType_t xReturn;
1003:../../../core/ST/Middlewares/Third_Party/FreeRTOS/Source/timers.c **** 
1004:../../../core/ST/Middlewares/Third_Party/FreeRTOS/Source/timers.c **** 		/* Complete the message with the function parameters and post it to the
1005:../../../core/ST/Middlewares/Third_Party/FreeRTOS/Source/timers.c **** 		daemon task. */
1006:../../../core/ST/Middlewares/Third_Party/FreeRTOS/Source/timers.c **** 		xMessage.xMessageID = tmrCOMMAND_EXECUTE_CALLBACK_FROM_ISR;
1007:../../../core/ST/Middlewares/Third_Party/FreeRTOS/Source/timers.c **** 		xMessage.u.xCallbackParameters.pxCallbackFunction = xFunctionToPend;
1008:../../../core/ST/Middlewares/Third_Party/FreeRTOS/Source/timers.c **** 		xMessage.u.xCallbackParameters.pvParameter1 = pvParameter1;
1009:../../../core/ST/Middlewares/Third_Party/FreeRTOS/Source/timers.c **** 		xMessage.u.xCallbackParameters.ulParameter2 = ulParameter2;
1010:../../../core/ST/Middlewares/Third_Party/FreeRTOS/Source/timers.c **** 
1011:../../../core/ST/Middlewares/Third_Party/FreeRTOS/Source/timers.c **** 		xReturn = xQueueSendFromISR( xTimerQueue, &xMessage, pxHigherPriorityTaskWoken );
1012:../../../core/ST/Middlewares/Third_Party/FreeRTOS/Source/timers.c **** 
1013:../../../core/ST/Middlewares/Third_Party/FreeRTOS/Source/timers.c **** 		tracePEND_FUNC_CALL_FROM_ISR( xFunctionToPend, pvParameter1, ulParameter2, xReturn );
1014:../../../core/ST/Middlewares/Third_Party/FreeRTOS/Source/timers.c **** 
1015:../../../core/ST/Middlewares/Third_Party/FreeRTOS/Source/timers.c **** 		return xReturn;
1016:../../../core/ST/Middlewares/Third_Party/FreeRTOS/Source/timers.c **** 	}
1017:../../../core/ST/Middlewares/Third_Party/FreeRTOS/Source/timers.c **** 
1018:../../../core/ST/Middlewares/Third_Party/FreeRTOS/Source/timers.c **** #endif /* INCLUDE_xTimerPendFunctionCall */
1019:../../../core/ST/Middlewares/Third_Party/FreeRTOS/Source/timers.c **** /*-----------------------------------------------------------*/
1020:../../../core/ST/Middlewares/Third_Party/FreeRTOS/Source/timers.c **** 
1021:../../../core/ST/Middlewares/Third_Party/FreeRTOS/Source/timers.c **** #if( INCLUDE_xTimerPendFunctionCall == 1 )
1022:../../../core/ST/Middlewares/Third_Party/FreeRTOS/Source/timers.c **** 
1023:../../../core/ST/Middlewares/Third_Party/FreeRTOS/Source/timers.c **** 	BaseType_t xTimerPendFunctionCall( PendedFunction_t xFunctionToPend, void *pvParameter1, uint32_t 
1024:../../../core/ST/Middlewares/Third_Party/FreeRTOS/Source/timers.c **** 	{
1025:../../../core/ST/Middlewares/Third_Party/FreeRTOS/Source/timers.c **** 	DaemonTaskMessage_t xMessage;
1026:../../../core/ST/Middlewares/Third_Party/FreeRTOS/Source/timers.c **** 	BaseType_t xReturn;
1027:../../../core/ST/Middlewares/Third_Party/FreeRTOS/Source/timers.c **** 
1028:../../../core/ST/Middlewares/Third_Party/FreeRTOS/Source/timers.c **** 		/* This function can only be called after a timer has been created or
1029:../../../core/ST/Middlewares/Third_Party/FreeRTOS/Source/timers.c **** 		after the scheduler has been started because, until then, the timer
1030:../../../core/ST/Middlewares/Third_Party/FreeRTOS/Source/timers.c **** 		queue does not exist. */
1031:../../../core/ST/Middlewares/Third_Party/FreeRTOS/Source/timers.c **** 		configASSERT( xTimerQueue );
1032:../../../core/ST/Middlewares/Third_Party/FreeRTOS/Source/timers.c **** 
1033:../../../core/ST/Middlewares/Third_Party/FreeRTOS/Source/timers.c **** 		/* Complete the message with the function parameters and post it to the
1034:../../../core/ST/Middlewares/Third_Party/FreeRTOS/Source/timers.c **** 		daemon task. */
1035:../../../core/ST/Middlewares/Third_Party/FreeRTOS/Source/timers.c **** 		xMessage.xMessageID = tmrCOMMAND_EXECUTE_CALLBACK;
1036:../../../core/ST/Middlewares/Third_Party/FreeRTOS/Source/timers.c **** 		xMessage.u.xCallbackParameters.pxCallbackFunction = xFunctionToPend;
1037:../../../core/ST/Middlewares/Third_Party/FreeRTOS/Source/timers.c **** 		xMessage.u.xCallbackParameters.pvParameter1 = pvParameter1;
1038:../../../core/ST/Middlewares/Third_Party/FreeRTOS/Source/timers.c **** 		xMessage.u.xCallbackParameters.ulParameter2 = ulParameter2;
1039:../../../core/ST/Middlewares/Third_Party/FreeRTOS/Source/timers.c **** 
1040:../../../core/ST/Middlewares/Third_Party/FreeRTOS/Source/timers.c **** 		xReturn = xQueueSendToBack( xTimerQueue, &xMessage, xTicksToWait );
1041:../../../core/ST/Middlewares/Third_Party/FreeRTOS/Source/timers.c **** 
1042:../../../core/ST/Middlewares/Third_Party/FreeRTOS/Source/timers.c **** 		tracePEND_FUNC_CALL( xFunctionToPend, pvParameter1, ulParameter2, xReturn );
1043:../../../core/ST/Middlewares/Third_Party/FreeRTOS/Source/timers.c **** 
1044:../../../core/ST/Middlewares/Third_Party/FreeRTOS/Source/timers.c **** 		return xReturn;
1045:../../../core/ST/Middlewares/Third_Party/FreeRTOS/Source/timers.c **** 	}
1046:../../../core/ST/Middlewares/Third_Party/FreeRTOS/Source/timers.c **** 
1047:../../../core/ST/Middlewares/Third_Party/FreeRTOS/Source/timers.c **** #endif /* INCLUDE_xTimerPendFunctionCall */
1048:../../../core/ST/Middlewares/Third_Party/FreeRTOS/Source/timers.c **** /*-----------------------------------------------------------*/
1049:../../../core/ST/Middlewares/Third_Party/FreeRTOS/Source/timers.c **** 
1050:../../../core/ST/Middlewares/Third_Party/FreeRTOS/Source/timers.c **** #if ( configUSE_TRACE_FACILITY == 1 )
1051:../../../core/ST/Middlewares/Third_Party/FreeRTOS/Source/timers.c **** 
1052:../../../core/ST/Middlewares/Third_Party/FreeRTOS/Source/timers.c **** 	UBaseType_t uxTimerGetTimerNumber( TimerHandle_t xTimer )
ARM GAS  C:\Users\tomra\AppData\Local\Temp\ccsXPgWC.s 			page 56


1053:../../../core/ST/Middlewares/Third_Party/FreeRTOS/Source/timers.c **** 	{
 1766              		.loc 1 1053 2 is_stmt 1 view -0
 1767              		.cfi_startproc
 1768              		@ args = 0, pretend = 0, frame = 0
 1769              		@ frame_needed = 0, uses_anonymous_args = 0
 1770              		@ link register save eliminated.
1054:../../../core/ST/Middlewares/Third_Party/FreeRTOS/Source/timers.c **** 		return ( ( Timer_t * ) xTimer )->uxTimerNumber;
 1771              		.loc 1 1054 3 view .LVU418
1055:../../../core/ST/Middlewares/Third_Party/FreeRTOS/Source/timers.c **** 	}
 1772              		.loc 1 1055 2 is_stmt 0 view .LVU419
 1773 0000 806A     		ldr	r0, [r0, #40]
 1774              	.LVL175:
 1775              		.loc 1 1055 2 view .LVU420
 1776 0002 7047     		bx	lr
 1777              		.cfi_endproc
 1778              	.LFE25:
 1780              		.section	.text.vTimerSetTimerNumber,"ax",%progbits
 1781              		.align	1
 1782              		.global	vTimerSetTimerNumber
 1783              		.syntax unified
 1784              		.thumb
 1785              		.thumb_func
 1786              		.fpu fpv4-sp-d16
 1788              	vTimerSetTimerNumber:
 1789              	.LVL176:
 1790              	.LFB26:
1056:../../../core/ST/Middlewares/Third_Party/FreeRTOS/Source/timers.c **** 
1057:../../../core/ST/Middlewares/Third_Party/FreeRTOS/Source/timers.c **** #endif /* configUSE_TRACE_FACILITY */
1058:../../../core/ST/Middlewares/Third_Party/FreeRTOS/Source/timers.c **** /*-----------------------------------------------------------*/
1059:../../../core/ST/Middlewares/Third_Party/FreeRTOS/Source/timers.c **** 
1060:../../../core/ST/Middlewares/Third_Party/FreeRTOS/Source/timers.c **** #if ( configUSE_TRACE_FACILITY == 1 )
1061:../../../core/ST/Middlewares/Third_Party/FreeRTOS/Source/timers.c **** 
1062:../../../core/ST/Middlewares/Third_Party/FreeRTOS/Source/timers.c **** 	void vTimerSetTimerNumber( TimerHandle_t xTimer, UBaseType_t uxTimerNumber )
1063:../../../core/ST/Middlewares/Third_Party/FreeRTOS/Source/timers.c **** 	{
 1791              		.loc 1 1063 2 is_stmt 1 view -0
 1792              		.cfi_startproc
 1793              		@ args = 0, pretend = 0, frame = 0
 1794              		@ frame_needed = 0, uses_anonymous_args = 0
 1795              		@ link register save eliminated.
1064:../../../core/ST/Middlewares/Third_Party/FreeRTOS/Source/timers.c **** 		( ( Timer_t * ) xTimer )->uxTimerNumber = uxTimerNumber;
 1796              		.loc 1 1064 3 view .LVU422
 1797              		.loc 1 1064 43 is_stmt 0 view .LVU423
 1798 0000 8162     		str	r1, [r0, #40]
1065:../../../core/ST/Middlewares/Third_Party/FreeRTOS/Source/timers.c **** 	}
 1799              		.loc 1 1065 2 view .LVU424
 1800 0002 7047     		bx	lr
 1801              		.cfi_endproc
 1802              	.LFE26:
 1804              		.section	.bss.pxCurrentTimerList,"aw",%nobits
 1805              		.align	2
 1806              		.set	.LANCHOR0,. + 0
 1809              	pxCurrentTimerList:
 1810 0000 00000000 		.space	4
 1811              		.section	.bss.pxOverflowTimerList,"aw",%nobits
 1812              		.align	2
 1813              		.set	.LANCHOR1,. + 0
 1816              	pxOverflowTimerList:
ARM GAS  C:\Users\tomra\AppData\Local\Temp\ccsXPgWC.s 			page 57


 1817 0000 00000000 		.space	4
 1818              		.section	.bss.xActiveTimerList1,"aw",%nobits
 1819              		.align	2
 1820              		.set	.LANCHOR3,. + 0
 1823              	xActiveTimerList1:
 1824 0000 00000000 		.space	20
 1824      00000000 
 1824      00000000 
 1824      00000000 
 1824      00000000 
 1825              		.section	.bss.xActiveTimerList2,"aw",%nobits
 1826              		.align	2
 1827              		.set	.LANCHOR4,. + 0
 1830              	xActiveTimerList2:
 1831 0000 00000000 		.space	20
 1831      00000000 
 1831      00000000 
 1831      00000000 
 1831      00000000 
 1832              		.section	.bss.xLastTime.6830,"aw",%nobits
 1833              		.align	2
 1834              		.set	.LANCHOR6,. + 0
 1837              	xLastTime.6830:
 1838 0000 00000000 		.space	4
 1839              		.section	.bss.xTimerQueue,"aw",%nobits
 1840              		.align	2
 1841              		.set	.LANCHOR2,. + 0
 1844              	xTimerQueue:
 1845 0000 00000000 		.space	4
 1846              		.section	.bss.xTimerTaskHandle,"aw",%nobits
 1847              		.align	2
 1848              		.set	.LANCHOR5,. + 0
 1851              	xTimerTaskHandle:
 1852 0000 00000000 		.space	4
 1853              		.text
 1854              	.Letext0:
 1855              		.file 2 "c:\\program files (x86)\\gnu tools arm embedded\\9 2019-q4-major\\arm-none-eabi\\include\
 1856              		.file 3 "c:\\program files (x86)\\gnu tools arm embedded\\9 2019-q4-major\\arm-none-eabi\\include\
 1857              		.file 4 "c:\\program files (x86)\\gnu tools arm embedded\\9 2019-q4-major\\arm-none-eabi\\include\
 1858              		.file 5 "c:\\program files (x86)\\gnu tools arm embedded\\9 2019-q4-major\\lib\\gcc\\arm-none-eabi
 1859              		.file 6 "c:\\program files (x86)\\gnu tools arm embedded\\9 2019-q4-major\\arm-none-eabi\\include\
 1860              		.file 7 "c:\\program files (x86)\\gnu tools arm embedded\\9 2019-q4-major\\arm-none-eabi\\include\
 1861              		.file 8 "c:\\program files (x86)\\gnu tools arm embedded\\9 2019-q4-major\\arm-none-eabi\\include\
 1862              		.file 9 "../../../core/platform/octa/inc/FreeRTOSConfig.h"
 1863              		.file 10 "../../../core/ST/Middlewares/Third_Party/FreeRTOS/Source/portable/GCC/ARM_CM4F/portmacro
 1864              		.file 11 "../../../core/ST/Middlewares/Third_Party/FreeRTOS/Source/include/list.h"
 1865              		.file 12 "../../../core/ST/Middlewares/Third_Party/FreeRTOS/Source/include/task.h"
 1866              		.file 13 "../../../core/ST/Middlewares/Third_Party/FreeRTOS/Source/include/queue.h"
 1867              		.file 14 "../../../core/ST/Middlewares/Third_Party/FreeRTOS/Source/include/timers.h"
 1868              		.file 15 "../../../core/ST/Middlewares/Third_Party/FreeRTOS/Source/include/portable.h"
ARM GAS  C:\Users\tomra\AppData\Local\Temp\ccsXPgWC.s 			page 58


DEFINED SYMBOLS
                            *ABS*:00000000 timers.c
C:\Users\tomra\AppData\Local\Temp\ccsXPgWC.s:18     .text.prvGetNextExpireTime:00000000 $t
C:\Users\tomra\AppData\Local\Temp\ccsXPgWC.s:25     .text.prvGetNextExpireTime:00000000 prvGetNextExpireTime
C:\Users\tomra\AppData\Local\Temp\ccsXPgWC.s:66     .text.prvGetNextExpireTime:0000001c $d
C:\Users\tomra\AppData\Local\Temp\ccsXPgWC.s:71     .text.prvInsertTimerInActiveList:00000000 $t
C:\Users\tomra\AppData\Local\Temp\ccsXPgWC.s:77     .text.prvInsertTimerInActiveList:00000000 prvInsertTimerInActiveList
C:\Users\tomra\AppData\Local\Temp\ccsXPgWC.s:167    .text.prvInsertTimerInActiveList:00000040 $d
C:\Users\tomra\AppData\Local\Temp\ccsXPgWC.s:173    .rodata.prvCheckForValidListAndQueue.str1.4:00000000 $d
C:\Users\tomra\AppData\Local\Temp\ccsXPgWC.s:177    .text.prvCheckForValidListAndQueue:00000000 $t
C:\Users\tomra\AppData\Local\Temp\ccsXPgWC.s:183    .text.prvCheckForValidListAndQueue:00000000 prvCheckForValidListAndQueue
C:\Users\tomra\AppData\Local\Temp\ccsXPgWC.s:253    .text.prvCheckForValidListAndQueue:00000044 $d
C:\Users\tomra\AppData\Local\Temp\ccsXPgWC.s:263    .rodata.prvInitialiseNewTimer.str1.4:00000000 $d
C:\Users\tomra\AppData\Local\Temp\ccsXPgWC.s:268    .text.prvInitialiseNewTimer:00000000 $t
C:\Users\tomra\AppData\Local\Temp\ccsXPgWC.s:274    .text.prvInitialiseNewTimer:00000000 prvInitialiseNewTimer
C:\Users\tomra\AppData\Local\Temp\ccsXPgWC.s:347    .text.prvInitialiseNewTimer:0000003c $d
C:\Users\tomra\AppData\Local\Temp\ccsXPgWC.s:353    .rodata.xTimerCreateTimerTask.str1.4:00000000 $d
C:\Users\tomra\AppData\Local\Temp\ccsXPgWC.s:357    .text.xTimerCreateTimerTask:00000000 $t
C:\Users\tomra\AppData\Local\Temp\ccsXPgWC.s:364    .text.xTimerCreateTimerTask:00000000 xTimerCreateTimerTask
C:\Users\tomra\AppData\Local\Temp\ccsXPgWC.s:434    .text.xTimerCreateTimerTask:0000003c $d
C:\Users\tomra\AppData\Local\Temp\ccsXPgWC.s:1324   .text.prvTimerTask:00000000 prvTimerTask
C:\Users\tomra\AppData\Local\Temp\ccsXPgWC.s:443    .text.xTimerCreate:00000000 $t
C:\Users\tomra\AppData\Local\Temp\ccsXPgWC.s:450    .text.xTimerCreate:00000000 xTimerCreate
C:\Users\tomra\AppData\Local\Temp\ccsXPgWC.s:512    .text.xTimerGenericCommand:00000000 $t
C:\Users\tomra\AppData\Local\Temp\ccsXPgWC.s:519    .text.xTimerGenericCommand:00000000 xTimerGenericCommand
C:\Users\tomra\AppData\Local\Temp\ccsXPgWC.s:644    .text.xTimerGenericCommand:00000064 $d
C:\Users\tomra\AppData\Local\Temp\ccsXPgWC.s:650    .text.prvSwitchTimerLists:00000000 $t
C:\Users\tomra\AppData\Local\Temp\ccsXPgWC.s:656    .text.prvSwitchTimerLists:00000000 prvSwitchTimerLists
C:\Users\tomra\AppData\Local\Temp\ccsXPgWC.s:788    .text.prvSwitchTimerLists:0000006c $d
C:\Users\tomra\AppData\Local\Temp\ccsXPgWC.s:795    .text.prvSampleTimeNow:00000000 $t
C:\Users\tomra\AppData\Local\Temp\ccsXPgWC.s:801    .text.prvSampleTimeNow:00000000 prvSampleTimeNow
C:\Users\tomra\AppData\Local\Temp\ccsXPgWC.s:860    .text.prvSampleTimeNow:00000028 $d
C:\Users\tomra\AppData\Local\Temp\ccsXPgWC.s:865    .text.prvProcessExpiredTimer:00000000 $t
C:\Users\tomra\AppData\Local\Temp\ccsXPgWC.s:871    .text.prvProcessExpiredTimer:00000000 prvProcessExpiredTimer
C:\Users\tomra\AppData\Local\Temp\ccsXPgWC.s:971    .text.prvProcessExpiredTimer:00000058 $d
C:\Users\tomra\AppData\Local\Temp\ccsXPgWC.s:978    .text.prvProcessTimerOrBlockTask:00000000 $t
C:\Users\tomra\AppData\Local\Temp\ccsXPgWC.s:984    .text.prvProcessTimerOrBlockTask:00000000 prvProcessTimerOrBlockTask
C:\Users\tomra\AppData\Local\Temp\ccsXPgWC.s:1103   .text.prvProcessTimerOrBlockTask:00000068 $d
C:\Users\tomra\AppData\Local\Temp\ccsXPgWC.s:1110   .text.prvProcessReceivedCommands:00000000 $t
C:\Users\tomra\AppData\Local\Temp\ccsXPgWC.s:1116   .text.prvProcessReceivedCommands:00000000 prvProcessReceivedCommands
C:\Users\tomra\AppData\Local\Temp\ccsXPgWC.s:1187   .text.prvProcessReceivedCommands:0000003c $d
C:\Users\tomra\AppData\Local\Temp\ccsXPgWC.s:1197   .text.prvProcessReceivedCommands:00000064 $t
C:\Users\tomra\AppData\Local\Temp\ccsXPgWC.s:1312   .text.prvProcessReceivedCommands:000000d4 $d
C:\Users\tomra\AppData\Local\Temp\ccsXPgWC.s:1318   .text.prvTimerTask:00000000 $t
C:\Users\tomra\AppData\Local\Temp\ccsXPgWC.s:1363   .text.xTimerGetTimerDaemonTaskHandle:00000000 $t
C:\Users\tomra\AppData\Local\Temp\ccsXPgWC.s:1370   .text.xTimerGetTimerDaemonTaskHandle:00000000 xTimerGetTimerDaemonTaskHandle
C:\Users\tomra\AppData\Local\Temp\ccsXPgWC.s:1402   .text.xTimerGetTimerDaemonTaskHandle:0000001c $d
C:\Users\tomra\AppData\Local\Temp\ccsXPgWC.s:1409   .text.xTimerGetPeriod:00000000 $t
C:\Users\tomra\AppData\Local\Temp\ccsXPgWC.s:1416   .text.xTimerGetPeriod:00000000 xTimerGetPeriod
C:\Users\tomra\AppData\Local\Temp\ccsXPgWC.s:1454   .text.xTimerGetPeriod:00000018 $d
C:\Users\tomra\AppData\Local\Temp\ccsXPgWC.s:1460   .text.xTimerGetExpiryTime:00000000 $t
C:\Users\tomra\AppData\Local\Temp\ccsXPgWC.s:1467   .text.xTimerGetExpiryTime:00000000 xTimerGetExpiryTime
C:\Users\tomra\AppData\Local\Temp\ccsXPgWC.s:1507   .text.xTimerGetExpiryTime:00000018 $d
C:\Users\tomra\AppData\Local\Temp\ccsXPgWC.s:1513   .text.pcTimerGetName:00000000 $t
C:\Users\tomra\AppData\Local\Temp\ccsXPgWC.s:1520   .text.pcTimerGetName:00000000 pcTimerGetName
C:\Users\tomra\AppData\Local\Temp\ccsXPgWC.s:1558   .text.pcTimerGetName:00000018 $d
C:\Users\tomra\AppData\Local\Temp\ccsXPgWC.s:1564   .text.xTimerIsTimerActive:00000000 $t
ARM GAS  C:\Users\tomra\AppData\Local\Temp\ccsXPgWC.s 			page 59


C:\Users\tomra\AppData\Local\Temp\ccsXPgWC.s:1571   .text.xTimerIsTimerActive:00000000 xTimerIsTimerActive
C:\Users\tomra\AppData\Local\Temp\ccsXPgWC.s:1625   .text.xTimerIsTimerActive:00000028 $d
C:\Users\tomra\AppData\Local\Temp\ccsXPgWC.s:1631   .text.pvTimerGetTimerID:00000000 $t
C:\Users\tomra\AppData\Local\Temp\ccsXPgWC.s:1638   .text.pvTimerGetTimerID:00000000 pvTimerGetTimerID
C:\Users\tomra\AppData\Local\Temp\ccsXPgWC.s:1687   .text.pvTimerGetTimerID:00000020 $d
C:\Users\tomra\AppData\Local\Temp\ccsXPgWC.s:1693   .text.vTimerSetTimerID:00000000 $t
C:\Users\tomra\AppData\Local\Temp\ccsXPgWC.s:1700   .text.vTimerSetTimerID:00000000 vTimerSetTimerID
C:\Users\tomra\AppData\Local\Temp\ccsXPgWC.s:1750   .text.vTimerSetTimerID:00000020 $d
C:\Users\tomra\AppData\Local\Temp\ccsXPgWC.s:1756   .text.uxTimerGetTimerNumber:00000000 $t
C:\Users\tomra\AppData\Local\Temp\ccsXPgWC.s:1763   .text.uxTimerGetTimerNumber:00000000 uxTimerGetTimerNumber
C:\Users\tomra\AppData\Local\Temp\ccsXPgWC.s:1781   .text.vTimerSetTimerNumber:00000000 $t
C:\Users\tomra\AppData\Local\Temp\ccsXPgWC.s:1788   .text.vTimerSetTimerNumber:00000000 vTimerSetTimerNumber
C:\Users\tomra\AppData\Local\Temp\ccsXPgWC.s:1805   .bss.pxCurrentTimerList:00000000 $d
C:\Users\tomra\AppData\Local\Temp\ccsXPgWC.s:1809   .bss.pxCurrentTimerList:00000000 pxCurrentTimerList
C:\Users\tomra\AppData\Local\Temp\ccsXPgWC.s:1812   .bss.pxOverflowTimerList:00000000 $d
C:\Users\tomra\AppData\Local\Temp\ccsXPgWC.s:1816   .bss.pxOverflowTimerList:00000000 pxOverflowTimerList
C:\Users\tomra\AppData\Local\Temp\ccsXPgWC.s:1819   .bss.xActiveTimerList1:00000000 $d
C:\Users\tomra\AppData\Local\Temp\ccsXPgWC.s:1823   .bss.xActiveTimerList1:00000000 xActiveTimerList1
C:\Users\tomra\AppData\Local\Temp\ccsXPgWC.s:1826   .bss.xActiveTimerList2:00000000 $d
C:\Users\tomra\AppData\Local\Temp\ccsXPgWC.s:1830   .bss.xActiveTimerList2:00000000 xActiveTimerList2
C:\Users\tomra\AppData\Local\Temp\ccsXPgWC.s:1833   .bss.xLastTime.6830:00000000 $d
C:\Users\tomra\AppData\Local\Temp\ccsXPgWC.s:1837   .bss.xLastTime.6830:00000000 xLastTime.6830
C:\Users\tomra\AppData\Local\Temp\ccsXPgWC.s:1840   .bss.xTimerQueue:00000000 $d
C:\Users\tomra\AppData\Local\Temp\ccsXPgWC.s:1844   .bss.xTimerQueue:00000000 xTimerQueue
C:\Users\tomra\AppData\Local\Temp\ccsXPgWC.s:1847   .bss.xTimerTaskHandle:00000000 $d
C:\Users\tomra\AppData\Local\Temp\ccsXPgWC.s:1851   .bss.xTimerTaskHandle:00000000 xTimerTaskHandle

UNDEFINED SYMBOLS
vListInsert
vPortEnterCritical
vPortExitCritical
vListInitialise
xQueueGenericCreate
vQueueAddToRegistry
vListInitialiseItem
assert_failed
xTaskCreate
pvPortMalloc
xTaskGetSchedulerState
xQueueGenericSend
xQueueGenericSendFromISR
uxListRemove
xTaskGetTickCount
vTaskSuspendAll
vQueueWaitForMessageRestricted
xTaskResumeAll
xQueueReceive
vPortFree
