ARM GAS  C:\Users\tomra\AppData\Local\Temp\ccZftyXh.s 			page 1


   1              		.cpu cortex-m4
   2              		.eabi_attribute 27, 1
   3              		.eabi_attribute 28, 1
   4              		.eabi_attribute 20, 1
   5              		.eabi_attribute 21, 1
   6              		.eabi_attribute 23, 3
   7              		.eabi_attribute 24, 1
   8              		.eabi_attribute 25, 1
   9              		.eabi_attribute 26, 1
  10              		.eabi_attribute 30, 1
  11              		.eabi_attribute 34, 1
  12              		.eabi_attribute 18, 4
  13              		.file	"dns.c"
  14              		.text
  15              	.Ltext0:
  16              		.cfi_sections	.debug_frame
  17              		.section	.text.generateRequest,"ax",%progbits
  18              		.align	1
  19              		.global	generateRequest
  20              		.arch armv7e-m
  21              		.syntax unified
  22              		.thumb
  23              		.thumb_func
  24              		.fpu fpv4-sp-d16
  26              	generateRequest:
  27              	.LVL0:
  28              	.LFB131:
  29              		.file 1 "../../../core/drivers/DNS/src/dns.c"
   1:../../../core/drivers/DNS/src/dns.c **** #include "dns.h"
   2:../../../core/drivers/DNS/src/dns.c **** #include "platform.h"
   3:../../../core/drivers/DNS/src/dns.c **** #include "string.h" //for strlen
   4:../../../core/drivers/DNS/src/dns.c **** #include "stdlib.h" //for malloc
   5:../../../core/drivers/DNS/src/dns.c **** #include "stdio.h" //for sprintf
   6:../../../core/drivers/DNS/src/dns.c **** 
   7:../../../core/drivers/DNS/src/dns.c **** uint8_t* generateRequest(char *host, uint16_t* length)
   8:../../../core/drivers/DNS/src/dns.c **** {
  30              		.loc 1 8 1 view -0
  31              		.cfi_startproc
  32              		@ args = 0, pretend = 0, frame = 0
  33              		@ frame_needed = 0, uses_anonymous_args = 0
  34              		.loc 1 8 1 is_stmt 0 view .LVU1
  35 0000 F8B5     		push	{r3, r4, r5, r6, r7, lr}
  36              	.LCFI0:
  37              		.cfi_def_cfa_offset 24
  38              		.cfi_offset 3, -24
  39              		.cfi_offset 4, -20
  40              		.cfi_offset 5, -16
  41              		.cfi_offset 6, -12
  42              		.cfi_offset 7, -8
  43              		.cfi_offset 14, -4
  44 0002 0646     		mov	r6, r0
  45 0004 0C46     		mov	r4, r1
   9:../../../core/drivers/DNS/src/dns.c **** 	*length = strlen(host) + 4 + DNS_HEADER_LENGTH + 2; // 1 extra byte in front and after the host st
  46              		.loc 1 9 2 is_stmt 1 view .LVU2
  47              		.loc 1 9 12 is_stmt 0 view .LVU3
  48 0006 FFF7FEFF 		bl	strlen
  49              	.LVL1:
ARM GAS  C:\Users\tomra\AppData\Local\Temp\ccZftyXh.s 			page 2


  50              		.loc 1 9 49 view .LVU4
  51 000a 1230     		adds	r0, r0, #18
  52 000c 80B2     		uxth	r0, r0
  53              		.loc 1 9 10 view .LVU5
  54 000e 2080     		strh	r0, [r4]	@ movhi
  10:../../../core/drivers/DNS/src/dns.c **** 	uint8_t* buf = malloc(*length);
  55              		.loc 1 10 2 is_stmt 1 view .LVU6
  56              		.loc 1 10 17 is_stmt 0 view .LVU7
  57 0010 FFF7FEFF 		bl	malloc
  58              	.LVL2:
  59 0014 0546     		mov	r5, r0
  60              	.LVL3:
  11:../../../core/drivers/DNS/src/dns.c **** 	
  12:../../../core/drivers/DNS/src/dns.c **** 	buf[0] = 0x12;	// ID (part 1)
  61              		.loc 1 12 2 is_stmt 1 view .LVU8
  62              		.loc 1 12 9 is_stmt 0 view .LVU9
  63 0016 1223     		movs	r3, #18
  64 0018 0370     		strb	r3, [r0]
  13:../../../core/drivers/DNS/src/dns.c **** 	buf[1] = 0x34;	// ID (part 2)
  65              		.loc 1 13 2 is_stmt 1 view .LVU10
  66              		.loc 1 13 9 is_stmt 0 view .LVU11
  67 001a 3423     		movs	r3, #52
  68 001c 4370     		strb	r3, [r0, #1]
  14:../../../core/drivers/DNS/src/dns.c **** 	buf[2] = 0x01;	// Recursion desired
  69              		.loc 1 14 2 is_stmt 1 view .LVU12
  70              		.loc 1 14 9 is_stmt 0 view .LVU13
  71 001e 0122     		movs	r2, #1
  72 0020 8270     		strb	r2, [r0, #2]
  15:../../../core/drivers/DNS/src/dns.c **** 	buf[3] = 0x00;	// flags
  73              		.loc 1 15 2 is_stmt 1 view .LVU14
  74              		.loc 1 15 9 is_stmt 0 view .LVU15
  75 0022 0023     		movs	r3, #0
  76 0024 C370     		strb	r3, [r0, #3]
  16:../../../core/drivers/DNS/src/dns.c **** 	buf[4] = 0x00;	// Questions (part 1)
  77              		.loc 1 16 2 is_stmt 1 view .LVU16
  78              		.loc 1 16 9 is_stmt 0 view .LVU17
  79 0026 0371     		strb	r3, [r0, #4]
  17:../../../core/drivers/DNS/src/dns.c **** 	buf[5] = 0x01;	// Questions (part 2)
  80              		.loc 1 17 2 is_stmt 1 view .LVU18
  81              		.loc 1 17 9 is_stmt 0 view .LVU19
  82 0028 4271     		strb	r2, [r0, #5]
  18:../../../core/drivers/DNS/src/dns.c **** 	buf[6] = 0x00;	// Answers (part 1)
  83              		.loc 1 18 2 is_stmt 1 view .LVU20
  84              		.loc 1 18 9 is_stmt 0 view .LVU21
  85 002a 8371     		strb	r3, [r0, #6]
  19:../../../core/drivers/DNS/src/dns.c **** 	buf[7] = 0x00;	// Answers (part 2)
  86              		.loc 1 19 2 is_stmt 1 view .LVU22
  87              		.loc 1 19 9 is_stmt 0 view .LVU23
  88 002c C371     		strb	r3, [r0, #7]
  20:../../../core/drivers/DNS/src/dns.c **** 	buf[8] = 0x00;	// Authority RR (part 1)
  89              		.loc 1 20 2 is_stmt 1 view .LVU24
  90              		.loc 1 20 9 is_stmt 0 view .LVU25
  91 002e 0372     		strb	r3, [r0, #8]
  21:../../../core/drivers/DNS/src/dns.c **** 	buf[9] = 0x00;	// Authority RR (part 2)
  92              		.loc 1 21 2 is_stmt 1 view .LVU26
  93              		.loc 1 21 9 is_stmt 0 view .LVU27
  94 0030 4372     		strb	r3, [r0, #9]
ARM GAS  C:\Users\tomra\AppData\Local\Temp\ccZftyXh.s 			page 3


  22:../../../core/drivers/DNS/src/dns.c **** 	buf[10] = 0x00;	// Additional RR (part 1)
  95              		.loc 1 22 2 is_stmt 1 view .LVU28
  96              		.loc 1 22 10 is_stmt 0 view .LVU29
  97 0032 8372     		strb	r3, [r0, #10]
  23:../../../core/drivers/DNS/src/dns.c **** 	buf[11] = 0x00;	// Additional RR (part 2)
  98              		.loc 1 23 2 is_stmt 1 view .LVU30
  99              		.loc 1 23 10 is_stmt 0 view .LVU31
 100 0034 C372     		strb	r3, [r0, #11]
  24:../../../core/drivers/DNS/src/dns.c **** 
  25:../../../core/drivers/DNS/src/dns.c **** 	int i = DNS_HEADER_LENGTH;
 101              		.loc 1 25 2 is_stmt 1 view .LVU32
 102              	.LVL4:
  26:../../../core/drivers/DNS/src/dns.c **** 	int count = 0;
 103              		.loc 1 26 2 view .LVU33
  27:../../../core/drivers/DNS/src/dns.c **** 	int len_pos;
 104              		.loc 1 27 2 view .LVU34
  28:../../../core/drivers/DNS/src/dns.c **** 	
  29:../../../core/drivers/DNS/src/dns.c **** 	while (i < DNS_HEADER_LENGTH + strlen(host)) {
 105              		.loc 1 29 2 view .LVU35
  25:../../../core/drivers/DNS/src/dns.c **** 	int count = 0;
 106              		.loc 1 25 6 is_stmt 0 view .LVU36
 107 0036 0C24     		movs	r4, #12
 108              	.LVL5:
 109              		.loc 1 29 8 view .LVU37
 110 0038 01E0     		b	.L2
 111              	.LVL6:
 112              	.L3:
  30:../../../core/drivers/DNS/src/dns.c **** 		len_pos = i;
  31:../../../core/drivers/DNS/src/dns.c **** 		count = 0;
  32:../../../core/drivers/DNS/src/dns.c **** 
  33:../../../core/drivers/DNS/src/dns.c **** 		while (host[i - DNS_HEADER_LENGTH] && host[i - DNS_HEADER_LENGTH] != '.') {
  34:../../../core/drivers/DNS/src/dns.c **** 			buf[i + 1] = host[i - DNS_HEADER_LENGTH];
  35:../../../core/drivers/DNS/src/dns.c **** 			++i;
  36:../../../core/drivers/DNS/src/dns.c **** 			++count;
  37:../../../core/drivers/DNS/src/dns.c **** 		}
  38:../../../core/drivers/DNS/src/dns.c **** 		buf[len_pos] = count;
 113              		.loc 1 38 3 is_stmt 1 view .LVU38
 114              		.loc 1 38 16 is_stmt 0 view .LVU39
 115 003a E955     		strb	r1, [r5, r7]
  39:../../../core/drivers/DNS/src/dns.c **** 		++i;
 116              		.loc 1 39 3 is_stmt 1 view .LVU40
 117 003c 0134     		adds	r4, r4, #1
 118              	.LVL7:
 119              	.L2:
  29:../../../core/drivers/DNS/src/dns.c **** 		len_pos = i;
 120              		.loc 1 29 8 view .LVU41
  29:../../../core/drivers/DNS/src/dns.c **** 		len_pos = i;
 121              		.loc 1 29 33 is_stmt 0 view .LVU42
 122 003e 3046     		mov	r0, r6
 123 0040 FFF7FEFF 		bl	strlen
 124              	.LVL8:
  29:../../../core/drivers/DNS/src/dns.c **** 		len_pos = i;
 125              		.loc 1 29 31 view .LVU43
 126 0044 0C30     		adds	r0, r0, #12
  29:../../../core/drivers/DNS/src/dns.c **** 		len_pos = i;
 127              		.loc 1 29 11 view .LVU44
 128 0046 2746     		mov	r7, r4
ARM GAS  C:\Users\tomra\AppData\Local\Temp\ccZftyXh.s 			page 4


  29:../../../core/drivers/DNS/src/dns.c **** 		len_pos = i;
 129              		.loc 1 29 8 view .LVU45
 130 0048 A042     		cmp	r0, r4
 131 004a 0DD9     		bls	.L8
  31:../../../core/drivers/DNS/src/dns.c **** 
 132              		.loc 1 31 9 view .LVU46
 133 004c 0021     		movs	r1, #0
 134              	.L5:
 135              	.LVL9:
  33:../../../core/drivers/DNS/src/dns.c **** 			buf[i + 1] = host[i - DNS_HEADER_LENGTH];
 136              		.loc 1 33 9 is_stmt 1 view .LVU47
  33:../../../core/drivers/DNS/src/dns.c **** 			buf[i + 1] = host[i - DNS_HEADER_LENGTH];
 137              		.loc 1 33 14 is_stmt 0 view .LVU48
 138 004e 2246     		mov	r2, r4
 139 0050 3319     		adds	r3, r6, r4
 140 0052 13F80C3C 		ldrb	r3, [r3, #-12]	@ zero_extendqisi2
  33:../../../core/drivers/DNS/src/dns.c **** 			buf[i + 1] = host[i - DNS_HEADER_LENGTH];
 141              		.loc 1 33 9 view .LVU49
 142 0056 002B     		cmp	r3, #0
 143 0058 EFD0     		beq	.L3
 144              	.LVL10:
  33:../../../core/drivers/DNS/src/dns.c **** 			buf[i + 1] = host[i - DNS_HEADER_LENGTH];
 145              		.loc 1 33 38 discriminator 1 view .LVU50
 146 005a 2E2B     		cmp	r3, #46
 147 005c EDD0     		beq	.L3
  34:../../../core/drivers/DNS/src/dns.c **** 			++i;
 148              		.loc 1 34 4 is_stmt 1 view .LVU51
  34:../../../core/drivers/DNS/src/dns.c **** 			++i;
 149              		.loc 1 34 7 is_stmt 0 view .LVU52
 150 005e 0132     		adds	r2, r2, #1
 151              	.LVL11:
  34:../../../core/drivers/DNS/src/dns.c **** 			++i;
 152              		.loc 1 34 15 view .LVU53
 153 0060 AB54     		strb	r3, [r5, r2]
  35:../../../core/drivers/DNS/src/dns.c **** 			++count;
 154              		.loc 1 35 4 is_stmt 1 view .LVU54
 155 0062 0134     		adds	r4, r4, #1
 156              	.LVL12:
  36:../../../core/drivers/DNS/src/dns.c **** 		}
 157              		.loc 1 36 4 view .LVU55
 158 0064 0131     		adds	r1, r1, #1
 159              	.LVL13:
  36:../../../core/drivers/DNS/src/dns.c **** 		}
 160              		.loc 1 36 4 is_stmt 0 view .LVU56
 161 0066 F2E7     		b	.L5
 162              	.LVL14:
 163              	.L8:
  40:../../../core/drivers/DNS/src/dns.c **** 	}
  41:../../../core/drivers/DNS/src/dns.c **** 
  42:../../../core/drivers/DNS/src/dns.c **** 	buf[i] = 0x00;
 164              		.loc 1 42 2 is_stmt 1 view .LVU57
 165              		.loc 1 42 9 is_stmt 0 view .LVU58
 166 0068 0023     		movs	r3, #0
 167 006a 2B55     		strb	r3, [r5, r4]
  43:../../../core/drivers/DNS/src/dns.c **** 	buf[i+1] = 0x00;
 168              		.loc 1 43 2 is_stmt 1 view .LVU59
 169              		.loc 1 43 5 is_stmt 0 view .LVU60
ARM GAS  C:\Users\tomra\AppData\Local\Temp\ccZftyXh.s 			page 5


 170 006c 621C     		adds	r2, r4, #1
 171              		.loc 1 43 11 view .LVU61
 172 006e AB54     		strb	r3, [r5, r2]
  44:../../../core/drivers/DNS/src/dns.c **** 	buf[i+2] = 0x01;	// A record
 173              		.loc 1 44 2 is_stmt 1 view .LVU62
 174              		.loc 1 44 5 is_stmt 0 view .LVU63
 175 0070 A11C     		adds	r1, r4, #2
 176              		.loc 1 44 11 view .LVU64
 177 0072 0122     		movs	r2, #1
 178 0074 6A54     		strb	r2, [r5, r1]
  45:../../../core/drivers/DNS/src/dns.c **** 	buf[i+3] = 0x00;
 179              		.loc 1 45 2 is_stmt 1 view .LVU65
 180              		.loc 1 45 5 is_stmt 0 view .LVU66
 181 0076 E11C     		adds	r1, r4, #3
 182              		.loc 1 45 11 view .LVU67
 183 0078 6B54     		strb	r3, [r5, r1]
  46:../../../core/drivers/DNS/src/dns.c **** 	buf[i+4] = 0x01;	// Class: IN
 184              		.loc 1 46 2 is_stmt 1 view .LVU68
 185              		.loc 1 46 5 is_stmt 0 view .LVU69
 186 007a 0437     		adds	r7, r7, #4
 187              		.loc 1 46 11 view .LVU70
 188 007c EA55     		strb	r2, [r5, r7]
  47:../../../core/drivers/DNS/src/dns.c **** 
  48:../../../core/drivers/DNS/src/dns.c **** 	return buf;
 189              		.loc 1 48 2 is_stmt 1 view .LVU71
  49:../../../core/drivers/DNS/src/dns.c **** }
 190              		.loc 1 49 1 is_stmt 0 view .LVU72
 191 007e 2846     		mov	r0, r5
 192 0080 F8BD     		pop	{r3, r4, r5, r6, r7, pc}
 193              		.loc 1 49 1 view .LVU73
 194              		.cfi_endproc
 195              	.LFE131:
 197              		.section	.rodata.parseReply.str1.4,"aMS",%progbits,1
 198              		.align	2
 199              	.LC0:
 200 0000 54686520 		.ascii	"The DNS reply contains an A record.\015\012\000"
 200      444E5320 
 200      7265706C 
 200      7920636F 
 200      6E746169 
 201 0026 0000     		.align	2
 202              	.LC1:
 203 0028 256400   		.ascii	"%d\000"
 204 002b 00       		.align	2
 205              	.LC2:
 206 002c 54686520 		.ascii	"The DNS reply contains an CNAME record.\015\012\000"
 206      444E5320 
 206      7265706C 
 206      7920636F 
 206      6E746169 
 207 0056 0000     		.align	2
 208              	.LC3:
 209 0058 556E6B6E 		.ascii	"Unknown DNS answer type '%x' received in reply. Abo"
 209      6F776E20 
 209      444E5320 
 209      616E7377 
 209      65722074 
ARM GAS  C:\Users\tomra\AppData\Local\Temp\ccZftyXh.s 			page 6


 210 008b 7274696E 		.ascii	"rting\015\012\000"
 210      670D0A00 
 211              		.section	.text.parseReply,"ax",%progbits
 212              		.align	1
 213              		.global	parseReply
 214              		.syntax unified
 215              		.thumb
 216              		.thumb_func
 217              		.fpu fpv4-sp-d16
 219              	parseReply:
 220              	.LVL15:
 221              	.LFB132:
  50:../../../core/drivers/DNS/src/dns.c **** 
  51:../../../core/drivers/DNS/src/dns.c **** char* parseReply(uint8_t* reply, const uint16_t length) {
 222              		.loc 1 51 57 is_stmt 1 view -0
 223              		.cfi_startproc
 224              		@ args = 0, pretend = 0, frame = 16
 225              		@ frame_needed = 0, uses_anonymous_args = 0
 226              		.loc 1 51 57 is_stmt 0 view .LVU75
 227 0000 2DE9F04F 		push	{r4, r5, r6, r7, r8, r9, r10, fp, lr}
 228              	.LCFI1:
 229              		.cfi_def_cfa_offset 36
 230              		.cfi_offset 4, -36
 231              		.cfi_offset 5, -32
 232              		.cfi_offset 6, -28
 233              		.cfi_offset 7, -24
 234              		.cfi_offset 8, -20
 235              		.cfi_offset 9, -16
 236              		.cfi_offset 10, -12
 237              		.cfi_offset 11, -8
 238              		.cfi_offset 14, -4
 239 0004 85B0     		sub	sp, sp, #20
 240              	.LCFI2:
 241              		.cfi_def_cfa_offset 56
 242 0006 0546     		mov	r5, r0
 243 0008 8846     		mov	r8, r1
  52:../../../core/drivers/DNS/src/dns.c **** 	char* address = malloc(16);
 244              		.loc 1 52 2 is_stmt 1 view .LVU76
 245              		.loc 1 52 18 is_stmt 0 view .LVU77
 246 000a 1020     		movs	r0, #16
 247              	.LVL16:
 248              		.loc 1 52 18 view .LVU78
 249 000c FFF7FEFF 		bl	malloc
 250              	.LVL17:
  53:../../../core/drivers/DNS/src/dns.c **** 	
  54:../../../core/drivers/DNS/src/dns.c **** 	int i = 12;
 251              		.loc 1 54 2 is_stmt 1 view .LVU79
  55:../../../core/drivers/DNS/src/dns.c **** 	int j = 0;
 252              		.loc 1 55 2 view .LVU80
  56:../../../core/drivers/DNS/src/dns.c **** 
  57:../../../core/drivers/DNS/src/dns.c **** 	if (length < 4 || reply[3] & 15) {
 253              		.loc 1 57 2 view .LVU81
 254              		.loc 1 57 5 is_stmt 0 view .LVU82
 255 0010 B8F1030F 		cmp	r8, #3
 256 0014 69D9     		bls	.L27
 257 0016 8246     		mov	r10, r0
 258              		.loc 1 57 25 discriminator 1 view .LVU83
ARM GAS  C:\Users\tomra\AppData\Local\Temp\ccZftyXh.s 			page 7


 259 0018 EB78     		ldrb	r3, [r5, #3]	@ zero_extendqisi2
 260              		.loc 1 57 17 discriminator 1 view .LVU84
 261 001a 13F00F0F 		tst	r3, #15
 262 001e 67D1     		bne	.L28
  55:../../../core/drivers/DNS/src/dns.c **** 	int j = 0;
 263              		.loc 1 55 6 view .LVU85
 264 0020 4FF00009 		mov	r9, #0
  54:../../../core/drivers/DNS/src/dns.c **** 	int j = 0;
 265              		.loc 1 54 6 view .LVU86
 266 0024 0C24     		movs	r4, #12
 267 0026 01E0     		b	.L11
 268              	.LVL18:
 269              	.L33:
 270              	.LBB2:
  58:../../../core/drivers/DNS/src/dns.c **** 		// DNS response did not contain a valid answer
  59:../../../core/drivers/DNS/src/dns.c **** 		return 0;
  60:../../../core/drivers/DNS/src/dns.c **** 	}
  61:../../../core/drivers/DNS/src/dns.c **** 
  62:../../../core/drivers/DNS/src/dns.c **** 	while (i < length) {
  63:../../../core/drivers/DNS/src/dns.c **** 		// Jump over the query to the answer
  64:../../../core/drivers/DNS/src/dns.c **** 		int jump = reply[i];
  65:../../../core/drivers/DNS/src/dns.c **** 		
  66:../../../core/drivers/DNS/src/dns.c **** 		if (jump) {
  67:../../../core/drivers/DNS/src/dns.c **** 			i += jump + 1;
 271              		.loc 1 67 4 is_stmt 1 view .LVU87
 272              		.loc 1 67 14 is_stmt 0 view .LVU88
 273 0028 0136     		adds	r6, r6, #1
 274              	.LVL19:
 275              		.loc 1 67 6 view .LVU89
 276 002a 3444     		add	r4, r4, r6
 277              	.LVL20:
 278              	.L11:
 279              		.loc 1 67 6 view .LVU90
 280              	.LBE2:
  62:../../../core/drivers/DNS/src/dns.c **** 		// Jump over the query to the answer
 281              		.loc 1 62 8 is_stmt 1 view .LVU91
  62:../../../core/drivers/DNS/src/dns.c **** 		// Jump over the query to the answer
 282              		.loc 1 62 11 is_stmt 0 view .LVU92
 283 002c 4746     		mov	r7, r8
  62:../../../core/drivers/DNS/src/dns.c **** 		// Jump over the query to the answer
 284              		.loc 1 62 8 view .LVU93
 285 002e A045     		cmp	r8, r4
 286 0030 4CDD     		ble	.L32
 287              	.LBB7:
  64:../../../core/drivers/DNS/src/dns.c **** 		
 288              		.loc 1 64 3 is_stmt 1 view .LVU94
  64:../../../core/drivers/DNS/src/dns.c **** 		
 289              		.loc 1 64 19 is_stmt 0 view .LVU95
 290 0032 2E5D     		ldrb	r6, [r5, r4]	@ zero_extendqisi2
 291              	.LVL21:
  66:../../../core/drivers/DNS/src/dns.c **** 			i += jump + 1;
 292              		.loc 1 66 3 is_stmt 1 view .LVU96
  66:../../../core/drivers/DNS/src/dns.c **** 			i += jump + 1;
 293              		.loc 1 66 6 is_stmt 0 view .LVU97
 294 0034 002E     		cmp	r6, #0
 295 0036 F7D1     		bne	.L33
  68:../../../core/drivers/DNS/src/dns.c **** 			} else {
ARM GAS  C:\Users\tomra\AppData\Local\Temp\ccZftyXh.s 			page 8


  69:../../../core/drivers/DNS/src/dns.c **** 				// jump == 0, so that is the mark of the end of the request URL.
  70:../../../core/drivers/DNS/src/dns.c **** 				// 8 bytes further, we find  is the first reply type.
  71:../../../core/drivers/DNS/src/dns.c **** 				// Now, first check if this answer is a CNAME answer (0x05) or an A record (0x01)
  72:../../../core/drivers/DNS/src/dns.c **** 				i += 8;
 296              		.loc 1 72 5 is_stmt 1 view .LVU98
 297              		.loc 1 72 7 is_stmt 0 view .LVU99
 298 0038 0834     		adds	r4, r4, #8
 299              	.LVL22:
  73:../../../core/drivers/DNS/src/dns.c **** 
  74:../../../core/drivers/DNS/src/dns.c **** 				while ( i < length) {
 300              		.loc 1 74 5 is_stmt 1 view .LVU100
 301              		.loc 1 74 11 is_stmt 0 view .LVU101
 302 003a 37E0     		b	.L14
 303              	.L34:
  75:../../../core/drivers/DNS/src/dns.c **** 					if (reply[i] == 0x01) {
  76:../../../core/drivers/DNS/src/dns.c **** 						printDBG("The DNS reply contains an A record.\r\n");
 304              		.loc 1 76 7 is_stmt 1 view .LVU102
 305 003c 2E48     		ldr	r0, .L36
 306 003e FFF7FEFF 		bl	printDBG
 307              	.LVL23:
  77:../../../core/drivers/DNS/src/dns.c **** 						// The  answer is an A record. We will use it to construct the IP address.
  78:../../../core/drivers/DNS/src/dns.c **** 						// Advance 9 bytes (which is the start of the IP address in the answer).
  79:../../../core/drivers/DNS/src/dns.c **** 						i +=9;
 308              		.loc 1 79 7 view .LVU103
 309              		.loc 1 79 9 is_stmt 0 view .LVU104
 310 0042 0934     		adds	r4, r4, #9
 311              	.LVL24:
  80:../../../core/drivers/DNS/src/dns.c **** 
  81:../../../core/drivers/DNS/src/dns.c **** 						for (int k = 0; k < 4; ++k) {
 312              		.loc 1 81 7 is_stmt 1 view .LVU105
 313              	.LBB3:
 314              		.loc 1 81 12 view .LVU106
 315              		.loc 1 81 16 is_stmt 0 view .LVU107
 316 0044 B346     		mov	fp, r6
 317              		.loc 1 81 7 view .LVU108
 318 0046 15E0     		b	.L16
 319              	.LVL25:
 320              	.L19:
 321              	.LBB4:
  82:../../../core/drivers/DNS/src/dns.c **** 							if (i < length) {
  83:../../../core/drivers/DNS/src/dns.c **** 								uint8_t buf[4] = { 0, 0, 0, 0 };
  84:../../../core/drivers/DNS/src/dns.c **** 								int l = 0;
  85:../../../core/drivers/DNS/src/dns.c **** 
  86:../../../core/drivers/DNS/src/dns.c **** 								sprintf(buf, "%d", reply[i++]);
  87:../../../core/drivers/DNS/src/dns.c **** 							
  88:../../../core/drivers/DNS/src/dns.c **** 								// Copy the buffer to the address array
  89:../../../core/drivers/DNS/src/dns.c **** 								while (buf[l]) {
  90:../../../core/drivers/DNS/src/dns.c **** 									address[j++] = buf[l++];
 322              		.loc 1 90 10 is_stmt 1 view .LVU109
 323              		.loc 1 90 30 is_stmt 0 view .LVU110
 324 0048 0133     		adds	r3, r3, #1
 325              	.LVL26:
 326              		.loc 1 90 23 view .LVU111
 327 004a 0AF80920 		strb	r2, [r10, r9]
 328              		.loc 1 90 19 view .LVU112
 329 004e 09F10109 		add	r9, r9, #1
 330              	.LVL27:
ARM GAS  C:\Users\tomra\AppData\Local\Temp\ccZftyXh.s 			page 9


 331              	.L18:
  89:../../../core/drivers/DNS/src/dns.c **** 									address[j++] = buf[l++];
 332              		.loc 1 89 15 is_stmt 1 view .LVU113
  89:../../../core/drivers/DNS/src/dns.c **** 									address[j++] = buf[l++];
 333              		.loc 1 89 19 is_stmt 0 view .LVU114
 334 0052 04AA     		add	r2, sp, #16
 335 0054 1A44     		add	r2, r2, r3
 336 0056 12F8042C 		ldrb	r2, [r2, #-4]	@ zero_extendqisi2
  89:../../../core/drivers/DNS/src/dns.c **** 									address[j++] = buf[l++];
 337              		.loc 1 89 15 view .LVU115
 338 005a 002A     		cmp	r2, #0
 339 005c F4D1     		bne	.L19
  91:../../../core/drivers/DNS/src/dns.c **** 								}
  92:../../../core/drivers/DNS/src/dns.c **** 							
  93:../../../core/drivers/DNS/src/dns.c **** 								if (k < 3){
 340              		.loc 1 93 9 is_stmt 1 view .LVU116
 341              		.loc 1 93 12 is_stmt 0 view .LVU117
 342 005e BBF1020F 		cmp	fp, #2
 343 0062 17DC     		bgt	.L29
  94:../../../core/drivers/DNS/src/dns.c **** 									// Add the '.' in the IP address
  95:../../../core/drivers/DNS/src/dns.c **** 									address[j++] = '.';
 344              		.loc 1 95 10 is_stmt 1 view .LVU118
 345              	.LVL28:
 346              		.loc 1 95 23 is_stmt 0 view .LVU119
 347 0064 2E23     		movs	r3, #46
 348              	.LVL29:
 349              		.loc 1 95 23 view .LVU120
 350 0066 0AF80930 		strb	r3, [r10, r9]
 351              		.loc 1 95 19 view .LVU121
 352 006a 09F10109 		add	r9, r9, #1
 353              	.LVL30:
  86:../../../core/drivers/DNS/src/dns.c **** 							
 354              		.loc 1 86 35 view .LVU122
 355 006e 019C     		ldr	r4, [sp, #4]
 356              	.LVL31:
 357              	.L17:
  86:../../../core/drivers/DNS/src/dns.c **** 							
 358              		.loc 1 86 35 view .LVU123
 359              	.LBE4:
  81:../../../core/drivers/DNS/src/dns.c **** 							if (i < length) {
 360              		.loc 1 81 30 is_stmt 1 discriminator 2 view .LVU124
 361 0070 0BF1010B 		add	fp, fp, #1
 362              	.LVL32:
 363              	.L16:
  81:../../../core/drivers/DNS/src/dns.c **** 							if (i < length) {
 364              		.loc 1 81 23 discriminator 1 view .LVU125
  81:../../../core/drivers/DNS/src/dns.c **** 							if (i < length) {
 365              		.loc 1 81 7 is_stmt 0 discriminator 1 view .LVU126
 366 0074 BBF1030F 		cmp	fp, #3
 367 0078 D8DC     		bgt	.L11
  82:../../../core/drivers/DNS/src/dns.c **** 								uint8_t buf[4] = { 0, 0, 0, 0 };
 368              		.loc 1 82 8 is_stmt 1 view .LVU127
  82:../../../core/drivers/DNS/src/dns.c **** 								uint8_t buf[4] = { 0, 0, 0, 0 };
 369              		.loc 1 82 11 is_stmt 0 view .LVU128
 370 007a A742     		cmp	r7, r4
 371 007c F8DD     		ble	.L17
 372              	.LBB5:
ARM GAS  C:\Users\tomra\AppData\Local\Temp\ccZftyXh.s 			page 10


  83:../../../core/drivers/DNS/src/dns.c **** 								int l = 0;
 373              		.loc 1 83 9 is_stmt 1 view .LVU129
  83:../../../core/drivers/DNS/src/dns.c **** 								int l = 0;
 374              		.loc 1 83 17 is_stmt 0 view .LVU130
 375 007e 0023     		movs	r3, #0
 376 0080 0393     		str	r3, [sp, #12]
  84:../../../core/drivers/DNS/src/dns.c **** 
 377              		.loc 1 84 9 is_stmt 1 view .LVU131
 378              	.LVL33:
  86:../../../core/drivers/DNS/src/dns.c **** 							
 379              		.loc 1 86 9 view .LVU132
  86:../../../core/drivers/DNS/src/dns.c **** 							
 380              		.loc 1 86 35 is_stmt 0 view .LVU133
 381 0082 631C     		adds	r3, r4, #1
 382 0084 0193     		str	r3, [sp, #4]
 383              	.LVL34:
  86:../../../core/drivers/DNS/src/dns.c **** 							
 384              		.loc 1 86 9 view .LVU134
 385 0086 2A5D     		ldrb	r2, [r5, r4]	@ zero_extendqisi2
 386 0088 1C49     		ldr	r1, .L36+4
 387 008a 03A8     		add	r0, sp, #12
 388 008c FFF7FEFF 		bl	sprintf
 389              	.LVL35:
  89:../../../core/drivers/DNS/src/dns.c **** 									address[j++] = buf[l++];
 390              		.loc 1 89 9 is_stmt 1 view .LVU135
  84:../../../core/drivers/DNS/src/dns.c **** 
 391              		.loc 1 84 13 is_stmt 0 view .LVU136
 392 0090 3346     		mov	r3, r6
  89:../../../core/drivers/DNS/src/dns.c **** 									address[j++] = buf[l++];
 393              		.loc 1 89 15 view .LVU137
 394 0092 DEE7     		b	.L18
 395              	.LVL36:
 396              	.L29:
  96:../../../core/drivers/DNS/src/dns.c **** 								} else {
  97:../../../core/drivers/DNS/src/dns.c **** 									i = length;
 397              		.loc 1 97 12 view .LVU138
 398 0094 3C46     		mov	r4, r7
 399              	.LVL37:
 400              		.loc 1 97 12 view .LVU139
 401 0096 EBE7     		b	.L17
 402              	.LVL38:
 403              	.L35:
 404              		.loc 1 97 12 view .LVU140
 405              	.LBE5:
 406              	.LBE3:
 407              	.LBB6:
  98:../../../core/drivers/DNS/src/dns.c **** 								}
  99:../../../core/drivers/DNS/src/dns.c **** 							}
 100:../../../core/drivers/DNS/src/dns.c **** 						}
 101:../../../core/drivers/DNS/src/dns.c **** 						break;
 102:../../../core/drivers/DNS/src/dns.c **** 					} else if (reply[i] == 0x05) {
 103:../../../core/drivers/DNS/src/dns.c **** 						// The answer is a CNAME. we will skip over it
 104:../../../core/drivers/DNS/src/dns.c **** 						printDBG("The DNS reply contains an CNAME record.\r\n");
 408              		.loc 1 104 7 is_stmt 1 view .LVU141
 409 0098 1948     		ldr	r0, .L36+8
 410 009a FFF7FEFF 		bl	printDBG
 411              	.LVL39:
ARM GAS  C:\Users\tomra\AppData\Local\Temp\ccZftyXh.s 			page 11


 105:../../../core/drivers/DNS/src/dns.c **** 
 106:../../../core/drivers/DNS/src/dns.c **** 						// At bytes 7 and 8, the length of the remainder of the answer is stored.
 107:../../../core/drivers/DNS/src/dns.c **** 						uint16_t cname_length = 0;
 412              		.loc 1 107 7 view .LVU142
 108:../../../core/drivers/DNS/src/dns.c **** 						cname_length += reply[i + 7];
 413              		.loc 1 108 7 view .LVU143
 414              		.loc 1 108 28 is_stmt 0 view .LVU144
 415 009e 2A19     		adds	r2, r5, r4
 416 00a0 D179     		ldrb	r1, [r2, #7]	@ zero_extendqisi2
 417              	.LVL40:
 109:../../../core/drivers/DNS/src/dns.c **** 						cname_length = cname_length << 8;
 418              		.loc 1 109 7 is_stmt 1 view .LVU145
 110:../../../core/drivers/DNS/src/dns.c **** 						cname_length |= reply[i + 8];
 419              		.loc 1 110 7 view .LVU146
 420              		.loc 1 110 28 is_stmt 0 view .LVU147
 421 00a2 137A     		ldrb	r3, [r2, #8]	@ zero_extendqisi2
 422              		.loc 1 110 20 view .LVU148
 423 00a4 43EA0123 		orr	r3, r3, r1, lsl #8
 424              	.LVL41:
 111:../../../core/drivers/DNS/src/dns.c **** 						// Advance i with 8 (length byte position) + length of the rest of the reply + 4 (next type f
 112:../../../core/drivers/DNS/src/dns.c **** 						i += 8 + cname_length + 4;
 425              		.loc 1 112 7 is_stmt 1 view .LVU149
 426              		.loc 1 112 29 is_stmt 0 view .LVU150
 427 00a8 0C33     		adds	r3, r3, #12
 428              	.LVL42:
 429              		.loc 1 112 9 view .LVU151
 430 00aa 1C44     		add	r4, r4, r3
 431              	.LVL43:
 432              	.L14:
 433              		.loc 1 112 9 view .LVU152
 434              	.LBE6:
  74:../../../core/drivers/DNS/src/dns.c **** 					if (reply[i] == 0x01) {
 435              		.loc 1 74 11 is_stmt 1 view .LVU153
 436 00ac A742     		cmp	r7, r4
 437 00ae BDDD     		ble	.L11
  75:../../../core/drivers/DNS/src/dns.c **** 						printDBG("The DNS reply contains an A record.\r\n");
 438              		.loc 1 75 6 view .LVU154
  75:../../../core/drivers/DNS/src/dns.c **** 						printDBG("The DNS reply contains an A record.\r\n");
 439              		.loc 1 75 15 is_stmt 0 view .LVU155
 440 00b0 295D     		ldrb	r1, [r5, r4]	@ zero_extendqisi2
  75:../../../core/drivers/DNS/src/dns.c **** 						printDBG("The DNS reply contains an A record.\r\n");
 441              		.loc 1 75 9 view .LVU156
 442 00b2 0129     		cmp	r1, #1
 443 00b4 C2D0     		beq	.L34
 102:../../../core/drivers/DNS/src/dns.c **** 						// The answer is a CNAME. we will skip over it
 444              		.loc 1 102 13 is_stmt 1 view .LVU157
 102:../../../core/drivers/DNS/src/dns.c **** 						// The answer is a CNAME. we will skip over it
 445              		.loc 1 102 16 is_stmt 0 view .LVU158
 446 00b6 0529     		cmp	r1, #5
 447 00b8 EED0     		beq	.L35
 113:../../../core/drivers/DNS/src/dns.c **** 					} else {
 114:../../../core/drivers/DNS/src/dns.c **** 						printDBG("Unknown DNS answer type '%x' received in reply. Aborting\r\n", reply[i]);
 448              		.loc 1 114 7 is_stmt 1 view .LVU159
 449 00ba 1248     		ldr	r0, .L36+12
 450 00bc FFF7FEFF 		bl	printDBG
 451              	.LVL44:
 115:../../../core/drivers/DNS/src/dns.c **** 						return 0;
ARM GAS  C:\Users\tomra\AppData\Local\Temp\ccZftyXh.s 			page 12


 452              		.loc 1 115 7 view .LVU160
 453              		.loc 1 115 14 is_stmt 0 view .LVU161
 454 00c0 4FF0000A 		mov	r10, #0
 455              	.LVL45:
 456              	.L9:
 457              		.loc 1 115 14 view .LVU162
 458              	.LBE7:
 116:../../../core/drivers/DNS/src/dns.c **** 					}
 117:../../../core/drivers/DNS/src/dns.c **** 				}
 118:../../../core/drivers/DNS/src/dns.c **** 			}				
 119:../../../core/drivers/DNS/src/dns.c ****         }
 120:../../../core/drivers/DNS/src/dns.c **** 
 121:../../../core/drivers/DNS/src/dns.c **** 		// If. somehow, we did not fill in an IP address, return 0.
 122:../../../core/drivers/DNS/src/dns.c **** 		if (j == 0) {
 123:../../../core/drivers/DNS/src/dns.c **** 			return 0;
 124:../../../core/drivers/DNS/src/dns.c **** 		}
 125:../../../core/drivers/DNS/src/dns.c **** 
 126:../../../core/drivers/DNS/src/dns.c **** 		// Fill up the rest of the address array with 0x00.
 127:../../../core/drivers/DNS/src/dns.c ****         for (int c = j; c < 16; ++c) {
 128:../../../core/drivers/DNS/src/dns.c ****                 address[c] = 0;
 129:../../../core/drivers/DNS/src/dns.c ****         }
 130:../../../core/drivers/DNS/src/dns.c **** 
 131:../../../core/drivers/DNS/src/dns.c ****         return address;
 132:../../../core/drivers/DNS/src/dns.c **** }...
 459              		.loc 1 132 1 view .LVU163
 460 00c4 5046     		mov	r0, r10
 461 00c6 05B0     		add	sp, sp, #20
 462              	.LCFI3:
 463              		.cfi_remember_state
 464              		.cfi_def_cfa_offset 36
 465              		@ sp needed
 466 00c8 BDE8F08F 		pop	{r4, r5, r6, r7, r8, r9, r10, fp, pc}
 467              	.LVL46:
 468              	.L32:
 469              	.LCFI4:
 470              		.cfi_restore_state
 122:../../../core/drivers/DNS/src/dns.c **** 		if (j == 0) {
 471              		.loc 1 122 3 is_stmt 1 view .LVU164
 122:../../../core/drivers/DNS/src/dns.c **** 		if (j == 0) {
 472              		.loc 1 122 6 is_stmt 0 view .LVU165
 473 00cc B9F1000F 		cmp	r9, #0
 474 00d0 07D1     		bne	.L25
 123:../../../core/drivers/DNS/src/dns.c **** 			return 0;
 475              		.loc 1 123 11 view .LVU166
 476 00d2 4FF0000A 		mov	r10, #0
 477              	.LVL47:
 123:../../../core/drivers/DNS/src/dns.c **** 			return 0;
 478              		.loc 1 123 11 view .LVU167
 479 00d6 F5E7     		b	.L9
 480              	.LVL48:
 481              	.L26:
 482              	.LBB8:
 128:../../../core/drivers/DNS/src/dns.c ****                 address[c] = 0;
 483              		.loc 1 128 17 is_stmt 1 discriminator 3 view .LVU168
 128:../../../core/drivers/DNS/src/dns.c ****                 address[c] = 0;
 484              		.loc 1 128 28 is_stmt 0 discriminator 3 view .LVU169
 485 00d8 0023     		movs	r3, #0
ARM GAS  C:\Users\tomra\AppData\Local\Temp\ccZftyXh.s 			page 13


 486 00da 0AF80930 		strb	r3, [r10, r9]
 127:../../../core/drivers/DNS/src/dns.c ****         for (int c = j; c < 16; ++c) {
 487              		.loc 1 127 33 is_stmt 1 discriminator 3 view .LVU170
 488 00de 09F10109 		add	r9, r9, #1
 489              	.LVL49:
 490              	.L25:
 127:../../../core/drivers/DNS/src/dns.c ****         for (int c = j; c < 16; ++c) {
 491              		.loc 1 127 25 discriminator 1 view .LVU171
 127:../../../core/drivers/DNS/src/dns.c ****         for (int c = j; c < 16; ++c) {
 492              		.loc 1 127 9 is_stmt 0 discriminator 1 view .LVU172
 493 00e2 B9F10F0F 		cmp	r9, #15
 494 00e6 F7DD     		ble	.L26
 495 00e8 ECE7     		b	.L9
 496              	.LVL50:
 497              	.L27:
 127:../../../core/drivers/DNS/src/dns.c ****         for (int c = j; c < 16; ++c) {
 498              		.loc 1 127 9 discriminator 1 view .LVU173
 499              	.LBE8:
  59:../../../core/drivers/DNS/src/dns.c **** 		return 0;
 500              		.loc 1 59 10 view .LVU174
 501 00ea 4FF0000A 		mov	r10, #0
 502 00ee E9E7     		b	.L9
 503              	.L28:
  59:../../../core/drivers/DNS/src/dns.c **** 		return 0;
 504              		.loc 1 59 10 view .LVU175
 505 00f0 4FF0000A 		mov	r10, #0
 506 00f4 E6E7     		b	.L9
 507              	.L37:
 508 00f6 00BF     		.align	2
 509              	.L36:
 510 00f8 00000000 		.word	.LC0
 511 00fc 28000000 		.word	.LC1
 512 0100 2C000000 		.word	.LC2
 513 0104 58000000 		.word	.LC3
 514              		.cfi_endproc
 515              	.LFE132:
 517              		.comm	P3_header,44,4
 518              		.comm	P2_header,44,4
 519              		.comm	P1_header,44,4
 520              		.comm	stackversion_patch,1,1
 521              		.comm	stackversion_minor,1,1
 522              		.comm	stackversion_major,1,1
 523              		.comm	appversion_patch,1,1
 524              		.comm	appversion_minor,1,1
 525              		.comm	appversion_major,1,1
 526              		.comm	short_UID,8,8
 527              		.comm	hard_reset,1,1
 528              		.comm	wd_reset,1,1
 529              		.comm	octa_uid,8,8
 530              		.comm	float_union,4,4
 531              		.comm	uint16LittleEndian,2,4
 532              		.comm	int16LittleEndian,2,4
 533              		.comm	uint32LittleEndian,4,4
 534              		.comm	int32LittleEndian,4,4
 535              		.comm	rtosprintHandle,4,4
 536              		.comm	hrtc,36,4
 537              		.comm	FLASH_SPI,100,4
ARM GAS  C:\Users\tomra\AppData\Local\Temp\ccZftyXh.s 			page 14


 538              		.comm	P3_SPI,100,4
 539              		.comm	P2_SPI,100,4
 540              		.comm	P1_SPI,100,4
 541              		.comm	P3_I2C,76,4
 542              		.comm	P2_I2C,76,4
 543              		.comm	P1_I2C,76,4
 544              		.comm	common_I2C,76,4
 545              		.comm	P3_UART,120,4
 546              		.comm	P2_UART,120,4
 547              		.comm	P1_UART,120,4
 548              		.comm	FTDI_UART,120,4
 549              		.comm	BLE_UART,120,4
 550              		.comm	USB_UART,120,4
 551              		.comm	hiwdg,16,4
 552              		.comm	P3_DIO6,8,4
 553              		.comm	P3_DIO5,8,4
 554              		.comm	P3_DIO4,8,4
 555              		.comm	P3_DIO3,8,4
 556              		.comm	P3_DIO2,8,4
 557              		.comm	P3_DIO1,8,4
 558              		.comm	P2_DIO6,8,4
 559              		.comm	P2_DIO5,8,4
 560              		.comm	P2_DIO4,8,4
 561              		.comm	P2_DIO3,8,4
 562              		.comm	P2_DIO2,8,4
 563              		.comm	P2_DIO1,8,4
 564              		.comm	P1_DIO6,8,4
 565              		.comm	P1_DIO5,8,4
 566              		.comm	P1_DIO4,8,4
 567              		.comm	P1_DIO3,8,4
 568              		.comm	P1_DIO2,8,4
 569              		.comm	P1_DIO1,8,4
 570              		.comm	htim6,64,4
 571              		.comm	htim1,64,4
 572              		.text
 573              	.Letext0:
 574              		.file 2 "c:\\program files (x86)\\gnu tools arm embedded\\9 2019-q4-major\\arm-none-eabi\\include\
 575              		.file 3 "c:\\program files (x86)\\gnu tools arm embedded\\9 2019-q4-major\\arm-none-eabi\\include\
 576              		.file 4 "../../../core/ST/CMSIS/Include/core_cm4.h"
 577              		.file 5 "../../../core/ST/CMSIS/Device/ST/STM32L4xx/Include/system_stm32l4xx.h"
 578              		.file 6 "../../../core/ST/CMSIS/Device/ST/STM32L4xx/Include/stm32l496xx.h"
 579              		.file 7 "../../../core/ST/STM32L4xx_HAL_Driver/Inc/stm32l4xx_hal_def.h"
 580              		.file 8 "../../../core/ST/STM32L4xx_HAL_Driver/Inc/stm32l4xx_hal_dma.h"
 581              		.file 9 "../../../core/ST/STM32L4xx_HAL_Driver/Inc/stm32l4xx_hal_i2c.h"
 582              		.file 10 "../../../core/ST/STM32L4xx_HAL_Driver/Inc/stm32l4xx_hal_iwdg.h"
 583              		.file 11 "../../../core/ST/STM32L4xx_HAL_Driver/Inc/stm32l4xx_hal_rtc.h"
 584              		.file 12 "../../../core/ST/STM32L4xx_HAL_Driver/Inc/stm32l4xx_hal_spi.h"
 585              		.file 13 "../../../core/ST/STM32L4xx_HAL_Driver/Inc/stm32l4xx_hal_tim.h"
 586              		.file 14 "../../../core/ST/STM32L4xx_HAL_Driver/Inc/stm32l4xx_hal_uart.h"
 587              		.file 15 "../../../core/ST/STM32L4xx_HAL_Driver/Inc/stm32l4xx_hal.h"
 588              		.file 16 "../../../core/ST/Middlewares/Third_Party/FreeRTOS/Source/include/task.h"
 589              		.file 17 "../../../core/ST/Middlewares/Third_Party/FreeRTOS/Source/CMSIS_RTOS/cmsis_os.h"
 590              		.file 18 "../../../core/platform/octa/inc/sysclock.h"
 591              		.file 19 "../../../core/platform/octa/inc/gpio.h"
 592              		.file 20 "../../../core/platform/octa/inc/iwdg.h"
 593              		.file 21 "../../../core/platform/octa/inc/uart.h"
 594              		.file 22 "../../../core/platform/octa/inc/i2c.h"
ARM GAS  C:\Users\tomra\AppData\Local\Temp\ccZftyXh.s 			page 15


 595              		.file 23 "../../../core/platform/octa/inc/spi.h"
 596              		.file 24 "../../../core/platform/octa/inc/rtc.h"
 597              		.file 25 "../../../core/platform/octa/inc/rtosincludes.h"
 598              		.file 26 "c:\\program files (x86)\\gnu tools arm embedded\\9 2019-q4-major\\arm-none-eabi\\include
 599              		.file 27 "c:\\program files (x86)\\gnu tools arm embedded\\9 2019-q4-major\\arm-none-eabi\\include
 600              		.file 28 "c:\\program files (x86)\\gnu tools arm embedded\\9 2019-q4-major\\lib\\gcc\\arm-none-eab
 601              		.file 29 "c:\\program files (x86)\\gnu tools arm embedded\\9 2019-q4-major\\arm-none-eabi\\include
 602              		.file 30 "../../../core/platform/common/inc/datatypes.h"
 603              		.file 31 "../../../core/platform/octa/inc/platform.h"
 604              		.file 32 "c:\\program files (x86)\\gnu tools arm embedded\\9 2019-q4-major\\arm-none-eabi\\include
 605              		.file 33 "c:\\program files (x86)\\gnu tools arm embedded\\9 2019-q4-major\\arm-none-eabi\\include
 606              		.file 34 "../../../core/platform/common/inc/print.h"
 607              		.file 35 "c:\\program files (x86)\\gnu tools arm embedded\\9 2019-q4-major\\arm-none-eabi\\include
ARM GAS  C:\Users\tomra\AppData\Local\Temp\ccZftyXh.s 			page 16

