ARM GAS  C:\Users\tomra\AppData\Local\Temp\ccoul9Yc.s 			page 1


   1              		.cpu cortex-m4
   2              		.eabi_attribute 27, 1
   3              		.eabi_attribute 28, 1
   4              		.eabi_attribute 20, 1
   5              		.eabi_attribute 21, 1
   6              		.eabi_attribute 23, 3
   7              		.eabi_attribute 24, 1
   8              		.eabi_attribute 25, 1
   9              		.eabi_attribute 26, 1
  10              		.eabi_attribute 30, 1
  11              		.eabi_attribute 34, 1
  12              		.eabi_attribute 18, 4
  13              		.file	"stm32l4xx_hal_rtc_ex.c"
  14              		.text
  15              	.Ltext0:
  16              		.cfi_sections	.debug_frame
  17              		.section	.rodata.HAL_RTCEx_SetTimeStamp.str1.4,"aMS",%progbits,1
  18              		.align	2
  19              	.LC0:
  20 0000 2E2E2F2E 		.ascii	"../../../core/ST/STM32L4xx_HAL_Driver/Src/stm32l4xx"
  20      2E2F2E2E 
  20      2F636F72 
  20      652F5354 
  20      2F53544D 
  21 0033 5F68616C 		.ascii	"_hal_rtc_ex.c\000"
  21      5F727463 
  21      5F65782E 
  21      6300
  22              		.section	.text.HAL_RTCEx_SetTimeStamp,"ax",%progbits
  23              		.align	1
  24              		.global	HAL_RTCEx_SetTimeStamp
  25              		.arch armv7e-m
  26              		.syntax unified
  27              		.thumb
  28              		.thumb_func
  29              		.fpu fpv4-sp-d16
  31              	HAL_RTCEx_SetTimeStamp:
  32              	.LVL0:
  33              	.LFB123:
  34              		.file 1 "../../../core/ST/STM32L4xx_HAL_Driver/Src/stm32l4xx_hal_rtc_ex.c"
   1:../../../core/ST/STM32L4xx_HAL_Driver/Src/stm32l4xx_hal_rtc_ex.c **** /**
   2:../../../core/ST/STM32L4xx_HAL_Driver/Src/stm32l4xx_hal_rtc_ex.c ****   ******************************************************************************
   3:../../../core/ST/STM32L4xx_HAL_Driver/Src/stm32l4xx_hal_rtc_ex.c ****   * @file    stm32l4xx_hal_rtc_ex.c
   4:../../../core/ST/STM32L4xx_HAL_Driver/Src/stm32l4xx_hal_rtc_ex.c ****   * @author  MCD Application Team
   5:../../../core/ST/STM32L4xx_HAL_Driver/Src/stm32l4xx_hal_rtc_ex.c ****   * @brief   Extended RTC HAL module driver.
   6:../../../core/ST/STM32L4xx_HAL_Driver/Src/stm32l4xx_hal_rtc_ex.c ****   *          This file provides firmware functions to manage the following
   7:../../../core/ST/STM32L4xx_HAL_Driver/Src/stm32l4xx_hal_rtc_ex.c ****   *          functionalities of the Real Time Clock (RTC) Extended peripheral:
   8:../../../core/ST/STM32L4xx_HAL_Driver/Src/stm32l4xx_hal_rtc_ex.c ****   *           + RTC Time Stamp functions
   9:../../../core/ST/STM32L4xx_HAL_Driver/Src/stm32l4xx_hal_rtc_ex.c ****   *           + RTC Tamper functions
  10:../../../core/ST/STM32L4xx_HAL_Driver/Src/stm32l4xx_hal_rtc_ex.c ****   *           + RTC Wake-up functions
  11:../../../core/ST/STM32L4xx_HAL_Driver/Src/stm32l4xx_hal_rtc_ex.c ****   *           + Extended Control functions
  12:../../../core/ST/STM32L4xx_HAL_Driver/Src/stm32l4xx_hal_rtc_ex.c ****   *           + Extended RTC features functions
  13:../../../core/ST/STM32L4xx_HAL_Driver/Src/stm32l4xx_hal_rtc_ex.c ****   *
  14:../../../core/ST/STM32L4xx_HAL_Driver/Src/stm32l4xx_hal_rtc_ex.c ****   @verbatim
  15:../../../core/ST/STM32L4xx_HAL_Driver/Src/stm32l4xx_hal_rtc_ex.c ****   ==============================================================================
  16:../../../core/ST/STM32L4xx_HAL_Driver/Src/stm32l4xx_hal_rtc_ex.c ****                   ##### How to use this driver #####
  17:../../../core/ST/STM32L4xx_HAL_Driver/Src/stm32l4xx_hal_rtc_ex.c ****   ==============================================================================
ARM GAS  C:\Users\tomra\AppData\Local\Temp\ccoul9Yc.s 			page 2


  18:../../../core/ST/STM32L4xx_HAL_Driver/Src/stm32l4xx_hal_rtc_ex.c ****   [..]
  19:../../../core/ST/STM32L4xx_HAL_Driver/Src/stm32l4xx_hal_rtc_ex.c ****     (+) Enable the RTC domain access.
  20:../../../core/ST/STM32L4xx_HAL_Driver/Src/stm32l4xx_hal_rtc_ex.c ****     (+) Configure the RTC Prescaler (Asynchronous and Synchronous) and RTC hour
  21:../../../core/ST/STM32L4xx_HAL_Driver/Src/stm32l4xx_hal_rtc_ex.c ****         format using the HAL_RTC_Init() function.
  22:../../../core/ST/STM32L4xx_HAL_Driver/Src/stm32l4xx_hal_rtc_ex.c **** 
  23:../../../core/ST/STM32L4xx_HAL_Driver/Src/stm32l4xx_hal_rtc_ex.c ****   *** RTC Wakeup configuration ***
  24:../../../core/ST/STM32L4xx_HAL_Driver/Src/stm32l4xx_hal_rtc_ex.c ****   ================================
  25:../../../core/ST/STM32L4xx_HAL_Driver/Src/stm32l4xx_hal_rtc_ex.c ****   [..]
  26:../../../core/ST/STM32L4xx_HAL_Driver/Src/stm32l4xx_hal_rtc_ex.c ****     (+) To configure the RTC Wakeup Clock source and Counter use the HAL_RTCEx_SetWakeUpTimer()
  27:../../../core/ST/STM32L4xx_HAL_Driver/Src/stm32l4xx_hal_rtc_ex.c ****         function. You can also configure the RTC Wakeup timer with interrupt mode
  28:../../../core/ST/STM32L4xx_HAL_Driver/Src/stm32l4xx_hal_rtc_ex.c ****         using the HAL_RTCEx_SetWakeUpTimer_IT() function.
  29:../../../core/ST/STM32L4xx_HAL_Driver/Src/stm32l4xx_hal_rtc_ex.c ****     (+) To read the RTC WakeUp Counter register, use the HAL_RTCEx_GetWakeUpTimer()
  30:../../../core/ST/STM32L4xx_HAL_Driver/Src/stm32l4xx_hal_rtc_ex.c ****         function.
  31:../../../core/ST/STM32L4xx_HAL_Driver/Src/stm32l4xx_hal_rtc_ex.c **** 
  32:../../../core/ST/STM32L4xx_HAL_Driver/Src/stm32l4xx_hal_rtc_ex.c ****   *** Outputs configuration ***
  33:../../../core/ST/STM32L4xx_HAL_Driver/Src/stm32l4xx_hal_rtc_ex.c ****   =============================
  34:../../../core/ST/STM32L4xx_HAL_Driver/Src/stm32l4xx_hal_rtc_ex.c ****   [..]  The RTC has 2 different outputs:
  35:../../../core/ST/STM32L4xx_HAL_Driver/Src/stm32l4xx_hal_rtc_ex.c ****     (+) RTC_ALARM: this output is used to manage the RTC Alarm A, Alarm B
  36:../../../core/ST/STM32L4xx_HAL_Driver/Src/stm32l4xx_hal_rtc_ex.c ****         and WaKeUp signals.
  37:../../../core/ST/STM32L4xx_HAL_Driver/Src/stm32l4xx_hal_rtc_ex.c ****         To output the selected RTC signal, use the HAL_RTC_Init() function.
  38:../../../core/ST/STM32L4xx_HAL_Driver/Src/stm32l4xx_hal_rtc_ex.c ****     (+) RTC_CALIB: this output is 512Hz signal or 1Hz.
  39:../../../core/ST/STM32L4xx_HAL_Driver/Src/stm32l4xx_hal_rtc_ex.c ****         To enable the RTC_CALIB, use the HAL_RTCEx_SetCalibrationOutPut() function.
  40:../../../core/ST/STM32L4xx_HAL_Driver/Src/stm32l4xx_hal_rtc_ex.c ****     (+) Two pins can be used as RTC_ALARM or RTC_CALIB (PC13, PB2) managed on
  41:../../../core/ST/STM32L4xx_HAL_Driver/Src/stm32l4xx_hal_rtc_ex.c ****         the RTC_OR register.
  42:../../../core/ST/STM32L4xx_HAL_Driver/Src/stm32l4xx_hal_rtc_ex.c ****     (+) When the RTC_CALIB or RTC_ALARM output is selected, the RTC_OUT pin is
  43:../../../core/ST/STM32L4xx_HAL_Driver/Src/stm32l4xx_hal_rtc_ex.c ****         automatically configured in output alternate function.
  44:../../../core/ST/STM32L4xx_HAL_Driver/Src/stm32l4xx_hal_rtc_ex.c **** 
  45:../../../core/ST/STM32L4xx_HAL_Driver/Src/stm32l4xx_hal_rtc_ex.c ****   *** Smooth digital Calibration configuration ***
  46:../../../core/ST/STM32L4xx_HAL_Driver/Src/stm32l4xx_hal_rtc_ex.c ****   ================================================
  47:../../../core/ST/STM32L4xx_HAL_Driver/Src/stm32l4xx_hal_rtc_ex.c ****   [..]
  48:../../../core/ST/STM32L4xx_HAL_Driver/Src/stm32l4xx_hal_rtc_ex.c ****     (+) Configure the RTC Original Digital Calibration Value and the corresponding
  49:../../../core/ST/STM32L4xx_HAL_Driver/Src/stm32l4xx_hal_rtc_ex.c ****         calibration cycle period (32s,16s and 8s) using the HAL_RTCEx_SetSmoothCalib()
  50:../../../core/ST/STM32L4xx_HAL_Driver/Src/stm32l4xx_hal_rtc_ex.c ****         function.
  51:../../../core/ST/STM32L4xx_HAL_Driver/Src/stm32l4xx_hal_rtc_ex.c **** 
  52:../../../core/ST/STM32L4xx_HAL_Driver/Src/stm32l4xx_hal_rtc_ex.c ****   *** TimeStamp configuration ***
  53:../../../core/ST/STM32L4xx_HAL_Driver/Src/stm32l4xx_hal_rtc_ex.c ****   ===============================
  54:../../../core/ST/STM32L4xx_HAL_Driver/Src/stm32l4xx_hal_rtc_ex.c ****   [..]
  55:../../../core/ST/STM32L4xx_HAL_Driver/Src/stm32l4xx_hal_rtc_ex.c ****     (+) Enable the RTC TimeStamp using the HAL_RTCEx_SetTimeStamp() function.
  56:../../../core/ST/STM32L4xx_HAL_Driver/Src/stm32l4xx_hal_rtc_ex.c ****         You can also configure the RTC TimeStamp with interrupt mode using the
  57:../../../core/ST/STM32L4xx_HAL_Driver/Src/stm32l4xx_hal_rtc_ex.c ****         HAL_RTCEx_SetTimeStamp_IT() function.
  58:../../../core/ST/STM32L4xx_HAL_Driver/Src/stm32l4xx_hal_rtc_ex.c ****     (+) To read the RTC TimeStamp Time and Date register, use the HAL_RTCEx_GetTimeStamp()
  59:../../../core/ST/STM32L4xx_HAL_Driver/Src/stm32l4xx_hal_rtc_ex.c ****         function.
  60:../../../core/ST/STM32L4xx_HAL_Driver/Src/stm32l4xx_hal_rtc_ex.c **** 
  61:../../../core/ST/STM32L4xx_HAL_Driver/Src/stm32l4xx_hal_rtc_ex.c ****   *** Internal TimeStamp configuration ***
  62:../../../core/ST/STM32L4xx_HAL_Driver/Src/stm32l4xx_hal_rtc_ex.c ****   ===============================
  63:../../../core/ST/STM32L4xx_HAL_Driver/Src/stm32l4xx_hal_rtc_ex.c ****   [..]
  64:../../../core/ST/STM32L4xx_HAL_Driver/Src/stm32l4xx_hal_rtc_ex.c ****     (+) Enable the RTC internal TimeStamp using the HAL_RTCEx_SetInternalTimeStamp() function.
  65:../../../core/ST/STM32L4xx_HAL_Driver/Src/stm32l4xx_hal_rtc_ex.c ****         User has to check internal timestamp occurrence using __HAL_RTC_INTERNAL_TIMESTAMP_GET_FLAG
  66:../../../core/ST/STM32L4xx_HAL_Driver/Src/stm32l4xx_hal_rtc_ex.c ****     (+) To read the RTC TimeStamp Time and Date register, use the HAL_RTCEx_GetTimeStamp()
  67:../../../core/ST/STM32L4xx_HAL_Driver/Src/stm32l4xx_hal_rtc_ex.c ****         function.
  68:../../../core/ST/STM32L4xx_HAL_Driver/Src/stm32l4xx_hal_rtc_ex.c **** 
  69:../../../core/ST/STM32L4xx_HAL_Driver/Src/stm32l4xx_hal_rtc_ex.c ****    *** Tamper configuration ***
  70:../../../core/ST/STM32L4xx_HAL_Driver/Src/stm32l4xx_hal_rtc_ex.c ****    ============================
  71:../../../core/ST/STM32L4xx_HAL_Driver/Src/stm32l4xx_hal_rtc_ex.c ****    [..]
  72:../../../core/ST/STM32L4xx_HAL_Driver/Src/stm32l4xx_hal_rtc_ex.c ****      (+) Enable the RTC Tamper and configure the Tamper filter count, trigger Edge
  73:../../../core/ST/STM32L4xx_HAL_Driver/Src/stm32l4xx_hal_rtc_ex.c ****          or Level according to the Tamper filter (if equal to 0 Edge else Level)
  74:../../../core/ST/STM32L4xx_HAL_Driver/Src/stm32l4xx_hal_rtc_ex.c ****          value, sampling frequency, NoErase, MaskFlag,  precharge or discharge and
ARM GAS  C:\Users\tomra\AppData\Local\Temp\ccoul9Yc.s 			page 3


  75:../../../core/ST/STM32L4xx_HAL_Driver/Src/stm32l4xx_hal_rtc_ex.c ****          Pull-UP using the HAL_RTCEx_SetTamper() function. You can configure RTC Tamper
  76:../../../core/ST/STM32L4xx_HAL_Driver/Src/stm32l4xx_hal_rtc_ex.c ****          with interrupt mode using HAL_RTCEx_SetTamper_IT() function.
  77:../../../core/ST/STM32L4xx_HAL_Driver/Src/stm32l4xx_hal_rtc_ex.c ****      (+) The default configuration of the Tamper erases the backup registers. To avoid
  78:../../../core/ST/STM32L4xx_HAL_Driver/Src/stm32l4xx_hal_rtc_ex.c ****          erase, enable the NoErase field on the RTC_TAMPCR register.
  79:../../../core/ST/STM32L4xx_HAL_Driver/Src/stm32l4xx_hal_rtc_ex.c ****      (+) STM32L412xx and STM32L422xx only : With new RTC tamper configuration, you have to call HAL
  80:../../../core/ST/STM32L4xx_HAL_Driver/Src/stm32l4xx_hal_rtc_ex.c ****          perform TAMP base address offset calculation.
  81:../../../core/ST/STM32L4xx_HAL_Driver/Src/stm32l4xx_hal_rtc_ex.c ****      (+) STM32L412xx and STM32L422xx only : If you don't intend to have tamper using RTC clock, you
  82:../../../core/ST/STM32L4xx_HAL_Driver/Src/stm32l4xx_hal_rtc_ex.c ****          by setting ClockEnable inti field to RTC_CLOCK_DISABLE.
  83:../../../core/ST/STM32L4xx_HAL_Driver/Src/stm32l4xx_hal_rtc_ex.c ****      (+) STM32L412xx and STM32L422xx only : Enable Internal tamper using HAL_RTCEx_SetInternalTampe
  84:../../../core/ST/STM32L4xx_HAL_Driver/Src/stm32l4xx_hal_rtc_ex.c ****          setting Interrupt field.
  85:../../../core/ST/STM32L4xx_HAL_Driver/Src/stm32l4xx_hal_rtc_ex.c **** 
  86:../../../core/ST/STM32L4xx_HAL_Driver/Src/stm32l4xx_hal_rtc_ex.c ****    *** Backup Data Registers configuration ***
  87:../../../core/ST/STM32L4xx_HAL_Driver/Src/stm32l4xx_hal_rtc_ex.c ****    ===========================================
  88:../../../core/ST/STM32L4xx_HAL_Driver/Src/stm32l4xx_hal_rtc_ex.c ****    [..]
  89:../../../core/ST/STM32L4xx_HAL_Driver/Src/stm32l4xx_hal_rtc_ex.c ****      (+) To write to the RTC Backup Data registers, use the HAL_RTCEx_BKUPWrite()
  90:../../../core/ST/STM32L4xx_HAL_Driver/Src/stm32l4xx_hal_rtc_ex.c ****          function.
  91:../../../core/ST/STM32L4xx_HAL_Driver/Src/stm32l4xx_hal_rtc_ex.c ****      (+) To read the RTC Backup Data registers, use the HAL_RTCEx_BKUPRead()
  92:../../../core/ST/STM32L4xx_HAL_Driver/Src/stm32l4xx_hal_rtc_ex.c ****          function.
  93:../../../core/ST/STM32L4xx_HAL_Driver/Src/stm32l4xx_hal_rtc_ex.c ****      (+) STM32L412xx and STM32L422xx only : Before calling these functions you have to call HAL_RTC
  94:../../../core/ST/STM32L4xx_HAL_Driver/Src/stm32l4xx_hal_rtc_ex.c ****          perform TAMP base address offset calculation.
  95:../../../core/ST/STM32L4xx_HAL_Driver/Src/stm32l4xx_hal_rtc_ex.c **** 
  96:../../../core/ST/STM32L4xx_HAL_Driver/Src/stm32l4xx_hal_rtc_ex.c ****    @endverbatim
  97:../../../core/ST/STM32L4xx_HAL_Driver/Src/stm32l4xx_hal_rtc_ex.c ****   ******************************************************************************
  98:../../../core/ST/STM32L4xx_HAL_Driver/Src/stm32l4xx_hal_rtc_ex.c ****   * @attention
  99:../../../core/ST/STM32L4xx_HAL_Driver/Src/stm32l4xx_hal_rtc_ex.c ****   *
 100:../../../core/ST/STM32L4xx_HAL_Driver/Src/stm32l4xx_hal_rtc_ex.c ****   * <h2><center>&copy; COPYRIGHT(c) 2017 STMicroelectronics</center></h2>
 101:../../../core/ST/STM32L4xx_HAL_Driver/Src/stm32l4xx_hal_rtc_ex.c ****   *
 102:../../../core/ST/STM32L4xx_HAL_Driver/Src/stm32l4xx_hal_rtc_ex.c ****   * Redistribution and use in source and binary forms, with or without modification,
 103:../../../core/ST/STM32L4xx_HAL_Driver/Src/stm32l4xx_hal_rtc_ex.c ****   * are permitted provided that the following conditions are met:
 104:../../../core/ST/STM32L4xx_HAL_Driver/Src/stm32l4xx_hal_rtc_ex.c ****   *   1. Redistributions of source code must retain the above copyright notice,
 105:../../../core/ST/STM32L4xx_HAL_Driver/Src/stm32l4xx_hal_rtc_ex.c ****   *      this list of conditions and the following disclaimer.
 106:../../../core/ST/STM32L4xx_HAL_Driver/Src/stm32l4xx_hal_rtc_ex.c ****   *   2. Redistributions in binary form must reproduce the above copyright notice,
 107:../../../core/ST/STM32L4xx_HAL_Driver/Src/stm32l4xx_hal_rtc_ex.c ****   *      this list of conditions and the following disclaimer in the documentation
 108:../../../core/ST/STM32L4xx_HAL_Driver/Src/stm32l4xx_hal_rtc_ex.c ****   *      and/or other materials provided with the distribution.
 109:../../../core/ST/STM32L4xx_HAL_Driver/Src/stm32l4xx_hal_rtc_ex.c ****   *   3. Neither the name of STMicroelectronics nor the names of its contributors
 110:../../../core/ST/STM32L4xx_HAL_Driver/Src/stm32l4xx_hal_rtc_ex.c ****   *      may be used to endorse or promote products derived from this software
 111:../../../core/ST/STM32L4xx_HAL_Driver/Src/stm32l4xx_hal_rtc_ex.c ****   *      without specific prior written permission.
 112:../../../core/ST/STM32L4xx_HAL_Driver/Src/stm32l4xx_hal_rtc_ex.c ****   *
 113:../../../core/ST/STM32L4xx_HAL_Driver/Src/stm32l4xx_hal_rtc_ex.c ****   * THIS SOFTWARE IS PROVIDED BY THE COPYRIGHT HOLDERS AND CONTRIBUTORS "AS IS"
 114:../../../core/ST/STM32L4xx_HAL_Driver/Src/stm32l4xx_hal_rtc_ex.c ****   * AND ANY EXPRESS OR IMPLIED WARRANTIES, INCLUDING, BUT NOT LIMITED TO, THE
 115:../../../core/ST/STM32L4xx_HAL_Driver/Src/stm32l4xx_hal_rtc_ex.c ****   * IMPLIED WARRANTIES OF MERCHANTABILITY AND FITNESS FOR A PARTICULAR PURPOSE ARE
 116:../../../core/ST/STM32L4xx_HAL_Driver/Src/stm32l4xx_hal_rtc_ex.c ****   * DISCLAIMED. IN NO EVENT SHALL THE COPYRIGHT HOLDER OR CONTRIBUTORS BE LIABLE
 117:../../../core/ST/STM32L4xx_HAL_Driver/Src/stm32l4xx_hal_rtc_ex.c ****   * FOR ANY DIRECT, INDIRECT, INCIDENTAL, SPECIAL, EXEMPLARY, OR CONSEQUENTIAL
 118:../../../core/ST/STM32L4xx_HAL_Driver/Src/stm32l4xx_hal_rtc_ex.c ****   * DAMAGES (INCLUDING, BUT NOT LIMITED TO, PROCUREMENT OF SUBSTITUTE GOODS OR
 119:../../../core/ST/STM32L4xx_HAL_Driver/Src/stm32l4xx_hal_rtc_ex.c ****   * SERVICES; LOSS OF USE, DATA, OR PROFITS; OR BUSINESS INTERRUPTION) HOWEVER
 120:../../../core/ST/STM32L4xx_HAL_Driver/Src/stm32l4xx_hal_rtc_ex.c ****   * CAUSED AND ON ANY THEORY OF LIABILITY, WHETHER IN CONTRACT, STRICT LIABILITY,
 121:../../../core/ST/STM32L4xx_HAL_Driver/Src/stm32l4xx_hal_rtc_ex.c ****   * OR TORT (INCLUDING NEGLIGENCE OR OTHERWISE) ARISING IN ANY WAY OUT OF THE USE
 122:../../../core/ST/STM32L4xx_HAL_Driver/Src/stm32l4xx_hal_rtc_ex.c ****   * OF THIS SOFTWARE, EVEN IF ADVISED OF THE POSSIBILITY OF SUCH DAMAGE.
 123:../../../core/ST/STM32L4xx_HAL_Driver/Src/stm32l4xx_hal_rtc_ex.c ****   *
 124:../../../core/ST/STM32L4xx_HAL_Driver/Src/stm32l4xx_hal_rtc_ex.c ****   ******************************************************************************
 125:../../../core/ST/STM32L4xx_HAL_Driver/Src/stm32l4xx_hal_rtc_ex.c ****   */
 126:../../../core/ST/STM32L4xx_HAL_Driver/Src/stm32l4xx_hal_rtc_ex.c **** 
 127:../../../core/ST/STM32L4xx_HAL_Driver/Src/stm32l4xx_hal_rtc_ex.c **** /* Includes ------------------------------------------------------------------*/
 128:../../../core/ST/STM32L4xx_HAL_Driver/Src/stm32l4xx_hal_rtc_ex.c **** #include "stm32l4xx_hal.h"
 129:../../../core/ST/STM32L4xx_HAL_Driver/Src/stm32l4xx_hal_rtc_ex.c **** 
 130:../../../core/ST/STM32L4xx_HAL_Driver/Src/stm32l4xx_hal_rtc_ex.c **** /** @addtogroup STM32L4xx_HAL_Driver
 131:../../../core/ST/STM32L4xx_HAL_Driver/Src/stm32l4xx_hal_rtc_ex.c ****   * @{
ARM GAS  C:\Users\tomra\AppData\Local\Temp\ccoul9Yc.s 			page 4


 132:../../../core/ST/STM32L4xx_HAL_Driver/Src/stm32l4xx_hal_rtc_ex.c ****   */
 133:../../../core/ST/STM32L4xx_HAL_Driver/Src/stm32l4xx_hal_rtc_ex.c **** 
 134:../../../core/ST/STM32L4xx_HAL_Driver/Src/stm32l4xx_hal_rtc_ex.c **** /** @addtogroup RTCEx
 135:../../../core/ST/STM32L4xx_HAL_Driver/Src/stm32l4xx_hal_rtc_ex.c ****   * @brief RTC Extended HAL module driver
 136:../../../core/ST/STM32L4xx_HAL_Driver/Src/stm32l4xx_hal_rtc_ex.c ****   * @{
 137:../../../core/ST/STM32L4xx_HAL_Driver/Src/stm32l4xx_hal_rtc_ex.c ****   */
 138:../../../core/ST/STM32L4xx_HAL_Driver/Src/stm32l4xx_hal_rtc_ex.c **** 
 139:../../../core/ST/STM32L4xx_HAL_Driver/Src/stm32l4xx_hal_rtc_ex.c **** #ifdef HAL_RTC_MODULE_ENABLED
 140:../../../core/ST/STM32L4xx_HAL_Driver/Src/stm32l4xx_hal_rtc_ex.c **** 
 141:../../../core/ST/STM32L4xx_HAL_Driver/Src/stm32l4xx_hal_rtc_ex.c **** /* Private typedef -----------------------------------------------------------*/
 142:../../../core/ST/STM32L4xx_HAL_Driver/Src/stm32l4xx_hal_rtc_ex.c **** /* Private define ------------------------------------------------------------*/
 143:../../../core/ST/STM32L4xx_HAL_Driver/Src/stm32l4xx_hal_rtc_ex.c **** #if defined(STM32L412xx) || defined(STM32L422xx)
 144:../../../core/ST/STM32L4xx_HAL_Driver/Src/stm32l4xx_hal_rtc_ex.c **** #else
 145:../../../core/ST/STM32L4xx_HAL_Driver/Src/stm32l4xx_hal_rtc_ex.c **** #if defined(RTC_TAMPER1_SUPPORT) && defined(RTC_TAMPER3_SUPPORT)
 146:../../../core/ST/STM32L4xx_HAL_Driver/Src/stm32l4xx_hal_rtc_ex.c **** #define RTC_TAMPCR_MASK               ((uint32_t)RTC_TAMPCR_TAMPTS    |\
 147:../../../core/ST/STM32L4xx_HAL_Driver/Src/stm32l4xx_hal_rtc_ex.c ****                                        (uint32_t)RTC_TAMPCR_TAMPFREQ  | (uint32_t)RTC_TAMPCR_TAMPFL
 148:../../../core/ST/STM32L4xx_HAL_Driver/Src/stm32l4xx_hal_rtc_ex.c ****                                        (uint32_t)RTC_TAMPCR_TAMPPUDIS | (uint32_t)RTC_TAMPCR_TAMPIE
 149:../../../core/ST/STM32L4xx_HAL_Driver/Src/stm32l4xx_hal_rtc_ex.c ****                                        (uint32_t)RTC_TAMPCR_TAMP1IE   | (uint32_t)RTC_TAMPCR_TAMP1N
 150:../../../core/ST/STM32L4xx_HAL_Driver/Src/stm32l4xx_hal_rtc_ex.c ****                                        (uint32_t)RTC_TAMPCR_TAMP2IE   | (uint32_t)RTC_TAMPCR_TAMP2N
 151:../../../core/ST/STM32L4xx_HAL_Driver/Src/stm32l4xx_hal_rtc_ex.c ****                                        (uint32_t)RTC_TAMPCR_TAMP3IE   | (uint32_t)RTC_TAMPCR_TAMP3N
 152:../../../core/ST/STM32L4xx_HAL_Driver/Src/stm32l4xx_hal_rtc_ex.c **** #elif defined(RTC_TAMPER1_SUPPORT)
 153:../../../core/ST/STM32L4xx_HAL_Driver/Src/stm32l4xx_hal_rtc_ex.c **** #define RTC_TAMPCR_MASK               ((uint32_t)RTC_TAMPCR_TAMPTS    |\
 154:../../../core/ST/STM32L4xx_HAL_Driver/Src/stm32l4xx_hal_rtc_ex.c ****                                        (uint32_t)RTC_TAMPCR_TAMPFREQ  | (uint32_t)RTC_TAMPCR_TAMPFL
 155:../../../core/ST/STM32L4xx_HAL_Driver/Src/stm32l4xx_hal_rtc_ex.c ****                                        (uint32_t)RTC_TAMPCR_TAMPPUDIS | (uint32_t)RTC_TAMPCR_TAMPIE
 156:../../../core/ST/STM32L4xx_HAL_Driver/Src/stm32l4xx_hal_rtc_ex.c ****                                        (uint32_t)RTC_TAMPCR_TAMP1IE   | (uint32_t)RTC_TAMPCR_TAMP1N
 157:../../../core/ST/STM32L4xx_HAL_Driver/Src/stm32l4xx_hal_rtc_ex.c ****                                        (uint32_t)RTC_TAMPCR_TAMP2IE   | (uint32_t)RTC_TAMPCR_TAMP2N
 158:../../../core/ST/STM32L4xx_HAL_Driver/Src/stm32l4xx_hal_rtc_ex.c **** #elif defined(RTC_TAMPER3_SUPPORT)
 159:../../../core/ST/STM32L4xx_HAL_Driver/Src/stm32l4xx_hal_rtc_ex.c **** #define RTC_TAMPCR_MASK               ((uint32_t)RTC_TAMPCR_TAMPTS    |\
 160:../../../core/ST/STM32L4xx_HAL_Driver/Src/stm32l4xx_hal_rtc_ex.c ****                                        (uint32_t)RTC_TAMPCR_TAMPFREQ  | (uint32_t)RTC_TAMPCR_TAMPFL
 161:../../../core/ST/STM32L4xx_HAL_Driver/Src/stm32l4xx_hal_rtc_ex.c ****                                        (uint32_t)RTC_TAMPCR_TAMPPUDIS | (uint32_t)RTC_TAMPCR_TAMPIE
 162:../../../core/ST/STM32L4xx_HAL_Driver/Src/stm32l4xx_hal_rtc_ex.c ****                                        (uint32_t)RTC_TAMPCR_TAMP2IE   | (uint32_t)RTC_TAMPCR_TAMP2N
 163:../../../core/ST/STM32L4xx_HAL_Driver/Src/stm32l4xx_hal_rtc_ex.c ****                                        (uint32_t)RTC_TAMPCR_TAMP3IE   | (uint32_t)RTC_TAMPCR_TAMP3N
 164:../../../core/ST/STM32L4xx_HAL_Driver/Src/stm32l4xx_hal_rtc_ex.c **** #else
 165:../../../core/ST/STM32L4xx_HAL_Driver/Src/stm32l4xx_hal_rtc_ex.c **** #define RTC_TAMPCR_MASK               ((uint32_t)RTC_TAMPCR_TAMPTS    |\
 166:../../../core/ST/STM32L4xx_HAL_Driver/Src/stm32l4xx_hal_rtc_ex.c ****                                        (uint32_t)RTC_TAMPCR_TAMPFREQ  | (uint32_t)RTC_TAMPCR_TAMPFL
 167:../../../core/ST/STM32L4xx_HAL_Driver/Src/stm32l4xx_hal_rtc_ex.c ****                                        (uint32_t)RTC_TAMPCR_TAMPPUDIS | (uint32_t)RTC_TAMPCR_TAMPIE
 168:../../../core/ST/STM32L4xx_HAL_Driver/Src/stm32l4xx_hal_rtc_ex.c ****                                        (uint32_t)RTC_TAMPCR_TAMP2IE   | (uint32_t)RTC_TAMPCR_TAMP2N
 169:../../../core/ST/STM32L4xx_HAL_Driver/Src/stm32l4xx_hal_rtc_ex.c **** #endif /* RTC_TAMPER1_SUPPORT && RTC_TAMPER3_SUPPORT */
 170:../../../core/ST/STM32L4xx_HAL_Driver/Src/stm32l4xx_hal_rtc_ex.c **** #endif /* #if defined(STM32L412xx) || defined(STM32L422xx) */
 171:../../../core/ST/STM32L4xx_HAL_Driver/Src/stm32l4xx_hal_rtc_ex.c **** 
 172:../../../core/ST/STM32L4xx_HAL_Driver/Src/stm32l4xx_hal_rtc_ex.c **** /* Private macro -------------------------------------------------------------*/
 173:../../../core/ST/STM32L4xx_HAL_Driver/Src/stm32l4xx_hal_rtc_ex.c **** /* Private variables ---------------------------------------------------------*/
 174:../../../core/ST/STM32L4xx_HAL_Driver/Src/stm32l4xx_hal_rtc_ex.c **** /* Private function prototypes -----------------------------------------------*/
 175:../../../core/ST/STM32L4xx_HAL_Driver/Src/stm32l4xx_hal_rtc_ex.c **** /* Exported functions --------------------------------------------------------*/
 176:../../../core/ST/STM32L4xx_HAL_Driver/Src/stm32l4xx_hal_rtc_ex.c **** 
 177:../../../core/ST/STM32L4xx_HAL_Driver/Src/stm32l4xx_hal_rtc_ex.c **** /** @addtogroup RTCEx_Exported_Functions
 178:../../../core/ST/STM32L4xx_HAL_Driver/Src/stm32l4xx_hal_rtc_ex.c ****   * @{
 179:../../../core/ST/STM32L4xx_HAL_Driver/Src/stm32l4xx_hal_rtc_ex.c ****   */
 180:../../../core/ST/STM32L4xx_HAL_Driver/Src/stm32l4xx_hal_rtc_ex.c **** 
 181:../../../core/ST/STM32L4xx_HAL_Driver/Src/stm32l4xx_hal_rtc_ex.c **** 
 182:../../../core/ST/STM32L4xx_HAL_Driver/Src/stm32l4xx_hal_rtc_ex.c **** /** @addtogroup RTCEx_Exported_Functions_Group1
 183:../../../core/ST/STM32L4xx_HAL_Driver/Src/stm32l4xx_hal_rtc_ex.c ****   * @brief   RTC TimeStamp and Tamper functions
 184:../../../core/ST/STM32L4xx_HAL_Driver/Src/stm32l4xx_hal_rtc_ex.c ****   *
 185:../../../core/ST/STM32L4xx_HAL_Driver/Src/stm32l4xx_hal_rtc_ex.c **** @verbatim
 186:../../../core/ST/STM32L4xx_HAL_Driver/Src/stm32l4xx_hal_rtc_ex.c ****  ===============================================================================
 187:../../../core/ST/STM32L4xx_HAL_Driver/Src/stm32l4xx_hal_rtc_ex.c ****                  ##### RTC TimeStamp and Tamper functions #####
 188:../../../core/ST/STM32L4xx_HAL_Driver/Src/stm32l4xx_hal_rtc_ex.c ****  ===============================================================================
ARM GAS  C:\Users\tomra\AppData\Local\Temp\ccoul9Yc.s 			page 5


 189:../../../core/ST/STM32L4xx_HAL_Driver/Src/stm32l4xx_hal_rtc_ex.c **** 
 190:../../../core/ST/STM32L4xx_HAL_Driver/Src/stm32l4xx_hal_rtc_ex.c ****  [..] This section provides functions allowing to configure TimeStamp feature
 191:../../../core/ST/STM32L4xx_HAL_Driver/Src/stm32l4xx_hal_rtc_ex.c **** 
 192:../../../core/ST/STM32L4xx_HAL_Driver/Src/stm32l4xx_hal_rtc_ex.c **** @endverbatim
 193:../../../core/ST/STM32L4xx_HAL_Driver/Src/stm32l4xx_hal_rtc_ex.c ****   * @{
 194:../../../core/ST/STM32L4xx_HAL_Driver/Src/stm32l4xx_hal_rtc_ex.c ****   */
 195:../../../core/ST/STM32L4xx_HAL_Driver/Src/stm32l4xx_hal_rtc_ex.c **** 
 196:../../../core/ST/STM32L4xx_HAL_Driver/Src/stm32l4xx_hal_rtc_ex.c **** /**
 197:../../../core/ST/STM32L4xx_HAL_Driver/Src/stm32l4xx_hal_rtc_ex.c ****   * @brief  Set TimeStamp.
 198:../../../core/ST/STM32L4xx_HAL_Driver/Src/stm32l4xx_hal_rtc_ex.c ****   * @note   This API must be called before enabling the TimeStamp feature.
 199:../../../core/ST/STM32L4xx_HAL_Driver/Src/stm32l4xx_hal_rtc_ex.c ****   * @param  hrtc RTC handle
 200:../../../core/ST/STM32L4xx_HAL_Driver/Src/stm32l4xx_hal_rtc_ex.c ****   * @param  TimeStampEdge Specifies the pin edge on which the TimeStamp is
 201:../../../core/ST/STM32L4xx_HAL_Driver/Src/stm32l4xx_hal_rtc_ex.c ****   *         activated.
 202:../../../core/ST/STM32L4xx_HAL_Driver/Src/stm32l4xx_hal_rtc_ex.c ****   *          This parameter can be one of the following values:
 203:../../../core/ST/STM32L4xx_HAL_Driver/Src/stm32l4xx_hal_rtc_ex.c ****   *             @arg RTC_TIMESTAMPEDGE_RISING: the Time stamp event occurs on the
 204:../../../core/ST/STM32L4xx_HAL_Driver/Src/stm32l4xx_hal_rtc_ex.c ****   *                                        rising edge of the related pin.
 205:../../../core/ST/STM32L4xx_HAL_Driver/Src/stm32l4xx_hal_rtc_ex.c ****   *             @arg RTC_TIMESTAMPEDGE_FALLING: the Time stamp event occurs on the
 206:../../../core/ST/STM32L4xx_HAL_Driver/Src/stm32l4xx_hal_rtc_ex.c ****   *                                         falling edge of the related pin.
 207:../../../core/ST/STM32L4xx_HAL_Driver/Src/stm32l4xx_hal_rtc_ex.c ****   * @param  RTC_TimeStampPin specifies the RTC TimeStamp Pin.
 208:../../../core/ST/STM32L4xx_HAL_Driver/Src/stm32l4xx_hal_rtc_ex.c ****   *          This parameter can be one of the following values:
 209:../../../core/ST/STM32L4xx_HAL_Driver/Src/stm32l4xx_hal_rtc_ex.c ****   *             @arg RTC_TIMESTAMPPIN_DEFAULT: PC13 is selected as RTC TimeStamp Pin.
 210:../../../core/ST/STM32L4xx_HAL_Driver/Src/stm32l4xx_hal_rtc_ex.c ****   *               The RTC TimeStamp Pin is per default PC13, but for reasons of
 211:../../../core/ST/STM32L4xx_HAL_Driver/Src/stm32l4xx_hal_rtc_ex.c ****   *               compatibility, this parameter is required.
 212:../../../core/ST/STM32L4xx_HAL_Driver/Src/stm32l4xx_hal_rtc_ex.c ****   * @retval HAL status
 213:../../../core/ST/STM32L4xx_HAL_Driver/Src/stm32l4xx_hal_rtc_ex.c ****   */
 214:../../../core/ST/STM32L4xx_HAL_Driver/Src/stm32l4xx_hal_rtc_ex.c **** HAL_StatusTypeDef HAL_RTCEx_SetTimeStamp(RTC_HandleTypeDef *hrtc, uint32_t TimeStampEdge, uint32_t 
 215:../../../core/ST/STM32L4xx_HAL_Driver/Src/stm32l4xx_hal_rtc_ex.c **** {
  35              		.loc 1 215 1 view -0
  36              		.cfi_startproc
  37              		@ args = 0, pretend = 0, frame = 0
  38              		@ frame_needed = 0, uses_anonymous_args = 0
  39              		.loc 1 215 1 is_stmt 0 view .LVU1
  40 0000 70B5     		push	{r4, r5, r6, lr}
  41              	.LCFI0:
  42              		.cfi_def_cfa_offset 16
  43              		.cfi_offset 4, -16
  44              		.cfi_offset 5, -12
  45              		.cfi_offset 6, -8
  46              		.cfi_offset 14, -4
  47 0002 0446     		mov	r4, r0
  48 0004 1646     		mov	r6, r2
 216:../../../core/ST/STM32L4xx_HAL_Driver/Src/stm32l4xx_hal_rtc_ex.c ****   uint32_t tmpreg;
  49              		.loc 1 216 3 is_stmt 1 view .LVU2
 217:../../../core/ST/STM32L4xx_HAL_Driver/Src/stm32l4xx_hal_rtc_ex.c **** 
 218:../../../core/ST/STM32L4xx_HAL_Driver/Src/stm32l4xx_hal_rtc_ex.c ****   /* Check the parameters */
 219:../../../core/ST/STM32L4xx_HAL_Driver/Src/stm32l4xx_hal_rtc_ex.c ****   assert_param(IS_TIMESTAMP_EDGE(TimeStampEdge));
  50              		.loc 1 219 3 view .LVU3
  51 0006 0D46     		mov	r5, r1
  52 0008 09B1     		cbz	r1, .L2
  53              		.loc 1 219 3 is_stmt 0 discriminator 1 view .LVU4
  54 000a 0829     		cmp	r1, #8
  55 000c 26D1     		bne	.L7
  56              	.LVL1:
  57              	.L2:
 220:../../../core/ST/STM32L4xx_HAL_Driver/Src/stm32l4xx_hal_rtc_ex.c ****   assert_param(IS_RTC_TIMESTAMP_PIN(RTC_TimeStampPin));
  58              		.loc 1 220 3 is_stmt 1 view .LVU5
  59 000e 56BB     		cbnz	r6, .L8
ARM GAS  C:\Users\tomra\AppData\Local\Temp\ccoul9Yc.s 			page 6


  60              	.L3:
 221:../../../core/ST/STM32L4xx_HAL_Driver/Src/stm32l4xx_hal_rtc_ex.c **** 
 222:../../../core/ST/STM32L4xx_HAL_Driver/Src/stm32l4xx_hal_rtc_ex.c ****   /* Prevent unused argument(s) compilation warning if no assert_param check */
 223:../../../core/ST/STM32L4xx_HAL_Driver/Src/stm32l4xx_hal_rtc_ex.c ****   UNUSED(RTC_TimeStampPin);
  61              		.loc 1 223 3 view .LVU6
 224:../../../core/ST/STM32L4xx_HAL_Driver/Src/stm32l4xx_hal_rtc_ex.c **** 
 225:../../../core/ST/STM32L4xx_HAL_Driver/Src/stm32l4xx_hal_rtc_ex.c ****   /* Process Locked */
 226:../../../core/ST/STM32L4xx_HAL_Driver/Src/stm32l4xx_hal_rtc_ex.c ****   __HAL_LOCK(hrtc);
  62              		.loc 1 226 3 view .LVU7
  63              		.loc 1 226 3 view .LVU8
  64 0010 94F82030 		ldrb	r3, [r4, #32]	@ zero_extendqisi2
  65 0014 012B     		cmp	r3, #1
  66 0016 2BD0     		beq	.L5
  67              		.loc 1 226 3 discriminator 2 view .LVU9
  68 0018 0122     		movs	r2, #1
  69 001a 84F82020 		strb	r2, [r4, #32]
  70              		.loc 1 226 3 discriminator 2 view .LVU10
 227:../../../core/ST/STM32L4xx_HAL_Driver/Src/stm32l4xx_hal_rtc_ex.c **** 
 228:../../../core/ST/STM32L4xx_HAL_Driver/Src/stm32l4xx_hal_rtc_ex.c ****   hrtc->State = HAL_RTC_STATE_BUSY;
  71              		.loc 1 228 3 discriminator 2 view .LVU11
  72              		.loc 1 228 15 is_stmt 0 discriminator 2 view .LVU12
  73 001e 0223     		movs	r3, #2
  74 0020 84F82130 		strb	r3, [r4, #33]
 229:../../../core/ST/STM32L4xx_HAL_Driver/Src/stm32l4xx_hal_rtc_ex.c **** 
 230:../../../core/ST/STM32L4xx_HAL_Driver/Src/stm32l4xx_hal_rtc_ex.c ****   /* Get the RTC_CR register and clear the bits to be configured */
 231:../../../core/ST/STM32L4xx_HAL_Driver/Src/stm32l4xx_hal_rtc_ex.c ****   tmpreg = (uint32_t)(hrtc->Instance->CR & (uint32_t)~(RTC_CR_TSEDGE | RTC_CR_TSE));
  75              		.loc 1 231 3 is_stmt 1 discriminator 2 view .LVU13
  76              		.loc 1 231 27 is_stmt 0 discriminator 2 view .LVU14
  77 0024 2168     		ldr	r1, [r4]
  78              		.loc 1 231 37 discriminator 2 view .LVU15
  79 0026 8B68     		ldr	r3, [r1, #8]
  80              		.loc 1 231 10 discriminator 2 view .LVU16
  81 0028 23F40063 		bic	r3, r3, #2048
  82 002c 23F00803 		bic	r3, r3, #8
  83              	.LVL2:
 232:../../../core/ST/STM32L4xx_HAL_Driver/Src/stm32l4xx_hal_rtc_ex.c **** 
 233:../../../core/ST/STM32L4xx_HAL_Driver/Src/stm32l4xx_hal_rtc_ex.c ****   tmpreg |= TimeStampEdge;
  84              		.loc 1 233 3 is_stmt 1 discriminator 2 view .LVU17
  85              		.loc 1 233 10 is_stmt 0 discriminator 2 view .LVU18
  86 0030 2B43     		orrs	r3, r3, r5
  87              	.LVL3:
 234:../../../core/ST/STM32L4xx_HAL_Driver/Src/stm32l4xx_hal_rtc_ex.c **** 
 235:../../../core/ST/STM32L4xx_HAL_Driver/Src/stm32l4xx_hal_rtc_ex.c ****   /* Disable the write protection for RTC registers */
 236:../../../core/ST/STM32L4xx_HAL_Driver/Src/stm32l4xx_hal_rtc_ex.c ****   __HAL_RTC_WRITEPROTECTION_DISABLE(hrtc);
  88              		.loc 1 236 3 is_stmt 1 discriminator 2 view .LVU19
  89              		.loc 1 236 3 discriminator 2 view .LVU20
  90 0032 CA20     		movs	r0, #202
  91 0034 4862     		str	r0, [r1, #36]
  92              		.loc 1 236 3 discriminator 2 view .LVU21
  93 0036 2168     		ldr	r1, [r4]
  94 0038 5320     		movs	r0, #83
  95 003a 4862     		str	r0, [r1, #36]
  96              		.loc 1 236 3 discriminator 2 view .LVU22
 237:../../../core/ST/STM32L4xx_HAL_Driver/Src/stm32l4xx_hal_rtc_ex.c **** 
 238:../../../core/ST/STM32L4xx_HAL_Driver/Src/stm32l4xx_hal_rtc_ex.c ****   /* Configure the Time Stamp TSEDGE and Enable bits */
 239:../../../core/ST/STM32L4xx_HAL_Driver/Src/stm32l4xx_hal_rtc_ex.c ****   hrtc->Instance->CR = (uint32_t)tmpreg;
  97              		.loc 1 239 3 discriminator 2 view .LVU23
ARM GAS  C:\Users\tomra\AppData\Local\Temp\ccoul9Yc.s 			page 7


  98              		.loc 1 239 7 is_stmt 0 discriminator 2 view .LVU24
  99 003c 2168     		ldr	r1, [r4]
 100              		.loc 1 239 22 discriminator 2 view .LVU25
 101 003e 8B60     		str	r3, [r1, #8]
 240:../../../core/ST/STM32L4xx_HAL_Driver/Src/stm32l4xx_hal_rtc_ex.c **** 
 241:../../../core/ST/STM32L4xx_HAL_Driver/Src/stm32l4xx_hal_rtc_ex.c ****   __HAL_RTC_TIMESTAMP_ENABLE(hrtc);
 102              		.loc 1 241 3 is_stmt 1 discriminator 2 view .LVU26
 103 0040 2168     		ldr	r1, [r4]
 104 0042 8B68     		ldr	r3, [r1, #8]
 105              	.LVL4:
 106              		.loc 1 241 3 is_stmt 0 discriminator 2 view .LVU27
 107 0044 43F40063 		orr	r3, r3, #2048
 108 0048 8B60     		str	r3, [r1, #8]
 242:../../../core/ST/STM32L4xx_HAL_Driver/Src/stm32l4xx_hal_rtc_ex.c **** 
 243:../../../core/ST/STM32L4xx_HAL_Driver/Src/stm32l4xx_hal_rtc_ex.c ****   /* Enable the write protection for RTC registers */
 244:../../../core/ST/STM32L4xx_HAL_Driver/Src/stm32l4xx_hal_rtc_ex.c ****   __HAL_RTC_WRITEPROTECTION_ENABLE(hrtc);
 109              		.loc 1 244 3 is_stmt 1 discriminator 2 view .LVU28
 110              		.loc 1 244 3 discriminator 2 view .LVU29
 111 004a 2368     		ldr	r3, [r4]
 112 004c FF21     		movs	r1, #255
 113 004e 5962     		str	r1, [r3, #36]
 114              		.loc 1 244 3 discriminator 2 view .LVU30
 245:../../../core/ST/STM32L4xx_HAL_Driver/Src/stm32l4xx_hal_rtc_ex.c **** 
 246:../../../core/ST/STM32L4xx_HAL_Driver/Src/stm32l4xx_hal_rtc_ex.c ****   /* Change RTC state */
 247:../../../core/ST/STM32L4xx_HAL_Driver/Src/stm32l4xx_hal_rtc_ex.c ****   hrtc->State = HAL_RTC_STATE_READY;
 115              		.loc 1 247 3 discriminator 2 view .LVU31
 116              		.loc 1 247 15 is_stmt 0 discriminator 2 view .LVU32
 117 0050 84F82120 		strb	r2, [r4, #33]
 248:../../../core/ST/STM32L4xx_HAL_Driver/Src/stm32l4xx_hal_rtc_ex.c **** 
 249:../../../core/ST/STM32L4xx_HAL_Driver/Src/stm32l4xx_hal_rtc_ex.c ****   /* Process Unlocked */
 250:../../../core/ST/STM32L4xx_HAL_Driver/Src/stm32l4xx_hal_rtc_ex.c ****   __HAL_UNLOCK(hrtc);
 118              		.loc 1 250 3 is_stmt 1 discriminator 2 view .LVU33
 119              		.loc 1 250 3 discriminator 2 view .LVU34
 120 0054 0020     		movs	r0, #0
 121 0056 84F82000 		strb	r0, [r4, #32]
 122              		.loc 1 250 3 discriminator 2 view .LVU35
 251:../../../core/ST/STM32L4xx_HAL_Driver/Src/stm32l4xx_hal_rtc_ex.c **** 
 252:../../../core/ST/STM32L4xx_HAL_Driver/Src/stm32l4xx_hal_rtc_ex.c ****   return HAL_OK;
 123              		.loc 1 252 3 discriminator 2 view .LVU36
 124              	.L4:
 253:../../../core/ST/STM32L4xx_HAL_Driver/Src/stm32l4xx_hal_rtc_ex.c **** }
 125              		.loc 1 253 1 is_stmt 0 view .LVU37
 126 005a 70BD     		pop	{r4, r5, r6, pc}
 127              	.LVL5:
 128              	.L7:
 219:../../../core/ST/STM32L4xx_HAL_Driver/Src/stm32l4xx_hal_rtc_ex.c ****   assert_param(IS_RTC_TIMESTAMP_PIN(RTC_TimeStampPin));
 129              		.loc 1 219 3 discriminator 2 view .LVU38
 130 005c DB21     		movs	r1, #219
 131              	.LVL6:
 219:../../../core/ST/STM32L4xx_HAL_Driver/Src/stm32l4xx_hal_rtc_ex.c ****   assert_param(IS_RTC_TIMESTAMP_PIN(RTC_TimeStampPin));
 132              		.loc 1 219 3 discriminator 2 view .LVU39
 133 005e 0548     		ldr	r0, .L9
 134              	.LVL7:
 219:../../../core/ST/STM32L4xx_HAL_Driver/Src/stm32l4xx_hal_rtc_ex.c ****   assert_param(IS_RTC_TIMESTAMP_PIN(RTC_TimeStampPin));
 135              		.loc 1 219 3 discriminator 2 view .LVU40
 136 0060 FFF7FEFF 		bl	assert_failed
 137              	.LVL8:
ARM GAS  C:\Users\tomra\AppData\Local\Temp\ccoul9Yc.s 			page 8


 219:../../../core/ST/STM32L4xx_HAL_Driver/Src/stm32l4xx_hal_rtc_ex.c ****   assert_param(IS_RTC_TIMESTAMP_PIN(RTC_TimeStampPin));
 138              		.loc 1 219 3 discriminator 2 view .LVU41
 139 0064 D3E7     		b	.L2
 140              	.L8:
 220:../../../core/ST/STM32L4xx_HAL_Driver/Src/stm32l4xx_hal_rtc_ex.c **** 
 141              		.loc 1 220 3 discriminator 1 view .LVU42
 142 0066 DC21     		movs	r1, #220
 143 0068 0248     		ldr	r0, .L9
 144 006a FFF7FEFF 		bl	assert_failed
 145              	.LVL9:
 146 006e CFE7     		b	.L3
 147              	.L5:
 226:../../../core/ST/STM32L4xx_HAL_Driver/Src/stm32l4xx_hal_rtc_ex.c **** 
 148              		.loc 1 226 3 view .LVU43
 149 0070 0220     		movs	r0, #2
 150 0072 F2E7     		b	.L4
 151              	.L10:
 152              		.align	2
 153              	.L9:
 154 0074 00000000 		.word	.LC0
 155              		.cfi_endproc
 156              	.LFE123:
 158              		.section	.text.HAL_RTCEx_SetTimeStamp_IT,"ax",%progbits
 159              		.align	1
 160              		.global	HAL_RTCEx_SetTimeStamp_IT
 161              		.syntax unified
 162              		.thumb
 163              		.thumb_func
 164              		.fpu fpv4-sp-d16
 166              	HAL_RTCEx_SetTimeStamp_IT:
 167              	.LVL10:
 168              	.LFB124:
 254:../../../core/ST/STM32L4xx_HAL_Driver/Src/stm32l4xx_hal_rtc_ex.c **** 
 255:../../../core/ST/STM32L4xx_HAL_Driver/Src/stm32l4xx_hal_rtc_ex.c **** /**
 256:../../../core/ST/STM32L4xx_HAL_Driver/Src/stm32l4xx_hal_rtc_ex.c ****   * @brief  Set TimeStamp with Interrupt.
 257:../../../core/ST/STM32L4xx_HAL_Driver/Src/stm32l4xx_hal_rtc_ex.c ****   * @note   This API must be called before enabling the TimeStamp feature.
 258:../../../core/ST/STM32L4xx_HAL_Driver/Src/stm32l4xx_hal_rtc_ex.c ****   * @param  hrtc RTC handle
 259:../../../core/ST/STM32L4xx_HAL_Driver/Src/stm32l4xx_hal_rtc_ex.c ****   * @param  TimeStampEdge Specifies the pin edge on which the TimeStamp is
 260:../../../core/ST/STM32L4xx_HAL_Driver/Src/stm32l4xx_hal_rtc_ex.c ****   *         activated.
 261:../../../core/ST/STM32L4xx_HAL_Driver/Src/stm32l4xx_hal_rtc_ex.c ****   *          This parameter can be one of the following values:
 262:../../../core/ST/STM32L4xx_HAL_Driver/Src/stm32l4xx_hal_rtc_ex.c ****   *             @arg RTC_TIMESTAMPEDGE_RISING: the Time stamp event occurs on the
 263:../../../core/ST/STM32L4xx_HAL_Driver/Src/stm32l4xx_hal_rtc_ex.c ****   *                                        rising edge of the related pin.
 264:../../../core/ST/STM32L4xx_HAL_Driver/Src/stm32l4xx_hal_rtc_ex.c ****   *             @arg RTC_TIMESTAMPEDGE_FALLING: the Time stamp event occurs on the
 265:../../../core/ST/STM32L4xx_HAL_Driver/Src/stm32l4xx_hal_rtc_ex.c ****   *                                         falling edge of the related pin.
 266:../../../core/ST/STM32L4xx_HAL_Driver/Src/stm32l4xx_hal_rtc_ex.c ****   * @param  RTC_TimeStampPin Specifies the RTC TimeStamp Pin.
 267:../../../core/ST/STM32L4xx_HAL_Driver/Src/stm32l4xx_hal_rtc_ex.c ****   *          This parameter can be one of the following values:
 268:../../../core/ST/STM32L4xx_HAL_Driver/Src/stm32l4xx_hal_rtc_ex.c ****   *             @arg RTC_TIMESTAMPPIN_DEFAULT: PC13 is selected as RTC TimeStamp Pin.
 269:../../../core/ST/STM32L4xx_HAL_Driver/Src/stm32l4xx_hal_rtc_ex.c ****   *               The RTC TimeStamp Pin is per default PC13, but for reasons of
 270:../../../core/ST/STM32L4xx_HAL_Driver/Src/stm32l4xx_hal_rtc_ex.c ****   *               compatibility, this parameter is required.
 271:../../../core/ST/STM32L4xx_HAL_Driver/Src/stm32l4xx_hal_rtc_ex.c ****   * @retval HAL status
 272:../../../core/ST/STM32L4xx_HAL_Driver/Src/stm32l4xx_hal_rtc_ex.c ****   */
 273:../../../core/ST/STM32L4xx_HAL_Driver/Src/stm32l4xx_hal_rtc_ex.c **** HAL_StatusTypeDef HAL_RTCEx_SetTimeStamp_IT(RTC_HandleTypeDef *hrtc, uint32_t TimeStampEdge, uint32
 274:../../../core/ST/STM32L4xx_HAL_Driver/Src/stm32l4xx_hal_rtc_ex.c **** {
 169              		.loc 1 274 1 is_stmt 1 view -0
 170              		.cfi_startproc
 171              		@ args = 0, pretend = 0, frame = 0
 172              		@ frame_needed = 0, uses_anonymous_args = 0
ARM GAS  C:\Users\tomra\AppData\Local\Temp\ccoul9Yc.s 			page 9


 173              		.loc 1 274 1 is_stmt 0 view .LVU45
 174 0000 70B5     		push	{r4, r5, r6, lr}
 175              	.LCFI1:
 176              		.cfi_def_cfa_offset 16
 177              		.cfi_offset 4, -16
 178              		.cfi_offset 5, -12
 179              		.cfi_offset 6, -8
 180              		.cfi_offset 14, -4
 181 0002 0446     		mov	r4, r0
 182 0004 1646     		mov	r6, r2
 275:../../../core/ST/STM32L4xx_HAL_Driver/Src/stm32l4xx_hal_rtc_ex.c ****   uint32_t tmpreg;
 183              		.loc 1 275 3 is_stmt 1 view .LVU46
 276:../../../core/ST/STM32L4xx_HAL_Driver/Src/stm32l4xx_hal_rtc_ex.c **** 
 277:../../../core/ST/STM32L4xx_HAL_Driver/Src/stm32l4xx_hal_rtc_ex.c ****   /* Check the parameters */
 278:../../../core/ST/STM32L4xx_HAL_Driver/Src/stm32l4xx_hal_rtc_ex.c ****   assert_param(IS_TIMESTAMP_EDGE(TimeStampEdge));
 184              		.loc 1 278 3 view .LVU47
 185 0006 0D46     		mov	r5, r1
 186 0008 09B1     		cbz	r1, .L12
 187              		.loc 1 278 3 is_stmt 0 discriminator 1 view .LVU48
 188 000a 0829     		cmp	r1, #8
 189 000c 35D1     		bne	.L17
 190              	.LVL11:
 191              	.L12:
 279:../../../core/ST/STM32L4xx_HAL_Driver/Src/stm32l4xx_hal_rtc_ex.c ****   assert_param(IS_RTC_TIMESTAMP_PIN(RTC_TimeStampPin));
 192              		.loc 1 279 3 is_stmt 1 view .LVU49
 193 000e 002E     		cmp	r6, #0
 194 0010 39D1     		bne	.L18
 195              	.L13:
 280:../../../core/ST/STM32L4xx_HAL_Driver/Src/stm32l4xx_hal_rtc_ex.c **** 
 281:../../../core/ST/STM32L4xx_HAL_Driver/Src/stm32l4xx_hal_rtc_ex.c ****   /* Prevent unused argument(s) compilation warning if no assert_param check */
 282:../../../core/ST/STM32L4xx_HAL_Driver/Src/stm32l4xx_hal_rtc_ex.c ****   UNUSED(RTC_TimeStampPin);
 196              		.loc 1 282 3 view .LVU50
 283:../../../core/ST/STM32L4xx_HAL_Driver/Src/stm32l4xx_hal_rtc_ex.c **** 
 284:../../../core/ST/STM32L4xx_HAL_Driver/Src/stm32l4xx_hal_rtc_ex.c ****   /* Process Locked */
 285:../../../core/ST/STM32L4xx_HAL_Driver/Src/stm32l4xx_hal_rtc_ex.c ****   __HAL_LOCK(hrtc);
 197              		.loc 1 285 3 view .LVU51
 198              		.loc 1 285 3 view .LVU52
 199 0012 94F82030 		ldrb	r3, [r4, #32]	@ zero_extendqisi2
 200 0016 012B     		cmp	r3, #1
 201 0018 3BD0     		beq	.L15
 202              		.loc 1 285 3 discriminator 2 view .LVU53
 203 001a 0121     		movs	r1, #1
 204 001c 84F82010 		strb	r1, [r4, #32]
 205              		.loc 1 285 3 discriminator 2 view .LVU54
 286:../../../core/ST/STM32L4xx_HAL_Driver/Src/stm32l4xx_hal_rtc_ex.c **** 
 287:../../../core/ST/STM32L4xx_HAL_Driver/Src/stm32l4xx_hal_rtc_ex.c ****   hrtc->State = HAL_RTC_STATE_BUSY;
 206              		.loc 1 287 3 discriminator 2 view .LVU55
 207              		.loc 1 287 15 is_stmt 0 discriminator 2 view .LVU56
 208 0020 0223     		movs	r3, #2
 209 0022 84F82130 		strb	r3, [r4, #33]
 288:../../../core/ST/STM32L4xx_HAL_Driver/Src/stm32l4xx_hal_rtc_ex.c **** 
 289:../../../core/ST/STM32L4xx_HAL_Driver/Src/stm32l4xx_hal_rtc_ex.c ****   /* Get the RTC_CR register and clear the bits to be configured */
 290:../../../core/ST/STM32L4xx_HAL_Driver/Src/stm32l4xx_hal_rtc_ex.c ****   tmpreg = (uint32_t)(hrtc->Instance->CR & (uint32_t)~(RTC_CR_TSEDGE | RTC_CR_TSE));
 210              		.loc 1 290 3 is_stmt 1 discriminator 2 view .LVU57
 211              		.loc 1 290 27 is_stmt 0 discriminator 2 view .LVU58
 212 0026 2268     		ldr	r2, [r4]
 213              		.loc 1 290 37 discriminator 2 view .LVU59
ARM GAS  C:\Users\tomra\AppData\Local\Temp\ccoul9Yc.s 			page 10


 214 0028 9368     		ldr	r3, [r2, #8]
 215              		.loc 1 290 10 discriminator 2 view .LVU60
 216 002a 23F40063 		bic	r3, r3, #2048
 217 002e 23F00803 		bic	r3, r3, #8
 218              	.LVL12:
 291:../../../core/ST/STM32L4xx_HAL_Driver/Src/stm32l4xx_hal_rtc_ex.c **** 
 292:../../../core/ST/STM32L4xx_HAL_Driver/Src/stm32l4xx_hal_rtc_ex.c ****   tmpreg |= TimeStampEdge;
 219              		.loc 1 292 3 is_stmt 1 discriminator 2 view .LVU61
 220              		.loc 1 292 10 is_stmt 0 discriminator 2 view .LVU62
 221 0032 2B43     		orrs	r3, r3, r5
 222              	.LVL13:
 293:../../../core/ST/STM32L4xx_HAL_Driver/Src/stm32l4xx_hal_rtc_ex.c **** 
 294:../../../core/ST/STM32L4xx_HAL_Driver/Src/stm32l4xx_hal_rtc_ex.c ****   /* Disable the write protection for RTC registers */
 295:../../../core/ST/STM32L4xx_HAL_Driver/Src/stm32l4xx_hal_rtc_ex.c ****   __HAL_RTC_WRITEPROTECTION_DISABLE(hrtc);
 223              		.loc 1 295 3 is_stmt 1 discriminator 2 view .LVU63
 224              		.loc 1 295 3 discriminator 2 view .LVU64
 225 0034 CA20     		movs	r0, #202
 226 0036 5062     		str	r0, [r2, #36]
 227              		.loc 1 295 3 discriminator 2 view .LVU65
 228 0038 2268     		ldr	r2, [r4]
 229 003a 5320     		movs	r0, #83
 230 003c 5062     		str	r0, [r2, #36]
 231              		.loc 1 295 3 discriminator 2 view .LVU66
 296:../../../core/ST/STM32L4xx_HAL_Driver/Src/stm32l4xx_hal_rtc_ex.c **** 
 297:../../../core/ST/STM32L4xx_HAL_Driver/Src/stm32l4xx_hal_rtc_ex.c ****   /* Configure the Time Stamp TSEDGE and Enable bits */
 298:../../../core/ST/STM32L4xx_HAL_Driver/Src/stm32l4xx_hal_rtc_ex.c ****   hrtc->Instance->CR = (uint32_t)tmpreg;
 232              		.loc 1 298 3 discriminator 2 view .LVU67
 233              		.loc 1 298 7 is_stmt 0 discriminator 2 view .LVU68
 234 003e 2268     		ldr	r2, [r4]
 235              		.loc 1 298 22 discriminator 2 view .LVU69
 236 0040 9360     		str	r3, [r2, #8]
 299:../../../core/ST/STM32L4xx_HAL_Driver/Src/stm32l4xx_hal_rtc_ex.c **** 
 300:../../../core/ST/STM32L4xx_HAL_Driver/Src/stm32l4xx_hal_rtc_ex.c ****   __HAL_RTC_TIMESTAMP_ENABLE(hrtc);
 237              		.loc 1 300 3 is_stmt 1 discriminator 2 view .LVU70
 238 0042 2268     		ldr	r2, [r4]
 239 0044 9368     		ldr	r3, [r2, #8]
 240              	.LVL14:
 241              		.loc 1 300 3 is_stmt 0 discriminator 2 view .LVU71
 242 0046 43F40063 		orr	r3, r3, #2048
 243 004a 9360     		str	r3, [r2, #8]
 301:../../../core/ST/STM32L4xx_HAL_Driver/Src/stm32l4xx_hal_rtc_ex.c **** 
 302:../../../core/ST/STM32L4xx_HAL_Driver/Src/stm32l4xx_hal_rtc_ex.c ****   /* Enable IT timestamp */
 303:../../../core/ST/STM32L4xx_HAL_Driver/Src/stm32l4xx_hal_rtc_ex.c ****   __HAL_RTC_TIMESTAMP_ENABLE_IT(hrtc,RTC_IT_TS);
 244              		.loc 1 303 3 is_stmt 1 discriminator 2 view .LVU72
 245 004c 2268     		ldr	r2, [r4]
 246 004e 9368     		ldr	r3, [r2, #8]
 247 0050 43F40043 		orr	r3, r3, #32768
 248 0054 9360     		str	r3, [r2, #8]
 304:../../../core/ST/STM32L4xx_HAL_Driver/Src/stm32l4xx_hal_rtc_ex.c **** 
 305:../../../core/ST/STM32L4xx_HAL_Driver/Src/stm32l4xx_hal_rtc_ex.c ****   /* RTC timestamp Interrupt Configuration: EXTI configuration */
 306:../../../core/ST/STM32L4xx_HAL_Driver/Src/stm32l4xx_hal_rtc_ex.c ****   __HAL_RTC_TAMPER_TIMESTAMP_EXTI_ENABLE_IT();
 249              		.loc 1 306 3 discriminator 2 view .LVU73
 250 0056 104B     		ldr	r3, .L19
 251 0058 1A68     		ldr	r2, [r3]
 252 005a 42F40022 		orr	r2, r2, #524288
 253 005e 1A60     		str	r2, [r3]
 307:../../../core/ST/STM32L4xx_HAL_Driver/Src/stm32l4xx_hal_rtc_ex.c ****   __HAL_RTC_TAMPER_TIMESTAMP_EXTI_ENABLE_RISING_EDGE();
ARM GAS  C:\Users\tomra\AppData\Local\Temp\ccoul9Yc.s 			page 11


 254              		.loc 1 307 3 discriminator 2 view .LVU74
 255 0060 9A68     		ldr	r2, [r3, #8]
 256 0062 42F40022 		orr	r2, r2, #524288
 257 0066 9A60     		str	r2, [r3, #8]
 308:../../../core/ST/STM32L4xx_HAL_Driver/Src/stm32l4xx_hal_rtc_ex.c **** 
 309:../../../core/ST/STM32L4xx_HAL_Driver/Src/stm32l4xx_hal_rtc_ex.c ****   /* Enable the write protection for RTC registers */
 310:../../../core/ST/STM32L4xx_HAL_Driver/Src/stm32l4xx_hal_rtc_ex.c ****   __HAL_RTC_WRITEPROTECTION_ENABLE(hrtc);
 258              		.loc 1 310 3 discriminator 2 view .LVU75
 259              		.loc 1 310 3 discriminator 2 view .LVU76
 260 0068 2368     		ldr	r3, [r4]
 261 006a FF22     		movs	r2, #255
 262 006c 5A62     		str	r2, [r3, #36]
 263              		.loc 1 310 3 discriminator 2 view .LVU77
 311:../../../core/ST/STM32L4xx_HAL_Driver/Src/stm32l4xx_hal_rtc_ex.c **** 
 312:../../../core/ST/STM32L4xx_HAL_Driver/Src/stm32l4xx_hal_rtc_ex.c ****   hrtc->State = HAL_RTC_STATE_READY;
 264              		.loc 1 312 3 discriminator 2 view .LVU78
 265              		.loc 1 312 15 is_stmt 0 discriminator 2 view .LVU79
 266 006e 84F82110 		strb	r1, [r4, #33]
 313:../../../core/ST/STM32L4xx_HAL_Driver/Src/stm32l4xx_hal_rtc_ex.c **** 
 314:../../../core/ST/STM32L4xx_HAL_Driver/Src/stm32l4xx_hal_rtc_ex.c ****   /* Process Unlocked */
 315:../../../core/ST/STM32L4xx_HAL_Driver/Src/stm32l4xx_hal_rtc_ex.c ****   __HAL_UNLOCK(hrtc);
 267              		.loc 1 315 3 is_stmt 1 discriminator 2 view .LVU80
 268              		.loc 1 315 3 discriminator 2 view .LVU81
 269 0072 0020     		movs	r0, #0
 270 0074 84F82000 		strb	r0, [r4, #32]
 271              		.loc 1 315 3 discriminator 2 view .LVU82
 316:../../../core/ST/STM32L4xx_HAL_Driver/Src/stm32l4xx_hal_rtc_ex.c **** 
 317:../../../core/ST/STM32L4xx_HAL_Driver/Src/stm32l4xx_hal_rtc_ex.c ****   return HAL_OK;
 272              		.loc 1 317 3 discriminator 2 view .LVU83
 273              	.L14:
 318:../../../core/ST/STM32L4xx_HAL_Driver/Src/stm32l4xx_hal_rtc_ex.c **** }
 274              		.loc 1 318 1 is_stmt 0 view .LVU84
 275 0078 70BD     		pop	{r4, r5, r6, pc}
 276              	.LVL15:
 277              	.L17:
 278:../../../core/ST/STM32L4xx_HAL_Driver/Src/stm32l4xx_hal_rtc_ex.c ****   assert_param(IS_RTC_TIMESTAMP_PIN(RTC_TimeStampPin));
 278              		.loc 1 278 3 discriminator 2 view .LVU85
 279 007a 4FF48B71 		mov	r1, #278
 280              	.LVL16:
 278:../../../core/ST/STM32L4xx_HAL_Driver/Src/stm32l4xx_hal_rtc_ex.c ****   assert_param(IS_RTC_TIMESTAMP_PIN(RTC_TimeStampPin));
 281              		.loc 1 278 3 discriminator 2 view .LVU86
 282 007e 0748     		ldr	r0, .L19+4
 283              	.LVL17:
 278:../../../core/ST/STM32L4xx_HAL_Driver/Src/stm32l4xx_hal_rtc_ex.c ****   assert_param(IS_RTC_TIMESTAMP_PIN(RTC_TimeStampPin));
 284              		.loc 1 278 3 discriminator 2 view .LVU87
 285 0080 FFF7FEFF 		bl	assert_failed
 286              	.LVL18:
 278:../../../core/ST/STM32L4xx_HAL_Driver/Src/stm32l4xx_hal_rtc_ex.c ****   assert_param(IS_RTC_TIMESTAMP_PIN(RTC_TimeStampPin));
 287              		.loc 1 278 3 discriminator 2 view .LVU88
 288 0084 C3E7     		b	.L12
 289              	.L18:
 279:../../../core/ST/STM32L4xx_HAL_Driver/Src/stm32l4xx_hal_rtc_ex.c **** 
 290              		.loc 1 279 3 discriminator 1 view .LVU89
 291 0086 40F21711 		movw	r1, #279
 292 008a 0448     		ldr	r0, .L19+4
 293 008c FFF7FEFF 		bl	assert_failed
 294              	.LVL19:
ARM GAS  C:\Users\tomra\AppData\Local\Temp\ccoul9Yc.s 			page 12


 295 0090 BFE7     		b	.L13
 296              	.L15:
 285:../../../core/ST/STM32L4xx_HAL_Driver/Src/stm32l4xx_hal_rtc_ex.c **** 
 297              		.loc 1 285 3 view .LVU90
 298 0092 0220     		movs	r0, #2
 299 0094 F0E7     		b	.L14
 300              	.L20:
 301 0096 00BF     		.align	2
 302              	.L19:
 303 0098 00040140 		.word	1073808384
 304 009c 00000000 		.word	.LC0
 305              		.cfi_endproc
 306              	.LFE124:
 308              		.section	.text.HAL_RTCEx_DeactivateTimeStamp,"ax",%progbits
 309              		.align	1
 310              		.global	HAL_RTCEx_DeactivateTimeStamp
 311              		.syntax unified
 312              		.thumb
 313              		.thumb_func
 314              		.fpu fpv4-sp-d16
 316              	HAL_RTCEx_DeactivateTimeStamp:
 317              	.LVL20:
 318              	.LFB125:
 319:../../../core/ST/STM32L4xx_HAL_Driver/Src/stm32l4xx_hal_rtc_ex.c **** 
 320:../../../core/ST/STM32L4xx_HAL_Driver/Src/stm32l4xx_hal_rtc_ex.c **** /**
 321:../../../core/ST/STM32L4xx_HAL_Driver/Src/stm32l4xx_hal_rtc_ex.c ****   * @brief  Deactivate TimeStamp.
 322:../../../core/ST/STM32L4xx_HAL_Driver/Src/stm32l4xx_hal_rtc_ex.c ****   * @param  hrtc RTC handle
 323:../../../core/ST/STM32L4xx_HAL_Driver/Src/stm32l4xx_hal_rtc_ex.c ****   * @retval HAL status
 324:../../../core/ST/STM32L4xx_HAL_Driver/Src/stm32l4xx_hal_rtc_ex.c ****   */
 325:../../../core/ST/STM32L4xx_HAL_Driver/Src/stm32l4xx_hal_rtc_ex.c **** HAL_StatusTypeDef HAL_RTCEx_DeactivateTimeStamp(RTC_HandleTypeDef *hrtc)
 326:../../../core/ST/STM32L4xx_HAL_Driver/Src/stm32l4xx_hal_rtc_ex.c **** {
 319              		.loc 1 326 1 is_stmt 1 view -0
 320              		.cfi_startproc
 321              		@ args = 0, pretend = 0, frame = 0
 322              		@ frame_needed = 0, uses_anonymous_args = 0
 323              		@ link register save eliminated.
 327:../../../core/ST/STM32L4xx_HAL_Driver/Src/stm32l4xx_hal_rtc_ex.c ****   uint32_t tmpreg;
 324              		.loc 1 327 3 view .LVU92
 328:../../../core/ST/STM32L4xx_HAL_Driver/Src/stm32l4xx_hal_rtc_ex.c **** 
 329:../../../core/ST/STM32L4xx_HAL_Driver/Src/stm32l4xx_hal_rtc_ex.c ****   /* Process Locked */
 330:../../../core/ST/STM32L4xx_HAL_Driver/Src/stm32l4xx_hal_rtc_ex.c ****   __HAL_LOCK(hrtc);
 325              		.loc 1 330 3 view .LVU93
 326              		.loc 1 330 3 view .LVU94
 327 0000 90F82030 		ldrb	r3, [r0, #32]	@ zero_extendqisi2
 328 0004 012B     		cmp	r3, #1
 329 0006 21D0     		beq	.L23
 330              		.loc 1 330 3 discriminator 2 view .LVU95
 331 0008 0122     		movs	r2, #1
 332 000a 80F82020 		strb	r2, [r0, #32]
 333              		.loc 1 330 3 discriminator 2 view .LVU96
 331:../../../core/ST/STM32L4xx_HAL_Driver/Src/stm32l4xx_hal_rtc_ex.c **** 
 332:../../../core/ST/STM32L4xx_HAL_Driver/Src/stm32l4xx_hal_rtc_ex.c ****   hrtc->State = HAL_RTC_STATE_BUSY;
 334              		.loc 1 332 3 discriminator 2 view .LVU97
 335              		.loc 1 332 15 is_stmt 0 discriminator 2 view .LVU98
 336 000e 0223     		movs	r3, #2
 337 0010 80F82130 		strb	r3, [r0, #33]
 333:../../../core/ST/STM32L4xx_HAL_Driver/Src/stm32l4xx_hal_rtc_ex.c **** 
ARM GAS  C:\Users\tomra\AppData\Local\Temp\ccoul9Yc.s 			page 13


 334:../../../core/ST/STM32L4xx_HAL_Driver/Src/stm32l4xx_hal_rtc_ex.c ****   /* Disable the write protection for RTC registers */
 335:../../../core/ST/STM32L4xx_HAL_Driver/Src/stm32l4xx_hal_rtc_ex.c ****   __HAL_RTC_WRITEPROTECTION_DISABLE(hrtc);
 338              		.loc 1 335 3 is_stmt 1 discriminator 2 view .LVU99
 339              		.loc 1 335 3 discriminator 2 view .LVU100
 340 0014 0368     		ldr	r3, [r0]
 341 0016 CA21     		movs	r1, #202
 342 0018 5962     		str	r1, [r3, #36]
 343              		.loc 1 335 3 discriminator 2 view .LVU101
 344 001a 0368     		ldr	r3, [r0]
 345 001c 5321     		movs	r1, #83
 346 001e 5962     		str	r1, [r3, #36]
 347              		.loc 1 335 3 discriminator 2 view .LVU102
 336:../../../core/ST/STM32L4xx_HAL_Driver/Src/stm32l4xx_hal_rtc_ex.c **** 
 337:../../../core/ST/STM32L4xx_HAL_Driver/Src/stm32l4xx_hal_rtc_ex.c ****   /* In case of interrupt mode is used, the interrupt source must disabled */
 338:../../../core/ST/STM32L4xx_HAL_Driver/Src/stm32l4xx_hal_rtc_ex.c ****   __HAL_RTC_TIMESTAMP_DISABLE_IT(hrtc, RTC_IT_TS);
 348              		.loc 1 338 3 discriminator 2 view .LVU103
 349 0020 0168     		ldr	r1, [r0]
 350 0022 8B68     		ldr	r3, [r1, #8]
 351 0024 23F40043 		bic	r3, r3, #32768
 352 0028 8B60     		str	r3, [r1, #8]
 339:../../../core/ST/STM32L4xx_HAL_Driver/Src/stm32l4xx_hal_rtc_ex.c **** 
 340:../../../core/ST/STM32L4xx_HAL_Driver/Src/stm32l4xx_hal_rtc_ex.c ****   /* Get the RTC_CR register and clear the bits to be configured */
 341:../../../core/ST/STM32L4xx_HAL_Driver/Src/stm32l4xx_hal_rtc_ex.c ****   tmpreg = (uint32_t)(hrtc->Instance->CR & (uint32_t)~(RTC_CR_TSEDGE | RTC_CR_TSE));
 353              		.loc 1 341 3 discriminator 2 view .LVU104
 354              		.loc 1 341 27 is_stmt 0 discriminator 2 view .LVU105
 355 002a 0168     		ldr	r1, [r0]
 356              		.loc 1 341 37 discriminator 2 view .LVU106
 357 002c 8B68     		ldr	r3, [r1, #8]
 358              		.loc 1 341 10 discriminator 2 view .LVU107
 359 002e 23F40063 		bic	r3, r3, #2048
 360 0032 23F00803 		bic	r3, r3, #8
 361              	.LVL21:
 342:../../../core/ST/STM32L4xx_HAL_Driver/Src/stm32l4xx_hal_rtc_ex.c **** 
 343:../../../core/ST/STM32L4xx_HAL_Driver/Src/stm32l4xx_hal_rtc_ex.c ****   /* Configure the Time Stamp TSEDGE and Enable bits */
 344:../../../core/ST/STM32L4xx_HAL_Driver/Src/stm32l4xx_hal_rtc_ex.c ****   hrtc->Instance->CR = (uint32_t)tmpreg;
 362              		.loc 1 344 3 is_stmt 1 discriminator 2 view .LVU108
 363              		.loc 1 344 22 is_stmt 0 discriminator 2 view .LVU109
 364 0036 8B60     		str	r3, [r1, #8]
 345:../../../core/ST/STM32L4xx_HAL_Driver/Src/stm32l4xx_hal_rtc_ex.c **** 
 346:../../../core/ST/STM32L4xx_HAL_Driver/Src/stm32l4xx_hal_rtc_ex.c ****   /* Enable the write protection for RTC registers */
 347:../../../core/ST/STM32L4xx_HAL_Driver/Src/stm32l4xx_hal_rtc_ex.c ****   __HAL_RTC_WRITEPROTECTION_ENABLE(hrtc);
 365              		.loc 1 347 3 is_stmt 1 discriminator 2 view .LVU110
 366              		.loc 1 347 3 discriminator 2 view .LVU111
 367 0038 0368     		ldr	r3, [r0]
 368              	.LVL22:
 369              		.loc 1 347 3 is_stmt 0 discriminator 2 view .LVU112
 370 003a FF21     		movs	r1, #255
 371              	.LVL23:
 372              		.loc 1 347 3 discriminator 2 view .LVU113
 373 003c 5962     		str	r1, [r3, #36]
 374              		.loc 1 347 3 is_stmt 1 discriminator 2 view .LVU114
 348:../../../core/ST/STM32L4xx_HAL_Driver/Src/stm32l4xx_hal_rtc_ex.c **** 
 349:../../../core/ST/STM32L4xx_HAL_Driver/Src/stm32l4xx_hal_rtc_ex.c ****   hrtc->State = HAL_RTC_STATE_READY;
 375              		.loc 1 349 3 discriminator 2 view .LVU115
 376              		.loc 1 349 15 is_stmt 0 discriminator 2 view .LVU116
 377 003e 80F82120 		strb	r2, [r0, #33]
 350:../../../core/ST/STM32L4xx_HAL_Driver/Src/stm32l4xx_hal_rtc_ex.c **** 
ARM GAS  C:\Users\tomra\AppData\Local\Temp\ccoul9Yc.s 			page 14


 351:../../../core/ST/STM32L4xx_HAL_Driver/Src/stm32l4xx_hal_rtc_ex.c ****   /* Process Unlocked */
 352:../../../core/ST/STM32L4xx_HAL_Driver/Src/stm32l4xx_hal_rtc_ex.c ****   __HAL_UNLOCK(hrtc);
 378              		.loc 1 352 3 is_stmt 1 discriminator 2 view .LVU117
 379              		.loc 1 352 3 discriminator 2 view .LVU118
 380 0042 0023     		movs	r3, #0
 381 0044 80F82030 		strb	r3, [r0, #32]
 382              		.loc 1 352 3 discriminator 2 view .LVU119
 353:../../../core/ST/STM32L4xx_HAL_Driver/Src/stm32l4xx_hal_rtc_ex.c **** 
 354:../../../core/ST/STM32L4xx_HAL_Driver/Src/stm32l4xx_hal_rtc_ex.c ****   return HAL_OK;
 383              		.loc 1 354 3 discriminator 2 view .LVU120
 384              		.loc 1 354 10 is_stmt 0 discriminator 2 view .LVU121
 385 0048 1846     		mov	r0, r3
 386              	.LVL24:
 387              		.loc 1 354 10 discriminator 2 view .LVU122
 388 004a 7047     		bx	lr
 389              	.LVL25:
 390              	.L23:
 330:../../../core/ST/STM32L4xx_HAL_Driver/Src/stm32l4xx_hal_rtc_ex.c **** 
 391              		.loc 1 330 3 view .LVU123
 392 004c 0220     		movs	r0, #2
 393              	.LVL26:
 355:../../../core/ST/STM32L4xx_HAL_Driver/Src/stm32l4xx_hal_rtc_ex.c **** }
 394              		.loc 1 355 1 view .LVU124
 395 004e 7047     		bx	lr
 396              		.cfi_endproc
 397              	.LFE125:
 399              		.section	.text.HAL_RTCEx_SetInternalTimeStamp,"ax",%progbits
 400              		.align	1
 401              		.global	HAL_RTCEx_SetInternalTimeStamp
 402              		.syntax unified
 403              		.thumb
 404              		.thumb_func
 405              		.fpu fpv4-sp-d16
 407              	HAL_RTCEx_SetInternalTimeStamp:
 408              	.LVL27:
 409              	.LFB126:
 356:../../../core/ST/STM32L4xx_HAL_Driver/Src/stm32l4xx_hal_rtc_ex.c **** 
 357:../../../core/ST/STM32L4xx_HAL_Driver/Src/stm32l4xx_hal_rtc_ex.c **** /**
 358:../../../core/ST/STM32L4xx_HAL_Driver/Src/stm32l4xx_hal_rtc_ex.c ****   * @brief  Set Internal TimeStamp.
 359:../../../core/ST/STM32L4xx_HAL_Driver/Src/stm32l4xx_hal_rtc_ex.c ****   * @note   This API must be called before enabling the internal TimeStamp feature.
 360:../../../core/ST/STM32L4xx_HAL_Driver/Src/stm32l4xx_hal_rtc_ex.c ****   * @param  hrtc RTC handle
 361:../../../core/ST/STM32L4xx_HAL_Driver/Src/stm32l4xx_hal_rtc_ex.c ****   * @retval HAL status
 362:../../../core/ST/STM32L4xx_HAL_Driver/Src/stm32l4xx_hal_rtc_ex.c ****   */
 363:../../../core/ST/STM32L4xx_HAL_Driver/Src/stm32l4xx_hal_rtc_ex.c **** HAL_StatusTypeDef HAL_RTCEx_SetInternalTimeStamp(RTC_HandleTypeDef *hrtc)
 364:../../../core/ST/STM32L4xx_HAL_Driver/Src/stm32l4xx_hal_rtc_ex.c **** {
 410              		.loc 1 364 1 is_stmt 1 view -0
 411              		.cfi_startproc
 412              		@ args = 0, pretend = 0, frame = 0
 413              		@ frame_needed = 0, uses_anonymous_args = 0
 414              		@ link register save eliminated.
 365:../../../core/ST/STM32L4xx_HAL_Driver/Src/stm32l4xx_hal_rtc_ex.c ****   /* Process Locked */
 366:../../../core/ST/STM32L4xx_HAL_Driver/Src/stm32l4xx_hal_rtc_ex.c ****   __HAL_LOCK(hrtc);
 415              		.loc 1 366 3 view .LVU126
 416              		.loc 1 366 3 view .LVU127
 417 0000 90F82030 		ldrb	r3, [r0, #32]	@ zero_extendqisi2
 418 0004 012B     		cmp	r3, #1
 419 0006 1AD0     		beq	.L26
ARM GAS  C:\Users\tomra\AppData\Local\Temp\ccoul9Yc.s 			page 15


 420              		.loc 1 366 3 discriminator 2 view .LVU128
 421 0008 0122     		movs	r2, #1
 422 000a 80F82020 		strb	r2, [r0, #32]
 423              		.loc 1 366 3 discriminator 2 view .LVU129
 367:../../../core/ST/STM32L4xx_HAL_Driver/Src/stm32l4xx_hal_rtc_ex.c **** 
 368:../../../core/ST/STM32L4xx_HAL_Driver/Src/stm32l4xx_hal_rtc_ex.c ****   hrtc->State = HAL_RTC_STATE_BUSY;
 424              		.loc 1 368 3 discriminator 2 view .LVU130
 425              		.loc 1 368 15 is_stmt 0 discriminator 2 view .LVU131
 426 000e 0223     		movs	r3, #2
 427 0010 80F82130 		strb	r3, [r0, #33]
 369:../../../core/ST/STM32L4xx_HAL_Driver/Src/stm32l4xx_hal_rtc_ex.c **** 
 370:../../../core/ST/STM32L4xx_HAL_Driver/Src/stm32l4xx_hal_rtc_ex.c ****   /* Disable the write protection for RTC registers */
 371:../../../core/ST/STM32L4xx_HAL_Driver/Src/stm32l4xx_hal_rtc_ex.c ****   __HAL_RTC_WRITEPROTECTION_DISABLE(hrtc);
 428              		.loc 1 371 3 is_stmt 1 discriminator 2 view .LVU132
 429              		.loc 1 371 3 discriminator 2 view .LVU133
 430 0014 0368     		ldr	r3, [r0]
 431 0016 CA21     		movs	r1, #202
 432 0018 5962     		str	r1, [r3, #36]
 433              		.loc 1 371 3 discriminator 2 view .LVU134
 434 001a 0368     		ldr	r3, [r0]
 435 001c 5321     		movs	r1, #83
 436 001e 5962     		str	r1, [r3, #36]
 437              		.loc 1 371 3 discriminator 2 view .LVU135
 372:../../../core/ST/STM32L4xx_HAL_Driver/Src/stm32l4xx_hal_rtc_ex.c **** 
 373:../../../core/ST/STM32L4xx_HAL_Driver/Src/stm32l4xx_hal_rtc_ex.c ****   /* Configure the internal Time Stamp Enable bits */
 374:../../../core/ST/STM32L4xx_HAL_Driver/Src/stm32l4xx_hal_rtc_ex.c ****   __HAL_RTC_INTERNAL_TIMESTAMP_ENABLE(hrtc);
 438              		.loc 1 374 3 discriminator 2 view .LVU136
 439 0020 0168     		ldr	r1, [r0]
 440 0022 8B68     		ldr	r3, [r1, #8]
 441 0024 43F08073 		orr	r3, r3, #16777216
 442 0028 8B60     		str	r3, [r1, #8]
 375:../../../core/ST/STM32L4xx_HAL_Driver/Src/stm32l4xx_hal_rtc_ex.c **** 
 376:../../../core/ST/STM32L4xx_HAL_Driver/Src/stm32l4xx_hal_rtc_ex.c ****   /* Enable the write protection for RTC registers */
 377:../../../core/ST/STM32L4xx_HAL_Driver/Src/stm32l4xx_hal_rtc_ex.c ****   __HAL_RTC_WRITEPROTECTION_ENABLE(hrtc);
 443              		.loc 1 377 3 discriminator 2 view .LVU137
 444              		.loc 1 377 3 discriminator 2 view .LVU138
 445 002a 0368     		ldr	r3, [r0]
 446 002c FF21     		movs	r1, #255
 447 002e 5962     		str	r1, [r3, #36]
 448              		.loc 1 377 3 discriminator 2 view .LVU139
 378:../../../core/ST/STM32L4xx_HAL_Driver/Src/stm32l4xx_hal_rtc_ex.c **** 
 379:../../../core/ST/STM32L4xx_HAL_Driver/Src/stm32l4xx_hal_rtc_ex.c ****   /* Change RTC state */
 380:../../../core/ST/STM32L4xx_HAL_Driver/Src/stm32l4xx_hal_rtc_ex.c ****   hrtc->State = HAL_RTC_STATE_READY;
 449              		.loc 1 380 3 discriminator 2 view .LVU140
 450              		.loc 1 380 15 is_stmt 0 discriminator 2 view .LVU141
 451 0030 80F82120 		strb	r2, [r0, #33]
 381:../../../core/ST/STM32L4xx_HAL_Driver/Src/stm32l4xx_hal_rtc_ex.c **** 
 382:../../../core/ST/STM32L4xx_HAL_Driver/Src/stm32l4xx_hal_rtc_ex.c ****   /* Process Unlocked */
 383:../../../core/ST/STM32L4xx_HAL_Driver/Src/stm32l4xx_hal_rtc_ex.c ****   __HAL_UNLOCK(hrtc);
 452              		.loc 1 383 3 is_stmt 1 discriminator 2 view .LVU142
 453              		.loc 1 383 3 discriminator 2 view .LVU143
 454 0034 0023     		movs	r3, #0
 455 0036 80F82030 		strb	r3, [r0, #32]
 456              		.loc 1 383 3 discriminator 2 view .LVU144
 384:../../../core/ST/STM32L4xx_HAL_Driver/Src/stm32l4xx_hal_rtc_ex.c **** 
 385:../../../core/ST/STM32L4xx_HAL_Driver/Src/stm32l4xx_hal_rtc_ex.c ****   return HAL_OK;
 457              		.loc 1 385 3 discriminator 2 view .LVU145
ARM GAS  C:\Users\tomra\AppData\Local\Temp\ccoul9Yc.s 			page 16


 458              		.loc 1 385 10 is_stmt 0 discriminator 2 view .LVU146
 459 003a 1846     		mov	r0, r3
 460              	.LVL28:
 461              		.loc 1 385 10 discriminator 2 view .LVU147
 462 003c 7047     		bx	lr
 463              	.LVL29:
 464              	.L26:
 366:../../../core/ST/STM32L4xx_HAL_Driver/Src/stm32l4xx_hal_rtc_ex.c **** 
 465              		.loc 1 366 3 view .LVU148
 466 003e 0220     		movs	r0, #2
 467              	.LVL30:
 386:../../../core/ST/STM32L4xx_HAL_Driver/Src/stm32l4xx_hal_rtc_ex.c **** }
 468              		.loc 1 386 1 view .LVU149
 469 0040 7047     		bx	lr
 470              		.cfi_endproc
 471              	.LFE126:
 473              		.section	.text.HAL_RTCEx_DeactivateInternalTimeStamp,"ax",%progbits
 474              		.align	1
 475              		.global	HAL_RTCEx_DeactivateInternalTimeStamp
 476              		.syntax unified
 477              		.thumb
 478              		.thumb_func
 479              		.fpu fpv4-sp-d16
 481              	HAL_RTCEx_DeactivateInternalTimeStamp:
 482              	.LVL31:
 483              	.LFB127:
 387:../../../core/ST/STM32L4xx_HAL_Driver/Src/stm32l4xx_hal_rtc_ex.c **** 
 388:../../../core/ST/STM32L4xx_HAL_Driver/Src/stm32l4xx_hal_rtc_ex.c **** /**
 389:../../../core/ST/STM32L4xx_HAL_Driver/Src/stm32l4xx_hal_rtc_ex.c ****   * @brief  Deactivate Internal TimeStamp.
 390:../../../core/ST/STM32L4xx_HAL_Driver/Src/stm32l4xx_hal_rtc_ex.c ****   * @param  hrtc RTC handle
 391:../../../core/ST/STM32L4xx_HAL_Driver/Src/stm32l4xx_hal_rtc_ex.c ****   * @retval HAL status
 392:../../../core/ST/STM32L4xx_HAL_Driver/Src/stm32l4xx_hal_rtc_ex.c ****   */
 393:../../../core/ST/STM32L4xx_HAL_Driver/Src/stm32l4xx_hal_rtc_ex.c **** HAL_StatusTypeDef HAL_RTCEx_DeactivateInternalTimeStamp(RTC_HandleTypeDef *hrtc)
 394:../../../core/ST/STM32L4xx_HAL_Driver/Src/stm32l4xx_hal_rtc_ex.c **** {
 484              		.loc 1 394 1 is_stmt 1 view -0
 485              		.cfi_startproc
 486              		@ args = 0, pretend = 0, frame = 0
 487              		@ frame_needed = 0, uses_anonymous_args = 0
 488              		@ link register save eliminated.
 395:../../../core/ST/STM32L4xx_HAL_Driver/Src/stm32l4xx_hal_rtc_ex.c ****   /* Process Locked */
 396:../../../core/ST/STM32L4xx_HAL_Driver/Src/stm32l4xx_hal_rtc_ex.c ****   __HAL_LOCK(hrtc);
 489              		.loc 1 396 3 view .LVU151
 490              		.loc 1 396 3 view .LVU152
 491 0000 90F82030 		ldrb	r3, [r0, #32]	@ zero_extendqisi2
 492 0004 012B     		cmp	r3, #1
 493 0006 1AD0     		beq	.L29
 494              		.loc 1 396 3 discriminator 2 view .LVU153
 495 0008 0122     		movs	r2, #1
 496 000a 80F82020 		strb	r2, [r0, #32]
 497              		.loc 1 396 3 discriminator 2 view .LVU154
 397:../../../core/ST/STM32L4xx_HAL_Driver/Src/stm32l4xx_hal_rtc_ex.c **** 
 398:../../../core/ST/STM32L4xx_HAL_Driver/Src/stm32l4xx_hal_rtc_ex.c ****   hrtc->State = HAL_RTC_STATE_BUSY;
 498              		.loc 1 398 3 discriminator 2 view .LVU155
 499              		.loc 1 398 15 is_stmt 0 discriminator 2 view .LVU156
 500 000e 0223     		movs	r3, #2
 501 0010 80F82130 		strb	r3, [r0, #33]
 399:../../../core/ST/STM32L4xx_HAL_Driver/Src/stm32l4xx_hal_rtc_ex.c **** 
ARM GAS  C:\Users\tomra\AppData\Local\Temp\ccoul9Yc.s 			page 17


 400:../../../core/ST/STM32L4xx_HAL_Driver/Src/stm32l4xx_hal_rtc_ex.c ****   /* Disable the write protection for RTC registers */
 401:../../../core/ST/STM32L4xx_HAL_Driver/Src/stm32l4xx_hal_rtc_ex.c ****   __HAL_RTC_WRITEPROTECTION_DISABLE(hrtc);
 502              		.loc 1 401 3 is_stmt 1 discriminator 2 view .LVU157
 503              		.loc 1 401 3 discriminator 2 view .LVU158
 504 0014 0368     		ldr	r3, [r0]
 505 0016 CA21     		movs	r1, #202
 506 0018 5962     		str	r1, [r3, #36]
 507              		.loc 1 401 3 discriminator 2 view .LVU159
 508 001a 0368     		ldr	r3, [r0]
 509 001c 5321     		movs	r1, #83
 510 001e 5962     		str	r1, [r3, #36]
 511              		.loc 1 401 3 discriminator 2 view .LVU160
 402:../../../core/ST/STM32L4xx_HAL_Driver/Src/stm32l4xx_hal_rtc_ex.c **** 
 403:../../../core/ST/STM32L4xx_HAL_Driver/Src/stm32l4xx_hal_rtc_ex.c ****   /* Configure the internal Time Stamp Enable bits */
 404:../../../core/ST/STM32L4xx_HAL_Driver/Src/stm32l4xx_hal_rtc_ex.c ****   __HAL_RTC_INTERNAL_TIMESTAMP_DISABLE(hrtc);
 512              		.loc 1 404 3 discriminator 2 view .LVU161
 513 0020 0168     		ldr	r1, [r0]
 514 0022 8B68     		ldr	r3, [r1, #8]
 515 0024 23F08073 		bic	r3, r3, #16777216
 516 0028 8B60     		str	r3, [r1, #8]
 405:../../../core/ST/STM32L4xx_HAL_Driver/Src/stm32l4xx_hal_rtc_ex.c **** 
 406:../../../core/ST/STM32L4xx_HAL_Driver/Src/stm32l4xx_hal_rtc_ex.c ****   /* Enable the write protection for RTC registers */
 407:../../../core/ST/STM32L4xx_HAL_Driver/Src/stm32l4xx_hal_rtc_ex.c ****   __HAL_RTC_WRITEPROTECTION_ENABLE(hrtc);
 517              		.loc 1 407 3 discriminator 2 view .LVU162
 518              		.loc 1 407 3 discriminator 2 view .LVU163
 519 002a 0368     		ldr	r3, [r0]
 520 002c FF21     		movs	r1, #255
 521 002e 5962     		str	r1, [r3, #36]
 522              		.loc 1 407 3 discriminator 2 view .LVU164
 408:../../../core/ST/STM32L4xx_HAL_Driver/Src/stm32l4xx_hal_rtc_ex.c **** 
 409:../../../core/ST/STM32L4xx_HAL_Driver/Src/stm32l4xx_hal_rtc_ex.c ****   hrtc->State = HAL_RTC_STATE_READY;
 523              		.loc 1 409 3 discriminator 2 view .LVU165
 524              		.loc 1 409 15 is_stmt 0 discriminator 2 view .LVU166
 525 0030 80F82120 		strb	r2, [r0, #33]
 410:../../../core/ST/STM32L4xx_HAL_Driver/Src/stm32l4xx_hal_rtc_ex.c **** 
 411:../../../core/ST/STM32L4xx_HAL_Driver/Src/stm32l4xx_hal_rtc_ex.c ****   /* Process Unlocked */
 412:../../../core/ST/STM32L4xx_HAL_Driver/Src/stm32l4xx_hal_rtc_ex.c ****   __HAL_UNLOCK(hrtc);
 526              		.loc 1 412 3 is_stmt 1 discriminator 2 view .LVU167
 527              		.loc 1 412 3 discriminator 2 view .LVU168
 528 0034 0023     		movs	r3, #0
 529 0036 80F82030 		strb	r3, [r0, #32]
 530              		.loc 1 412 3 discriminator 2 view .LVU169
 413:../../../core/ST/STM32L4xx_HAL_Driver/Src/stm32l4xx_hal_rtc_ex.c **** 
 414:../../../core/ST/STM32L4xx_HAL_Driver/Src/stm32l4xx_hal_rtc_ex.c ****   return HAL_OK;
 531              		.loc 1 414 3 discriminator 2 view .LVU170
 532              		.loc 1 414 10 is_stmt 0 discriminator 2 view .LVU171
 533 003a 1846     		mov	r0, r3
 534              	.LVL32:
 535              		.loc 1 414 10 discriminator 2 view .LVU172
 536 003c 7047     		bx	lr
 537              	.LVL33:
 538              	.L29:
 396:../../../core/ST/STM32L4xx_HAL_Driver/Src/stm32l4xx_hal_rtc_ex.c **** 
 539              		.loc 1 396 3 view .LVU173
 540 003e 0220     		movs	r0, #2
 541              	.LVL34:
 415:../../../core/ST/STM32L4xx_HAL_Driver/Src/stm32l4xx_hal_rtc_ex.c **** }
ARM GAS  C:\Users\tomra\AppData\Local\Temp\ccoul9Yc.s 			page 18


 542              		.loc 1 415 1 view .LVU174
 543 0040 7047     		bx	lr
 544              		.cfi_endproc
 545              	.LFE127:
 547              		.section	.text.HAL_RTCEx_GetTimeStamp,"ax",%progbits
 548              		.align	1
 549              		.global	HAL_RTCEx_GetTimeStamp
 550              		.syntax unified
 551              		.thumb
 552              		.thumb_func
 553              		.fpu fpv4-sp-d16
 555              	HAL_RTCEx_GetTimeStamp:
 556              	.LVL35:
 557              	.LFB128:
 416:../../../core/ST/STM32L4xx_HAL_Driver/Src/stm32l4xx_hal_rtc_ex.c **** 
 417:../../../core/ST/STM32L4xx_HAL_Driver/Src/stm32l4xx_hal_rtc_ex.c **** /**
 418:../../../core/ST/STM32L4xx_HAL_Driver/Src/stm32l4xx_hal_rtc_ex.c ****   * @brief  Get the RTC TimeStamp value.
 419:../../../core/ST/STM32L4xx_HAL_Driver/Src/stm32l4xx_hal_rtc_ex.c ****   * @param  hrtc RTC handle
 420:../../../core/ST/STM32L4xx_HAL_Driver/Src/stm32l4xx_hal_rtc_ex.c ****   * @param  sTimeStamp Pointer to Time structure
 421:../../../core/ST/STM32L4xx_HAL_Driver/Src/stm32l4xx_hal_rtc_ex.c ****   * @param  sTimeStampDate Pointer to Date structure
 422:../../../core/ST/STM32L4xx_HAL_Driver/Src/stm32l4xx_hal_rtc_ex.c ****   * @param  Format specifies the format of the entered parameters.
 423:../../../core/ST/STM32L4xx_HAL_Driver/Src/stm32l4xx_hal_rtc_ex.c ****   *          This parameter can be one of the following values:
 424:../../../core/ST/STM32L4xx_HAL_Driver/Src/stm32l4xx_hal_rtc_ex.c ****   *             @arg RTC_FORMAT_BIN: Binary data format
 425:../../../core/ST/STM32L4xx_HAL_Driver/Src/stm32l4xx_hal_rtc_ex.c ****   *             @arg RTC_FORMAT_BCD: BCD data format
 426:../../../core/ST/STM32L4xx_HAL_Driver/Src/stm32l4xx_hal_rtc_ex.c ****   * @retval HAL status
 427:../../../core/ST/STM32L4xx_HAL_Driver/Src/stm32l4xx_hal_rtc_ex.c ****   */
 428:../../../core/ST/STM32L4xx_HAL_Driver/Src/stm32l4xx_hal_rtc_ex.c **** HAL_StatusTypeDef HAL_RTCEx_GetTimeStamp(RTC_HandleTypeDef *hrtc, RTC_TimeTypeDef* sTimeStamp, RTC_
 429:../../../core/ST/STM32L4xx_HAL_Driver/Src/stm32l4xx_hal_rtc_ex.c **** {
 558              		.loc 1 429 1 is_stmt 1 view -0
 559              		.cfi_startproc
 560              		@ args = 0, pretend = 0, frame = 0
 561              		@ frame_needed = 0, uses_anonymous_args = 0
 562              		.loc 1 429 1 is_stmt 0 view .LVU176
 563 0000 F8B5     		push	{r3, r4, r5, r6, r7, lr}
 564              	.LCFI2:
 565              		.cfi_def_cfa_offset 24
 566              		.cfi_offset 3, -24
 567              		.cfi_offset 4, -20
 568              		.cfi_offset 5, -16
 569              		.cfi_offset 6, -12
 570              		.cfi_offset 7, -8
 571              		.cfi_offset 14, -4
 572 0002 0646     		mov	r6, r0
 573 0004 0C46     		mov	r4, r1
 574 0006 1546     		mov	r5, r2
 575 0008 1F46     		mov	r7, r3
 430:../../../core/ST/STM32L4xx_HAL_Driver/Src/stm32l4xx_hal_rtc_ex.c ****   uint32_t tmptime, tmpdate;
 576              		.loc 1 430 3 is_stmt 1 view .LVU177
 431:../../../core/ST/STM32L4xx_HAL_Driver/Src/stm32l4xx_hal_rtc_ex.c **** 
 432:../../../core/ST/STM32L4xx_HAL_Driver/Src/stm32l4xx_hal_rtc_ex.c ****   /* Check the parameters */
 433:../../../core/ST/STM32L4xx_HAL_Driver/Src/stm32l4xx_hal_rtc_ex.c ****   assert_param(IS_RTC_FORMAT(Format));
 577              		.loc 1 433 3 view .LVU178
 578 000a 012B     		cmp	r3, #1
 579 000c 2BD8     		bhi	.L34
 580              	.LVL36:
 581              	.L31:
 434:../../../core/ST/STM32L4xx_HAL_Driver/Src/stm32l4xx_hal_rtc_ex.c **** 
ARM GAS  C:\Users\tomra\AppData\Local\Temp\ccoul9Yc.s 			page 19


 435:../../../core/ST/STM32L4xx_HAL_Driver/Src/stm32l4xx_hal_rtc_ex.c ****   /* Get the TimeStamp time and date registers values */
 436:../../../core/ST/STM32L4xx_HAL_Driver/Src/stm32l4xx_hal_rtc_ex.c ****   tmptime = (uint32_t)(hrtc->Instance->TSTR & RTC_TR_RESERVED_MASK);
 582              		.loc 1 436 3 view .LVU179
 583              		.loc 1 436 28 is_stmt 0 view .LVU180
 584 000e 3368     		ldr	r3, [r6]
 585              		.loc 1 436 38 view .LVU181
 586 0010 1A6B     		ldr	r2, [r3, #48]
 587              	.LVL37:
 437:../../../core/ST/STM32L4xx_HAL_Driver/Src/stm32l4xx_hal_rtc_ex.c ****   tmpdate = (uint32_t)(hrtc->Instance->TSDR & RTC_DR_RESERVED_MASK);
 588              		.loc 1 437 3 is_stmt 1 view .LVU182
 589              		.loc 1 437 38 is_stmt 0 view .LVU183
 590 0012 596B     		ldr	r1, [r3, #52]
 591              	.LVL38:
 438:../../../core/ST/STM32L4xx_HAL_Driver/Src/stm32l4xx_hal_rtc_ex.c **** 
 439:../../../core/ST/STM32L4xx_HAL_Driver/Src/stm32l4xx_hal_rtc_ex.c ****   /* Fill the Time structure fields with the read parameters */
 440:../../../core/ST/STM32L4xx_HAL_Driver/Src/stm32l4xx_hal_rtc_ex.c ****   sTimeStamp->Hours = (uint8_t)((tmptime & (RTC_TSTR_HT | RTC_TSTR_HU)) >> RTC_TSTR_HU_Pos);
 592              		.loc 1 440 3 is_stmt 1 view .LVU184
 593              		.loc 1 440 23 is_stmt 0 view .LVU185
 594 0014 C2F30543 		ubfx	r3, r2, #16, #6
 595              		.loc 1 440 21 view .LVU186
 596 0018 2370     		strb	r3, [r4]
 441:../../../core/ST/STM32L4xx_HAL_Driver/Src/stm32l4xx_hal_rtc_ex.c ****   sTimeStamp->Minutes = (uint8_t)((tmptime & (RTC_TSTR_MNT | RTC_TSTR_MNU)) >> RTC_TSTR_MNU_Pos);
 597              		.loc 1 441 3 is_stmt 1 view .LVU187
 598              		.loc 1 441 25 is_stmt 0 view .LVU188
 599 001a C2F30623 		ubfx	r3, r2, #8, #7
 600              		.loc 1 441 23 view .LVU189
 601 001e 6370     		strb	r3, [r4, #1]
 442:../../../core/ST/STM32L4xx_HAL_Driver/Src/stm32l4xx_hal_rtc_ex.c ****   sTimeStamp->Seconds = (uint8_t)((tmptime & (RTC_TSTR_ST | RTC_TSTR_SU)) >> RTC_TSTR_SU_Pos);
 602              		.loc 1 442 3 is_stmt 1 view .LVU190
 603              		.loc 1 442 25 is_stmt 0 view .LVU191
 604 0020 02F07F03 		and	r3, r2, #127
 605              		.loc 1 442 23 view .LVU192
 606 0024 A370     		strb	r3, [r4, #2]
 443:../../../core/ST/STM32L4xx_HAL_Driver/Src/stm32l4xx_hal_rtc_ex.c ****   sTimeStamp->TimeFormat = (uint8_t)((tmptime & (RTC_TSTR_PM)) >> RTC_TSTR_PM_Pos);
 607              		.loc 1 443 3 is_stmt 1 view .LVU193
 608              		.loc 1 443 28 is_stmt 0 view .LVU194
 609 0026 C2F38052 		ubfx	r2, r2, #22, #1
 610              	.LVL39:
 611              		.loc 1 443 26 view .LVU195
 612 002a E270     		strb	r2, [r4, #3]
 444:../../../core/ST/STM32L4xx_HAL_Driver/Src/stm32l4xx_hal_rtc_ex.c ****   sTimeStamp->SubSeconds = (uint32_t) hrtc->Instance->TSSSR;
 613              		.loc 1 444 3 is_stmt 1 view .LVU196
 614              		.loc 1 444 43 is_stmt 0 view .LVU197
 615 002c 3368     		ldr	r3, [r6]
 616              		.loc 1 444 53 view .LVU198
 617 002e 9B6B     		ldr	r3, [r3, #56]
 618              		.loc 1 444 26 view .LVU199
 619 0030 6360     		str	r3, [r4, #4]
 445:../../../core/ST/STM32L4xx_HAL_Driver/Src/stm32l4xx_hal_rtc_ex.c **** 
 446:../../../core/ST/STM32L4xx_HAL_Driver/Src/stm32l4xx_hal_rtc_ex.c ****   /* Fill the Date structure fields with the read parameters */
 447:../../../core/ST/STM32L4xx_HAL_Driver/Src/stm32l4xx_hal_rtc_ex.c ****   sTimeStampDate->Year = 0U;
 620              		.loc 1 447 3 is_stmt 1 view .LVU200
 621              		.loc 1 447 24 is_stmt 0 view .LVU201
 622 0032 0023     		movs	r3, #0
 623 0034 EB70     		strb	r3, [r5, #3]
 448:../../../core/ST/STM32L4xx_HAL_Driver/Src/stm32l4xx_hal_rtc_ex.c ****   sTimeStampDate->Month = (uint8_t)((tmpdate & (RTC_TSDR_MT | RTC_TSDR_MU)) >> RTC_TSDR_MU_Pos);
 624              		.loc 1 448 3 is_stmt 1 view .LVU202
ARM GAS  C:\Users\tomra\AppData\Local\Temp\ccoul9Yc.s 			page 20


 625              		.loc 1 448 27 is_stmt 0 view .LVU203
 626 0036 C1F30423 		ubfx	r3, r1, #8, #5
 627              		.loc 1 448 25 view .LVU204
 628 003a 6B70     		strb	r3, [r5, #1]
 449:../../../core/ST/STM32L4xx_HAL_Driver/Src/stm32l4xx_hal_rtc_ex.c ****   sTimeStampDate->Date = (uint8_t)((tmpdate & (RTC_TSDR_DT | RTC_TSDR_DU)) >> RTC_TSDR_DU_Pos);
 629              		.loc 1 449 3 is_stmt 1 view .LVU205
 630              		.loc 1 449 26 is_stmt 0 view .LVU206
 631 003c 01F03F03 		and	r3, r1, #63
 632              		.loc 1 449 24 view .LVU207
 633 0040 AB70     		strb	r3, [r5, #2]
 450:../../../core/ST/STM32L4xx_HAL_Driver/Src/stm32l4xx_hal_rtc_ex.c ****   sTimeStampDate->WeekDay = (uint8_t)((tmpdate & (RTC_TSDR_WDU)) >> RTC_TSDR_WDU_Pos);
 634              		.loc 1 450 3 is_stmt 1 view .LVU208
 635              		.loc 1 450 29 is_stmt 0 view .LVU209
 636 0042 C1F34231 		ubfx	r1, r1, #13, #3
 637              	.LVL40:
 638              		.loc 1 450 27 view .LVU210
 639 0046 2970     		strb	r1, [r5]
 451:../../../core/ST/STM32L4xx_HAL_Driver/Src/stm32l4xx_hal_rtc_ex.c **** 
 452:../../../core/ST/STM32L4xx_HAL_Driver/Src/stm32l4xx_hal_rtc_ex.c ****   /* Check the input parameters format */
 453:../../../core/ST/STM32L4xx_HAL_Driver/Src/stm32l4xx_hal_rtc_ex.c ****   if(Format == RTC_FORMAT_BIN)
 640              		.loc 1 453 3 is_stmt 1 view .LVU211
 641              		.loc 1 453 5 is_stmt 0 view .LVU212
 642 0048 9FB1     		cbz	r7, .L35
 643              	.L32:
 454:../../../core/ST/STM32L4xx_HAL_Driver/Src/stm32l4xx_hal_rtc_ex.c ****   {
 455:../../../core/ST/STM32L4xx_HAL_Driver/Src/stm32l4xx_hal_rtc_ex.c ****     /* Convert the TimeStamp structure parameters to Binary format */
 456:../../../core/ST/STM32L4xx_HAL_Driver/Src/stm32l4xx_hal_rtc_ex.c ****     sTimeStamp->Hours = (uint8_t)RTC_Bcd2ToByte(sTimeStamp->Hours);
 457:../../../core/ST/STM32L4xx_HAL_Driver/Src/stm32l4xx_hal_rtc_ex.c ****     sTimeStamp->Minutes = (uint8_t)RTC_Bcd2ToByte(sTimeStamp->Minutes);
 458:../../../core/ST/STM32L4xx_HAL_Driver/Src/stm32l4xx_hal_rtc_ex.c ****     sTimeStamp->Seconds = (uint8_t)RTC_Bcd2ToByte(sTimeStamp->Seconds);
 459:../../../core/ST/STM32L4xx_HAL_Driver/Src/stm32l4xx_hal_rtc_ex.c **** 
 460:../../../core/ST/STM32L4xx_HAL_Driver/Src/stm32l4xx_hal_rtc_ex.c ****     /* Convert the DateTimeStamp structure parameters to Binary format */
 461:../../../core/ST/STM32L4xx_HAL_Driver/Src/stm32l4xx_hal_rtc_ex.c ****     sTimeStampDate->Month = (uint8_t)RTC_Bcd2ToByte(sTimeStampDate->Month);
 462:../../../core/ST/STM32L4xx_HAL_Driver/Src/stm32l4xx_hal_rtc_ex.c ****     sTimeStampDate->Date = (uint8_t)RTC_Bcd2ToByte(sTimeStampDate->Date);
 463:../../../core/ST/STM32L4xx_HAL_Driver/Src/stm32l4xx_hal_rtc_ex.c ****     sTimeStampDate->WeekDay = (uint8_t)RTC_Bcd2ToByte(sTimeStampDate->WeekDay);
 464:../../../core/ST/STM32L4xx_HAL_Driver/Src/stm32l4xx_hal_rtc_ex.c ****   }
 465:../../../core/ST/STM32L4xx_HAL_Driver/Src/stm32l4xx_hal_rtc_ex.c **** 
 466:../../../core/ST/STM32L4xx_HAL_Driver/Src/stm32l4xx_hal_rtc_ex.c ****   /* Clear the TIMESTAMP Flags */
 467:../../../core/ST/STM32L4xx_HAL_Driver/Src/stm32l4xx_hal_rtc_ex.c ****   __HAL_RTC_INTERNAL_TIMESTAMP_CLEAR_FLAG(hrtc, RTC_FLAG_ITSF);
 644              		.loc 1 467 3 is_stmt 1 view .LVU213
 645 004a 3168     		ldr	r1, [r6]
 646 004c CA68     		ldr	r2, [r1, #12]
 647 004e D2B2     		uxtb	r2, r2
 648 0050 144B     		ldr	r3, .L36
 649 0052 1343     		orrs	r3, r3, r2
 650 0054 CB60     		str	r3, [r1, #12]
 468:../../../core/ST/STM32L4xx_HAL_Driver/Src/stm32l4xx_hal_rtc_ex.c ****   __HAL_RTC_TIMESTAMP_CLEAR_FLAG(hrtc, RTC_FLAG_TSF);
 651              		.loc 1 468 3 view .LVU214
 652 0056 3268     		ldr	r2, [r6]
 653 0058 D368     		ldr	r3, [r2, #12]
 654 005a DBB2     		uxtb	r3, r3
 655 005c 63F40863 		orn	r3, r3, #2176
 656 0060 D360     		str	r3, [r2, #12]
 469:../../../core/ST/STM32L4xx_HAL_Driver/Src/stm32l4xx_hal_rtc_ex.c **** 
 470:../../../core/ST/STM32L4xx_HAL_Driver/Src/stm32l4xx_hal_rtc_ex.c ****   return HAL_OK;
 657              		.loc 1 470 3 view .LVU215
 471:../../../core/ST/STM32L4xx_HAL_Driver/Src/stm32l4xx_hal_rtc_ex.c **** }
 658              		.loc 1 471 1 is_stmt 0 view .LVU216
ARM GAS  C:\Users\tomra\AppData\Local\Temp\ccoul9Yc.s 			page 21


 659 0062 0020     		movs	r0, #0
 660 0064 F8BD     		pop	{r3, r4, r5, r6, r7, pc}
 661              	.LVL41:
 662              	.L34:
 433:../../../core/ST/STM32L4xx_HAL_Driver/Src/stm32l4xx_hal_rtc_ex.c **** 
 663              		.loc 1 433 3 discriminator 1 view .LVU217
 664 0066 40F2B111 		movw	r1, #433
 665              	.LVL42:
 433:../../../core/ST/STM32L4xx_HAL_Driver/Src/stm32l4xx_hal_rtc_ex.c **** 
 666              		.loc 1 433 3 discriminator 1 view .LVU218
 667 006a 0F48     		ldr	r0, .L36+4
 668              	.LVL43:
 433:../../../core/ST/STM32L4xx_HAL_Driver/Src/stm32l4xx_hal_rtc_ex.c **** 
 669              		.loc 1 433 3 discriminator 1 view .LVU219
 670 006c FFF7FEFF 		bl	assert_failed
 671              	.LVL44:
 433:../../../core/ST/STM32L4xx_HAL_Driver/Src/stm32l4xx_hal_rtc_ex.c **** 
 672              		.loc 1 433 3 discriminator 1 view .LVU220
 673 0070 CDE7     		b	.L31
 674              	.L35:
 456:../../../core/ST/STM32L4xx_HAL_Driver/Src/stm32l4xx_hal_rtc_ex.c ****     sTimeStamp->Minutes = (uint8_t)RTC_Bcd2ToByte(sTimeStamp->Minutes);
 675              		.loc 1 456 5 is_stmt 1 view .LVU221
 456:../../../core/ST/STM32L4xx_HAL_Driver/Src/stm32l4xx_hal_rtc_ex.c ****     sTimeStamp->Minutes = (uint8_t)RTC_Bcd2ToByte(sTimeStamp->Minutes);
 676              		.loc 1 456 34 is_stmt 0 view .LVU222
 677 0072 2078     		ldrb	r0, [r4]	@ zero_extendqisi2
 678 0074 FFF7FEFF 		bl	RTC_Bcd2ToByte
 679              	.LVL45:
 456:../../../core/ST/STM32L4xx_HAL_Driver/Src/stm32l4xx_hal_rtc_ex.c ****     sTimeStamp->Minutes = (uint8_t)RTC_Bcd2ToByte(sTimeStamp->Minutes);
 680              		.loc 1 456 23 view .LVU223
 681 0078 2070     		strb	r0, [r4]
 457:../../../core/ST/STM32L4xx_HAL_Driver/Src/stm32l4xx_hal_rtc_ex.c ****     sTimeStamp->Seconds = (uint8_t)RTC_Bcd2ToByte(sTimeStamp->Seconds);
 682              		.loc 1 457 5 is_stmt 1 view .LVU224
 457:../../../core/ST/STM32L4xx_HAL_Driver/Src/stm32l4xx_hal_rtc_ex.c ****     sTimeStamp->Seconds = (uint8_t)RTC_Bcd2ToByte(sTimeStamp->Seconds);
 683              		.loc 1 457 36 is_stmt 0 view .LVU225
 684 007a 6078     		ldrb	r0, [r4, #1]	@ zero_extendqisi2
 685 007c FFF7FEFF 		bl	RTC_Bcd2ToByte
 686              	.LVL46:
 457:../../../core/ST/STM32L4xx_HAL_Driver/Src/stm32l4xx_hal_rtc_ex.c ****     sTimeStamp->Seconds = (uint8_t)RTC_Bcd2ToByte(sTimeStamp->Seconds);
 687              		.loc 1 457 25 view .LVU226
 688 0080 6070     		strb	r0, [r4, #1]
 458:../../../core/ST/STM32L4xx_HAL_Driver/Src/stm32l4xx_hal_rtc_ex.c **** 
 689              		.loc 1 458 5 is_stmt 1 view .LVU227
 458:../../../core/ST/STM32L4xx_HAL_Driver/Src/stm32l4xx_hal_rtc_ex.c **** 
 690              		.loc 1 458 36 is_stmt 0 view .LVU228
 691 0082 A078     		ldrb	r0, [r4, #2]	@ zero_extendqisi2
 692 0084 FFF7FEFF 		bl	RTC_Bcd2ToByte
 693              	.LVL47:
 458:../../../core/ST/STM32L4xx_HAL_Driver/Src/stm32l4xx_hal_rtc_ex.c **** 
 694              		.loc 1 458 25 view .LVU229
 695 0088 A070     		strb	r0, [r4, #2]
 461:../../../core/ST/STM32L4xx_HAL_Driver/Src/stm32l4xx_hal_rtc_ex.c ****     sTimeStampDate->Date = (uint8_t)RTC_Bcd2ToByte(sTimeStampDate->Date);
 696              		.loc 1 461 5 is_stmt 1 view .LVU230
 461:../../../core/ST/STM32L4xx_HAL_Driver/Src/stm32l4xx_hal_rtc_ex.c ****     sTimeStampDate->Date = (uint8_t)RTC_Bcd2ToByte(sTimeStampDate->Date);
 697              		.loc 1 461 38 is_stmt 0 view .LVU231
 698 008a 6878     		ldrb	r0, [r5, #1]	@ zero_extendqisi2
 699 008c FFF7FEFF 		bl	RTC_Bcd2ToByte
 700              	.LVL48:
ARM GAS  C:\Users\tomra\AppData\Local\Temp\ccoul9Yc.s 			page 22


 461:../../../core/ST/STM32L4xx_HAL_Driver/Src/stm32l4xx_hal_rtc_ex.c ****     sTimeStampDate->Date = (uint8_t)RTC_Bcd2ToByte(sTimeStampDate->Date);
 701              		.loc 1 461 27 view .LVU232
 702 0090 6870     		strb	r0, [r5, #1]
 462:../../../core/ST/STM32L4xx_HAL_Driver/Src/stm32l4xx_hal_rtc_ex.c ****     sTimeStampDate->WeekDay = (uint8_t)RTC_Bcd2ToByte(sTimeStampDate->WeekDay);
 703              		.loc 1 462 5 is_stmt 1 view .LVU233
 462:../../../core/ST/STM32L4xx_HAL_Driver/Src/stm32l4xx_hal_rtc_ex.c ****     sTimeStampDate->WeekDay = (uint8_t)RTC_Bcd2ToByte(sTimeStampDate->WeekDay);
 704              		.loc 1 462 37 is_stmt 0 view .LVU234
 705 0092 A878     		ldrb	r0, [r5, #2]	@ zero_extendqisi2
 706 0094 FFF7FEFF 		bl	RTC_Bcd2ToByte
 707              	.LVL49:
 462:../../../core/ST/STM32L4xx_HAL_Driver/Src/stm32l4xx_hal_rtc_ex.c ****     sTimeStampDate->WeekDay = (uint8_t)RTC_Bcd2ToByte(sTimeStampDate->WeekDay);
 708              		.loc 1 462 26 view .LVU235
 709 0098 A870     		strb	r0, [r5, #2]
 463:../../../core/ST/STM32L4xx_HAL_Driver/Src/stm32l4xx_hal_rtc_ex.c ****   }
 710              		.loc 1 463 5 is_stmt 1 view .LVU236
 463:../../../core/ST/STM32L4xx_HAL_Driver/Src/stm32l4xx_hal_rtc_ex.c ****   }
 711              		.loc 1 463 40 is_stmt 0 view .LVU237
 712 009a 2878     		ldrb	r0, [r5]	@ zero_extendqisi2
 713 009c FFF7FEFF 		bl	RTC_Bcd2ToByte
 714              	.LVL50:
 463:../../../core/ST/STM32L4xx_HAL_Driver/Src/stm32l4xx_hal_rtc_ex.c ****   }
 715              		.loc 1 463 29 view .LVU238
 716 00a0 2870     		strb	r0, [r5]
 717 00a2 D2E7     		b	.L32
 718              	.L37:
 719              		.align	2
 720              	.L36:
 721 00a4 7FFFFDFF 		.word	-131201
 722 00a8 00000000 		.word	.LC0
 723              		.cfi_endproc
 724              	.LFE128:
 726              		.section	.text.HAL_RTCEx_TimeStampEventCallback,"ax",%progbits
 727              		.align	1
 728              		.weak	HAL_RTCEx_TimeStampEventCallback
 729              		.syntax unified
 730              		.thumb
 731              		.thumb_func
 732              		.fpu fpv4-sp-d16
 734              	HAL_RTCEx_TimeStampEventCallback:
 735              	.LVL51:
 736              	.LFB130:
 472:../../../core/ST/STM32L4xx_HAL_Driver/Src/stm32l4xx_hal_rtc_ex.c **** 
 473:../../../core/ST/STM32L4xx_HAL_Driver/Src/stm32l4xx_hal_rtc_ex.c **** /**
 474:../../../core/ST/STM32L4xx_HAL_Driver/Src/stm32l4xx_hal_rtc_ex.c ****   * @brief  Handle TimeStamp interrupt request.
 475:../../../core/ST/STM32L4xx_HAL_Driver/Src/stm32l4xx_hal_rtc_ex.c ****   * @param  hrtc RTC handle
 476:../../../core/ST/STM32L4xx_HAL_Driver/Src/stm32l4xx_hal_rtc_ex.c ****   * @retval None
 477:../../../core/ST/STM32L4xx_HAL_Driver/Src/stm32l4xx_hal_rtc_ex.c ****   */
 478:../../../core/ST/STM32L4xx_HAL_Driver/Src/stm32l4xx_hal_rtc_ex.c **** #if defined(STM32L412xx) || defined(STM32L422xx)
 479:../../../core/ST/STM32L4xx_HAL_Driver/Src/stm32l4xx_hal_rtc_ex.c **** 
 480:../../../core/ST/STM32L4xx_HAL_Driver/Src/stm32l4xx_hal_rtc_ex.c **** void HAL_RTCEx_TamperTimeStampIRQHandler(RTC_HandleTypeDef *hrtc)
 481:../../../core/ST/STM32L4xx_HAL_Driver/Src/stm32l4xx_hal_rtc_ex.c **** {
 482:../../../core/ST/STM32L4xx_HAL_Driver/Src/stm32l4xx_hal_rtc_ex.c **** 
 483:../../../core/ST/STM32L4xx_HAL_Driver/Src/stm32l4xx_hal_rtc_ex.c ****   /* Process TAMP instance pointer */
 484:../../../core/ST/STM32L4xx_HAL_Driver/Src/stm32l4xx_hal_rtc_ex.c ****   TAMP_TypeDef *tamp = (TAMP_TypeDef *)((uint32_t)hrtc->Instance + hrtc->TampOffset);
 485:../../../core/ST/STM32L4xx_HAL_Driver/Src/stm32l4xx_hal_rtc_ex.c **** 
 486:../../../core/ST/STM32L4xx_HAL_Driver/Src/stm32l4xx_hal_rtc_ex.c ****   /* Clear the EXTI's Flag for RTC TimeStamp and Tamper */
 487:../../../core/ST/STM32L4xx_HAL_Driver/Src/stm32l4xx_hal_rtc_ex.c ****   __HAL_RTC_TAMPER_TIMESTAMP_EXTI_CLEAR_FLAG();
ARM GAS  C:\Users\tomra\AppData\Local\Temp\ccoul9Yc.s 			page 23


 488:../../../core/ST/STM32L4xx_HAL_Driver/Src/stm32l4xx_hal_rtc_ex.c **** 
 489:../../../core/ST/STM32L4xx_HAL_Driver/Src/stm32l4xx_hal_rtc_ex.c ****   if((hrtc->Instance->MISR & RTC_MISR_TSMF) != 0u)
 490:../../../core/ST/STM32L4xx_HAL_Driver/Src/stm32l4xx_hal_rtc_ex.c ****   {
 491:../../../core/ST/STM32L4xx_HAL_Driver/Src/stm32l4xx_hal_rtc_ex.c **** #if (USE_HAL_RTC_REGISTER_CALLBACKS == 1)
 492:../../../core/ST/STM32L4xx_HAL_Driver/Src/stm32l4xx_hal_rtc_ex.c ****     /* Call TimeStampEvent registered Callback */
 493:../../../core/ST/STM32L4xx_HAL_Driver/Src/stm32l4xx_hal_rtc_ex.c ****     hrtc->TimeStampEventCallback(hrtc);
 494:../../../core/ST/STM32L4xx_HAL_Driver/Src/stm32l4xx_hal_rtc_ex.c **** #else
 495:../../../core/ST/STM32L4xx_HAL_Driver/Src/stm32l4xx_hal_rtc_ex.c ****     HAL_RTCEx_TimeStampEventCallback(hrtc);
 496:../../../core/ST/STM32L4xx_HAL_Driver/Src/stm32l4xx_hal_rtc_ex.c **** #endif
 497:../../../core/ST/STM32L4xx_HAL_Driver/Src/stm32l4xx_hal_rtc_ex.c ****     /* Not immediatly clear flags because the content of RTC_TSTR and RTC_TSDR arecleared when TSF 
 498:../../../core/ST/STM32L4xx_HAL_Driver/Src/stm32l4xx_hal_rtc_ex.c ****     hrtc->Instance->SCR = RTC_SCR_CTSF;
 499:../../../core/ST/STM32L4xx_HAL_Driver/Src/stm32l4xx_hal_rtc_ex.c ****   }
 500:../../../core/ST/STM32L4xx_HAL_Driver/Src/stm32l4xx_hal_rtc_ex.c **** 
 501:../../../core/ST/STM32L4xx_HAL_Driver/Src/stm32l4xx_hal_rtc_ex.c ****   /* Get interrupt status */
 502:../../../core/ST/STM32L4xx_HAL_Driver/Src/stm32l4xx_hal_rtc_ex.c ****   uint32_t tmp = tamp->MISR;
 503:../../../core/ST/STM32L4xx_HAL_Driver/Src/stm32l4xx_hal_rtc_ex.c **** 
 504:../../../core/ST/STM32L4xx_HAL_Driver/Src/stm32l4xx_hal_rtc_ex.c ****   /* Immediatly clear flags */
 505:../../../core/ST/STM32L4xx_HAL_Driver/Src/stm32l4xx_hal_rtc_ex.c ****   tamp->SCR = tmp;
 506:../../../core/ST/STM32L4xx_HAL_Driver/Src/stm32l4xx_hal_rtc_ex.c **** 
 507:../../../core/ST/STM32L4xx_HAL_Driver/Src/stm32l4xx_hal_rtc_ex.c **** #if defined(RTC_TAMPER1_SUPPORT)
 508:../../../core/ST/STM32L4xx_HAL_Driver/Src/stm32l4xx_hal_rtc_ex.c ****   /* Check Tamper1 status */
 509:../../../core/ST/STM32L4xx_HAL_Driver/Src/stm32l4xx_hal_rtc_ex.c ****   if((tmp & RTC_TAMPER_1) == RTC_TAMPER_1)
 510:../../../core/ST/STM32L4xx_HAL_Driver/Src/stm32l4xx_hal_rtc_ex.c ****   {
 511:../../../core/ST/STM32L4xx_HAL_Driver/Src/stm32l4xx_hal_rtc_ex.c **** #if (USE_HAL_RTC_REGISTER_CALLBACKS == 1)
 512:../../../core/ST/STM32L4xx_HAL_Driver/Src/stm32l4xx_hal_rtc_ex.c ****     /* Call Tamper 1 Event registered Callback */
 513:../../../core/ST/STM32L4xx_HAL_Driver/Src/stm32l4xx_hal_rtc_ex.c ****     hrtc->Tamper1EventCallback(hrtc);
 514:../../../core/ST/STM32L4xx_HAL_Driver/Src/stm32l4xx_hal_rtc_ex.c **** #else
 515:../../../core/ST/STM32L4xx_HAL_Driver/Src/stm32l4xx_hal_rtc_ex.c ****     /* Tamper1 callback */
 516:../../../core/ST/STM32L4xx_HAL_Driver/Src/stm32l4xx_hal_rtc_ex.c ****     HAL_RTCEx_Tamper1EventCallback(hrtc);
 517:../../../core/ST/STM32L4xx_HAL_Driver/Src/stm32l4xx_hal_rtc_ex.c **** #endif
 518:../../../core/ST/STM32L4xx_HAL_Driver/Src/stm32l4xx_hal_rtc_ex.c ****   }
 519:../../../core/ST/STM32L4xx_HAL_Driver/Src/stm32l4xx_hal_rtc_ex.c **** #endif /* RTC_TAMPER1_SUPPORT */
 520:../../../core/ST/STM32L4xx_HAL_Driver/Src/stm32l4xx_hal_rtc_ex.c **** 
 521:../../../core/ST/STM32L4xx_HAL_Driver/Src/stm32l4xx_hal_rtc_ex.c ****   /* Check Tamper2 status */
 522:../../../core/ST/STM32L4xx_HAL_Driver/Src/stm32l4xx_hal_rtc_ex.c ****   if((tmp & RTC_TAMPER_2) == RTC_TAMPER_2)
 523:../../../core/ST/STM32L4xx_HAL_Driver/Src/stm32l4xx_hal_rtc_ex.c ****   {
 524:../../../core/ST/STM32L4xx_HAL_Driver/Src/stm32l4xx_hal_rtc_ex.c **** #if (USE_HAL_RTC_REGISTER_CALLBACKS == 1)
 525:../../../core/ST/STM32L4xx_HAL_Driver/Src/stm32l4xx_hal_rtc_ex.c ****     /* Call Tamper 2 Event registered Callback */
 526:../../../core/ST/STM32L4xx_HAL_Driver/Src/stm32l4xx_hal_rtc_ex.c ****     hrtc->Tamper2EventCallback(hrtc);
 527:../../../core/ST/STM32L4xx_HAL_Driver/Src/stm32l4xx_hal_rtc_ex.c **** #else
 528:../../../core/ST/STM32L4xx_HAL_Driver/Src/stm32l4xx_hal_rtc_ex.c ****     /* Tamper2 callback */
 529:../../../core/ST/STM32L4xx_HAL_Driver/Src/stm32l4xx_hal_rtc_ex.c ****     HAL_RTCEx_Tamper2EventCallback(hrtc);
 530:../../../core/ST/STM32L4xx_HAL_Driver/Src/stm32l4xx_hal_rtc_ex.c **** #endif
 531:../../../core/ST/STM32L4xx_HAL_Driver/Src/stm32l4xx_hal_rtc_ex.c ****   }
 532:../../../core/ST/STM32L4xx_HAL_Driver/Src/stm32l4xx_hal_rtc_ex.c **** 
 533:../../../core/ST/STM32L4xx_HAL_Driver/Src/stm32l4xx_hal_rtc_ex.c **** #if defined(RTC_TAMPER3_SUPPORT)
 534:../../../core/ST/STM32L4xx_HAL_Driver/Src/stm32l4xx_hal_rtc_ex.c ****   /* Check Tamper3 status */
 535:../../../core/ST/STM32L4xx_HAL_Driver/Src/stm32l4xx_hal_rtc_ex.c ****   if((tmp & RTC_TAMPER_3) == RTC_TAMPER_3)
 536:../../../core/ST/STM32L4xx_HAL_Driver/Src/stm32l4xx_hal_rtc_ex.c ****   {
 537:../../../core/ST/STM32L4xx_HAL_Driver/Src/stm32l4xx_hal_rtc_ex.c **** #if (USE_HAL_RTC_REGISTER_CALLBACKS == 1)
 538:../../../core/ST/STM32L4xx_HAL_Driver/Src/stm32l4xx_hal_rtc_ex.c ****     /* Call Tamper 3 Event registered Callback */
 539:../../../core/ST/STM32L4xx_HAL_Driver/Src/stm32l4xx_hal_rtc_ex.c ****     hrtc->Tamper3EventCallback(hrtc);
 540:../../../core/ST/STM32L4xx_HAL_Driver/Src/stm32l4xx_hal_rtc_ex.c **** #else
 541:../../../core/ST/STM32L4xx_HAL_Driver/Src/stm32l4xx_hal_rtc_ex.c ****     /* Tamper3 callback */
 542:../../../core/ST/STM32L4xx_HAL_Driver/Src/stm32l4xx_hal_rtc_ex.c ****     HAL_RTCEx_Tamper3EventCallback(hrtc);
 543:../../../core/ST/STM32L4xx_HAL_Driver/Src/stm32l4xx_hal_rtc_ex.c **** #endif
 544:../../../core/ST/STM32L4xx_HAL_Driver/Src/stm32l4xx_hal_rtc_ex.c ****   }
ARM GAS  C:\Users\tomra\AppData\Local\Temp\ccoul9Yc.s 			page 24


 545:../../../core/ST/STM32L4xx_HAL_Driver/Src/stm32l4xx_hal_rtc_ex.c **** 
 546:../../../core/ST/STM32L4xx_HAL_Driver/Src/stm32l4xx_hal_rtc_ex.c **** #endif /* RTC_TAMPER3_SUPPORT */
 547:../../../core/ST/STM32L4xx_HAL_Driver/Src/stm32l4xx_hal_rtc_ex.c **** 
 548:../../../core/ST/STM32L4xx_HAL_Driver/Src/stm32l4xx_hal_rtc_ex.c ****   /* Change RTC state */
 549:../../../core/ST/STM32L4xx_HAL_Driver/Src/stm32l4xx_hal_rtc_ex.c ****   hrtc->State = HAL_RTC_STATE_READY;
 550:../../../core/ST/STM32L4xx_HAL_Driver/Src/stm32l4xx_hal_rtc_ex.c **** }
 551:../../../core/ST/STM32L4xx_HAL_Driver/Src/stm32l4xx_hal_rtc_ex.c **** 
 552:../../../core/ST/STM32L4xx_HAL_Driver/Src/stm32l4xx_hal_rtc_ex.c **** #else /* #if defined(STM32L412xx) || defined(STM32L422xx) */
 553:../../../core/ST/STM32L4xx_HAL_Driver/Src/stm32l4xx_hal_rtc_ex.c **** 
 554:../../../core/ST/STM32L4xx_HAL_Driver/Src/stm32l4xx_hal_rtc_ex.c **** void HAL_RTCEx_TamperTimeStampIRQHandler(RTC_HandleTypeDef *hrtc)
 555:../../../core/ST/STM32L4xx_HAL_Driver/Src/stm32l4xx_hal_rtc_ex.c **** {
 556:../../../core/ST/STM32L4xx_HAL_Driver/Src/stm32l4xx_hal_rtc_ex.c ****   /* Clear the EXTI's Flag for RTC TimeStamp and Tamper */
 557:../../../core/ST/STM32L4xx_HAL_Driver/Src/stm32l4xx_hal_rtc_ex.c ****   __HAL_RTC_TAMPER_TIMESTAMP_EXTI_CLEAR_FLAG();
 558:../../../core/ST/STM32L4xx_HAL_Driver/Src/stm32l4xx_hal_rtc_ex.c **** 
 559:../../../core/ST/STM32L4xx_HAL_Driver/Src/stm32l4xx_hal_rtc_ex.c ****   /* Get the TimeStamp interrupt source enable status and pending flag status */
 560:../../../core/ST/STM32L4xx_HAL_Driver/Src/stm32l4xx_hal_rtc_ex.c ****   if(__HAL_RTC_TIMESTAMP_GET_IT_SOURCE(hrtc, RTC_IT_TS) != 0U)
 561:../../../core/ST/STM32L4xx_HAL_Driver/Src/stm32l4xx_hal_rtc_ex.c ****   {
 562:../../../core/ST/STM32L4xx_HAL_Driver/Src/stm32l4xx_hal_rtc_ex.c ****     if(__HAL_RTC_TIMESTAMP_GET_FLAG(hrtc, RTC_FLAG_TSF) != 0U)
 563:../../../core/ST/STM32L4xx_HAL_Driver/Src/stm32l4xx_hal_rtc_ex.c ****     {
 564:../../../core/ST/STM32L4xx_HAL_Driver/Src/stm32l4xx_hal_rtc_ex.c ****       /* TIMESTAMP callback */
 565:../../../core/ST/STM32L4xx_HAL_Driver/Src/stm32l4xx_hal_rtc_ex.c **** #if (USE_HAL_RTC_REGISTER_CALLBACKS == 1)
 566:../../../core/ST/STM32L4xx_HAL_Driver/Src/stm32l4xx_hal_rtc_ex.c ****       hrtc->TimeStampEventCallback(hrtc);
 567:../../../core/ST/STM32L4xx_HAL_Driver/Src/stm32l4xx_hal_rtc_ex.c **** #else  /* (USE_HAL_RTC_REGISTER_CALLBACKS == 1) */
 568:../../../core/ST/STM32L4xx_HAL_Driver/Src/stm32l4xx_hal_rtc_ex.c ****       HAL_RTCEx_TimeStampEventCallback(hrtc);
 569:../../../core/ST/STM32L4xx_HAL_Driver/Src/stm32l4xx_hal_rtc_ex.c **** #endif /* (USE_HAL_RTC_REGISTER_CALLBACKS == 1) */
 570:../../../core/ST/STM32L4xx_HAL_Driver/Src/stm32l4xx_hal_rtc_ex.c **** 
 571:../../../core/ST/STM32L4xx_HAL_Driver/Src/stm32l4xx_hal_rtc_ex.c ****       /* Clear the TIMESTAMP interrupt pending bit (this will clear timestamp time and date registe
 572:../../../core/ST/STM32L4xx_HAL_Driver/Src/stm32l4xx_hal_rtc_ex.c ****       __HAL_RTC_TIMESTAMP_CLEAR_FLAG(hrtc, RTC_FLAG_TSF);
 573:../../../core/ST/STM32L4xx_HAL_Driver/Src/stm32l4xx_hal_rtc_ex.c ****     }
 574:../../../core/ST/STM32L4xx_HAL_Driver/Src/stm32l4xx_hal_rtc_ex.c ****   }
 575:../../../core/ST/STM32L4xx_HAL_Driver/Src/stm32l4xx_hal_rtc_ex.c **** 
 576:../../../core/ST/STM32L4xx_HAL_Driver/Src/stm32l4xx_hal_rtc_ex.c **** #if defined(RTC_TAMPER1_SUPPORT)
 577:../../../core/ST/STM32L4xx_HAL_Driver/Src/stm32l4xx_hal_rtc_ex.c ****   /* Get the Tamper1 interrupt source enable status and pending flag status */
 578:../../../core/ST/STM32L4xx_HAL_Driver/Src/stm32l4xx_hal_rtc_ex.c ****   if (__HAL_RTC_TAMPER_GET_IT_SOURCE(hrtc, RTC_IT_TAMP | RTC_IT_TAMP1) != 0U)
 579:../../../core/ST/STM32L4xx_HAL_Driver/Src/stm32l4xx_hal_rtc_ex.c ****   {
 580:../../../core/ST/STM32L4xx_HAL_Driver/Src/stm32l4xx_hal_rtc_ex.c ****     if (__HAL_RTC_TAMPER_GET_FLAG(hrtc, RTC_FLAG_TAMP1F) != 0U)
 581:../../../core/ST/STM32L4xx_HAL_Driver/Src/stm32l4xx_hal_rtc_ex.c ****     {
 582:../../../core/ST/STM32L4xx_HAL_Driver/Src/stm32l4xx_hal_rtc_ex.c ****     /* Clear the Tamper1 interrupt pending bit */
 583:../../../core/ST/STM32L4xx_HAL_Driver/Src/stm32l4xx_hal_rtc_ex.c ****     __HAL_RTC_TAMPER_CLEAR_FLAG(hrtc, RTC_FLAG_TAMP1F);
 584:../../../core/ST/STM32L4xx_HAL_Driver/Src/stm32l4xx_hal_rtc_ex.c **** 
 585:../../../core/ST/STM32L4xx_HAL_Driver/Src/stm32l4xx_hal_rtc_ex.c ****       /* Tamper1 callback */
 586:../../../core/ST/STM32L4xx_HAL_Driver/Src/stm32l4xx_hal_rtc_ex.c **** #if (USE_HAL_RTC_REGISTER_CALLBACKS == 1)
 587:../../../core/ST/STM32L4xx_HAL_Driver/Src/stm32l4xx_hal_rtc_ex.c ****       hrtc->Tamper1EventCallback(hrtc);
 588:../../../core/ST/STM32L4xx_HAL_Driver/Src/stm32l4xx_hal_rtc_ex.c **** #else  /* (USE_HAL_RTC_REGISTER_CALLBACKS == 1) */
 589:../../../core/ST/STM32L4xx_HAL_Driver/Src/stm32l4xx_hal_rtc_ex.c ****       HAL_RTCEx_Tamper1EventCallback(hrtc);
 590:../../../core/ST/STM32L4xx_HAL_Driver/Src/stm32l4xx_hal_rtc_ex.c **** #endif /* (USE_HAL_RTC_REGISTER_CALLBACKS == 1) */
 591:../../../core/ST/STM32L4xx_HAL_Driver/Src/stm32l4xx_hal_rtc_ex.c ****     }
 592:../../../core/ST/STM32L4xx_HAL_Driver/Src/stm32l4xx_hal_rtc_ex.c ****   }
 593:../../../core/ST/STM32L4xx_HAL_Driver/Src/stm32l4xx_hal_rtc_ex.c **** #endif /* RTC_TAMPER1_SUPPORT */
 594:../../../core/ST/STM32L4xx_HAL_Driver/Src/stm32l4xx_hal_rtc_ex.c **** 
 595:../../../core/ST/STM32L4xx_HAL_Driver/Src/stm32l4xx_hal_rtc_ex.c ****   /* Get the Tamper2 interrupt source enable status and pending flag status */
 596:../../../core/ST/STM32L4xx_HAL_Driver/Src/stm32l4xx_hal_rtc_ex.c ****   if (__HAL_RTC_TAMPER_GET_IT_SOURCE(hrtc, RTC_IT_TAMP | RTC_IT_TAMP2) != 0U)
 597:../../../core/ST/STM32L4xx_HAL_Driver/Src/stm32l4xx_hal_rtc_ex.c ****   {
 598:../../../core/ST/STM32L4xx_HAL_Driver/Src/stm32l4xx_hal_rtc_ex.c ****     if (__HAL_RTC_TAMPER_GET_FLAG(hrtc, RTC_FLAG_TAMP2F) != 0U)
 599:../../../core/ST/STM32L4xx_HAL_Driver/Src/stm32l4xx_hal_rtc_ex.c ****     {
 600:../../../core/ST/STM32L4xx_HAL_Driver/Src/stm32l4xx_hal_rtc_ex.c ****       /* Clear the Tamper2 interrupt pending bit */
 601:../../../core/ST/STM32L4xx_HAL_Driver/Src/stm32l4xx_hal_rtc_ex.c ****       __HAL_RTC_TAMPER_CLEAR_FLAG(hrtc, RTC_FLAG_TAMP2F);
ARM GAS  C:\Users\tomra\AppData\Local\Temp\ccoul9Yc.s 			page 25


 602:../../../core/ST/STM32L4xx_HAL_Driver/Src/stm32l4xx_hal_rtc_ex.c **** 
 603:../../../core/ST/STM32L4xx_HAL_Driver/Src/stm32l4xx_hal_rtc_ex.c ****     /* Tamper2 callback */
 604:../../../core/ST/STM32L4xx_HAL_Driver/Src/stm32l4xx_hal_rtc_ex.c **** #if (USE_HAL_RTC_REGISTER_CALLBACKS == 1)
 605:../../../core/ST/STM32L4xx_HAL_Driver/Src/stm32l4xx_hal_rtc_ex.c ****       hrtc->Tamper2EventCallback(hrtc);
 606:../../../core/ST/STM32L4xx_HAL_Driver/Src/stm32l4xx_hal_rtc_ex.c **** #else  /* (USE_HAL_RTC_REGISTER_CALLBACKS == 1) */
 607:../../../core/ST/STM32L4xx_HAL_Driver/Src/stm32l4xx_hal_rtc_ex.c ****       HAL_RTCEx_Tamper2EventCallback(hrtc);
 608:../../../core/ST/STM32L4xx_HAL_Driver/Src/stm32l4xx_hal_rtc_ex.c **** #endif /* (USE_HAL_RTC_REGISTER_CALLBACKS == 1) */
 609:../../../core/ST/STM32L4xx_HAL_Driver/Src/stm32l4xx_hal_rtc_ex.c ****     }
 610:../../../core/ST/STM32L4xx_HAL_Driver/Src/stm32l4xx_hal_rtc_ex.c ****   }
 611:../../../core/ST/STM32L4xx_HAL_Driver/Src/stm32l4xx_hal_rtc_ex.c **** 
 612:../../../core/ST/STM32L4xx_HAL_Driver/Src/stm32l4xx_hal_rtc_ex.c **** #if defined(RTC_TAMPER3_SUPPORT)
 613:../../../core/ST/STM32L4xx_HAL_Driver/Src/stm32l4xx_hal_rtc_ex.c ****   /* Get the Tamper3 interrupts source enable status */
 614:../../../core/ST/STM32L4xx_HAL_Driver/Src/stm32l4xx_hal_rtc_ex.c ****   if (__HAL_RTC_TAMPER_GET_IT_SOURCE(hrtc, RTC_IT_TAMP | RTC_IT_TAMP3) != 0U)
 615:../../../core/ST/STM32L4xx_HAL_Driver/Src/stm32l4xx_hal_rtc_ex.c ****   {
 616:../../../core/ST/STM32L4xx_HAL_Driver/Src/stm32l4xx_hal_rtc_ex.c ****     if (__HAL_RTC_TAMPER_GET_FLAG(hrtc, RTC_FLAG_TAMP3F) != 0U)
 617:../../../core/ST/STM32L4xx_HAL_Driver/Src/stm32l4xx_hal_rtc_ex.c ****     {
 618:../../../core/ST/STM32L4xx_HAL_Driver/Src/stm32l4xx_hal_rtc_ex.c ****       /* Clear the Tamper3 interrupt pending bit */
 619:../../../core/ST/STM32L4xx_HAL_Driver/Src/stm32l4xx_hal_rtc_ex.c ****       __HAL_RTC_TAMPER_CLEAR_FLAG(hrtc, RTC_FLAG_TAMP3F);
 620:../../../core/ST/STM32L4xx_HAL_Driver/Src/stm32l4xx_hal_rtc_ex.c **** 
 621:../../../core/ST/STM32L4xx_HAL_Driver/Src/stm32l4xx_hal_rtc_ex.c ****       /* Tamper3 callback */
 622:../../../core/ST/STM32L4xx_HAL_Driver/Src/stm32l4xx_hal_rtc_ex.c **** #if (USE_HAL_RTC_REGISTER_CALLBACKS == 1)
 623:../../../core/ST/STM32L4xx_HAL_Driver/Src/stm32l4xx_hal_rtc_ex.c ****       hrtc->Tamper3EventCallback(hrtc);
 624:../../../core/ST/STM32L4xx_HAL_Driver/Src/stm32l4xx_hal_rtc_ex.c **** #else
 625:../../../core/ST/STM32L4xx_HAL_Driver/Src/stm32l4xx_hal_rtc_ex.c ****       HAL_RTCEx_Tamper3EventCallback(hrtc);
 626:../../../core/ST/STM32L4xx_HAL_Driver/Src/stm32l4xx_hal_rtc_ex.c **** #endif /* USE_HAL_RTC_REGISTER_CALLBACKS */
 627:../../../core/ST/STM32L4xx_HAL_Driver/Src/stm32l4xx_hal_rtc_ex.c ****     }
 628:../../../core/ST/STM32L4xx_HAL_Driver/Src/stm32l4xx_hal_rtc_ex.c ****   }
 629:../../../core/ST/STM32L4xx_HAL_Driver/Src/stm32l4xx_hal_rtc_ex.c **** #endif /* RTC_TAMPER3_SUPPORT */
 630:../../../core/ST/STM32L4xx_HAL_Driver/Src/stm32l4xx_hal_rtc_ex.c **** 
 631:../../../core/ST/STM32L4xx_HAL_Driver/Src/stm32l4xx_hal_rtc_ex.c ****   /* Change RTC state */
 632:../../../core/ST/STM32L4xx_HAL_Driver/Src/stm32l4xx_hal_rtc_ex.c ****   hrtc->State = HAL_RTC_STATE_READY;
 633:../../../core/ST/STM32L4xx_HAL_Driver/Src/stm32l4xx_hal_rtc_ex.c **** }
 634:../../../core/ST/STM32L4xx_HAL_Driver/Src/stm32l4xx_hal_rtc_ex.c **** #endif /* #if defined(STM32L412xx) || defined(STM32L422xx) */
 635:../../../core/ST/STM32L4xx_HAL_Driver/Src/stm32l4xx_hal_rtc_ex.c **** 
 636:../../../core/ST/STM32L4xx_HAL_Driver/Src/stm32l4xx_hal_rtc_ex.c **** /**
 637:../../../core/ST/STM32L4xx_HAL_Driver/Src/stm32l4xx_hal_rtc_ex.c ****   * @brief  TimeStamp callback.
 638:../../../core/ST/STM32L4xx_HAL_Driver/Src/stm32l4xx_hal_rtc_ex.c ****   * @param  hrtc RTC handle
 639:../../../core/ST/STM32L4xx_HAL_Driver/Src/stm32l4xx_hal_rtc_ex.c ****   * @retval None
 640:../../../core/ST/STM32L4xx_HAL_Driver/Src/stm32l4xx_hal_rtc_ex.c ****   */
 641:../../../core/ST/STM32L4xx_HAL_Driver/Src/stm32l4xx_hal_rtc_ex.c **** __weak void HAL_RTCEx_TimeStampEventCallback(RTC_HandleTypeDef *hrtc)
 642:../../../core/ST/STM32L4xx_HAL_Driver/Src/stm32l4xx_hal_rtc_ex.c **** {
 737              		.loc 1 642 1 is_stmt 1 view -0
 738              		.cfi_startproc
 739              		@ args = 0, pretend = 0, frame = 0
 740              		@ frame_needed = 0, uses_anonymous_args = 0
 741              		@ link register save eliminated.
 643:../../../core/ST/STM32L4xx_HAL_Driver/Src/stm32l4xx_hal_rtc_ex.c ****   /* Prevent unused argument(s) compilation warning */
 644:../../../core/ST/STM32L4xx_HAL_Driver/Src/stm32l4xx_hal_rtc_ex.c ****   UNUSED(hrtc);
 742              		.loc 1 644 3 view .LVU240
 645:../../../core/ST/STM32L4xx_HAL_Driver/Src/stm32l4xx_hal_rtc_ex.c **** 
 646:../../../core/ST/STM32L4xx_HAL_Driver/Src/stm32l4xx_hal_rtc_ex.c ****   /* NOTE : This function should not be modified, when the callback is needed,
 647:../../../core/ST/STM32L4xx_HAL_Driver/Src/stm32l4xx_hal_rtc_ex.c ****             the HAL_RTCEx_TimeStampEventCallback could be implemented in the user file
 648:../../../core/ST/STM32L4xx_HAL_Driver/Src/stm32l4xx_hal_rtc_ex.c ****    */
 649:../../../core/ST/STM32L4xx_HAL_Driver/Src/stm32l4xx_hal_rtc_ex.c **** }
 743              		.loc 1 649 1 is_stmt 0 view .LVU241
 744 0000 7047     		bx	lr
 745              		.cfi_endproc
ARM GAS  C:\Users\tomra\AppData\Local\Temp\ccoul9Yc.s 			page 26


 746              	.LFE130:
 748              		.section	.text.HAL_RTCEx_PollForTimeStampEvent,"ax",%progbits
 749              		.align	1
 750              		.global	HAL_RTCEx_PollForTimeStampEvent
 751              		.syntax unified
 752              		.thumb
 753              		.thumb_func
 754              		.fpu fpv4-sp-d16
 756              	HAL_RTCEx_PollForTimeStampEvent:
 757              	.LVL52:
 758              	.LFB131:
 650:../../../core/ST/STM32L4xx_HAL_Driver/Src/stm32l4xx_hal_rtc_ex.c **** 
 651:../../../core/ST/STM32L4xx_HAL_Driver/Src/stm32l4xx_hal_rtc_ex.c **** /**
 652:../../../core/ST/STM32L4xx_HAL_Driver/Src/stm32l4xx_hal_rtc_ex.c ****   * @brief  Handle TimeStamp polling request.
 653:../../../core/ST/STM32L4xx_HAL_Driver/Src/stm32l4xx_hal_rtc_ex.c ****   * @param  hrtc RTC handle
 654:../../../core/ST/STM32L4xx_HAL_Driver/Src/stm32l4xx_hal_rtc_ex.c ****   * @param  Timeout Timeout duration
 655:../../../core/ST/STM32L4xx_HAL_Driver/Src/stm32l4xx_hal_rtc_ex.c ****   * @retval HAL status
 656:../../../core/ST/STM32L4xx_HAL_Driver/Src/stm32l4xx_hal_rtc_ex.c ****   */
 657:../../../core/ST/STM32L4xx_HAL_Driver/Src/stm32l4xx_hal_rtc_ex.c **** HAL_StatusTypeDef HAL_RTCEx_PollForTimeStampEvent(RTC_HandleTypeDef *hrtc, uint32_t Timeout)
 658:../../../core/ST/STM32L4xx_HAL_Driver/Src/stm32l4xx_hal_rtc_ex.c **** {
 759              		.loc 1 658 1 is_stmt 1 view -0
 760              		.cfi_startproc
 761              		@ args = 0, pretend = 0, frame = 0
 762              		@ frame_needed = 0, uses_anonymous_args = 0
 763              		.loc 1 658 1 is_stmt 0 view .LVU243
 764 0000 70B5     		push	{r4, r5, r6, lr}
 765              	.LCFI3:
 766              		.cfi_def_cfa_offset 16
 767              		.cfi_offset 4, -16
 768              		.cfi_offset 5, -12
 769              		.cfi_offset 6, -8
 770              		.cfi_offset 14, -4
 771 0002 0446     		mov	r4, r0
 772 0004 0D46     		mov	r5, r1
 659:../../../core/ST/STM32L4xx_HAL_Driver/Src/stm32l4xx_hal_rtc_ex.c ****   uint32_t tickstart = HAL_GetTick();
 773              		.loc 1 659 3 is_stmt 1 view .LVU244
 774              		.loc 1 659 24 is_stmt 0 view .LVU245
 775 0006 FFF7FEFF 		bl	HAL_GetTick
 776              	.LVL53:
 777              		.loc 1 659 24 view .LVU246
 778 000a 0646     		mov	r6, r0
 779              	.LVL54:
 660:../../../core/ST/STM32L4xx_HAL_Driver/Src/stm32l4xx_hal_rtc_ex.c **** 
 661:../../../core/ST/STM32L4xx_HAL_Driver/Src/stm32l4xx_hal_rtc_ex.c ****   while(__HAL_RTC_TIMESTAMP_GET_FLAG(hrtc, RTC_FLAG_TSF) == 0U)
 780              		.loc 1 661 3 is_stmt 1 view .LVU247
 781              	.L43:
 782              		.loc 1 661 8 view .LVU248
 783              		.loc 1 661 9 is_stmt 0 view .LVU249
 784 000c 2368     		ldr	r3, [r4]
 785 000e DA68     		ldr	r2, [r3, #12]
 786              		.loc 1 661 8 view .LVU250
 787 0010 12F4006F 		tst	r2, #2048
 788 0014 1BD1     		bne	.L47
 662:../../../core/ST/STM32L4xx_HAL_Driver/Src/stm32l4xx_hal_rtc_ex.c ****   {
 663:../../../core/ST/STM32L4xx_HAL_Driver/Src/stm32l4xx_hal_rtc_ex.c ****     if(__HAL_RTC_TIMESTAMP_GET_FLAG(hrtc, RTC_FLAG_TSOVF) != 0U)
 789              		.loc 1 663 5 is_stmt 1 view .LVU251
 790              		.loc 1 663 8 is_stmt 0 view .LVU252
ARM GAS  C:\Users\tomra\AppData\Local\Temp\ccoul9Yc.s 			page 27


 791 0016 DA68     		ldr	r2, [r3, #12]
 792              		.loc 1 663 7 view .LVU253
 793 0018 12F4805F 		tst	r2, #4096
 794 001c 0DD1     		bne	.L48
 664:../../../core/ST/STM32L4xx_HAL_Driver/Src/stm32l4xx_hal_rtc_ex.c ****     {
 665:../../../core/ST/STM32L4xx_HAL_Driver/Src/stm32l4xx_hal_rtc_ex.c ****       /* Clear the TIMESTAMP OverRun Flag */
 666:../../../core/ST/STM32L4xx_HAL_Driver/Src/stm32l4xx_hal_rtc_ex.c ****       __HAL_RTC_TIMESTAMP_CLEAR_FLAG(hrtc, RTC_FLAG_TSOVF);
 667:../../../core/ST/STM32L4xx_HAL_Driver/Src/stm32l4xx_hal_rtc_ex.c **** 
 668:../../../core/ST/STM32L4xx_HAL_Driver/Src/stm32l4xx_hal_rtc_ex.c ****       /* Change TIMESTAMP state */
 669:../../../core/ST/STM32L4xx_HAL_Driver/Src/stm32l4xx_hal_rtc_ex.c ****       hrtc->State = HAL_RTC_STATE_ERROR;
 670:../../../core/ST/STM32L4xx_HAL_Driver/Src/stm32l4xx_hal_rtc_ex.c **** 
 671:../../../core/ST/STM32L4xx_HAL_Driver/Src/stm32l4xx_hal_rtc_ex.c ****       return HAL_ERROR;
 672:../../../core/ST/STM32L4xx_HAL_Driver/Src/stm32l4xx_hal_rtc_ex.c ****     }
 673:../../../core/ST/STM32L4xx_HAL_Driver/Src/stm32l4xx_hal_rtc_ex.c **** 
 674:../../../core/ST/STM32L4xx_HAL_Driver/Src/stm32l4xx_hal_rtc_ex.c ****     if(Timeout != HAL_MAX_DELAY)
 795              		.loc 1 674 5 is_stmt 1 view .LVU254
 796              		.loc 1 674 7 is_stmt 0 view .LVU255
 797 001e B5F1FF3F 		cmp	r5, #-1
 798 0022 F3D0     		beq	.L43
 675:../../../core/ST/STM32L4xx_HAL_Driver/Src/stm32l4xx_hal_rtc_ex.c ****     {
 676:../../../core/ST/STM32L4xx_HAL_Driver/Src/stm32l4xx_hal_rtc_ex.c ****       if(((HAL_GetTick() - tickstart ) > Timeout)||(Timeout == 0U))
 799              		.loc 1 676 7 is_stmt 1 view .LVU256
 800              		.loc 1 676 12 is_stmt 0 view .LVU257
 801 0024 FFF7FEFF 		bl	HAL_GetTick
 802              	.LVL55:
 803              		.loc 1 676 26 view .LVU258
 804 0028 801B     		subs	r0, r0, r6
 805              		.loc 1 676 9 view .LVU259
 806 002a A842     		cmp	r0, r5
 807 002c 01D8     		bhi	.L44
 808              		.loc 1 676 50 discriminator 1 view .LVU260
 809 002e 002D     		cmp	r5, #0
 810 0030 ECD1     		bne	.L43
 811              	.L44:
 677:../../../core/ST/STM32L4xx_HAL_Driver/Src/stm32l4xx_hal_rtc_ex.c ****       {
 678:../../../core/ST/STM32L4xx_HAL_Driver/Src/stm32l4xx_hal_rtc_ex.c ****         hrtc->State = HAL_RTC_STATE_TIMEOUT;
 812              		.loc 1 678 9 is_stmt 1 view .LVU261
 813              		.loc 1 678 21 is_stmt 0 view .LVU262
 814 0032 0320     		movs	r0, #3
 815 0034 84F82100 		strb	r0, [r4, #33]
 679:../../../core/ST/STM32L4xx_HAL_Driver/Src/stm32l4xx_hal_rtc_ex.c ****         return HAL_TIMEOUT;
 816              		.loc 1 679 9 is_stmt 1 view .LVU263
 817              		.loc 1 679 16 is_stmt 0 view .LVU264
 818 0038 0DE0     		b	.L42
 819              	.L48:
 666:../../../core/ST/STM32L4xx_HAL_Driver/Src/stm32l4xx_hal_rtc_ex.c **** 
 820              		.loc 1 666 7 is_stmt 1 view .LVU265
 821 003a DA68     		ldr	r2, [r3, #12]
 822 003c D2B2     		uxtb	r2, r2
 823 003e 62F48452 		orn	r2, r2, #4224
 824 0042 DA60     		str	r2, [r3, #12]
 669:../../../core/ST/STM32L4xx_HAL_Driver/Src/stm32l4xx_hal_rtc_ex.c **** 
 825              		.loc 1 669 7 view .LVU266
 669:../../../core/ST/STM32L4xx_HAL_Driver/Src/stm32l4xx_hal_rtc_ex.c **** 
 826              		.loc 1 669 19 is_stmt 0 view .LVU267
 827 0044 0423     		movs	r3, #4
 828 0046 84F82130 		strb	r3, [r4, #33]
ARM GAS  C:\Users\tomra\AppData\Local\Temp\ccoul9Yc.s 			page 28


 671:../../../core/ST/STM32L4xx_HAL_Driver/Src/stm32l4xx_hal_rtc_ex.c ****     }
 829              		.loc 1 671 7 is_stmt 1 view .LVU268
 671:../../../core/ST/STM32L4xx_HAL_Driver/Src/stm32l4xx_hal_rtc_ex.c ****     }
 830              		.loc 1 671 14 is_stmt 0 view .LVU269
 831 004a 0120     		movs	r0, #1
 832 004c 03E0     		b	.L42
 833              	.L47:
 680:../../../core/ST/STM32L4xx_HAL_Driver/Src/stm32l4xx_hal_rtc_ex.c ****       }
 681:../../../core/ST/STM32L4xx_HAL_Driver/Src/stm32l4xx_hal_rtc_ex.c ****     }
 682:../../../core/ST/STM32L4xx_HAL_Driver/Src/stm32l4xx_hal_rtc_ex.c ****   }
 683:../../../core/ST/STM32L4xx_HAL_Driver/Src/stm32l4xx_hal_rtc_ex.c **** 
 684:../../../core/ST/STM32L4xx_HAL_Driver/Src/stm32l4xx_hal_rtc_ex.c ****   /* Change RTC state */
 685:../../../core/ST/STM32L4xx_HAL_Driver/Src/stm32l4xx_hal_rtc_ex.c ****   hrtc->State = HAL_RTC_STATE_READY;
 834              		.loc 1 685 3 is_stmt 1 view .LVU270
 835              		.loc 1 685 15 is_stmt 0 view .LVU271
 836 004e 0123     		movs	r3, #1
 837 0050 84F82130 		strb	r3, [r4, #33]
 686:../../../core/ST/STM32L4xx_HAL_Driver/Src/stm32l4xx_hal_rtc_ex.c **** 
 687:../../../core/ST/STM32L4xx_HAL_Driver/Src/stm32l4xx_hal_rtc_ex.c ****   return HAL_OK;
 838              		.loc 1 687 3 is_stmt 1 view .LVU272
 839              		.loc 1 687 10 is_stmt 0 view .LVU273
 840 0054 0020     		movs	r0, #0
 841              	.L42:
 688:../../../core/ST/STM32L4xx_HAL_Driver/Src/stm32l4xx_hal_rtc_ex.c **** }
 842              		.loc 1 688 1 view .LVU274
 843 0056 70BD     		pop	{r4, r5, r6, pc}
 844              		.loc 1 688 1 view .LVU275
 845              		.cfi_endproc
 846              	.LFE131:
 848              		.section	.text.HAL_RTCEx_SetWakeUpTimer,"ax",%progbits
 849              		.align	1
 850              		.global	HAL_RTCEx_SetWakeUpTimer
 851              		.syntax unified
 852              		.thumb
 853              		.thumb_func
 854              		.fpu fpv4-sp-d16
 856              	HAL_RTCEx_SetWakeUpTimer:
 857              	.LVL56:
 858              	.LFB132:
 689:../../../core/ST/STM32L4xx_HAL_Driver/Src/stm32l4xx_hal_rtc_ex.c **** 
 690:../../../core/ST/STM32L4xx_HAL_Driver/Src/stm32l4xx_hal_rtc_ex.c **** /**
 691:../../../core/ST/STM32L4xx_HAL_Driver/Src/stm32l4xx_hal_rtc_ex.c ****   * @}
 692:../../../core/ST/STM32L4xx_HAL_Driver/Src/stm32l4xx_hal_rtc_ex.c ****   */
 693:../../../core/ST/STM32L4xx_HAL_Driver/Src/stm32l4xx_hal_rtc_ex.c **** 
 694:../../../core/ST/STM32L4xx_HAL_Driver/Src/stm32l4xx_hal_rtc_ex.c **** /** @addtogroup RTCEx_Exported_Functions_Group2
 695:../../../core/ST/STM32L4xx_HAL_Driver/Src/stm32l4xx_hal_rtc_ex.c ****   * @brief    RTC Wake-up functions
 696:../../../core/ST/STM32L4xx_HAL_Driver/Src/stm32l4xx_hal_rtc_ex.c ****   *
 697:../../../core/ST/STM32L4xx_HAL_Driver/Src/stm32l4xx_hal_rtc_ex.c **** @verbatim
 698:../../../core/ST/STM32L4xx_HAL_Driver/Src/stm32l4xx_hal_rtc_ex.c ****  ===============================================================================
 699:../../../core/ST/STM32L4xx_HAL_Driver/Src/stm32l4xx_hal_rtc_ex.c ****                         ##### RTC Wake-up functions #####
 700:../../../core/ST/STM32L4xx_HAL_Driver/Src/stm32l4xx_hal_rtc_ex.c ****  ===============================================================================
 701:../../../core/ST/STM32L4xx_HAL_Driver/Src/stm32l4xx_hal_rtc_ex.c **** 
 702:../../../core/ST/STM32L4xx_HAL_Driver/Src/stm32l4xx_hal_rtc_ex.c ****  [..] This section provides functions allowing to configure Wake-up feature
 703:../../../core/ST/STM32L4xx_HAL_Driver/Src/stm32l4xx_hal_rtc_ex.c **** 
 704:../../../core/ST/STM32L4xx_HAL_Driver/Src/stm32l4xx_hal_rtc_ex.c **** @endverbatim
 705:../../../core/ST/STM32L4xx_HAL_Driver/Src/stm32l4xx_hal_rtc_ex.c ****   * @{
 706:../../../core/ST/STM32L4xx_HAL_Driver/Src/stm32l4xx_hal_rtc_ex.c ****   */
ARM GAS  C:\Users\tomra\AppData\Local\Temp\ccoul9Yc.s 			page 29


 707:../../../core/ST/STM32L4xx_HAL_Driver/Src/stm32l4xx_hal_rtc_ex.c **** 
 708:../../../core/ST/STM32L4xx_HAL_Driver/Src/stm32l4xx_hal_rtc_ex.c **** /**
 709:../../../core/ST/STM32L4xx_HAL_Driver/Src/stm32l4xx_hal_rtc_ex.c ****   * @brief  Set wake up timer.
 710:../../../core/ST/STM32L4xx_HAL_Driver/Src/stm32l4xx_hal_rtc_ex.c ****   * @param  hrtc RTC handle
 711:../../../core/ST/STM32L4xx_HAL_Driver/Src/stm32l4xx_hal_rtc_ex.c ****   * @param  WakeUpCounter Wake up counter
 712:../../../core/ST/STM32L4xx_HAL_Driver/Src/stm32l4xx_hal_rtc_ex.c ****   * @param  WakeUpClock Wake up clock
 713:../../../core/ST/STM32L4xx_HAL_Driver/Src/stm32l4xx_hal_rtc_ex.c ****   * @retval HAL status
 714:../../../core/ST/STM32L4xx_HAL_Driver/Src/stm32l4xx_hal_rtc_ex.c ****   */
 715:../../../core/ST/STM32L4xx_HAL_Driver/Src/stm32l4xx_hal_rtc_ex.c **** HAL_StatusTypeDef HAL_RTCEx_SetWakeUpTimer(RTC_HandleTypeDef *hrtc, uint32_t WakeUpCounter, uint32_
 716:../../../core/ST/STM32L4xx_HAL_Driver/Src/stm32l4xx_hal_rtc_ex.c **** {
 859              		.loc 1 716 1 is_stmt 1 view -0
 860              		.cfi_startproc
 861              		@ args = 0, pretend = 0, frame = 0
 862              		@ frame_needed = 0, uses_anonymous_args = 0
 863              		.loc 1 716 1 is_stmt 0 view .LVU277
 864 0000 F8B5     		push	{r3, r4, r5, r6, r7, lr}
 865              	.LCFI4:
 866              		.cfi_def_cfa_offset 24
 867              		.cfi_offset 3, -24
 868              		.cfi_offset 4, -20
 869              		.cfi_offset 5, -16
 870              		.cfi_offset 6, -12
 871              		.cfi_offset 7, -8
 872              		.cfi_offset 14, -4
 873 0002 0446     		mov	r4, r0
 874 0004 0E46     		mov	r6, r1
 875 0006 1546     		mov	r5, r2
 717:../../../core/ST/STM32L4xx_HAL_Driver/Src/stm32l4xx_hal_rtc_ex.c ****   uint32_t tickstart;
 876              		.loc 1 717 3 is_stmt 1 view .LVU278
 718:../../../core/ST/STM32L4xx_HAL_Driver/Src/stm32l4xx_hal_rtc_ex.c **** 
 719:../../../core/ST/STM32L4xx_HAL_Driver/Src/stm32l4xx_hal_rtc_ex.c ****   /* Check the parameters */
 720:../../../core/ST/STM32L4xx_HAL_Driver/Src/stm32l4xx_hal_rtc_ex.c ****   assert_param(IS_RTC_WAKEUP_CLOCK(WakeUpClock));
 877              		.loc 1 720 3 view .LVU279
 878 0008 042A     		cmp	r2, #4
 879 000a 01D9     		bls	.L50
 880              		.loc 1 720 3 is_stmt 0 discriminator 1 view .LVU280
 881 000c 062A     		cmp	r2, #6
 882 000e 2FD1     		bne	.L60
 883              	.LVL57:
 884              	.L50:
 721:../../../core/ST/STM32L4xx_HAL_Driver/Src/stm32l4xx_hal_rtc_ex.c ****   assert_param(IS_RTC_WAKEUP_COUNTER(WakeUpCounter));
 885              		.loc 1 721 3 is_stmt 1 view .LVU281
 886 0010 B6F5803F 		cmp	r6, #65536
 887 0014 32D2     		bcs	.L61
 888              	.L51:
 722:../../../core/ST/STM32L4xx_HAL_Driver/Src/stm32l4xx_hal_rtc_ex.c **** 
 723:../../../core/ST/STM32L4xx_HAL_Driver/Src/stm32l4xx_hal_rtc_ex.c ****   /* Process Locked */
 724:../../../core/ST/STM32L4xx_HAL_Driver/Src/stm32l4xx_hal_rtc_ex.c ****   __HAL_LOCK(hrtc);
 889              		.loc 1 724 3 view .LVU282
 890              		.loc 1 724 3 view .LVU283
 891 0016 94F82030 		ldrb	r3, [r4, #32]	@ zero_extendqisi2
 892 001a 012B     		cmp	r3, #1
 893 001c 67D0     		beq	.L58
 894              		.loc 1 724 3 discriminator 2 view .LVU284
 895 001e 0123     		movs	r3, #1
 896 0020 84F82030 		strb	r3, [r4, #32]
 897              		.loc 1 724 3 discriminator 2 view .LVU285
ARM GAS  C:\Users\tomra\AppData\Local\Temp\ccoul9Yc.s 			page 30


 725:../../../core/ST/STM32L4xx_HAL_Driver/Src/stm32l4xx_hal_rtc_ex.c **** 
 726:../../../core/ST/STM32L4xx_HAL_Driver/Src/stm32l4xx_hal_rtc_ex.c ****   hrtc->State = HAL_RTC_STATE_BUSY;
 898              		.loc 1 726 3 discriminator 2 view .LVU286
 899              		.loc 1 726 15 is_stmt 0 discriminator 2 view .LVU287
 900 0024 0223     		movs	r3, #2
 901 0026 84F82130 		strb	r3, [r4, #33]
 727:../../../core/ST/STM32L4xx_HAL_Driver/Src/stm32l4xx_hal_rtc_ex.c **** 
 728:../../../core/ST/STM32L4xx_HAL_Driver/Src/stm32l4xx_hal_rtc_ex.c ****   /* Disable the write protection for RTC registers */
 729:../../../core/ST/STM32L4xx_HAL_Driver/Src/stm32l4xx_hal_rtc_ex.c ****   __HAL_RTC_WRITEPROTECTION_DISABLE(hrtc);
 902              		.loc 1 729 3 is_stmt 1 discriminator 2 view .LVU288
 903              		.loc 1 729 3 discriminator 2 view .LVU289
 904 002a 2368     		ldr	r3, [r4]
 905 002c CA22     		movs	r2, #202
 906 002e 5A62     		str	r2, [r3, #36]
 907              		.loc 1 729 3 discriminator 2 view .LVU290
 908 0030 2368     		ldr	r3, [r4]
 909 0032 5322     		movs	r2, #83
 910 0034 5A62     		str	r2, [r3, #36]
 911              		.loc 1 729 3 discriminator 2 view .LVU291
 730:../../../core/ST/STM32L4xx_HAL_Driver/Src/stm32l4xx_hal_rtc_ex.c **** 
 731:../../../core/ST/STM32L4xx_HAL_Driver/Src/stm32l4xx_hal_rtc_ex.c ****   /*Check RTC WUTWF flag is reset only when wake up timer enabled*/
 732:../../../core/ST/STM32L4xx_HAL_Driver/Src/stm32l4xx_hal_rtc_ex.c ****   if((hrtc->Instance->CR & RTC_CR_WUTE) != 0U)
 912              		.loc 1 732 3 discriminator 2 view .LVU292
 913              		.loc 1 732 11 is_stmt 0 discriminator 2 view .LVU293
 914 0036 2368     		ldr	r3, [r4]
 915              		.loc 1 732 21 discriminator 2 view .LVU294
 916 0038 9B68     		ldr	r3, [r3, #8]
 917              		.loc 1 732 5 discriminator 2 view .LVU295
 918 003a 13F4806F 		tst	r3, #1024
 919 003e 23D0     		beq	.L53
 733:../../../core/ST/STM32L4xx_HAL_Driver/Src/stm32l4xx_hal_rtc_ex.c ****   {
 734:../../../core/ST/STM32L4xx_HAL_Driver/Src/stm32l4xx_hal_rtc_ex.c ****     tickstart = HAL_GetTick();
 920              		.loc 1 734 5 is_stmt 1 view .LVU296
 921              		.loc 1 734 17 is_stmt 0 view .LVU297
 922 0040 FFF7FEFF 		bl	HAL_GetTick
 923              	.LVL58:
 924 0044 0746     		mov	r7, r0
 925              	.LVL59:
 735:../../../core/ST/STM32L4xx_HAL_Driver/Src/stm32l4xx_hal_rtc_ex.c **** 
 736:../../../core/ST/STM32L4xx_HAL_Driver/Src/stm32l4xx_hal_rtc_ex.c ****    /* Wait till RTC WUTWF flag is reset and if Time out is reached exit */
 737:../../../core/ST/STM32L4xx_HAL_Driver/Src/stm32l4xx_hal_rtc_ex.c ****    while(__HAL_RTC_WAKEUPTIMER_GET_FLAG(hrtc, RTC_FLAG_WUTWF) == 1U)
 926              		.loc 1 737 4 is_stmt 1 view .LVU298
 927              	.L54:
 928              		.loc 1 737 9 view .LVU299
 929              		.loc 1 737 10 is_stmt 0 view .LVU300
 930 0046 2368     		ldr	r3, [r4]
 931 0048 DB68     		ldr	r3, [r3, #12]
 932              		.loc 1 737 9 view .LVU301
 933 004a 13F0040F 		tst	r3, #4
 934 004e 1BD0     		beq	.L53
 738:../../../core/ST/STM32L4xx_HAL_Driver/Src/stm32l4xx_hal_rtc_ex.c ****    {
 739:../../../core/ST/STM32L4xx_HAL_Driver/Src/stm32l4xx_hal_rtc_ex.c ****     if((HAL_GetTick() - tickstart ) > RTC_TIMEOUT_VALUE)
 935              		.loc 1 739 5 is_stmt 1 view .LVU302
 936              		.loc 1 739 9 is_stmt 0 view .LVU303
 937 0050 FFF7FEFF 		bl	HAL_GetTick
 938              	.LVL60:
 939              		.loc 1 739 23 view .LVU304
ARM GAS  C:\Users\tomra\AppData\Local\Temp\ccoul9Yc.s 			page 31


 940 0054 C01B     		subs	r0, r0, r7
 941              		.loc 1 739 7 view .LVU305
 942 0056 B0F57A7F 		cmp	r0, #1000
 943 005a F4D9     		bls	.L54
 740:../../../core/ST/STM32L4xx_HAL_Driver/Src/stm32l4xx_hal_rtc_ex.c ****       {
 741:../../../core/ST/STM32L4xx_HAL_Driver/Src/stm32l4xx_hal_rtc_ex.c ****        /* Enable the write protection for RTC registers */
 742:../../../core/ST/STM32L4xx_HAL_Driver/Src/stm32l4xx_hal_rtc_ex.c ****        __HAL_RTC_WRITEPROTECTION_ENABLE(hrtc);
 944              		.loc 1 742 8 is_stmt 1 view .LVU306
 945              		.loc 1 742 8 view .LVU307
 946 005c 2368     		ldr	r3, [r4]
 947 005e FF22     		movs	r2, #255
 948 0060 5A62     		str	r2, [r3, #36]
 949              		.loc 1 742 8 view .LVU308
 743:../../../core/ST/STM32L4xx_HAL_Driver/Src/stm32l4xx_hal_rtc_ex.c **** 
 744:../../../core/ST/STM32L4xx_HAL_Driver/Src/stm32l4xx_hal_rtc_ex.c ****        hrtc->State = HAL_RTC_STATE_TIMEOUT;
 950              		.loc 1 744 8 view .LVU309
 951              		.loc 1 744 20 is_stmt 0 view .LVU310
 952 0062 0320     		movs	r0, #3
 953 0064 84F82100 		strb	r0, [r4, #33]
 745:../../../core/ST/STM32L4xx_HAL_Driver/Src/stm32l4xx_hal_rtc_ex.c **** 
 746:../../../core/ST/STM32L4xx_HAL_Driver/Src/stm32l4xx_hal_rtc_ex.c ****        /* Process Unlocked */
 747:../../../core/ST/STM32L4xx_HAL_Driver/Src/stm32l4xx_hal_rtc_ex.c ****        __HAL_UNLOCK(hrtc);
 954              		.loc 1 747 8 is_stmt 1 view .LVU311
 955              		.loc 1 747 8 view .LVU312
 956 0068 0023     		movs	r3, #0
 957 006a 84F82030 		strb	r3, [r4, #32]
 958              		.loc 1 747 8 view .LVU313
 748:../../../core/ST/STM32L4xx_HAL_Driver/Src/stm32l4xx_hal_rtc_ex.c **** 
 749:../../../core/ST/STM32L4xx_HAL_Driver/Src/stm32l4xx_hal_rtc_ex.c ****        return HAL_TIMEOUT;
 959              		.loc 1 749 8 view .LVU314
 960              		.loc 1 749 15 is_stmt 0 view .LVU315
 961 006e 3DE0     		b	.L52
 962              	.LVL61:
 963              	.L60:
 720:../../../core/ST/STM32L4xx_HAL_Driver/Src/stm32l4xx_hal_rtc_ex.c ****   assert_param(IS_RTC_WAKEUP_COUNTER(WakeUpCounter));
 964              		.loc 1 720 3 discriminator 2 view .LVU316
 965 0070 4FF43471 		mov	r1, #720
 966              	.LVL62:
 720:../../../core/ST/STM32L4xx_HAL_Driver/Src/stm32l4xx_hal_rtc_ex.c ****   assert_param(IS_RTC_WAKEUP_COUNTER(WakeUpCounter));
 967              		.loc 1 720 3 discriminator 2 view .LVU317
 968 0074 1F48     		ldr	r0, .L63
 969              	.LVL63:
 720:../../../core/ST/STM32L4xx_HAL_Driver/Src/stm32l4xx_hal_rtc_ex.c ****   assert_param(IS_RTC_WAKEUP_COUNTER(WakeUpCounter));
 970              		.loc 1 720 3 discriminator 2 view .LVU318
 971 0076 FFF7FEFF 		bl	assert_failed
 972              	.LVL64:
 720:../../../core/ST/STM32L4xx_HAL_Driver/Src/stm32l4xx_hal_rtc_ex.c ****   assert_param(IS_RTC_WAKEUP_COUNTER(WakeUpCounter));
 973              		.loc 1 720 3 discriminator 2 view .LVU319
 974 007a C9E7     		b	.L50
 975              	.L61:
 721:../../../core/ST/STM32L4xx_HAL_Driver/Src/stm32l4xx_hal_rtc_ex.c **** 
 976              		.loc 1 721 3 discriminator 1 view .LVU320
 977 007c 40F2D121 		movw	r1, #721
 978 0080 1C48     		ldr	r0, .L63
 979 0082 FFF7FEFF 		bl	assert_failed
 980              	.LVL65:
 981 0086 C6E7     		b	.L51
ARM GAS  C:\Users\tomra\AppData\Local\Temp\ccoul9Yc.s 			page 32


 982              	.L53:
 750:../../../core/ST/STM32L4xx_HAL_Driver/Src/stm32l4xx_hal_rtc_ex.c ****       }
 751:../../../core/ST/STM32L4xx_HAL_Driver/Src/stm32l4xx_hal_rtc_ex.c ****     }
 752:../../../core/ST/STM32L4xx_HAL_Driver/Src/stm32l4xx_hal_rtc_ex.c ****   }
 753:../../../core/ST/STM32L4xx_HAL_Driver/Src/stm32l4xx_hal_rtc_ex.c **** 
 754:../../../core/ST/STM32L4xx_HAL_Driver/Src/stm32l4xx_hal_rtc_ex.c ****   __HAL_RTC_WAKEUPTIMER_DISABLE(hrtc);
 983              		.loc 1 754 3 is_stmt 1 view .LVU321
 984 0088 2268     		ldr	r2, [r4]
 985 008a 9368     		ldr	r3, [r2, #8]
 986 008c 23F48063 		bic	r3, r3, #1024
 987 0090 9360     		str	r3, [r2, #8]
 755:../../../core/ST/STM32L4xx_HAL_Driver/Src/stm32l4xx_hal_rtc_ex.c **** 
 756:../../../core/ST/STM32L4xx_HAL_Driver/Src/stm32l4xx_hal_rtc_ex.c ****   tickstart = HAL_GetTick();
 988              		.loc 1 756 3 view .LVU322
 989              		.loc 1 756 15 is_stmt 0 view .LVU323
 990 0092 FFF7FEFF 		bl	HAL_GetTick
 991              	.LVL66:
 992 0096 0746     		mov	r7, r0
 993              	.LVL67:
 757:../../../core/ST/STM32L4xx_HAL_Driver/Src/stm32l4xx_hal_rtc_ex.c **** 
 758:../../../core/ST/STM32L4xx_HAL_Driver/Src/stm32l4xx_hal_rtc_ex.c ****   /* Wait till RTC WUTWF flag is set and if Time out is reached exit */
 759:../../../core/ST/STM32L4xx_HAL_Driver/Src/stm32l4xx_hal_rtc_ex.c ****   while(__HAL_RTC_WAKEUPTIMER_GET_FLAG(hrtc, RTC_FLAG_WUTWF) == 0U)
 994              		.loc 1 759 3 is_stmt 1 view .LVU324
 995              	.L56:
 996              		.loc 1 759 8 view .LVU325
 997              		.loc 1 759 9 is_stmt 0 view .LVU326
 998 0098 2368     		ldr	r3, [r4]
 999 009a DA68     		ldr	r2, [r3, #12]
 1000              		.loc 1 759 8 view .LVU327
 1001 009c 12F0040F 		tst	r2, #4
 1002 00a0 0FD1     		bne	.L62
 760:../../../core/ST/STM32L4xx_HAL_Driver/Src/stm32l4xx_hal_rtc_ex.c ****   {
 761:../../../core/ST/STM32L4xx_HAL_Driver/Src/stm32l4xx_hal_rtc_ex.c ****     if((HAL_GetTick() - tickstart ) > RTC_TIMEOUT_VALUE)
 1003              		.loc 1 761 5 is_stmt 1 view .LVU328
 1004              		.loc 1 761 9 is_stmt 0 view .LVU329
 1005 00a2 FFF7FEFF 		bl	HAL_GetTick
 1006              	.LVL68:
 1007              		.loc 1 761 23 view .LVU330
 1008 00a6 C31B     		subs	r3, r0, r7
 1009              		.loc 1 761 7 view .LVU331
 1010 00a8 B3F57A7F 		cmp	r3, #1000
 1011 00ac F4D9     		bls	.L56
 762:../../../core/ST/STM32L4xx_HAL_Driver/Src/stm32l4xx_hal_rtc_ex.c ****     {
 763:../../../core/ST/STM32L4xx_HAL_Driver/Src/stm32l4xx_hal_rtc_ex.c ****       /* Enable the write protection for RTC registers */
 764:../../../core/ST/STM32L4xx_HAL_Driver/Src/stm32l4xx_hal_rtc_ex.c ****       __HAL_RTC_WRITEPROTECTION_ENABLE(hrtc);
 1012              		.loc 1 764 7 is_stmt 1 view .LVU332
 1013              		.loc 1 764 7 view .LVU333
 1014 00ae 2368     		ldr	r3, [r4]
 1015 00b0 FF22     		movs	r2, #255
 1016 00b2 5A62     		str	r2, [r3, #36]
 1017              		.loc 1 764 7 view .LVU334
 765:../../../core/ST/STM32L4xx_HAL_Driver/Src/stm32l4xx_hal_rtc_ex.c **** 
 766:../../../core/ST/STM32L4xx_HAL_Driver/Src/stm32l4xx_hal_rtc_ex.c ****       hrtc->State = HAL_RTC_STATE_TIMEOUT;
 1018              		.loc 1 766 7 view .LVU335
 1019              		.loc 1 766 19 is_stmt 0 view .LVU336
 1020 00b4 0320     		movs	r0, #3
 1021 00b6 84F82100 		strb	r0, [r4, #33]
ARM GAS  C:\Users\tomra\AppData\Local\Temp\ccoul9Yc.s 			page 33


 767:../../../core/ST/STM32L4xx_HAL_Driver/Src/stm32l4xx_hal_rtc_ex.c **** 
 768:../../../core/ST/STM32L4xx_HAL_Driver/Src/stm32l4xx_hal_rtc_ex.c ****       /* Process Unlocked */
 769:../../../core/ST/STM32L4xx_HAL_Driver/Src/stm32l4xx_hal_rtc_ex.c ****       __HAL_UNLOCK(hrtc);
 1022              		.loc 1 769 7 is_stmt 1 view .LVU337
 1023              		.loc 1 769 7 view .LVU338
 1024 00ba 0023     		movs	r3, #0
 1025 00bc 84F82030 		strb	r3, [r4, #32]
 1026              		.loc 1 769 7 view .LVU339
 770:../../../core/ST/STM32L4xx_HAL_Driver/Src/stm32l4xx_hal_rtc_ex.c **** 
 771:../../../core/ST/STM32L4xx_HAL_Driver/Src/stm32l4xx_hal_rtc_ex.c ****       return HAL_TIMEOUT;
 1027              		.loc 1 771 7 view .LVU340
 1028              		.loc 1 771 14 is_stmt 0 view .LVU341
 1029 00c0 14E0     		b	.L52
 1030              	.L62:
 1031              	.LBB2:
 772:../../../core/ST/STM32L4xx_HAL_Driver/Src/stm32l4xx_hal_rtc_ex.c ****     }
 773:../../../core/ST/STM32L4xx_HAL_Driver/Src/stm32l4xx_hal_rtc_ex.c ****   }
 774:../../../core/ST/STM32L4xx_HAL_Driver/Src/stm32l4xx_hal_rtc_ex.c **** 
 775:../../../core/ST/STM32L4xx_HAL_Driver/Src/stm32l4xx_hal_rtc_ex.c ****   /* Clear the Wakeup Timer clock source bits and configure the clock source in CR register */
 776:../../../core/ST/STM32L4xx_HAL_Driver/Src/stm32l4xx_hal_rtc_ex.c ****   {
 777:../../../core/ST/STM32L4xx_HAL_Driver/Src/stm32l4xx_hal_rtc_ex.c ****     uint32_t CR_tmp = hrtc->Instance->CR;
 1032              		.loc 1 777 5 is_stmt 1 view .LVU342
 1033              		.loc 1 777 14 is_stmt 0 view .LVU343
 1034 00c2 9A68     		ldr	r2, [r3, #8]
 1035              	.LVL69:
 778:../../../core/ST/STM32L4xx_HAL_Driver/Src/stm32l4xx_hal_rtc_ex.c ****     CR_tmp &= (uint32_t)~RTC_CR_WUCKSEL;
 1036              		.loc 1 778 5 is_stmt 1 view .LVU344
 1037              		.loc 1 778 12 is_stmt 0 view .LVU345
 1038 00c4 22F00702 		bic	r2, r2, #7
 1039              	.LVL70:
 779:../../../core/ST/STM32L4xx_HAL_Driver/Src/stm32l4xx_hal_rtc_ex.c ****     CR_tmp |= (uint32_t)WakeUpClock;
 1040              		.loc 1 779 5 is_stmt 1 view .LVU346
 1041              		.loc 1 779 12 is_stmt 0 view .LVU347
 1042 00c8 1543     		orrs	r5, r5, r2
 1043              	.LVL71:
 780:../../../core/ST/STM32L4xx_HAL_Driver/Src/stm32l4xx_hal_rtc_ex.c ****     hrtc->Instance->CR = CR_tmp;
 1044              		.loc 1 780 5 is_stmt 1 view .LVU348
 1045              		.loc 1 780 24 is_stmt 0 view .LVU349
 1046 00ca 9D60     		str	r5, [r3, #8]
 1047              	.LBE2:
 781:../../../core/ST/STM32L4xx_HAL_Driver/Src/stm32l4xx_hal_rtc_ex.c ****   }
 782:../../../core/ST/STM32L4xx_HAL_Driver/Src/stm32l4xx_hal_rtc_ex.c **** 
 783:../../../core/ST/STM32L4xx_HAL_Driver/Src/stm32l4xx_hal_rtc_ex.c ****   /* Configure the Wakeup Timer counter */
 784:../../../core/ST/STM32L4xx_HAL_Driver/Src/stm32l4xx_hal_rtc_ex.c ****   hrtc->Instance->WUTR = (uint32_t)WakeUpCounter;
 1048              		.loc 1 784 3 is_stmt 1 view .LVU350
 1049              		.loc 1 784 7 is_stmt 0 view .LVU351
 1050 00cc 2368     		ldr	r3, [r4]
 1051              		.loc 1 784 24 view .LVU352
 1052 00ce 5E61     		str	r6, [r3, #20]
 785:../../../core/ST/STM32L4xx_HAL_Driver/Src/stm32l4xx_hal_rtc_ex.c **** 
 786:../../../core/ST/STM32L4xx_HAL_Driver/Src/stm32l4xx_hal_rtc_ex.c ****    /* Enable the Wakeup Timer */
 787:../../../core/ST/STM32L4xx_HAL_Driver/Src/stm32l4xx_hal_rtc_ex.c ****   __HAL_RTC_WAKEUPTIMER_ENABLE(hrtc);
 1053              		.loc 1 787 3 is_stmt 1 view .LVU353
 1054 00d0 2268     		ldr	r2, [r4]
 1055 00d2 9368     		ldr	r3, [r2, #8]
 1056 00d4 43F48063 		orr	r3, r3, #1024
 1057 00d8 9360     		str	r3, [r2, #8]
ARM GAS  C:\Users\tomra\AppData\Local\Temp\ccoul9Yc.s 			page 34


 788:../../../core/ST/STM32L4xx_HAL_Driver/Src/stm32l4xx_hal_rtc_ex.c **** 
 789:../../../core/ST/STM32L4xx_HAL_Driver/Src/stm32l4xx_hal_rtc_ex.c ****   /* Enable the write protection for RTC registers */
 790:../../../core/ST/STM32L4xx_HAL_Driver/Src/stm32l4xx_hal_rtc_ex.c ****   __HAL_RTC_WRITEPROTECTION_ENABLE(hrtc);
 1058              		.loc 1 790 3 view .LVU354
 1059              		.loc 1 790 3 view .LVU355
 1060 00da 2368     		ldr	r3, [r4]
 1061 00dc FF22     		movs	r2, #255
 1062 00de 5A62     		str	r2, [r3, #36]
 1063              		.loc 1 790 3 view .LVU356
 791:../../../core/ST/STM32L4xx_HAL_Driver/Src/stm32l4xx_hal_rtc_ex.c **** 
 792:../../../core/ST/STM32L4xx_HAL_Driver/Src/stm32l4xx_hal_rtc_ex.c ****   hrtc->State = HAL_RTC_STATE_READY;
 1064              		.loc 1 792 3 view .LVU357
 1065              		.loc 1 792 15 is_stmt 0 view .LVU358
 1066 00e0 0123     		movs	r3, #1
 1067 00e2 84F82130 		strb	r3, [r4, #33]
 793:../../../core/ST/STM32L4xx_HAL_Driver/Src/stm32l4xx_hal_rtc_ex.c **** 
 794:../../../core/ST/STM32L4xx_HAL_Driver/Src/stm32l4xx_hal_rtc_ex.c ****   /* Process Unlocked */
 795:../../../core/ST/STM32L4xx_HAL_Driver/Src/stm32l4xx_hal_rtc_ex.c ****   __HAL_UNLOCK(hrtc);
 1068              		.loc 1 795 3 is_stmt 1 view .LVU359
 1069              		.loc 1 795 3 view .LVU360
 1070 00e6 0020     		movs	r0, #0
 1071 00e8 84F82000 		strb	r0, [r4, #32]
 1072              		.loc 1 795 3 view .LVU361
 796:../../../core/ST/STM32L4xx_HAL_Driver/Src/stm32l4xx_hal_rtc_ex.c **** 
 797:../../../core/ST/STM32L4xx_HAL_Driver/Src/stm32l4xx_hal_rtc_ex.c ****   return HAL_OK;
 1073              		.loc 1 797 3 view .LVU362
 1074              	.LVL72:
 1075              	.L52:
 798:../../../core/ST/STM32L4xx_HAL_Driver/Src/stm32l4xx_hal_rtc_ex.c **** }
 1076              		.loc 1 798 1 is_stmt 0 view .LVU363
 1077 00ec F8BD     		pop	{r3, r4, r5, r6, r7, pc}
 1078              	.LVL73:
 1079              	.L58:
 724:../../../core/ST/STM32L4xx_HAL_Driver/Src/stm32l4xx_hal_rtc_ex.c **** 
 1080              		.loc 1 724 3 view .LVU364
 1081 00ee 0220     		movs	r0, #2
 1082 00f0 FCE7     		b	.L52
 1083              	.L64:
 1084 00f2 00BF     		.align	2
 1085              	.L63:
 1086 00f4 00000000 		.word	.LC0
 1087              		.cfi_endproc
 1088              	.LFE132:
 1090              		.section	.text.HAL_RTCEx_SetWakeUpTimer_IT,"ax",%progbits
 1091              		.align	1
 1092              		.global	HAL_RTCEx_SetWakeUpTimer_IT
 1093              		.syntax unified
 1094              		.thumb
 1095              		.thumb_func
 1096              		.fpu fpv4-sp-d16
 1098              	HAL_RTCEx_SetWakeUpTimer_IT:
 1099              	.LVL74:
 1100              	.LFB133:
 799:../../../core/ST/STM32L4xx_HAL_Driver/Src/stm32l4xx_hal_rtc_ex.c **** 
 800:../../../core/ST/STM32L4xx_HAL_Driver/Src/stm32l4xx_hal_rtc_ex.c **** /**
 801:../../../core/ST/STM32L4xx_HAL_Driver/Src/stm32l4xx_hal_rtc_ex.c ****   * @brief  Set wake up timer with interrupt.
 802:../../../core/ST/STM32L4xx_HAL_Driver/Src/stm32l4xx_hal_rtc_ex.c ****   * @param  hrtc RTC handle
ARM GAS  C:\Users\tomra\AppData\Local\Temp\ccoul9Yc.s 			page 35


 803:../../../core/ST/STM32L4xx_HAL_Driver/Src/stm32l4xx_hal_rtc_ex.c ****   * @param  WakeUpCounter Wake up counter
 804:../../../core/ST/STM32L4xx_HAL_Driver/Src/stm32l4xx_hal_rtc_ex.c ****   * @param  WakeUpClock Wake up clock
 805:../../../core/ST/STM32L4xx_HAL_Driver/Src/stm32l4xx_hal_rtc_ex.c ****   * @param  WakeUpAutoClr Wake up auto clear value (look at WUTOCLR in reference manual)
 806:../../../core/ST/STM32L4xx_HAL_Driver/Src/stm32l4xx_hal_rtc_ex.c ****   *                       - Only available for STM32L412xx and STM32L422xx
 807:../../../core/ST/STM32L4xx_HAL_Driver/Src/stm32l4xx_hal_rtc_ex.c ****   *                       - No effect if WakeUpAutoClr is set to zero
 808:../../../core/ST/STM32L4xx_HAL_Driver/Src/stm32l4xx_hal_rtc_ex.c ****   *                       - This feature is meaningfull in case of Low power mode to avoid any RTC 
 809:../../../core/ST/STM32L4xx_HAL_Driver/Src/stm32l4xx_hal_rtc_ex.c ****   *                         That's why when WakeUpAutoClr is set, EXTI is configured as EVENT inste
 810:../../../core/ST/STM32L4xx_HAL_Driver/Src/stm32l4xx_hal_rtc_ex.c ****   * @retval HAL status
 811:../../../core/ST/STM32L4xx_HAL_Driver/Src/stm32l4xx_hal_rtc_ex.c ****   */
 812:../../../core/ST/STM32L4xx_HAL_Driver/Src/stm32l4xx_hal_rtc_ex.c **** #if defined(STM32L412xx) || defined(STM32L422xx)
 813:../../../core/ST/STM32L4xx_HAL_Driver/Src/stm32l4xx_hal_rtc_ex.c **** HAL_StatusTypeDef HAL_RTCEx_SetWakeUpTimer_IT(RTC_HandleTypeDef *hrtc, uint32_t WakeUpCounter, uint
 814:../../../core/ST/STM32L4xx_HAL_Driver/Src/stm32l4xx_hal_rtc_ex.c **** #else
 815:../../../core/ST/STM32L4xx_HAL_Driver/Src/stm32l4xx_hal_rtc_ex.c **** HAL_StatusTypeDef HAL_RTCEx_SetWakeUpTimer_IT(RTC_HandleTypeDef *hrtc, uint32_t WakeUpCounter, uint
 816:../../../core/ST/STM32L4xx_HAL_Driver/Src/stm32l4xx_hal_rtc_ex.c **** #endif
 817:../../../core/ST/STM32L4xx_HAL_Driver/Src/stm32l4xx_hal_rtc_ex.c **** {
 1101              		.loc 1 817 1 is_stmt 1 view -0
 1102              		.cfi_startproc
 1103              		@ args = 0, pretend = 0, frame = 0
 1104              		@ frame_needed = 0, uses_anonymous_args = 0
 1105              		.loc 1 817 1 is_stmt 0 view .LVU366
 1106 0000 F8B5     		push	{r3, r4, r5, r6, r7, lr}
 1107              	.LCFI5:
 1108              		.cfi_def_cfa_offset 24
 1109              		.cfi_offset 3, -24
 1110              		.cfi_offset 4, -20
 1111              		.cfi_offset 5, -16
 1112              		.cfi_offset 6, -12
 1113              		.cfi_offset 7, -8
 1114              		.cfi_offset 14, -4
 1115 0002 0446     		mov	r4, r0
 1116 0004 0E46     		mov	r6, r1
 1117 0006 1546     		mov	r5, r2
 818:../../../core/ST/STM32L4xx_HAL_Driver/Src/stm32l4xx_hal_rtc_ex.c ****   uint32_t tickstart;
 1118              		.loc 1 818 3 is_stmt 1 view .LVU367
 819:../../../core/ST/STM32L4xx_HAL_Driver/Src/stm32l4xx_hal_rtc_ex.c **** 
 820:../../../core/ST/STM32L4xx_HAL_Driver/Src/stm32l4xx_hal_rtc_ex.c ****   /* Check the parameters */
 821:../../../core/ST/STM32L4xx_HAL_Driver/Src/stm32l4xx_hal_rtc_ex.c ****   assert_param(IS_RTC_WAKEUP_CLOCK(WakeUpClock));
 1119              		.loc 1 821 3 view .LVU368
 1120 0008 042A     		cmp	r2, #4
 1121 000a 01D9     		bls	.L66
 1122              		.loc 1 821 3 is_stmt 0 discriminator 1 view .LVU369
 1123 000c 062A     		cmp	r2, #6
 1124 000e 2FD1     		bne	.L76
 1125              	.LVL75:
 1126              	.L66:
 822:../../../core/ST/STM32L4xx_HAL_Driver/Src/stm32l4xx_hal_rtc_ex.c ****   assert_param(IS_RTC_WAKEUP_COUNTER(WakeUpCounter));
 1127              		.loc 1 822 3 is_stmt 1 view .LVU370
 1128 0010 B6F5803F 		cmp	r6, #65536
 1129 0014 32D2     		bcs	.L77
 1130              	.L67:
 823:../../../core/ST/STM32L4xx_HAL_Driver/Src/stm32l4xx_hal_rtc_ex.c **** #if defined(STM32L412xx) || defined(STM32L422xx)
 824:../../../core/ST/STM32L4xx_HAL_Driver/Src/stm32l4xx_hal_rtc_ex.c ****   /* (0x0000<=WUTOCLR<=WUT) */
 825:../../../core/ST/STM32L4xx_HAL_Driver/Src/stm32l4xx_hal_rtc_ex.c ****   assert_param(WakeUpAutoClr <= WakeUpCounter);
 826:../../../core/ST/STM32L4xx_HAL_Driver/Src/stm32l4xx_hal_rtc_ex.c **** #endif
 827:../../../core/ST/STM32L4xx_HAL_Driver/Src/stm32l4xx_hal_rtc_ex.c **** 
 828:../../../core/ST/STM32L4xx_HAL_Driver/Src/stm32l4xx_hal_rtc_ex.c ****   /* Process Locked */
 829:../../../core/ST/STM32L4xx_HAL_Driver/Src/stm32l4xx_hal_rtc_ex.c ****   __HAL_LOCK(hrtc);
ARM GAS  C:\Users\tomra\AppData\Local\Temp\ccoul9Yc.s 			page 36


 1131              		.loc 1 829 3 view .LVU371
 1132              		.loc 1 829 3 view .LVU372
 1133 0016 94F82030 		ldrb	r3, [r4, #32]	@ zero_extendqisi2
 1134 001a 012B     		cmp	r3, #1
 1135 001c 7BD0     		beq	.L74
 1136              		.loc 1 829 3 discriminator 2 view .LVU373
 1137 001e 0123     		movs	r3, #1
 1138 0020 84F82030 		strb	r3, [r4, #32]
 1139              		.loc 1 829 3 discriminator 2 view .LVU374
 830:../../../core/ST/STM32L4xx_HAL_Driver/Src/stm32l4xx_hal_rtc_ex.c **** 
 831:../../../core/ST/STM32L4xx_HAL_Driver/Src/stm32l4xx_hal_rtc_ex.c ****   hrtc->State = HAL_RTC_STATE_BUSY;
 1140              		.loc 1 831 3 discriminator 2 view .LVU375
 1141              		.loc 1 831 15 is_stmt 0 discriminator 2 view .LVU376
 1142 0024 0223     		movs	r3, #2
 1143 0026 84F82130 		strb	r3, [r4, #33]
 832:../../../core/ST/STM32L4xx_HAL_Driver/Src/stm32l4xx_hal_rtc_ex.c **** 
 833:../../../core/ST/STM32L4xx_HAL_Driver/Src/stm32l4xx_hal_rtc_ex.c ****   /* Disable the write protection for RTC registers */
 834:../../../core/ST/STM32L4xx_HAL_Driver/Src/stm32l4xx_hal_rtc_ex.c ****   __HAL_RTC_WRITEPROTECTION_DISABLE(hrtc);
 1144              		.loc 1 834 3 is_stmt 1 discriminator 2 view .LVU377
 1145              		.loc 1 834 3 discriminator 2 view .LVU378
 1146 002a 2368     		ldr	r3, [r4]
 1147 002c CA22     		movs	r2, #202
 1148 002e 5A62     		str	r2, [r3, #36]
 1149              		.loc 1 834 3 discriminator 2 view .LVU379
 1150 0030 2368     		ldr	r3, [r4]
 1151 0032 5322     		movs	r2, #83
 1152 0034 5A62     		str	r2, [r3, #36]
 1153              		.loc 1 834 3 discriminator 2 view .LVU380
 835:../../../core/ST/STM32L4xx_HAL_Driver/Src/stm32l4xx_hal_rtc_ex.c **** 
 836:../../../core/ST/STM32L4xx_HAL_Driver/Src/stm32l4xx_hal_rtc_ex.c ****   /*Check RTC WUTWF flag is reset only when wake up timer enabled*/
 837:../../../core/ST/STM32L4xx_HAL_Driver/Src/stm32l4xx_hal_rtc_ex.c ****   if((hrtc->Instance->CR & RTC_CR_WUTE) != 0U)
 1154              		.loc 1 837 3 discriminator 2 view .LVU381
 1155              		.loc 1 837 11 is_stmt 0 discriminator 2 view .LVU382
 1156 0036 2368     		ldr	r3, [r4]
 1157              		.loc 1 837 21 discriminator 2 view .LVU383
 1158 0038 9B68     		ldr	r3, [r3, #8]
 1159              		.loc 1 837 5 discriminator 2 view .LVU384
 1160 003a 13F4806F 		tst	r3, #1024
 1161 003e 23D0     		beq	.L69
 838:../../../core/ST/STM32L4xx_HAL_Driver/Src/stm32l4xx_hal_rtc_ex.c ****   {
 839:../../../core/ST/STM32L4xx_HAL_Driver/Src/stm32l4xx_hal_rtc_ex.c ****     tickstart = HAL_GetTick();
 1162              		.loc 1 839 5 is_stmt 1 view .LVU385
 1163              		.loc 1 839 17 is_stmt 0 view .LVU386
 1164 0040 FFF7FEFF 		bl	HAL_GetTick
 1165              	.LVL76:
 1166 0044 0746     		mov	r7, r0
 1167              	.LVL77:
 840:../../../core/ST/STM32L4xx_HAL_Driver/Src/stm32l4xx_hal_rtc_ex.c **** 
 841:../../../core/ST/STM32L4xx_HAL_Driver/Src/stm32l4xx_hal_rtc_ex.c ****    /* Wait till RTC WUTWF flag is reset and if Time out is reached exit */
 842:../../../core/ST/STM32L4xx_HAL_Driver/Src/stm32l4xx_hal_rtc_ex.c ****    while(__HAL_RTC_WAKEUPTIMER_GET_FLAG(hrtc, RTC_FLAG_WUTWF) == 1U)
 1168              		.loc 1 842 4 is_stmt 1 view .LVU387
 1169              	.L70:
 1170              		.loc 1 842 9 view .LVU388
 1171              		.loc 1 842 10 is_stmt 0 view .LVU389
 1172 0046 2368     		ldr	r3, [r4]
 1173 0048 DB68     		ldr	r3, [r3, #12]
 1174              		.loc 1 842 9 view .LVU390
ARM GAS  C:\Users\tomra\AppData\Local\Temp\ccoul9Yc.s 			page 37


 1175 004a 13F0040F 		tst	r3, #4
 1176 004e 1BD0     		beq	.L69
 843:../../../core/ST/STM32L4xx_HAL_Driver/Src/stm32l4xx_hal_rtc_ex.c ****    {
 844:../../../core/ST/STM32L4xx_HAL_Driver/Src/stm32l4xx_hal_rtc_ex.c ****     if((HAL_GetTick() - tickstart ) > RTC_TIMEOUT_VALUE)
 1177              		.loc 1 844 5 is_stmt 1 view .LVU391
 1178              		.loc 1 844 9 is_stmt 0 view .LVU392
 1179 0050 FFF7FEFF 		bl	HAL_GetTick
 1180              	.LVL78:
 1181              		.loc 1 844 23 view .LVU393
 1182 0054 C01B     		subs	r0, r0, r7
 1183              		.loc 1 844 7 view .LVU394
 1184 0056 B0F57A7F 		cmp	r0, #1000
 1185 005a F4D9     		bls	.L70
 845:../../../core/ST/STM32L4xx_HAL_Driver/Src/stm32l4xx_hal_rtc_ex.c ****       {
 846:../../../core/ST/STM32L4xx_HAL_Driver/Src/stm32l4xx_hal_rtc_ex.c ****        /* Enable the write protection for RTC registers */
 847:../../../core/ST/STM32L4xx_HAL_Driver/Src/stm32l4xx_hal_rtc_ex.c ****        __HAL_RTC_WRITEPROTECTION_ENABLE(hrtc);
 1186              		.loc 1 847 8 is_stmt 1 view .LVU395
 1187              		.loc 1 847 8 view .LVU396
 1188 005c 2368     		ldr	r3, [r4]
 1189 005e FF22     		movs	r2, #255
 1190 0060 5A62     		str	r2, [r3, #36]
 1191              		.loc 1 847 8 view .LVU397
 848:../../../core/ST/STM32L4xx_HAL_Driver/Src/stm32l4xx_hal_rtc_ex.c **** 
 849:../../../core/ST/STM32L4xx_HAL_Driver/Src/stm32l4xx_hal_rtc_ex.c ****        hrtc->State = HAL_RTC_STATE_TIMEOUT;
 1192              		.loc 1 849 8 view .LVU398
 1193              		.loc 1 849 20 is_stmt 0 view .LVU399
 1194 0062 0320     		movs	r0, #3
 1195 0064 84F82100 		strb	r0, [r4, #33]
 850:../../../core/ST/STM32L4xx_HAL_Driver/Src/stm32l4xx_hal_rtc_ex.c **** 
 851:../../../core/ST/STM32L4xx_HAL_Driver/Src/stm32l4xx_hal_rtc_ex.c ****        /* Process Unlocked */
 852:../../../core/ST/STM32L4xx_HAL_Driver/Src/stm32l4xx_hal_rtc_ex.c ****        __HAL_UNLOCK(hrtc);
 1196              		.loc 1 852 8 is_stmt 1 view .LVU400
 1197              		.loc 1 852 8 view .LVU401
 1198 0068 0023     		movs	r3, #0
 1199 006a 84F82030 		strb	r3, [r4, #32]
 1200              		.loc 1 852 8 view .LVU402
 853:../../../core/ST/STM32L4xx_HAL_Driver/Src/stm32l4xx_hal_rtc_ex.c ****        return HAL_TIMEOUT;
 1201              		.loc 1 853 8 view .LVU403
 1202              		.loc 1 853 15 is_stmt 0 view .LVU404
 1203 006e 51E0     		b	.L68
 1204              	.LVL79:
 1205              	.L76:
 821:../../../core/ST/STM32L4xx_HAL_Driver/Src/stm32l4xx_hal_rtc_ex.c ****   assert_param(IS_RTC_WAKEUP_COUNTER(WakeUpCounter));
 1206              		.loc 1 821 3 discriminator 2 view .LVU405
 1207 0070 40F23531 		movw	r1, #821
 1208              	.LVL80:
 821:../../../core/ST/STM32L4xx_HAL_Driver/Src/stm32l4xx_hal_rtc_ex.c ****   assert_param(IS_RTC_WAKEUP_COUNTER(WakeUpCounter));
 1209              		.loc 1 821 3 discriminator 2 view .LVU406
 1210 0074 2948     		ldr	r0, .L79
 1211              	.LVL81:
 821:../../../core/ST/STM32L4xx_HAL_Driver/Src/stm32l4xx_hal_rtc_ex.c ****   assert_param(IS_RTC_WAKEUP_COUNTER(WakeUpCounter));
 1212              		.loc 1 821 3 discriminator 2 view .LVU407
 1213 0076 FFF7FEFF 		bl	assert_failed
 1214              	.LVL82:
 821:../../../core/ST/STM32L4xx_HAL_Driver/Src/stm32l4xx_hal_rtc_ex.c ****   assert_param(IS_RTC_WAKEUP_COUNTER(WakeUpCounter));
 1215              		.loc 1 821 3 discriminator 2 view .LVU408
 1216 007a C9E7     		b	.L66
ARM GAS  C:\Users\tomra\AppData\Local\Temp\ccoul9Yc.s 			page 38


 1217              	.L77:
 822:../../../core/ST/STM32L4xx_HAL_Driver/Src/stm32l4xx_hal_rtc_ex.c **** #if defined(STM32L412xx) || defined(STM32L422xx)
 1218              		.loc 1 822 3 discriminator 1 view .LVU409
 1219 007c 40F23631 		movw	r1, #822
 1220 0080 2648     		ldr	r0, .L79
 1221 0082 FFF7FEFF 		bl	assert_failed
 1222              	.LVL83:
 1223 0086 C6E7     		b	.L67
 1224              	.L69:
 854:../../../core/ST/STM32L4xx_HAL_Driver/Src/stm32l4xx_hal_rtc_ex.c ****       }
 855:../../../core/ST/STM32L4xx_HAL_Driver/Src/stm32l4xx_hal_rtc_ex.c ****     }
 856:../../../core/ST/STM32L4xx_HAL_Driver/Src/stm32l4xx_hal_rtc_ex.c ****   }
 857:../../../core/ST/STM32L4xx_HAL_Driver/Src/stm32l4xx_hal_rtc_ex.c ****   /* Disable the Wake-Up timer */
 858:../../../core/ST/STM32L4xx_HAL_Driver/Src/stm32l4xx_hal_rtc_ex.c ****   __HAL_RTC_WAKEUPTIMER_DISABLE(hrtc);
 1225              		.loc 1 858 3 is_stmt 1 view .LVU410
 1226 0088 2268     		ldr	r2, [r4]
 1227 008a 9368     		ldr	r3, [r2, #8]
 1228 008c 23F48063 		bic	r3, r3, #1024
 1229 0090 9360     		str	r3, [r2, #8]
 859:../../../core/ST/STM32L4xx_HAL_Driver/Src/stm32l4xx_hal_rtc_ex.c **** 
 860:../../../core/ST/STM32L4xx_HAL_Driver/Src/stm32l4xx_hal_rtc_ex.c ****   /* Clear flag Wake-Up */
 861:../../../core/ST/STM32L4xx_HAL_Driver/Src/stm32l4xx_hal_rtc_ex.c ****   __HAL_RTC_WAKEUPTIMER_CLEAR_FLAG(hrtc, RTC_FLAG_WUTF);
 1230              		.loc 1 861 3 view .LVU411
 1231 0092 2268     		ldr	r2, [r4]
 1232 0094 D368     		ldr	r3, [r2, #12]
 1233 0096 DBB2     		uxtb	r3, r3
 1234 0098 63F49063 		orn	r3, r3, #1152
 1235 009c D360     		str	r3, [r2, #12]
 862:../../../core/ST/STM32L4xx_HAL_Driver/Src/stm32l4xx_hal_rtc_ex.c **** 
 863:../../../core/ST/STM32L4xx_HAL_Driver/Src/stm32l4xx_hal_rtc_ex.c ****   tickstart = HAL_GetTick();
 1236              		.loc 1 863 3 view .LVU412
 1237              		.loc 1 863 15 is_stmt 0 view .LVU413
 1238 009e FFF7FEFF 		bl	HAL_GetTick
 1239              	.LVL84:
 1240 00a2 0746     		mov	r7, r0
 1241              	.LVL85:
 864:../../../core/ST/STM32L4xx_HAL_Driver/Src/stm32l4xx_hal_rtc_ex.c **** 
 865:../../../core/ST/STM32L4xx_HAL_Driver/Src/stm32l4xx_hal_rtc_ex.c ****   /* Wait till RTC WUTWF flag is set and if Time out is reached exit */
 866:../../../core/ST/STM32L4xx_HAL_Driver/Src/stm32l4xx_hal_rtc_ex.c ****   while(__HAL_RTC_WAKEUPTIMER_GET_FLAG(hrtc, RTC_FLAG_WUTWF) == 0U)
 1242              		.loc 1 866 3 is_stmt 1 view .LVU414
 1243              	.L72:
 1244              		.loc 1 866 8 view .LVU415
 1245              		.loc 1 866 9 is_stmt 0 view .LVU416
 1246 00a4 2368     		ldr	r3, [r4]
 1247 00a6 DA68     		ldr	r2, [r3, #12]
 1248              		.loc 1 866 8 view .LVU417
 1249 00a8 12F0040F 		tst	r2, #4
 1250 00ac 0FD1     		bne	.L78
 867:../../../core/ST/STM32L4xx_HAL_Driver/Src/stm32l4xx_hal_rtc_ex.c ****   {
 868:../../../core/ST/STM32L4xx_HAL_Driver/Src/stm32l4xx_hal_rtc_ex.c ****     if((HAL_GetTick() - tickstart ) > RTC_TIMEOUT_VALUE)
 1251              		.loc 1 868 5 is_stmt 1 view .LVU418
 1252              		.loc 1 868 9 is_stmt 0 view .LVU419
 1253 00ae FFF7FEFF 		bl	HAL_GetTick
 1254              	.LVL86:
 1255              		.loc 1 868 23 view .LVU420
 1256 00b2 C01B     		subs	r0, r0, r7
 1257              		.loc 1 868 7 view .LVU421
ARM GAS  C:\Users\tomra\AppData\Local\Temp\ccoul9Yc.s 			page 39


 1258 00b4 B0F57A7F 		cmp	r0, #1000
 1259 00b8 F4D9     		bls	.L72
 869:../../../core/ST/STM32L4xx_HAL_Driver/Src/stm32l4xx_hal_rtc_ex.c ****     {
 870:../../../core/ST/STM32L4xx_HAL_Driver/Src/stm32l4xx_hal_rtc_ex.c ****       /* Enable the write protection for RTC registers */
 871:../../../core/ST/STM32L4xx_HAL_Driver/Src/stm32l4xx_hal_rtc_ex.c ****       __HAL_RTC_WRITEPROTECTION_ENABLE(hrtc);
 1260              		.loc 1 871 7 is_stmt 1 view .LVU422
 1261              		.loc 1 871 7 view .LVU423
 1262 00ba 2368     		ldr	r3, [r4]
 1263 00bc FF22     		movs	r2, #255
 1264 00be 5A62     		str	r2, [r3, #36]
 1265              		.loc 1 871 7 view .LVU424
 872:../../../core/ST/STM32L4xx_HAL_Driver/Src/stm32l4xx_hal_rtc_ex.c **** 
 873:../../../core/ST/STM32L4xx_HAL_Driver/Src/stm32l4xx_hal_rtc_ex.c ****       hrtc->State = HAL_RTC_STATE_TIMEOUT;
 1266              		.loc 1 873 7 view .LVU425
 1267              		.loc 1 873 19 is_stmt 0 view .LVU426
 1268 00c0 0320     		movs	r0, #3
 1269 00c2 84F82100 		strb	r0, [r4, #33]
 874:../../../core/ST/STM32L4xx_HAL_Driver/Src/stm32l4xx_hal_rtc_ex.c **** 
 875:../../../core/ST/STM32L4xx_HAL_Driver/Src/stm32l4xx_hal_rtc_ex.c ****       /* Process Unlocked */
 876:../../../core/ST/STM32L4xx_HAL_Driver/Src/stm32l4xx_hal_rtc_ex.c ****       __HAL_UNLOCK(hrtc);
 1270              		.loc 1 876 7 is_stmt 1 view .LVU427
 1271              		.loc 1 876 7 view .LVU428
 1272 00c6 0023     		movs	r3, #0
 1273 00c8 84F82030 		strb	r3, [r4, #32]
 1274              		.loc 1 876 7 view .LVU429
 877:../../../core/ST/STM32L4xx_HAL_Driver/Src/stm32l4xx_hal_rtc_ex.c **** 
 878:../../../core/ST/STM32L4xx_HAL_Driver/Src/stm32l4xx_hal_rtc_ex.c ****       return HAL_TIMEOUT;
 1275              		.loc 1 878 7 view .LVU430
 1276              		.loc 1 878 14 is_stmt 0 view .LVU431
 1277 00cc 22E0     		b	.L68
 1278              	.L78:
 879:../../../core/ST/STM32L4xx_HAL_Driver/Src/stm32l4xx_hal_rtc_ex.c ****     }
 880:../../../core/ST/STM32L4xx_HAL_Driver/Src/stm32l4xx_hal_rtc_ex.c ****   }
 881:../../../core/ST/STM32L4xx_HAL_Driver/Src/stm32l4xx_hal_rtc_ex.c **** 
 882:../../../core/ST/STM32L4xx_HAL_Driver/Src/stm32l4xx_hal_rtc_ex.c **** #if defined(STM32L412xx) || defined(STM32L422xx)
 883:../../../core/ST/STM32L4xx_HAL_Driver/Src/stm32l4xx_hal_rtc_ex.c ****   /* Configure the Wakeup Timer counter and auto clear value */
 884:../../../core/ST/STM32L4xx_HAL_Driver/Src/stm32l4xx_hal_rtc_ex.c ****   hrtc->Instance->WUTR = (uint32_t) (WakeUpCounter | (WakeUpAutoClr << RTC_WUTR_WUTOCLR_Pos));
 885:../../../core/ST/STM32L4xx_HAL_Driver/Src/stm32l4xx_hal_rtc_ex.c **** #else
 886:../../../core/ST/STM32L4xx_HAL_Driver/Src/stm32l4xx_hal_rtc_ex.c **** /* Configure the Wakeup Timer counter */
 887:../../../core/ST/STM32L4xx_HAL_Driver/Src/stm32l4xx_hal_rtc_ex.c ****   hrtc->Instance->WUTR = (uint32_t)WakeUpCounter;
 1279              		.loc 1 887 3 is_stmt 1 view .LVU432
 1280              		.loc 1 887 24 is_stmt 0 view .LVU433
 1281 00ce 5E61     		str	r6, [r3, #20]
 1282              	.LBB3:
 888:../../../core/ST/STM32L4xx_HAL_Driver/Src/stm32l4xx_hal_rtc_ex.c **** #endif
 889:../../../core/ST/STM32L4xx_HAL_Driver/Src/stm32l4xx_hal_rtc_ex.c **** 
 890:../../../core/ST/STM32L4xx_HAL_Driver/Src/stm32l4xx_hal_rtc_ex.c ****   /* Clear the Wakeup Timer clock source bits and configure the clock source in CR register */
 891:../../../core/ST/STM32L4xx_HAL_Driver/Src/stm32l4xx_hal_rtc_ex.c ****   {
 892:../../../core/ST/STM32L4xx_HAL_Driver/Src/stm32l4xx_hal_rtc_ex.c ****     uint32_t CR_tmp = hrtc->Instance->CR;
 1283              		.loc 1 892 5 is_stmt 1 view .LVU434
 1284              		.loc 1 892 27 is_stmt 0 view .LVU435
 1285 00d0 2268     		ldr	r2, [r4]
 1286              		.loc 1 892 14 view .LVU436
 1287 00d2 9368     		ldr	r3, [r2, #8]
 1288              	.LVL87:
 893:../../../core/ST/STM32L4xx_HAL_Driver/Src/stm32l4xx_hal_rtc_ex.c ****     CR_tmp &= (uint32_t)~RTC_CR_WUCKSEL;
 1289              		.loc 1 893 5 is_stmt 1 view .LVU437
ARM GAS  C:\Users\tomra\AppData\Local\Temp\ccoul9Yc.s 			page 40


 1290              		.loc 1 893 12 is_stmt 0 view .LVU438
 1291 00d4 23F00703 		bic	r3, r3, #7
 1292              	.LVL88:
 894:../../../core/ST/STM32L4xx_HAL_Driver/Src/stm32l4xx_hal_rtc_ex.c ****     CR_tmp |= (uint32_t)WakeUpClock;
 1293              		.loc 1 894 5 is_stmt 1 view .LVU439
 1294              		.loc 1 894 12 is_stmt 0 view .LVU440
 1295 00d8 1D43     		orrs	r5, r5, r3
 1296              	.LVL89:
 895:../../../core/ST/STM32L4xx_HAL_Driver/Src/stm32l4xx_hal_rtc_ex.c ****     hrtc->Instance->CR = CR_tmp;
 1297              		.loc 1 895 5 is_stmt 1 view .LVU441
 1298              		.loc 1 895 24 is_stmt 0 view .LVU442
 1299 00da 9560     		str	r5, [r2, #8]
 1300              	.LBE3:
 896:../../../core/ST/STM32L4xx_HAL_Driver/Src/stm32l4xx_hal_rtc_ex.c ****   }
 897:../../../core/ST/STM32L4xx_HAL_Driver/Src/stm32l4xx_hal_rtc_ex.c **** 
 898:../../../core/ST/STM32L4xx_HAL_Driver/Src/stm32l4xx_hal_rtc_ex.c **** #if defined(STM32L412xx) || defined(STM32L422xx)
 899:../../../core/ST/STM32L4xx_HAL_Driver/Src/stm32l4xx_hal_rtc_ex.c ****   /* In case of WUT autoclr, the IRQ handler should not be called */
 900:../../../core/ST/STM32L4xx_HAL_Driver/Src/stm32l4xx_hal_rtc_ex.c ****   if (WakeUpAutoClr != 0u)
 901:../../../core/ST/STM32L4xx_HAL_Driver/Src/stm32l4xx_hal_rtc_ex.c ****   {
 902:../../../core/ST/STM32L4xx_HAL_Driver/Src/stm32l4xx_hal_rtc_ex.c ****     /* RTC WakeUpTimer EXTI Configuration: Event configuration */
 903:../../../core/ST/STM32L4xx_HAL_Driver/Src/stm32l4xx_hal_rtc_ex.c ****     __HAL_RTC_WAKEUPTIMER_EXTI_ENABLE_EVENT();
 904:../../../core/ST/STM32L4xx_HAL_Driver/Src/stm32l4xx_hal_rtc_ex.c ****   }
 905:../../../core/ST/STM32L4xx_HAL_Driver/Src/stm32l4xx_hal_rtc_ex.c ****   else
 906:../../../core/ST/STM32L4xx_HAL_Driver/Src/stm32l4xx_hal_rtc_ex.c ****   {
 907:../../../core/ST/STM32L4xx_HAL_Driver/Src/stm32l4xx_hal_rtc_ex.c ****     /* RTC WakeUpTimer EXTI Configuration: Interrupt configuration */
 908:../../../core/ST/STM32L4xx_HAL_Driver/Src/stm32l4xx_hal_rtc_ex.c ****     __HAL_RTC_WAKEUPTIMER_EXTI_ENABLE_IT();
 909:../../../core/ST/STM32L4xx_HAL_Driver/Src/stm32l4xx_hal_rtc_ex.c ****   }
 910:../../../core/ST/STM32L4xx_HAL_Driver/Src/stm32l4xx_hal_rtc_ex.c **** #else /* defined(STM32L412xx) || defined(STM32L422xx) */
 911:../../../core/ST/STM32L4xx_HAL_Driver/Src/stm32l4xx_hal_rtc_ex.c ****     __HAL_RTC_WAKEUPTIMER_EXTI_ENABLE_EVENT();
 1301              		.loc 1 911 5 is_stmt 1 view .LVU443
 1302 00dc 104B     		ldr	r3, .L79+4
 1303 00de 5A68     		ldr	r2, [r3, #4]
 1304 00e0 42F48012 		orr	r2, r2, #1048576
 1305 00e4 5A60     		str	r2, [r3, #4]
 912:../../../core/ST/STM32L4xx_HAL_Driver/Src/stm32l4xx_hal_rtc_ex.c **** #endif /* defined(STM32L412xx) || defined(STM32L422xx) */
 913:../../../core/ST/STM32L4xx_HAL_Driver/Src/stm32l4xx_hal_rtc_ex.c **** 
 914:../../../core/ST/STM32L4xx_HAL_Driver/Src/stm32l4xx_hal_rtc_ex.c ****   __HAL_RTC_WAKEUPTIMER_EXTI_ENABLE_RISING_EDGE();
 1306              		.loc 1 914 3 view .LVU444
 1307 00e6 9A68     		ldr	r2, [r3, #8]
 1308 00e8 42F48012 		orr	r2, r2, #1048576
 1309 00ec 9A60     		str	r2, [r3, #8]
 915:../../../core/ST/STM32L4xx_HAL_Driver/Src/stm32l4xx_hal_rtc_ex.c **** 
 916:../../../core/ST/STM32L4xx_HAL_Driver/Src/stm32l4xx_hal_rtc_ex.c ****   /* Configure the Interrupt in the RTC_CR register */
 917:../../../core/ST/STM32L4xx_HAL_Driver/Src/stm32l4xx_hal_rtc_ex.c ****   __HAL_RTC_WAKEUPTIMER_ENABLE_IT(hrtc,RTC_IT_WUT);
 1310              		.loc 1 917 3 view .LVU445
 1311 00ee 2268     		ldr	r2, [r4]
 1312 00f0 9368     		ldr	r3, [r2, #8]
 1313 00f2 43F48043 		orr	r3, r3, #16384
 1314 00f6 9360     		str	r3, [r2, #8]
 918:../../../core/ST/STM32L4xx_HAL_Driver/Src/stm32l4xx_hal_rtc_ex.c **** 
 919:../../../core/ST/STM32L4xx_HAL_Driver/Src/stm32l4xx_hal_rtc_ex.c ****   /* Enable the Wakeup Timer */
 920:../../../core/ST/STM32L4xx_HAL_Driver/Src/stm32l4xx_hal_rtc_ex.c ****   __HAL_RTC_WAKEUPTIMER_ENABLE(hrtc);
 1315              		.loc 1 920 3 view .LVU446
 1316 00f8 2268     		ldr	r2, [r4]
 1317 00fa 9368     		ldr	r3, [r2, #8]
 1318 00fc 43F48063 		orr	r3, r3, #1024
 1319 0100 9360     		str	r3, [r2, #8]
ARM GAS  C:\Users\tomra\AppData\Local\Temp\ccoul9Yc.s 			page 41


 921:../../../core/ST/STM32L4xx_HAL_Driver/Src/stm32l4xx_hal_rtc_ex.c **** 
 922:../../../core/ST/STM32L4xx_HAL_Driver/Src/stm32l4xx_hal_rtc_ex.c ****   /* Enable the write protection for RTC registers */
 923:../../../core/ST/STM32L4xx_HAL_Driver/Src/stm32l4xx_hal_rtc_ex.c ****   __HAL_RTC_WRITEPROTECTION_ENABLE(hrtc);
 1320              		.loc 1 923 3 view .LVU447
 1321              		.loc 1 923 3 view .LVU448
 1322 0102 2368     		ldr	r3, [r4]
 1323 0104 FF22     		movs	r2, #255
 1324 0106 5A62     		str	r2, [r3, #36]
 1325              		.loc 1 923 3 view .LVU449
 924:../../../core/ST/STM32L4xx_HAL_Driver/Src/stm32l4xx_hal_rtc_ex.c **** 
 925:../../../core/ST/STM32L4xx_HAL_Driver/Src/stm32l4xx_hal_rtc_ex.c ****   hrtc->State = HAL_RTC_STATE_READY;
 1326              		.loc 1 925 3 view .LVU450
 1327              		.loc 1 925 15 is_stmt 0 view .LVU451
 1328 0108 0123     		movs	r3, #1
 1329 010a 84F82130 		strb	r3, [r4, #33]
 926:../../../core/ST/STM32L4xx_HAL_Driver/Src/stm32l4xx_hal_rtc_ex.c **** 
 927:../../../core/ST/STM32L4xx_HAL_Driver/Src/stm32l4xx_hal_rtc_ex.c ****   /* Process Unlocked */
 928:../../../core/ST/STM32L4xx_HAL_Driver/Src/stm32l4xx_hal_rtc_ex.c ****   __HAL_UNLOCK(hrtc);
 1330              		.loc 1 928 3 is_stmt 1 view .LVU452
 1331              		.loc 1 928 3 view .LVU453
 1332 010e 0020     		movs	r0, #0
 1333 0110 84F82000 		strb	r0, [r4, #32]
 1334              		.loc 1 928 3 view .LVU454
 929:../../../core/ST/STM32L4xx_HAL_Driver/Src/stm32l4xx_hal_rtc_ex.c **** 
 930:../../../core/ST/STM32L4xx_HAL_Driver/Src/stm32l4xx_hal_rtc_ex.c ****   return HAL_OK;
 1335              		.loc 1 930 3 view .LVU455
 1336              	.LVL90:
 1337              	.L68:
 931:../../../core/ST/STM32L4xx_HAL_Driver/Src/stm32l4xx_hal_rtc_ex.c **** }
 1338              		.loc 1 931 1 is_stmt 0 view .LVU456
 1339 0114 F8BD     		pop	{r3, r4, r5, r6, r7, pc}
 1340              	.LVL91:
 1341              	.L74:
 829:../../../core/ST/STM32L4xx_HAL_Driver/Src/stm32l4xx_hal_rtc_ex.c **** 
 1342              		.loc 1 829 3 view .LVU457
 1343 0116 0220     		movs	r0, #2
 1344 0118 FCE7     		b	.L68
 1345              	.L80:
 1346 011a 00BF     		.align	2
 1347              	.L79:
 1348 011c 00000000 		.word	.LC0
 1349 0120 00040140 		.word	1073808384
 1350              		.cfi_endproc
 1351              	.LFE133:
 1353              		.section	.text.HAL_RTCEx_DeactivateWakeUpTimer,"ax",%progbits
 1354              		.align	1
 1355              		.global	HAL_RTCEx_DeactivateWakeUpTimer
 1356              		.syntax unified
 1357              		.thumb
 1358              		.thumb_func
 1359              		.fpu fpv4-sp-d16
 1361              	HAL_RTCEx_DeactivateWakeUpTimer:
 1362              	.LVL92:
 1363              	.LFB134:
 932:../../../core/ST/STM32L4xx_HAL_Driver/Src/stm32l4xx_hal_rtc_ex.c **** 
 933:../../../core/ST/STM32L4xx_HAL_Driver/Src/stm32l4xx_hal_rtc_ex.c **** /**
 934:../../../core/ST/STM32L4xx_HAL_Driver/Src/stm32l4xx_hal_rtc_ex.c ****   * @brief  Deactivate wake up timer counter.
ARM GAS  C:\Users\tomra\AppData\Local\Temp\ccoul9Yc.s 			page 42


 935:../../../core/ST/STM32L4xx_HAL_Driver/Src/stm32l4xx_hal_rtc_ex.c ****   * @param  hrtc RTC handle
 936:../../../core/ST/STM32L4xx_HAL_Driver/Src/stm32l4xx_hal_rtc_ex.c ****   * @retval HAL status
 937:../../../core/ST/STM32L4xx_HAL_Driver/Src/stm32l4xx_hal_rtc_ex.c ****   */
 938:../../../core/ST/STM32L4xx_HAL_Driver/Src/stm32l4xx_hal_rtc_ex.c **** HAL_StatusTypeDef HAL_RTCEx_DeactivateWakeUpTimer(RTC_HandleTypeDef *hrtc)
 939:../../../core/ST/STM32L4xx_HAL_Driver/Src/stm32l4xx_hal_rtc_ex.c **** {
 1364              		.loc 1 939 1 is_stmt 1 view -0
 1365              		.cfi_startproc
 1366              		@ args = 0, pretend = 0, frame = 0
 1367              		@ frame_needed = 0, uses_anonymous_args = 0
 1368              		.loc 1 939 1 is_stmt 0 view .LVU459
 1369 0000 38B5     		push	{r3, r4, r5, lr}
 1370              	.LCFI6:
 1371              		.cfi_def_cfa_offset 16
 1372              		.cfi_offset 3, -16
 1373              		.cfi_offset 4, -12
 1374              		.cfi_offset 5, -8
 1375              		.cfi_offset 14, -4
 940:../../../core/ST/STM32L4xx_HAL_Driver/Src/stm32l4xx_hal_rtc_ex.c ****   uint32_t tickstart;
 1376              		.loc 1 940 3 is_stmt 1 view .LVU460
 941:../../../core/ST/STM32L4xx_HAL_Driver/Src/stm32l4xx_hal_rtc_ex.c **** 
 942:../../../core/ST/STM32L4xx_HAL_Driver/Src/stm32l4xx_hal_rtc_ex.c ****   /* Process Locked */
 943:../../../core/ST/STM32L4xx_HAL_Driver/Src/stm32l4xx_hal_rtc_ex.c ****   __HAL_LOCK(hrtc);
 1377              		.loc 1 943 3 view .LVU461
 1378              		.loc 1 943 3 view .LVU462
 1379 0002 90F82030 		ldrb	r3, [r0, #32]	@ zero_extendqisi2
 1380 0006 012B     		cmp	r3, #1
 1381 0008 37D0     		beq	.L85
 1382 000a 0446     		mov	r4, r0
 1383              		.loc 1 943 3 discriminator 2 view .LVU463
 1384 000c 0123     		movs	r3, #1
 1385 000e 80F82030 		strb	r3, [r0, #32]
 1386              		.loc 1 943 3 discriminator 2 view .LVU464
 944:../../../core/ST/STM32L4xx_HAL_Driver/Src/stm32l4xx_hal_rtc_ex.c **** 
 945:../../../core/ST/STM32L4xx_HAL_Driver/Src/stm32l4xx_hal_rtc_ex.c ****   hrtc->State = HAL_RTC_STATE_BUSY;
 1387              		.loc 1 945 3 discriminator 2 view .LVU465
 1388              		.loc 1 945 15 is_stmt 0 discriminator 2 view .LVU466
 1389 0012 0223     		movs	r3, #2
 1390 0014 80F82130 		strb	r3, [r0, #33]
 946:../../../core/ST/STM32L4xx_HAL_Driver/Src/stm32l4xx_hal_rtc_ex.c **** 
 947:../../../core/ST/STM32L4xx_HAL_Driver/Src/stm32l4xx_hal_rtc_ex.c ****   /* Disable the write protection for RTC registers */
 948:../../../core/ST/STM32L4xx_HAL_Driver/Src/stm32l4xx_hal_rtc_ex.c ****   __HAL_RTC_WRITEPROTECTION_DISABLE(hrtc);
 1391              		.loc 1 948 3 is_stmt 1 discriminator 2 view .LVU467
 1392              		.loc 1 948 3 discriminator 2 view .LVU468
 1393 0018 0368     		ldr	r3, [r0]
 1394 001a CA22     		movs	r2, #202
 1395 001c 5A62     		str	r2, [r3, #36]
 1396              		.loc 1 948 3 discriminator 2 view .LVU469
 1397 001e 0368     		ldr	r3, [r0]
 1398 0020 5322     		movs	r2, #83
 1399 0022 5A62     		str	r2, [r3, #36]
 1400              		.loc 1 948 3 discriminator 2 view .LVU470
 949:../../../core/ST/STM32L4xx_HAL_Driver/Src/stm32l4xx_hal_rtc_ex.c **** 
 950:../../../core/ST/STM32L4xx_HAL_Driver/Src/stm32l4xx_hal_rtc_ex.c ****   /* Disable the Wakeup Timer */
 951:../../../core/ST/STM32L4xx_HAL_Driver/Src/stm32l4xx_hal_rtc_ex.c ****   __HAL_RTC_WAKEUPTIMER_DISABLE(hrtc);
 1401              		.loc 1 951 3 discriminator 2 view .LVU471
 1402 0024 0268     		ldr	r2, [r0]
 1403 0026 9368     		ldr	r3, [r2, #8]
ARM GAS  C:\Users\tomra\AppData\Local\Temp\ccoul9Yc.s 			page 43


 1404 0028 23F48063 		bic	r3, r3, #1024
 1405 002c 9360     		str	r3, [r2, #8]
 952:../../../core/ST/STM32L4xx_HAL_Driver/Src/stm32l4xx_hal_rtc_ex.c **** 
 953:../../../core/ST/STM32L4xx_HAL_Driver/Src/stm32l4xx_hal_rtc_ex.c ****   /* In case of interrupt mode is used, the interrupt source must disabled */
 954:../../../core/ST/STM32L4xx_HAL_Driver/Src/stm32l4xx_hal_rtc_ex.c ****   __HAL_RTC_WAKEUPTIMER_DISABLE_IT(hrtc,RTC_IT_WUT);
 1406              		.loc 1 954 3 discriminator 2 view .LVU472
 1407 002e 0268     		ldr	r2, [r0]
 1408 0030 9368     		ldr	r3, [r2, #8]
 1409 0032 23F48043 		bic	r3, r3, #16384
 1410 0036 9360     		str	r3, [r2, #8]
 955:../../../core/ST/STM32L4xx_HAL_Driver/Src/stm32l4xx_hal_rtc_ex.c **** 
 956:../../../core/ST/STM32L4xx_HAL_Driver/Src/stm32l4xx_hal_rtc_ex.c ****   tickstart = HAL_GetTick();
 1411              		.loc 1 956 3 discriminator 2 view .LVU473
 1412              		.loc 1 956 15 is_stmt 0 discriminator 2 view .LVU474
 1413 0038 FFF7FEFF 		bl	HAL_GetTick
 1414              	.LVL93:
 1415              		.loc 1 956 15 discriminator 2 view .LVU475
 1416 003c 0546     		mov	r5, r0
 1417              	.LVL94:
 957:../../../core/ST/STM32L4xx_HAL_Driver/Src/stm32l4xx_hal_rtc_ex.c ****   /* Wait till RTC WUTWF flag is set and if Time out is reached exit */
 958:../../../core/ST/STM32L4xx_HAL_Driver/Src/stm32l4xx_hal_rtc_ex.c ****   while(__HAL_RTC_WAKEUPTIMER_GET_FLAG(hrtc, RTC_FLAG_WUTWF) == 0U)
 1418              		.loc 1 958 3 is_stmt 1 discriminator 2 view .LVU476
 1419              	.L83:
 1420              		.loc 1 958 8 view .LVU477
 1421              		.loc 1 958 9 is_stmt 0 view .LVU478
 1422 003e 2368     		ldr	r3, [r4]
 1423 0040 DA68     		ldr	r2, [r3, #12]
 1424              		.loc 1 958 8 view .LVU479
 1425 0042 12F0040F 		tst	r2, #4
 1426 0046 0FD1     		bne	.L87
 959:../../../core/ST/STM32L4xx_HAL_Driver/Src/stm32l4xx_hal_rtc_ex.c ****   {
 960:../../../core/ST/STM32L4xx_HAL_Driver/Src/stm32l4xx_hal_rtc_ex.c ****     if((HAL_GetTick() - tickstart ) > RTC_TIMEOUT_VALUE)
 1427              		.loc 1 960 5 is_stmt 1 view .LVU480
 1428              		.loc 1 960 9 is_stmt 0 view .LVU481
 1429 0048 FFF7FEFF 		bl	HAL_GetTick
 1430              	.LVL95:
 1431              		.loc 1 960 23 view .LVU482
 1432 004c 431B     		subs	r3, r0, r5
 1433              		.loc 1 960 7 view .LVU483
 1434 004e B3F57A7F 		cmp	r3, #1000
 1435 0052 F4D9     		bls	.L83
 961:../../../core/ST/STM32L4xx_HAL_Driver/Src/stm32l4xx_hal_rtc_ex.c ****     {
 962:../../../core/ST/STM32L4xx_HAL_Driver/Src/stm32l4xx_hal_rtc_ex.c ****       /* Enable the write protection for RTC registers */
 963:../../../core/ST/STM32L4xx_HAL_Driver/Src/stm32l4xx_hal_rtc_ex.c ****       __HAL_RTC_WRITEPROTECTION_ENABLE(hrtc);
 1436              		.loc 1 963 7 is_stmt 1 view .LVU484
 1437              		.loc 1 963 7 view .LVU485
 1438 0054 2368     		ldr	r3, [r4]
 1439 0056 FF22     		movs	r2, #255
 1440 0058 5A62     		str	r2, [r3, #36]
 1441              		.loc 1 963 7 view .LVU486
 964:../../../core/ST/STM32L4xx_HAL_Driver/Src/stm32l4xx_hal_rtc_ex.c **** 
 965:../../../core/ST/STM32L4xx_HAL_Driver/Src/stm32l4xx_hal_rtc_ex.c ****       hrtc->State = HAL_RTC_STATE_TIMEOUT;
 1442              		.loc 1 965 7 view .LVU487
 1443              		.loc 1 965 19 is_stmt 0 view .LVU488
 1444 005a 0320     		movs	r0, #3
 1445 005c 84F82100 		strb	r0, [r4, #33]
 966:../../../core/ST/STM32L4xx_HAL_Driver/Src/stm32l4xx_hal_rtc_ex.c **** 
ARM GAS  C:\Users\tomra\AppData\Local\Temp\ccoul9Yc.s 			page 44


 967:../../../core/ST/STM32L4xx_HAL_Driver/Src/stm32l4xx_hal_rtc_ex.c ****       /* Process Unlocked */
 968:../../../core/ST/STM32L4xx_HAL_Driver/Src/stm32l4xx_hal_rtc_ex.c ****       __HAL_UNLOCK(hrtc);
 1446              		.loc 1 968 7 is_stmt 1 view .LVU489
 1447              		.loc 1 968 7 view .LVU490
 1448 0060 0023     		movs	r3, #0
 1449 0062 84F82030 		strb	r3, [r4, #32]
 1450              		.loc 1 968 7 view .LVU491
 969:../../../core/ST/STM32L4xx_HAL_Driver/Src/stm32l4xx_hal_rtc_ex.c **** 
 970:../../../core/ST/STM32L4xx_HAL_Driver/Src/stm32l4xx_hal_rtc_ex.c ****       return HAL_TIMEOUT;
 1451              		.loc 1 970 7 view .LVU492
 1452              		.loc 1 970 14 is_stmt 0 view .LVU493
 1453 0066 07E0     		b	.L82
 1454              	.L87:
 971:../../../core/ST/STM32L4xx_HAL_Driver/Src/stm32l4xx_hal_rtc_ex.c ****     }
 972:../../../core/ST/STM32L4xx_HAL_Driver/Src/stm32l4xx_hal_rtc_ex.c ****   }
 973:../../../core/ST/STM32L4xx_HAL_Driver/Src/stm32l4xx_hal_rtc_ex.c **** 
 974:../../../core/ST/STM32L4xx_HAL_Driver/Src/stm32l4xx_hal_rtc_ex.c ****   /* Enable the write protection for RTC registers */
 975:../../../core/ST/STM32L4xx_HAL_Driver/Src/stm32l4xx_hal_rtc_ex.c ****   __HAL_RTC_WRITEPROTECTION_ENABLE(hrtc);
 1455              		.loc 1 975 3 is_stmt 1 view .LVU494
 1456              		.loc 1 975 3 view .LVU495
 1457 0068 FF22     		movs	r2, #255
 1458 006a 5A62     		str	r2, [r3, #36]
 1459              		.loc 1 975 3 view .LVU496
 976:../../../core/ST/STM32L4xx_HAL_Driver/Src/stm32l4xx_hal_rtc_ex.c **** 
 977:../../../core/ST/STM32L4xx_HAL_Driver/Src/stm32l4xx_hal_rtc_ex.c ****   hrtc->State = HAL_RTC_STATE_READY;
 1460              		.loc 1 977 3 view .LVU497
 1461              		.loc 1 977 15 is_stmt 0 view .LVU498
 1462 006c 0123     		movs	r3, #1
 1463 006e 84F82130 		strb	r3, [r4, #33]
 978:../../../core/ST/STM32L4xx_HAL_Driver/Src/stm32l4xx_hal_rtc_ex.c **** 
 979:../../../core/ST/STM32L4xx_HAL_Driver/Src/stm32l4xx_hal_rtc_ex.c ****   /* Process Unlocked */
 980:../../../core/ST/STM32L4xx_HAL_Driver/Src/stm32l4xx_hal_rtc_ex.c ****   __HAL_UNLOCK(hrtc);
 1464              		.loc 1 980 3 is_stmt 1 view .LVU499
 1465              		.loc 1 980 3 view .LVU500
 1466 0072 0020     		movs	r0, #0
 1467 0074 84F82000 		strb	r0, [r4, #32]
 1468              		.loc 1 980 3 view .LVU501
 981:../../../core/ST/STM32L4xx_HAL_Driver/Src/stm32l4xx_hal_rtc_ex.c **** 
 982:../../../core/ST/STM32L4xx_HAL_Driver/Src/stm32l4xx_hal_rtc_ex.c ****   return HAL_OK;
 1469              		.loc 1 982 3 view .LVU502
 1470              	.LVL96:
 1471              	.L82:
 983:../../../core/ST/STM32L4xx_HAL_Driver/Src/stm32l4xx_hal_rtc_ex.c **** }
 1472              		.loc 1 983 1 is_stmt 0 view .LVU503
 1473 0078 38BD     		pop	{r3, r4, r5, pc}
 1474              	.LVL97:
 1475              	.L85:
 943:../../../core/ST/STM32L4xx_HAL_Driver/Src/stm32l4xx_hal_rtc_ex.c **** 
 1476              		.loc 1 943 3 view .LVU504
 1477 007a 0220     		movs	r0, #2
 1478              	.LVL98:
 943:../../../core/ST/STM32L4xx_HAL_Driver/Src/stm32l4xx_hal_rtc_ex.c **** 
 1479              		.loc 1 943 3 view .LVU505
 1480 007c FCE7     		b	.L82
 1481              		.cfi_endproc
 1482              	.LFE134:
 1484              		.section	.text.HAL_RTCEx_GetWakeUpTimer,"ax",%progbits
ARM GAS  C:\Users\tomra\AppData\Local\Temp\ccoul9Yc.s 			page 45


 1485              		.align	1
 1486              		.global	HAL_RTCEx_GetWakeUpTimer
 1487              		.syntax unified
 1488              		.thumb
 1489              		.thumb_func
 1490              		.fpu fpv4-sp-d16
 1492              	HAL_RTCEx_GetWakeUpTimer:
 1493              	.LVL99:
 1494              	.LFB135:
 984:../../../core/ST/STM32L4xx_HAL_Driver/Src/stm32l4xx_hal_rtc_ex.c **** 
 985:../../../core/ST/STM32L4xx_HAL_Driver/Src/stm32l4xx_hal_rtc_ex.c **** /**
 986:../../../core/ST/STM32L4xx_HAL_Driver/Src/stm32l4xx_hal_rtc_ex.c ****   * @brief  Get wake up timer counter.
 987:../../../core/ST/STM32L4xx_HAL_Driver/Src/stm32l4xx_hal_rtc_ex.c ****   * @param  hrtc RTC handle
 988:../../../core/ST/STM32L4xx_HAL_Driver/Src/stm32l4xx_hal_rtc_ex.c ****   * @retval Counter value
 989:../../../core/ST/STM32L4xx_HAL_Driver/Src/stm32l4xx_hal_rtc_ex.c ****   */
 990:../../../core/ST/STM32L4xx_HAL_Driver/Src/stm32l4xx_hal_rtc_ex.c **** uint32_t HAL_RTCEx_GetWakeUpTimer(RTC_HandleTypeDef *hrtc)
 991:../../../core/ST/STM32L4xx_HAL_Driver/Src/stm32l4xx_hal_rtc_ex.c **** {
 1495              		.loc 1 991 1 is_stmt 1 view -0
 1496              		.cfi_startproc
 1497              		@ args = 0, pretend = 0, frame = 0
 1498              		@ frame_needed = 0, uses_anonymous_args = 0
 1499              		@ link register save eliminated.
 992:../../../core/ST/STM32L4xx_HAL_Driver/Src/stm32l4xx_hal_rtc_ex.c ****   /* Get the counter value */
 993:../../../core/ST/STM32L4xx_HAL_Driver/Src/stm32l4xx_hal_rtc_ex.c ****   return ((uint32_t)(hrtc->Instance->WUTR & RTC_WUTR_WUT));
 1500              		.loc 1 993 3 view .LVU507
 1501              		.loc 1 993 26 is_stmt 0 view .LVU508
 1502 0000 0368     		ldr	r3, [r0]
 1503              		.loc 1 993 36 view .LVU509
 1504 0002 5869     		ldr	r0, [r3, #20]
 1505              	.LVL100:
 994:../../../core/ST/STM32L4xx_HAL_Driver/Src/stm32l4xx_hal_rtc_ex.c **** }
 1506              		.loc 1 994 1 view .LVU510
 1507 0004 80B2     		uxth	r0, r0
 1508 0006 7047     		bx	lr
 1509              		.cfi_endproc
 1510              	.LFE135:
 1512              		.section	.text.HAL_RTCEx_WakeUpTimerEventCallback,"ax",%progbits
 1513              		.align	1
 1514              		.weak	HAL_RTCEx_WakeUpTimerEventCallback
 1515              		.syntax unified
 1516              		.thumb
 1517              		.thumb_func
 1518              		.fpu fpv4-sp-d16
 1520              	HAL_RTCEx_WakeUpTimerEventCallback:
 1521              	.LVL101:
 1522              	.LFB137:
 995:../../../core/ST/STM32L4xx_HAL_Driver/Src/stm32l4xx_hal_rtc_ex.c **** 
 996:../../../core/ST/STM32L4xx_HAL_Driver/Src/stm32l4xx_hal_rtc_ex.c **** /**
 997:../../../core/ST/STM32L4xx_HAL_Driver/Src/stm32l4xx_hal_rtc_ex.c ****   * @brief  Handle Wake Up Timer interrupt request.
 998:../../../core/ST/STM32L4xx_HAL_Driver/Src/stm32l4xx_hal_rtc_ex.c ****   * @param  hrtc RTC handle
 999:../../../core/ST/STM32L4xx_HAL_Driver/Src/stm32l4xx_hal_rtc_ex.c ****   * @retval None
1000:../../../core/ST/STM32L4xx_HAL_Driver/Src/stm32l4xx_hal_rtc_ex.c ****   */
1001:../../../core/ST/STM32L4xx_HAL_Driver/Src/stm32l4xx_hal_rtc_ex.c **** void HAL_RTCEx_WakeUpTimerIRQHandler(RTC_HandleTypeDef *hrtc)
1002:../../../core/ST/STM32L4xx_HAL_Driver/Src/stm32l4xx_hal_rtc_ex.c **** {
1003:../../../core/ST/STM32L4xx_HAL_Driver/Src/stm32l4xx_hal_rtc_ex.c ****   /* Clear the EXTI's line Flag for RTC WakeUpTimer */
1004:../../../core/ST/STM32L4xx_HAL_Driver/Src/stm32l4xx_hal_rtc_ex.c ****   __HAL_RTC_WAKEUPTIMER_EXTI_CLEAR_FLAG();
1005:../../../core/ST/STM32L4xx_HAL_Driver/Src/stm32l4xx_hal_rtc_ex.c **** 
ARM GAS  C:\Users\tomra\AppData\Local\Temp\ccoul9Yc.s 			page 46


1006:../../../core/ST/STM32L4xx_HAL_Driver/Src/stm32l4xx_hal_rtc_ex.c **** 
1007:../../../core/ST/STM32L4xx_HAL_Driver/Src/stm32l4xx_hal_rtc_ex.c **** #if defined(STM32L412xx) || defined(STM32L422xx)
1008:../../../core/ST/STM32L4xx_HAL_Driver/Src/stm32l4xx_hal_rtc_ex.c ****   if((hrtc->Instance->MISR & RTC_MISR_WUTMF) != 0u)
1009:../../../core/ST/STM32L4xx_HAL_Driver/Src/stm32l4xx_hal_rtc_ex.c ****   {
1010:../../../core/ST/STM32L4xx_HAL_Driver/Src/stm32l4xx_hal_rtc_ex.c ****     /* Immediately clear flags */
1011:../../../core/ST/STM32L4xx_HAL_Driver/Src/stm32l4xx_hal_rtc_ex.c ****     hrtc->Instance->SCR = RTC_SCR_CWUTF;
1012:../../../core/ST/STM32L4xx_HAL_Driver/Src/stm32l4xx_hal_rtc_ex.c **** #else
1013:../../../core/ST/STM32L4xx_HAL_Driver/Src/stm32l4xx_hal_rtc_ex.c ****   /* Get the pending status of the WAKEUPTIMER Interrupt */
1014:../../../core/ST/STM32L4xx_HAL_Driver/Src/stm32l4xx_hal_rtc_ex.c ****   if(__HAL_RTC_WAKEUPTIMER_GET_FLAG(hrtc, RTC_FLAG_WUTF) != 0U)
1015:../../../core/ST/STM32L4xx_HAL_Driver/Src/stm32l4xx_hal_rtc_ex.c ****   {
1016:../../../core/ST/STM32L4xx_HAL_Driver/Src/stm32l4xx_hal_rtc_ex.c ****     /* Clear the WAKEUPTIMER interrupt pending bit */
1017:../../../core/ST/STM32L4xx_HAL_Driver/Src/stm32l4xx_hal_rtc_ex.c ****     __HAL_RTC_WAKEUPTIMER_CLEAR_FLAG(hrtc, RTC_FLAG_WUTF);
1018:../../../core/ST/STM32L4xx_HAL_Driver/Src/stm32l4xx_hal_rtc_ex.c **** #endif
1019:../../../core/ST/STM32L4xx_HAL_Driver/Src/stm32l4xx_hal_rtc_ex.c **** 
1020:../../../core/ST/STM32L4xx_HAL_Driver/Src/stm32l4xx_hal_rtc_ex.c ****     /* WAKEUPTIMER callback */
1021:../../../core/ST/STM32L4xx_HAL_Driver/Src/stm32l4xx_hal_rtc_ex.c **** #if (USE_HAL_RTC_REGISTER_CALLBACKS == 1)
1022:../../../core/ST/STM32L4xx_HAL_Driver/Src/stm32l4xx_hal_rtc_ex.c ****     /* Call WakeUpTimerEvent registered Callback */
1023:../../../core/ST/STM32L4xx_HAL_Driver/Src/stm32l4xx_hal_rtc_ex.c ****     hrtc->WakeUpTimerEventCallback(hrtc);
1024:../../../core/ST/STM32L4xx_HAL_Driver/Src/stm32l4xx_hal_rtc_ex.c **** #else
1025:../../../core/ST/STM32L4xx_HAL_Driver/Src/stm32l4xx_hal_rtc_ex.c ****     HAL_RTCEx_WakeUpTimerEventCallback(hrtc);
1026:../../../core/ST/STM32L4xx_HAL_Driver/Src/stm32l4xx_hal_rtc_ex.c **** #endif /* USE_HAL_RTC_REGISTER_CALLBACKS */
1027:../../../core/ST/STM32L4xx_HAL_Driver/Src/stm32l4xx_hal_rtc_ex.c ****   }
1028:../../../core/ST/STM32L4xx_HAL_Driver/Src/stm32l4xx_hal_rtc_ex.c **** 
1029:../../../core/ST/STM32L4xx_HAL_Driver/Src/stm32l4xx_hal_rtc_ex.c ****   /* Change RTC state */
1030:../../../core/ST/STM32L4xx_HAL_Driver/Src/stm32l4xx_hal_rtc_ex.c ****   hrtc->State = HAL_RTC_STATE_READY;
1031:../../../core/ST/STM32L4xx_HAL_Driver/Src/stm32l4xx_hal_rtc_ex.c **** }
1032:../../../core/ST/STM32L4xx_HAL_Driver/Src/stm32l4xx_hal_rtc_ex.c **** 
1033:../../../core/ST/STM32L4xx_HAL_Driver/Src/stm32l4xx_hal_rtc_ex.c **** /**
1034:../../../core/ST/STM32L4xx_HAL_Driver/Src/stm32l4xx_hal_rtc_ex.c ****   * @brief  Wake Up Timer callback.
1035:../../../core/ST/STM32L4xx_HAL_Driver/Src/stm32l4xx_hal_rtc_ex.c ****   * @param  hrtc RTC handle
1036:../../../core/ST/STM32L4xx_HAL_Driver/Src/stm32l4xx_hal_rtc_ex.c ****   * @retval None
1037:../../../core/ST/STM32L4xx_HAL_Driver/Src/stm32l4xx_hal_rtc_ex.c ****   */
1038:../../../core/ST/STM32L4xx_HAL_Driver/Src/stm32l4xx_hal_rtc_ex.c **** __weak void HAL_RTCEx_WakeUpTimerEventCallback(RTC_HandleTypeDef *hrtc)
1039:../../../core/ST/STM32L4xx_HAL_Driver/Src/stm32l4xx_hal_rtc_ex.c **** {
 1523              		.loc 1 1039 1 is_stmt 1 view -0
 1524              		.cfi_startproc
 1525              		@ args = 0, pretend = 0, frame = 0
 1526              		@ frame_needed = 0, uses_anonymous_args = 0
 1527              		@ link register save eliminated.
1040:../../../core/ST/STM32L4xx_HAL_Driver/Src/stm32l4xx_hal_rtc_ex.c ****   /* Prevent unused argument(s) compilation warning */
1041:../../../core/ST/STM32L4xx_HAL_Driver/Src/stm32l4xx_hal_rtc_ex.c ****   UNUSED(hrtc);
 1528              		.loc 1 1041 3 view .LVU512
1042:../../../core/ST/STM32L4xx_HAL_Driver/Src/stm32l4xx_hal_rtc_ex.c **** 
1043:../../../core/ST/STM32L4xx_HAL_Driver/Src/stm32l4xx_hal_rtc_ex.c ****   /* NOTE : This function should not be modified, when the callback is needed,
1044:../../../core/ST/STM32L4xx_HAL_Driver/Src/stm32l4xx_hal_rtc_ex.c ****             the HAL_RTCEx_WakeUpTimerEventCallback could be implemented in the user file
1045:../../../core/ST/STM32L4xx_HAL_Driver/Src/stm32l4xx_hal_rtc_ex.c ****    */
1046:../../../core/ST/STM32L4xx_HAL_Driver/Src/stm32l4xx_hal_rtc_ex.c **** }
 1529              		.loc 1 1046 1 is_stmt 0 view .LVU513
 1530 0000 7047     		bx	lr
 1531              		.cfi_endproc
 1532              	.LFE137:
 1534              		.section	.text.HAL_RTCEx_WakeUpTimerIRQHandler,"ax",%progbits
 1535              		.align	1
 1536              		.global	HAL_RTCEx_WakeUpTimerIRQHandler
 1537              		.syntax unified
 1538              		.thumb
 1539              		.thumb_func
ARM GAS  C:\Users\tomra\AppData\Local\Temp\ccoul9Yc.s 			page 47


 1540              		.fpu fpv4-sp-d16
 1542              	HAL_RTCEx_WakeUpTimerIRQHandler:
 1543              	.LVL102:
 1544              	.LFB136:
1002:../../../core/ST/STM32L4xx_HAL_Driver/Src/stm32l4xx_hal_rtc_ex.c ****   /* Clear the EXTI's line Flag for RTC WakeUpTimer */
 1545              		.loc 1 1002 1 is_stmt 1 view -0
 1546              		.cfi_startproc
 1547              		@ args = 0, pretend = 0, frame = 0
 1548              		@ frame_needed = 0, uses_anonymous_args = 0
1002:../../../core/ST/STM32L4xx_HAL_Driver/Src/stm32l4xx_hal_rtc_ex.c ****   /* Clear the EXTI's line Flag for RTC WakeUpTimer */
 1549              		.loc 1 1002 1 is_stmt 0 view .LVU515
 1550 0000 10B5     		push	{r4, lr}
 1551              	.LCFI7:
 1552              		.cfi_def_cfa_offset 8
 1553              		.cfi_offset 4, -8
 1554              		.cfi_offset 14, -4
 1555 0002 0446     		mov	r4, r0
1004:../../../core/ST/STM32L4xx_HAL_Driver/Src/stm32l4xx_hal_rtc_ex.c **** 
 1556              		.loc 1 1004 3 is_stmt 1 view .LVU516
 1557 0004 0A4B     		ldr	r3, .L94
 1558 0006 4FF48012 		mov	r2, #1048576
 1559 000a 5A61     		str	r2, [r3, #20]
1014:../../../core/ST/STM32L4xx_HAL_Driver/Src/stm32l4xx_hal_rtc_ex.c ****   {
 1560              		.loc 1 1014 3 view .LVU517
1014:../../../core/ST/STM32L4xx_HAL_Driver/Src/stm32l4xx_hal_rtc_ex.c ****   {
 1561              		.loc 1 1014 6 is_stmt 0 view .LVU518
 1562 000c 0368     		ldr	r3, [r0]
 1563 000e DA68     		ldr	r2, [r3, #12]
1014:../../../core/ST/STM32L4xx_HAL_Driver/Src/stm32l4xx_hal_rtc_ex.c ****   {
 1564              		.loc 1 1014 5 view .LVU519
 1565 0010 12F4806F 		tst	r2, #1024
 1566 0014 03D1     		bne	.L93
 1567              	.LVL103:
 1568              	.L91:
1030:../../../core/ST/STM32L4xx_HAL_Driver/Src/stm32l4xx_hal_rtc_ex.c **** }
 1569              		.loc 1 1030 3 is_stmt 1 view .LVU520
1030:../../../core/ST/STM32L4xx_HAL_Driver/Src/stm32l4xx_hal_rtc_ex.c **** }
 1570              		.loc 1 1030 15 is_stmt 0 view .LVU521
 1571 0016 0123     		movs	r3, #1
 1572 0018 84F82130 		strb	r3, [r4, #33]
1031:../../../core/ST/STM32L4xx_HAL_Driver/Src/stm32l4xx_hal_rtc_ex.c **** 
 1573              		.loc 1 1031 1 view .LVU522
 1574 001c 10BD     		pop	{r4, pc}
 1575              	.LVL104:
 1576              	.L93:
1017:../../../core/ST/STM32L4xx_HAL_Driver/Src/stm32l4xx_hal_rtc_ex.c **** #endif
 1577              		.loc 1 1017 5 is_stmt 1 view .LVU523
 1578 001e DA68     		ldr	r2, [r3, #12]
 1579 0020 D2B2     		uxtb	r2, r2
 1580 0022 62F49062 		orn	r2, r2, #1152
 1581 0026 DA60     		str	r2, [r3, #12]
1025:../../../core/ST/STM32L4xx_HAL_Driver/Src/stm32l4xx_hal_rtc_ex.c **** #endif /* USE_HAL_RTC_REGISTER_CALLBACKS */
 1582              		.loc 1 1025 5 view .LVU524
 1583 0028 FFF7FEFF 		bl	HAL_RTCEx_WakeUpTimerEventCallback
 1584              	.LVL105:
1025:../../../core/ST/STM32L4xx_HAL_Driver/Src/stm32l4xx_hal_rtc_ex.c **** #endif /* USE_HAL_RTC_REGISTER_CALLBACKS */
 1585              		.loc 1 1025 5 is_stmt 0 view .LVU525
ARM GAS  C:\Users\tomra\AppData\Local\Temp\ccoul9Yc.s 			page 48


 1586 002c F3E7     		b	.L91
 1587              	.L95:
 1588 002e 00BF     		.align	2
 1589              	.L94:
 1590 0030 00040140 		.word	1073808384
 1591              		.cfi_endproc
 1592              	.LFE136:
 1594              		.section	.text.HAL_RTCEx_PollForWakeUpTimerEvent,"ax",%progbits
 1595              		.align	1
 1596              		.global	HAL_RTCEx_PollForWakeUpTimerEvent
 1597              		.syntax unified
 1598              		.thumb
 1599              		.thumb_func
 1600              		.fpu fpv4-sp-d16
 1602              	HAL_RTCEx_PollForWakeUpTimerEvent:
 1603              	.LVL106:
 1604              	.LFB138:
1047:../../../core/ST/STM32L4xx_HAL_Driver/Src/stm32l4xx_hal_rtc_ex.c **** 
1048:../../../core/ST/STM32L4xx_HAL_Driver/Src/stm32l4xx_hal_rtc_ex.c **** 
1049:../../../core/ST/STM32L4xx_HAL_Driver/Src/stm32l4xx_hal_rtc_ex.c **** /**
1050:../../../core/ST/STM32L4xx_HAL_Driver/Src/stm32l4xx_hal_rtc_ex.c ****   * @brief  Handle Wake Up Timer Polling.
1051:../../../core/ST/STM32L4xx_HAL_Driver/Src/stm32l4xx_hal_rtc_ex.c ****   * @param  hrtc RTC handle
1052:../../../core/ST/STM32L4xx_HAL_Driver/Src/stm32l4xx_hal_rtc_ex.c ****   * @param  Timeout Timeout duration
1053:../../../core/ST/STM32L4xx_HAL_Driver/Src/stm32l4xx_hal_rtc_ex.c ****   * @retval HAL status
1054:../../../core/ST/STM32L4xx_HAL_Driver/Src/stm32l4xx_hal_rtc_ex.c ****   */
1055:../../../core/ST/STM32L4xx_HAL_Driver/Src/stm32l4xx_hal_rtc_ex.c **** HAL_StatusTypeDef HAL_RTCEx_PollForWakeUpTimerEvent(RTC_HandleTypeDef *hrtc, uint32_t Timeout)
1056:../../../core/ST/STM32L4xx_HAL_Driver/Src/stm32l4xx_hal_rtc_ex.c **** {
 1605              		.loc 1 1056 1 is_stmt 1 view -0
 1606              		.cfi_startproc
 1607              		@ args = 0, pretend = 0, frame = 0
 1608              		@ frame_needed = 0, uses_anonymous_args = 0
 1609              		.loc 1 1056 1 is_stmt 0 view .LVU527
 1610 0000 70B5     		push	{r4, r5, r6, lr}
 1611              	.LCFI8:
 1612              		.cfi_def_cfa_offset 16
 1613              		.cfi_offset 4, -16
 1614              		.cfi_offset 5, -12
 1615              		.cfi_offset 6, -8
 1616              		.cfi_offset 14, -4
 1617 0002 0446     		mov	r4, r0
 1618 0004 0D46     		mov	r5, r1
1057:../../../core/ST/STM32L4xx_HAL_Driver/Src/stm32l4xx_hal_rtc_ex.c ****   uint32_t tickstart = HAL_GetTick();
 1619              		.loc 1 1057 3 is_stmt 1 view .LVU528
 1620              		.loc 1 1057 24 is_stmt 0 view .LVU529
 1621 0006 FFF7FEFF 		bl	HAL_GetTick
 1622              	.LVL107:
 1623              		.loc 1 1057 24 view .LVU530
 1624 000a 0646     		mov	r6, r0
 1625              	.LVL108:
1058:../../../core/ST/STM32L4xx_HAL_Driver/Src/stm32l4xx_hal_rtc_ex.c **** 
1059:../../../core/ST/STM32L4xx_HAL_Driver/Src/stm32l4xx_hal_rtc_ex.c ****   while(__HAL_RTC_WAKEUPTIMER_GET_FLAG(hrtc, RTC_FLAG_WUTF) == 0U)
 1626              		.loc 1 1059 3 is_stmt 1 view .LVU531
 1627              	.L98:
 1628              		.loc 1 1059 8 view .LVU532
 1629              		.loc 1 1059 9 is_stmt 0 view .LVU533
 1630 000c 2368     		ldr	r3, [r4]
 1631 000e DA68     		ldr	r2, [r3, #12]
ARM GAS  C:\Users\tomra\AppData\Local\Temp\ccoul9Yc.s 			page 49


 1632              		.loc 1 1059 8 view .LVU534
 1633 0010 12F4806F 		tst	r2, #1024
 1634 0014 0DD1     		bne	.L103
1060:../../../core/ST/STM32L4xx_HAL_Driver/Src/stm32l4xx_hal_rtc_ex.c ****   {
1061:../../../core/ST/STM32L4xx_HAL_Driver/Src/stm32l4xx_hal_rtc_ex.c ****     if(Timeout != HAL_MAX_DELAY)
 1635              		.loc 1 1061 5 is_stmt 1 view .LVU535
 1636              		.loc 1 1061 7 is_stmt 0 view .LVU536
 1637 0016 B5F1FF3F 		cmp	r5, #-1
 1638 001a F7D0     		beq	.L98
1062:../../../core/ST/STM32L4xx_HAL_Driver/Src/stm32l4xx_hal_rtc_ex.c ****     {
1063:../../../core/ST/STM32L4xx_HAL_Driver/Src/stm32l4xx_hal_rtc_ex.c ****       if(((HAL_GetTick() - tickstart ) > Timeout)||(Timeout == 0U))
 1639              		.loc 1 1063 7 is_stmt 1 view .LVU537
 1640              		.loc 1 1063 12 is_stmt 0 view .LVU538
 1641 001c FFF7FEFF 		bl	HAL_GetTick
 1642              	.LVL109:
 1643              		.loc 1 1063 26 view .LVU539
 1644 0020 801B     		subs	r0, r0, r6
 1645              		.loc 1 1063 9 view .LVU540
 1646 0022 A842     		cmp	r0, r5
 1647 0024 01D8     		bhi	.L99
 1648              		.loc 1 1063 50 discriminator 1 view .LVU541
 1649 0026 002D     		cmp	r5, #0
 1650 0028 F0D1     		bne	.L98
 1651              	.L99:
1064:../../../core/ST/STM32L4xx_HAL_Driver/Src/stm32l4xx_hal_rtc_ex.c ****       {
1065:../../../core/ST/STM32L4xx_HAL_Driver/Src/stm32l4xx_hal_rtc_ex.c ****         hrtc->State = HAL_RTC_STATE_TIMEOUT;
 1652              		.loc 1 1065 9 is_stmt 1 view .LVU542
 1653              		.loc 1 1065 21 is_stmt 0 view .LVU543
 1654 002a 0320     		movs	r0, #3
 1655 002c 84F82100 		strb	r0, [r4, #33]
1066:../../../core/ST/STM32L4xx_HAL_Driver/Src/stm32l4xx_hal_rtc_ex.c ****         return HAL_TIMEOUT;
 1656              		.loc 1 1066 9 is_stmt 1 view .LVU544
 1657              		.loc 1 1066 16 is_stmt 0 view .LVU545
 1658 0030 08E0     		b	.L100
 1659              	.L103:
1067:../../../core/ST/STM32L4xx_HAL_Driver/Src/stm32l4xx_hal_rtc_ex.c ****       }
1068:../../../core/ST/STM32L4xx_HAL_Driver/Src/stm32l4xx_hal_rtc_ex.c ****     }
1069:../../../core/ST/STM32L4xx_HAL_Driver/Src/stm32l4xx_hal_rtc_ex.c ****   }
1070:../../../core/ST/STM32L4xx_HAL_Driver/Src/stm32l4xx_hal_rtc_ex.c **** 
1071:../../../core/ST/STM32L4xx_HAL_Driver/Src/stm32l4xx_hal_rtc_ex.c ****   /* Clear the WAKEUPTIMER Flag */
1072:../../../core/ST/STM32L4xx_HAL_Driver/Src/stm32l4xx_hal_rtc_ex.c ****   __HAL_RTC_WAKEUPTIMER_CLEAR_FLAG(hrtc, RTC_FLAG_WUTF);
 1660              		.loc 1 1072 3 is_stmt 1 view .LVU546
 1661 0032 DA68     		ldr	r2, [r3, #12]
 1662 0034 D2B2     		uxtb	r2, r2
 1663 0036 62F49062 		orn	r2, r2, #1152
 1664 003a DA60     		str	r2, [r3, #12]
1073:../../../core/ST/STM32L4xx_HAL_Driver/Src/stm32l4xx_hal_rtc_ex.c **** 
1074:../../../core/ST/STM32L4xx_HAL_Driver/Src/stm32l4xx_hal_rtc_ex.c ****   /* Change RTC state */
1075:../../../core/ST/STM32L4xx_HAL_Driver/Src/stm32l4xx_hal_rtc_ex.c ****   hrtc->State = HAL_RTC_STATE_READY;
 1665              		.loc 1 1075 3 view .LVU547
 1666              		.loc 1 1075 15 is_stmt 0 view .LVU548
 1667 003c 0123     		movs	r3, #1
 1668 003e 84F82130 		strb	r3, [r4, #33]
1076:../../../core/ST/STM32L4xx_HAL_Driver/Src/stm32l4xx_hal_rtc_ex.c **** 
1077:../../../core/ST/STM32L4xx_HAL_Driver/Src/stm32l4xx_hal_rtc_ex.c ****   return HAL_OK;
 1669              		.loc 1 1077 3 is_stmt 1 view .LVU549
 1670              		.loc 1 1077 10 is_stmt 0 view .LVU550
ARM GAS  C:\Users\tomra\AppData\Local\Temp\ccoul9Yc.s 			page 50


 1671 0042 0020     		movs	r0, #0
 1672              	.L100:
1078:../../../core/ST/STM32L4xx_HAL_Driver/Src/stm32l4xx_hal_rtc_ex.c **** }
 1673              		.loc 1 1078 1 view .LVU551
 1674 0044 70BD     		pop	{r4, r5, r6, pc}
 1675              		.loc 1 1078 1 view .LVU552
 1676              		.cfi_endproc
 1677              	.LFE138:
 1679              		.section	.text.HAL_RTCEx_SetSmoothCalib,"ax",%progbits
 1680              		.align	1
 1681              		.global	HAL_RTCEx_SetSmoothCalib
 1682              		.syntax unified
 1683              		.thumb
 1684              		.thumb_func
 1685              		.fpu fpv4-sp-d16
 1687              	HAL_RTCEx_SetSmoothCalib:
 1688              	.LVL110:
 1689              	.LFB139:
1079:../../../core/ST/STM32L4xx_HAL_Driver/Src/stm32l4xx_hal_rtc_ex.c **** 
1080:../../../core/ST/STM32L4xx_HAL_Driver/Src/stm32l4xx_hal_rtc_ex.c **** /**
1081:../../../core/ST/STM32L4xx_HAL_Driver/Src/stm32l4xx_hal_rtc_ex.c ****   * @}
1082:../../../core/ST/STM32L4xx_HAL_Driver/Src/stm32l4xx_hal_rtc_ex.c ****   */
1083:../../../core/ST/STM32L4xx_HAL_Driver/Src/stm32l4xx_hal_rtc_ex.c **** 
1084:../../../core/ST/STM32L4xx_HAL_Driver/Src/stm32l4xx_hal_rtc_ex.c **** 
1085:../../../core/ST/STM32L4xx_HAL_Driver/Src/stm32l4xx_hal_rtc_ex.c **** /** @addtogroup RTCEx_Exported_Functions_Group3
1086:../../../core/ST/STM32L4xx_HAL_Driver/Src/stm32l4xx_hal_rtc_ex.c ****   * @brief    Extended Peripheral Control functions
1087:../../../core/ST/STM32L4xx_HAL_Driver/Src/stm32l4xx_hal_rtc_ex.c ****   *
1088:../../../core/ST/STM32L4xx_HAL_Driver/Src/stm32l4xx_hal_rtc_ex.c **** @verbatim
1089:../../../core/ST/STM32L4xx_HAL_Driver/Src/stm32l4xx_hal_rtc_ex.c ****  ===============================================================================
1090:../../../core/ST/STM32L4xx_HAL_Driver/Src/stm32l4xx_hal_rtc_ex.c ****               ##### Extended Peripheral Control functions #####
1091:../../../core/ST/STM32L4xx_HAL_Driver/Src/stm32l4xx_hal_rtc_ex.c ****  ===============================================================================
1092:../../../core/ST/STM32L4xx_HAL_Driver/Src/stm32l4xx_hal_rtc_ex.c ****     [..]
1093:../../../core/ST/STM32L4xx_HAL_Driver/Src/stm32l4xx_hal_rtc_ex.c ****     This subsection provides functions allowing to
1094:../../../core/ST/STM32L4xx_HAL_Driver/Src/stm32l4xx_hal_rtc_ex.c ****       (+) Write a data in a specified RTC Backup data register
1095:../../../core/ST/STM32L4xx_HAL_Driver/Src/stm32l4xx_hal_rtc_ex.c ****       (+) Read a data in a specified RTC Backup data register
1096:../../../core/ST/STM32L4xx_HAL_Driver/Src/stm32l4xx_hal_rtc_ex.c ****       (+) Set the Coarse calibration parameters.
1097:../../../core/ST/STM32L4xx_HAL_Driver/Src/stm32l4xx_hal_rtc_ex.c ****       (+) Deactivate the Coarse calibration parameters
1098:../../../core/ST/STM32L4xx_HAL_Driver/Src/stm32l4xx_hal_rtc_ex.c ****       (+) Set the Smooth calibration parameters.
1099:../../../core/ST/STM32L4xx_HAL_Driver/Src/stm32l4xx_hal_rtc_ex.c ****       (+) STM32L412xx and STM32L422xx only : Set Low Power calibration parameter.
1100:../../../core/ST/STM32L4xx_HAL_Driver/Src/stm32l4xx_hal_rtc_ex.c ****       (+) Configure the Synchronization Shift Control Settings.
1101:../../../core/ST/STM32L4xx_HAL_Driver/Src/stm32l4xx_hal_rtc_ex.c ****       (+) Configure the Calibration Pinout (RTC_CALIB) Selection (1Hz or 512Hz).
1102:../../../core/ST/STM32L4xx_HAL_Driver/Src/stm32l4xx_hal_rtc_ex.c ****       (+) Deactivate the Calibration Pinout (RTC_CALIB) Selection (1Hz or 512Hz).
1103:../../../core/ST/STM32L4xx_HAL_Driver/Src/stm32l4xx_hal_rtc_ex.c ****       (+) Enable the RTC reference clock detection.
1104:../../../core/ST/STM32L4xx_HAL_Driver/Src/stm32l4xx_hal_rtc_ex.c ****       (+) Disable the RTC reference clock detection.
1105:../../../core/ST/STM32L4xx_HAL_Driver/Src/stm32l4xx_hal_rtc_ex.c ****       (+) Enable the Bypass Shadow feature.
1106:../../../core/ST/STM32L4xx_HAL_Driver/Src/stm32l4xx_hal_rtc_ex.c ****       (+) Disable the Bypass Shadow feature.
1107:../../../core/ST/STM32L4xx_HAL_Driver/Src/stm32l4xx_hal_rtc_ex.c **** 
1108:../../../core/ST/STM32L4xx_HAL_Driver/Src/stm32l4xx_hal_rtc_ex.c **** @endverbatim
1109:../../../core/ST/STM32L4xx_HAL_Driver/Src/stm32l4xx_hal_rtc_ex.c ****   * @{
1110:../../../core/ST/STM32L4xx_HAL_Driver/Src/stm32l4xx_hal_rtc_ex.c ****   */
1111:../../../core/ST/STM32L4xx_HAL_Driver/Src/stm32l4xx_hal_rtc_ex.c **** 
1112:../../../core/ST/STM32L4xx_HAL_Driver/Src/stm32l4xx_hal_rtc_ex.c **** 
1113:../../../core/ST/STM32L4xx_HAL_Driver/Src/stm32l4xx_hal_rtc_ex.c **** /**
1114:../../../core/ST/STM32L4xx_HAL_Driver/Src/stm32l4xx_hal_rtc_ex.c ****   * @brief  Set the Smooth calibration parameters.
1115:../../../core/ST/STM32L4xx_HAL_Driver/Src/stm32l4xx_hal_rtc_ex.c ****   * @param  hrtc RTC handle
1116:../../../core/ST/STM32L4xx_HAL_Driver/Src/stm32l4xx_hal_rtc_ex.c ****   * @param  SmoothCalibPeriod Select the Smooth Calibration Period.
1117:../../../core/ST/STM32L4xx_HAL_Driver/Src/stm32l4xx_hal_rtc_ex.c ****   *          This parameter can be can be one of the following values :
ARM GAS  C:\Users\tomra\AppData\Local\Temp\ccoul9Yc.s 			page 51


1118:../../../core/ST/STM32L4xx_HAL_Driver/Src/stm32l4xx_hal_rtc_ex.c ****   *             @arg RTC_SMOOTHCALIB_PERIOD_32SEC: The smooth calibration period is 32s.
1119:../../../core/ST/STM32L4xx_HAL_Driver/Src/stm32l4xx_hal_rtc_ex.c ****   *             @arg RTC_SMOOTHCALIB_PERIOD_16SEC: The smooth calibration period is 16s.
1120:../../../core/ST/STM32L4xx_HAL_Driver/Src/stm32l4xx_hal_rtc_ex.c ****   *             @arg RTC_SMOOTHCALIB_PERIOD_8SEC: The smooth calibration period is 8s.
1121:../../../core/ST/STM32L4xx_HAL_Driver/Src/stm32l4xx_hal_rtc_ex.c ****   * @param  SmoothCalibPlusPulses Select to Set or reset the CALP bit.
1122:../../../core/ST/STM32L4xx_HAL_Driver/Src/stm32l4xx_hal_rtc_ex.c ****   *          This parameter can be one of the following values:
1123:../../../core/ST/STM32L4xx_HAL_Driver/Src/stm32l4xx_hal_rtc_ex.c ****   *             @arg RTC_SMOOTHCALIB_PLUSPULSES_SET: Add one RTCCLK pulse every 2*11 pulses.
1124:../../../core/ST/STM32L4xx_HAL_Driver/Src/stm32l4xx_hal_rtc_ex.c ****   *             @arg RTC_SMOOTHCALIB_PLUSPULSES_RESET: No RTCCLK pulses are added.
1125:../../../core/ST/STM32L4xx_HAL_Driver/Src/stm32l4xx_hal_rtc_ex.c ****   * @param  SmoothCalibMinusPulsesValue Select the value of CALM[8:0] bits.
1126:../../../core/ST/STM32L4xx_HAL_Driver/Src/stm32l4xx_hal_rtc_ex.c ****   *          This parameter can be one any value from 0 to 0x000001FF.
1127:../../../core/ST/STM32L4xx_HAL_Driver/Src/stm32l4xx_hal_rtc_ex.c ****   * @note   To deactivate the smooth calibration, the field SmoothCalibPlusPulses
1128:../../../core/ST/STM32L4xx_HAL_Driver/Src/stm32l4xx_hal_rtc_ex.c ****   *         must be equal to SMOOTHCALIB_PLUSPULSES_RESET and the field
1129:../../../core/ST/STM32L4xx_HAL_Driver/Src/stm32l4xx_hal_rtc_ex.c ****   *         SmoothCalibMinusPulsesValue must be equal to 0.
1130:../../../core/ST/STM32L4xx_HAL_Driver/Src/stm32l4xx_hal_rtc_ex.c ****   * @retval HAL status
1131:../../../core/ST/STM32L4xx_HAL_Driver/Src/stm32l4xx_hal_rtc_ex.c ****   */
1132:../../../core/ST/STM32L4xx_HAL_Driver/Src/stm32l4xx_hal_rtc_ex.c **** HAL_StatusTypeDef HAL_RTCEx_SetSmoothCalib(RTC_HandleTypeDef* hrtc, uint32_t SmoothCalibPeriod, uin
1133:../../../core/ST/STM32L4xx_HAL_Driver/Src/stm32l4xx_hal_rtc_ex.c **** {
 1690              		.loc 1 1133 1 is_stmt 1 view -0
 1691              		.cfi_startproc
 1692              		@ args = 0, pretend = 0, frame = 0
 1693              		@ frame_needed = 0, uses_anonymous_args = 0
 1694              		.loc 1 1133 1 is_stmt 0 view .LVU554
 1695 0000 2DE9F041 		push	{r4, r5, r6, r7, r8, lr}
 1696              	.LCFI9:
 1697              		.cfi_def_cfa_offset 24
 1698              		.cfi_offset 4, -24
 1699              		.cfi_offset 5, -20
 1700              		.cfi_offset 6, -16
 1701              		.cfi_offset 7, -12
 1702              		.cfi_offset 8, -8
 1703              		.cfi_offset 14, -4
 1704 0004 0446     		mov	r4, r0
 1705 0006 1746     		mov	r7, r2
 1706 0008 1E46     		mov	r6, r3
1134:../../../core/ST/STM32L4xx_HAL_Driver/Src/stm32l4xx_hal_rtc_ex.c ****   uint32_t tickstart;
 1707              		.loc 1 1134 3 is_stmt 1 view .LVU555
1135:../../../core/ST/STM32L4xx_HAL_Driver/Src/stm32l4xx_hal_rtc_ex.c **** 
1136:../../../core/ST/STM32L4xx_HAL_Driver/Src/stm32l4xx_hal_rtc_ex.c ****   /* Check the parameters */
1137:../../../core/ST/STM32L4xx_HAL_Driver/Src/stm32l4xx_hal_rtc_ex.c ****   assert_param(IS_RTC_SMOOTH_CALIB_PERIOD(SmoothCalibPeriod));
 1708              		.loc 1 1137 3 view .LVU556
 1709 000a 0D46     		mov	r5, r1
 1710 000c 29B1     		cbz	r1, .L105
 1711              		.loc 1 1137 3 is_stmt 0 discriminator 1 view .LVU557
 1712 000e B1F5005F 		cmp	r1, #8192
 1713 0012 02D0     		beq	.L105
 1714              		.loc 1 1137 3 discriminator 2 view .LVU558
 1715 0014 B1F5804F 		cmp	r1, #16384
 1716 0018 30D1     		bne	.L114
 1717              	.LVL111:
 1718              	.L105:
1138:../../../core/ST/STM32L4xx_HAL_Driver/Src/stm32l4xx_hal_rtc_ex.c ****   assert_param(IS_RTC_SMOOTH_CALIB_PLUS(SmoothCalibPlusPulses));
 1719              		.loc 1 1138 3 is_stmt 1 view .LVU559
 1720 001a B7F5004F 		cmp	r7, #32768
 1721 001e 00D0     		beq	.L106
 1722              		.loc 1 1138 3 is_stmt 0 discriminator 1 view .LVU560
 1723 0020 97BB     		cbnz	r7, .L115
 1724              	.L106:
1139:../../../core/ST/STM32L4xx_HAL_Driver/Src/stm32l4xx_hal_rtc_ex.c ****   assert_param(IS_RTC_SMOOTH_CALIB_MINUS(SmoothCalibMinusPulsesValue));
ARM GAS  C:\Users\tomra\AppData\Local\Temp\ccoul9Yc.s 			page 52


 1725              		.loc 1 1139 3 is_stmt 1 view .LVU561
 1726 0022 B6F5007F 		cmp	r6, #512
 1727 0026 35D2     		bcs	.L116
 1728              	.L107:
1140:../../../core/ST/STM32L4xx_HAL_Driver/Src/stm32l4xx_hal_rtc_ex.c **** 
1141:../../../core/ST/STM32L4xx_HAL_Driver/Src/stm32l4xx_hal_rtc_ex.c ****   /* Process Locked */
1142:../../../core/ST/STM32L4xx_HAL_Driver/Src/stm32l4xx_hal_rtc_ex.c ****   __HAL_LOCK(hrtc);
 1729              		.loc 1 1142 3 view .LVU562
 1730              		.loc 1 1142 3 view .LVU563
 1731 0028 94F82030 		ldrb	r3, [r4, #32]	@ zero_extendqisi2
 1732 002c 012B     		cmp	r3, #1
 1733 002e 50D0     		beq	.L112
 1734              		.loc 1 1142 3 discriminator 2 view .LVU564
 1735 0030 0123     		movs	r3, #1
 1736 0032 84F82030 		strb	r3, [r4, #32]
 1737              		.loc 1 1142 3 discriminator 2 view .LVU565
1143:../../../core/ST/STM32L4xx_HAL_Driver/Src/stm32l4xx_hal_rtc_ex.c **** 
1144:../../../core/ST/STM32L4xx_HAL_Driver/Src/stm32l4xx_hal_rtc_ex.c ****   hrtc->State = HAL_RTC_STATE_BUSY;
 1738              		.loc 1 1144 3 discriminator 2 view .LVU566
 1739              		.loc 1 1144 15 is_stmt 0 discriminator 2 view .LVU567
 1740 0036 0223     		movs	r3, #2
 1741 0038 84F82130 		strb	r3, [r4, #33]
1145:../../../core/ST/STM32L4xx_HAL_Driver/Src/stm32l4xx_hal_rtc_ex.c **** 
1146:../../../core/ST/STM32L4xx_HAL_Driver/Src/stm32l4xx_hal_rtc_ex.c ****   /* Disable the write protection for RTC registers */
1147:../../../core/ST/STM32L4xx_HAL_Driver/Src/stm32l4xx_hal_rtc_ex.c ****   __HAL_RTC_WRITEPROTECTION_DISABLE(hrtc);
 1742              		.loc 1 1147 3 is_stmt 1 discriminator 2 view .LVU568
 1743              		.loc 1 1147 3 discriminator 2 view .LVU569
 1744 003c 2368     		ldr	r3, [r4]
 1745 003e CA22     		movs	r2, #202
 1746 0040 5A62     		str	r2, [r3, #36]
 1747              		.loc 1 1147 3 discriminator 2 view .LVU570
 1748 0042 2368     		ldr	r3, [r4]
 1749 0044 5322     		movs	r2, #83
 1750 0046 5A62     		str	r2, [r3, #36]
 1751              		.loc 1 1147 3 discriminator 2 view .LVU571
1148:../../../core/ST/STM32L4xx_HAL_Driver/Src/stm32l4xx_hal_rtc_ex.c **** 
1149:../../../core/ST/STM32L4xx_HAL_Driver/Src/stm32l4xx_hal_rtc_ex.c ****   /* check if a calibration is pending*/
1150:../../../core/ST/STM32L4xx_HAL_Driver/Src/stm32l4xx_hal_rtc_ex.c **** #if defined(STM32L412xx) || defined(STM32L422xx)
1151:../../../core/ST/STM32L4xx_HAL_Driver/Src/stm32l4xx_hal_rtc_ex.c ****   if((hrtc->Instance->ICSR & RTC_ICSR_RECALPF) != 0U)
1152:../../../core/ST/STM32L4xx_HAL_Driver/Src/stm32l4xx_hal_rtc_ex.c **** #else
1153:../../../core/ST/STM32L4xx_HAL_Driver/Src/stm32l4xx_hal_rtc_ex.c ****   if((hrtc->Instance->ISR & RTC_ISR_RECALPF) != 0U)
 1752              		.loc 1 1153 3 discriminator 2 view .LVU572
 1753              		.loc 1 1153 11 is_stmt 0 discriminator 2 view .LVU573
 1754 0048 2368     		ldr	r3, [r4]
 1755              		.loc 1 1153 21 discriminator 2 view .LVU574
 1756 004a DB68     		ldr	r3, [r3, #12]
 1757              		.loc 1 1153 5 discriminator 2 view .LVU575
 1758 004c 13F4803F 		tst	r3, #65536
 1759 0050 26D1     		bne	.L117
 1760              	.L109:
1154:../../../core/ST/STM32L4xx_HAL_Driver/Src/stm32l4xx_hal_rtc_ex.c **** #endif
1155:../../../core/ST/STM32L4xx_HAL_Driver/Src/stm32l4xx_hal_rtc_ex.c ****   {
1156:../../../core/ST/STM32L4xx_HAL_Driver/Src/stm32l4xx_hal_rtc_ex.c ****     tickstart = HAL_GetTick();
1157:../../../core/ST/STM32L4xx_HAL_Driver/Src/stm32l4xx_hal_rtc_ex.c **** 
1158:../../../core/ST/STM32L4xx_HAL_Driver/Src/stm32l4xx_hal_rtc_ex.c ****     /* check if a calibration is pending*/
1159:../../../core/ST/STM32L4xx_HAL_Driver/Src/stm32l4xx_hal_rtc_ex.c **** #if defined(STM32L412xx) || defined(STM32L422xx)
1160:../../../core/ST/STM32L4xx_HAL_Driver/Src/stm32l4xx_hal_rtc_ex.c ****     while((hrtc->Instance->ICSR & RTC_ICSR_RECALPF) != 0U)
ARM GAS  C:\Users\tomra\AppData\Local\Temp\ccoul9Yc.s 			page 53


1161:../../../core/ST/STM32L4xx_HAL_Driver/Src/stm32l4xx_hal_rtc_ex.c **** #else
1162:../../../core/ST/STM32L4xx_HAL_Driver/Src/stm32l4xx_hal_rtc_ex.c ****     while((hrtc->Instance->ISR & RTC_ISR_RECALPF) != 0U)
1163:../../../core/ST/STM32L4xx_HAL_Driver/Src/stm32l4xx_hal_rtc_ex.c **** #endif
1164:../../../core/ST/STM32L4xx_HAL_Driver/Src/stm32l4xx_hal_rtc_ex.c ****     {
1165:../../../core/ST/STM32L4xx_HAL_Driver/Src/stm32l4xx_hal_rtc_ex.c ****       if((HAL_GetTick() - tickstart ) > RTC_TIMEOUT_VALUE)
1166:../../../core/ST/STM32L4xx_HAL_Driver/Src/stm32l4xx_hal_rtc_ex.c ****       {
1167:../../../core/ST/STM32L4xx_HAL_Driver/Src/stm32l4xx_hal_rtc_ex.c ****         /* Enable the write protection for RTC registers */
1168:../../../core/ST/STM32L4xx_HAL_Driver/Src/stm32l4xx_hal_rtc_ex.c ****         __HAL_RTC_WRITEPROTECTION_ENABLE(hrtc);
1169:../../../core/ST/STM32L4xx_HAL_Driver/Src/stm32l4xx_hal_rtc_ex.c **** 
1170:../../../core/ST/STM32L4xx_HAL_Driver/Src/stm32l4xx_hal_rtc_ex.c ****         /* Change RTC state */
1171:../../../core/ST/STM32L4xx_HAL_Driver/Src/stm32l4xx_hal_rtc_ex.c ****         hrtc->State = HAL_RTC_STATE_TIMEOUT;
1172:../../../core/ST/STM32L4xx_HAL_Driver/Src/stm32l4xx_hal_rtc_ex.c **** 
1173:../../../core/ST/STM32L4xx_HAL_Driver/Src/stm32l4xx_hal_rtc_ex.c ****         /* Process Unlocked */
1174:../../../core/ST/STM32L4xx_HAL_Driver/Src/stm32l4xx_hal_rtc_ex.c ****         __HAL_UNLOCK(hrtc);
1175:../../../core/ST/STM32L4xx_HAL_Driver/Src/stm32l4xx_hal_rtc_ex.c **** 
1176:../../../core/ST/STM32L4xx_HAL_Driver/Src/stm32l4xx_hal_rtc_ex.c ****         return HAL_TIMEOUT;
1177:../../../core/ST/STM32L4xx_HAL_Driver/Src/stm32l4xx_hal_rtc_ex.c ****       }
1178:../../../core/ST/STM32L4xx_HAL_Driver/Src/stm32l4xx_hal_rtc_ex.c ****     }
1179:../../../core/ST/STM32L4xx_HAL_Driver/Src/stm32l4xx_hal_rtc_ex.c ****   }
1180:../../../core/ST/STM32L4xx_HAL_Driver/Src/stm32l4xx_hal_rtc_ex.c **** 
1181:../../../core/ST/STM32L4xx_HAL_Driver/Src/stm32l4xx_hal_rtc_ex.c ****   /* Configure the Smooth calibration settings */
1182:../../../core/ST/STM32L4xx_HAL_Driver/Src/stm32l4xx_hal_rtc_ex.c ****   MODIFY_REG(hrtc->Instance->CALR, (RTC_CALR_CALP | RTC_CALR_CALW8 | RTC_CALR_CALW16 | RTC_CALR_CAL
 1761              		.loc 1 1182 3 is_stmt 1 view .LVU576
 1762 0052 2368     		ldr	r3, [r4]
 1763 0054 D96B     		ldr	r1, [r3, #60]
 1764 0056 21F46141 		bic	r1, r1, #57600
 1765 005a 21F0FF01 		bic	r1, r1, #255
 1766 005e 3D43     		orrs	r5, r5, r7
 1767              	.LVL112:
 1768              		.loc 1 1182 3 is_stmt 0 view .LVU577
 1769 0060 3543     		orrs	r5, r5, r6
 1770 0062 2943     		orrs	r1, r1, r5
 1771 0064 D963     		str	r1, [r3, #60]
1183:../../../core/ST/STM32L4xx_HAL_Driver/Src/stm32l4xx_hal_rtc_ex.c **** 
1184:../../../core/ST/STM32L4xx_HAL_Driver/Src/stm32l4xx_hal_rtc_ex.c ****   /* Enable the write protection for RTC registers */
1185:../../../core/ST/STM32L4xx_HAL_Driver/Src/stm32l4xx_hal_rtc_ex.c ****   __HAL_RTC_WRITEPROTECTION_ENABLE(hrtc);
 1772              		.loc 1 1185 3 is_stmt 1 view .LVU578
 1773              		.loc 1 1185 3 view .LVU579
 1774 0066 2368     		ldr	r3, [r4]
 1775 0068 FF22     		movs	r2, #255
 1776 006a 5A62     		str	r2, [r3, #36]
 1777              		.loc 1 1185 3 view .LVU580
1186:../../../core/ST/STM32L4xx_HAL_Driver/Src/stm32l4xx_hal_rtc_ex.c **** 
1187:../../../core/ST/STM32L4xx_HAL_Driver/Src/stm32l4xx_hal_rtc_ex.c ****   /* Change RTC state */
1188:../../../core/ST/STM32L4xx_HAL_Driver/Src/stm32l4xx_hal_rtc_ex.c ****   hrtc->State = HAL_RTC_STATE_READY;
 1778              		.loc 1 1188 3 view .LVU581
 1779              		.loc 1 1188 15 is_stmt 0 view .LVU582
 1780 006c 0123     		movs	r3, #1
 1781 006e 84F82130 		strb	r3, [r4, #33]
1189:../../../core/ST/STM32L4xx_HAL_Driver/Src/stm32l4xx_hal_rtc_ex.c **** 
1190:../../../core/ST/STM32L4xx_HAL_Driver/Src/stm32l4xx_hal_rtc_ex.c ****   /* Process Unlocked */
1191:../../../core/ST/STM32L4xx_HAL_Driver/Src/stm32l4xx_hal_rtc_ex.c ****   __HAL_UNLOCK(hrtc);
 1782              		.loc 1 1191 3 is_stmt 1 view .LVU583
 1783              		.loc 1 1191 3 view .LVU584
 1784 0072 0020     		movs	r0, #0
 1785 0074 84F82000 		strb	r0, [r4, #32]
 1786              		.loc 1 1191 3 view .LVU585
ARM GAS  C:\Users\tomra\AppData\Local\Temp\ccoul9Yc.s 			page 54


1192:../../../core/ST/STM32L4xx_HAL_Driver/Src/stm32l4xx_hal_rtc_ex.c **** 
1193:../../../core/ST/STM32L4xx_HAL_Driver/Src/stm32l4xx_hal_rtc_ex.c ****   return HAL_OK;
 1787              		.loc 1 1193 3 view .LVU586
 1788              	.L108:
1194:../../../core/ST/STM32L4xx_HAL_Driver/Src/stm32l4xx_hal_rtc_ex.c **** }
 1789              		.loc 1 1194 1 is_stmt 0 view .LVU587
 1790 0078 BDE8F081 		pop	{r4, r5, r6, r7, r8, pc}
 1791              	.LVL113:
 1792              	.L114:
1137:../../../core/ST/STM32L4xx_HAL_Driver/Src/stm32l4xx_hal_rtc_ex.c ****   assert_param(IS_RTC_SMOOTH_CALIB_PLUS(SmoothCalibPlusPulses));
 1793              		.loc 1 1137 3 discriminator 3 view .LVU588
 1794 007c 40F27141 		movw	r1, #1137
 1795              	.LVL114:
1137:../../../core/ST/STM32L4xx_HAL_Driver/Src/stm32l4xx_hal_rtc_ex.c ****   assert_param(IS_RTC_SMOOTH_CALIB_PLUS(SmoothCalibPlusPulses));
 1796              		.loc 1 1137 3 discriminator 3 view .LVU589
 1797 0080 1548     		ldr	r0, .L118
 1798              	.LVL115:
1137:../../../core/ST/STM32L4xx_HAL_Driver/Src/stm32l4xx_hal_rtc_ex.c ****   assert_param(IS_RTC_SMOOTH_CALIB_PLUS(SmoothCalibPlusPulses));
 1799              		.loc 1 1137 3 discriminator 3 view .LVU590
 1800 0082 FFF7FEFF 		bl	assert_failed
 1801              	.LVL116:
1137:../../../core/ST/STM32L4xx_HAL_Driver/Src/stm32l4xx_hal_rtc_ex.c ****   assert_param(IS_RTC_SMOOTH_CALIB_PLUS(SmoothCalibPlusPulses));
 1802              		.loc 1 1137 3 discriminator 3 view .LVU591
 1803 0086 C8E7     		b	.L105
 1804              	.L115:
1138:../../../core/ST/STM32L4xx_HAL_Driver/Src/stm32l4xx_hal_rtc_ex.c ****   assert_param(IS_RTC_SMOOTH_CALIB_MINUS(SmoothCalibMinusPulsesValue));
 1805              		.loc 1 1138 3 discriminator 2 view .LVU592
 1806 0088 40F27241 		movw	r1, #1138
 1807 008c 1248     		ldr	r0, .L118
 1808 008e FFF7FEFF 		bl	assert_failed
 1809              	.LVL117:
 1810 0092 C6E7     		b	.L106
 1811              	.L116:
1139:../../../core/ST/STM32L4xx_HAL_Driver/Src/stm32l4xx_hal_rtc_ex.c **** 
 1812              		.loc 1 1139 3 discriminator 1 view .LVU593
 1813 0094 40F27341 		movw	r1, #1139
 1814 0098 0F48     		ldr	r0, .L118
 1815 009a FFF7FEFF 		bl	assert_failed
 1816              	.LVL118:
 1817 009e C3E7     		b	.L107
 1818              	.L117:
1156:../../../core/ST/STM32L4xx_HAL_Driver/Src/stm32l4xx_hal_rtc_ex.c **** 
 1819              		.loc 1 1156 5 is_stmt 1 view .LVU594
1156:../../../core/ST/STM32L4xx_HAL_Driver/Src/stm32l4xx_hal_rtc_ex.c **** 
 1820              		.loc 1 1156 17 is_stmt 0 view .LVU595
 1821 00a0 FFF7FEFF 		bl	HAL_GetTick
 1822              	.LVL119:
 1823 00a4 8046     		mov	r8, r0
 1824              	.LVL120:
1162:../../../core/ST/STM32L4xx_HAL_Driver/Src/stm32l4xx_hal_rtc_ex.c **** #endif
 1825              		.loc 1 1162 5 is_stmt 1 view .LVU596
 1826              	.L110:
1162:../../../core/ST/STM32L4xx_HAL_Driver/Src/stm32l4xx_hal_rtc_ex.c **** #endif
 1827              		.loc 1 1162 10 view .LVU597
1162:../../../core/ST/STM32L4xx_HAL_Driver/Src/stm32l4xx_hal_rtc_ex.c **** #endif
 1828              		.loc 1 1162 16 is_stmt 0 view .LVU598
 1829 00a6 2368     		ldr	r3, [r4]
ARM GAS  C:\Users\tomra\AppData\Local\Temp\ccoul9Yc.s 			page 55


1162:../../../core/ST/STM32L4xx_HAL_Driver/Src/stm32l4xx_hal_rtc_ex.c **** #endif
 1830              		.loc 1 1162 26 view .LVU599
 1831 00a8 DB68     		ldr	r3, [r3, #12]
1162:../../../core/ST/STM32L4xx_HAL_Driver/Src/stm32l4xx_hal_rtc_ex.c **** #endif
 1832              		.loc 1 1162 10 view .LVU600
 1833 00aa 13F4803F 		tst	r3, #65536
 1834 00ae D0D0     		beq	.L109
1165:../../../core/ST/STM32L4xx_HAL_Driver/Src/stm32l4xx_hal_rtc_ex.c ****       {
 1835              		.loc 1 1165 7 is_stmt 1 view .LVU601
1165:../../../core/ST/STM32L4xx_HAL_Driver/Src/stm32l4xx_hal_rtc_ex.c ****       {
 1836              		.loc 1 1165 11 is_stmt 0 view .LVU602
 1837 00b0 FFF7FEFF 		bl	HAL_GetTick
 1838              	.LVL121:
1165:../../../core/ST/STM32L4xx_HAL_Driver/Src/stm32l4xx_hal_rtc_ex.c ****       {
 1839              		.loc 1 1165 25 view .LVU603
 1840 00b4 A0EB0800 		sub	r0, r0, r8
1165:../../../core/ST/STM32L4xx_HAL_Driver/Src/stm32l4xx_hal_rtc_ex.c ****       {
 1841              		.loc 1 1165 9 view .LVU604
 1842 00b8 B0F57A7F 		cmp	r0, #1000
 1843 00bc F3D9     		bls	.L110
1168:../../../core/ST/STM32L4xx_HAL_Driver/Src/stm32l4xx_hal_rtc_ex.c **** 
 1844              		.loc 1 1168 9 is_stmt 1 view .LVU605
1168:../../../core/ST/STM32L4xx_HAL_Driver/Src/stm32l4xx_hal_rtc_ex.c **** 
 1845              		.loc 1 1168 9 view .LVU606
 1846 00be 2368     		ldr	r3, [r4]
 1847 00c0 FF22     		movs	r2, #255
 1848 00c2 5A62     		str	r2, [r3, #36]
1168:../../../core/ST/STM32L4xx_HAL_Driver/Src/stm32l4xx_hal_rtc_ex.c **** 
 1849              		.loc 1 1168 9 view .LVU607
1171:../../../core/ST/STM32L4xx_HAL_Driver/Src/stm32l4xx_hal_rtc_ex.c **** 
 1850              		.loc 1 1171 9 view .LVU608
1171:../../../core/ST/STM32L4xx_HAL_Driver/Src/stm32l4xx_hal_rtc_ex.c **** 
 1851              		.loc 1 1171 21 is_stmt 0 view .LVU609
 1852 00c4 0320     		movs	r0, #3
 1853 00c6 84F82100 		strb	r0, [r4, #33]
1174:../../../core/ST/STM32L4xx_HAL_Driver/Src/stm32l4xx_hal_rtc_ex.c **** 
 1854              		.loc 1 1174 9 is_stmt 1 view .LVU610
1174:../../../core/ST/STM32L4xx_HAL_Driver/Src/stm32l4xx_hal_rtc_ex.c **** 
 1855              		.loc 1 1174 9 view .LVU611
 1856 00ca 0023     		movs	r3, #0
 1857 00cc 84F82030 		strb	r3, [r4, #32]
1174:../../../core/ST/STM32L4xx_HAL_Driver/Src/stm32l4xx_hal_rtc_ex.c **** 
 1858              		.loc 1 1174 9 view .LVU612
1176:../../../core/ST/STM32L4xx_HAL_Driver/Src/stm32l4xx_hal_rtc_ex.c ****       }
 1859              		.loc 1 1176 9 view .LVU613
1176:../../../core/ST/STM32L4xx_HAL_Driver/Src/stm32l4xx_hal_rtc_ex.c ****       }
 1860              		.loc 1 1176 16 is_stmt 0 view .LVU614
 1861 00d0 D2E7     		b	.L108
 1862              	.LVL122:
 1863              	.L112:
1142:../../../core/ST/STM32L4xx_HAL_Driver/Src/stm32l4xx_hal_rtc_ex.c **** 
 1864              		.loc 1 1142 3 view .LVU615
 1865 00d2 0220     		movs	r0, #2
 1866 00d4 D0E7     		b	.L108
 1867              	.L119:
 1868 00d6 00BF     		.align	2
 1869              	.L118:
ARM GAS  C:\Users\tomra\AppData\Local\Temp\ccoul9Yc.s 			page 56


 1870 00d8 00000000 		.word	.LC0
 1871              		.cfi_endproc
 1872              	.LFE139:
 1874              		.section	.text.HAL_RTCEx_SetSynchroShift,"ax",%progbits
 1875              		.align	1
 1876              		.global	HAL_RTCEx_SetSynchroShift
 1877              		.syntax unified
 1878              		.thumb
 1879              		.thumb_func
 1880              		.fpu fpv4-sp-d16
 1882              	HAL_RTCEx_SetSynchroShift:
 1883              	.LVL123:
 1884              	.LFB140:
1195:../../../core/ST/STM32L4xx_HAL_Driver/Src/stm32l4xx_hal_rtc_ex.c **** 
1196:../../../core/ST/STM32L4xx_HAL_Driver/Src/stm32l4xx_hal_rtc_ex.c **** #if defined(STM32L412xx) || defined(STM32L422xx)
1197:../../../core/ST/STM32L4xx_HAL_Driver/Src/stm32l4xx_hal_rtc_ex.c **** /**
1198:../../../core/ST/STM32L4xx_HAL_Driver/Src/stm32l4xx_hal_rtc_ex.c ****   * @brief  Select the low power Calibration mode.
1199:../../../core/ST/STM32L4xx_HAL_Driver/Src/stm32l4xx_hal_rtc_ex.c ****   * @param  hrtc: RTC handle
1200:../../../core/ST/STM32L4xx_HAL_Driver/Src/stm32l4xx_hal_rtc_ex.c ****   * @param  LowPowerCalib: Low power Calibration mode.
1201:../../../core/ST/STM32L4xx_HAL_Driver/Src/stm32l4xx_hal_rtc_ex.c ****   *          This parameter can be can be one of the following values :
1202:../../../core/ST/STM32L4xx_HAL_Driver/Src/stm32l4xx_hal_rtc_ex.c ****   *             @arg RTC_LPCAL_SET: Low power mode.
1203:../../../core/ST/STM32L4xx_HAL_Driver/Src/stm32l4xx_hal_rtc_ex.c ****   *             @arg RTC_LPCAL_RESET: High consumption mode.
1204:../../../core/ST/STM32L4xx_HAL_Driver/Src/stm32l4xx_hal_rtc_ex.c ****   * @retval HAL status
1205:../../../core/ST/STM32L4xx_HAL_Driver/Src/stm32l4xx_hal_rtc_ex.c ****   */
1206:../../../core/ST/STM32L4xx_HAL_Driver/Src/stm32l4xx_hal_rtc_ex.c **** HAL_StatusTypeDef HAL_RTCEx_SetLowPowerCalib(RTC_HandleTypeDef *hrtc, uint32_t LowPowerCalib)
1207:../../../core/ST/STM32L4xx_HAL_Driver/Src/stm32l4xx_hal_rtc_ex.c **** {
1208:../../../core/ST/STM32L4xx_HAL_Driver/Src/stm32l4xx_hal_rtc_ex.c ****   /* Check the parameters */
1209:../../../core/ST/STM32L4xx_HAL_Driver/Src/stm32l4xx_hal_rtc_ex.c ****   assert_param(IS_RTC_LOW_POWER_CALIB(LowPowerCalib));
1210:../../../core/ST/STM32L4xx_HAL_Driver/Src/stm32l4xx_hal_rtc_ex.c **** 
1211:../../../core/ST/STM32L4xx_HAL_Driver/Src/stm32l4xx_hal_rtc_ex.c ****   /* Process Locked */
1212:../../../core/ST/STM32L4xx_HAL_Driver/Src/stm32l4xx_hal_rtc_ex.c ****   __HAL_LOCK(hrtc);
1213:../../../core/ST/STM32L4xx_HAL_Driver/Src/stm32l4xx_hal_rtc_ex.c **** 
1214:../../../core/ST/STM32L4xx_HAL_Driver/Src/stm32l4xx_hal_rtc_ex.c ****   hrtc->State = HAL_RTC_STATE_BUSY;
1215:../../../core/ST/STM32L4xx_HAL_Driver/Src/stm32l4xx_hal_rtc_ex.c **** 
1216:../../../core/ST/STM32L4xx_HAL_Driver/Src/stm32l4xx_hal_rtc_ex.c ****   /* Disable the write protection for RTC registers */
1217:../../../core/ST/STM32L4xx_HAL_Driver/Src/stm32l4xx_hal_rtc_ex.c ****   __HAL_RTC_WRITEPROTECTION_DISABLE(hrtc);
1218:../../../core/ST/STM32L4xx_HAL_Driver/Src/stm32l4xx_hal_rtc_ex.c **** 
1219:../../../core/ST/STM32L4xx_HAL_Driver/Src/stm32l4xx_hal_rtc_ex.c ****   /* Configure the Smooth calibration settings */
1220:../../../core/ST/STM32L4xx_HAL_Driver/Src/stm32l4xx_hal_rtc_ex.c ****   MODIFY_REG(hrtc->Instance->CALR, RTC_CALR_LPCAL, LowPowerCalib);
1221:../../../core/ST/STM32L4xx_HAL_Driver/Src/stm32l4xx_hal_rtc_ex.c **** 
1222:../../../core/ST/STM32L4xx_HAL_Driver/Src/stm32l4xx_hal_rtc_ex.c ****   /* Enable the write protection for RTC registers */
1223:../../../core/ST/STM32L4xx_HAL_Driver/Src/stm32l4xx_hal_rtc_ex.c ****   __HAL_RTC_WRITEPROTECTION_ENABLE(hrtc);
1224:../../../core/ST/STM32L4xx_HAL_Driver/Src/stm32l4xx_hal_rtc_ex.c **** 
1225:../../../core/ST/STM32L4xx_HAL_Driver/Src/stm32l4xx_hal_rtc_ex.c ****   /* Change RTC state */
1226:../../../core/ST/STM32L4xx_HAL_Driver/Src/stm32l4xx_hal_rtc_ex.c ****   hrtc->State = HAL_RTC_STATE_READY;
1227:../../../core/ST/STM32L4xx_HAL_Driver/Src/stm32l4xx_hal_rtc_ex.c **** 
1228:../../../core/ST/STM32L4xx_HAL_Driver/Src/stm32l4xx_hal_rtc_ex.c ****   /* Process Unlocked */
1229:../../../core/ST/STM32L4xx_HAL_Driver/Src/stm32l4xx_hal_rtc_ex.c ****   __HAL_UNLOCK(hrtc);
1230:../../../core/ST/STM32L4xx_HAL_Driver/Src/stm32l4xx_hal_rtc_ex.c **** 
1231:../../../core/ST/STM32L4xx_HAL_Driver/Src/stm32l4xx_hal_rtc_ex.c ****   return HAL_OK;
1232:../../../core/ST/STM32L4xx_HAL_Driver/Src/stm32l4xx_hal_rtc_ex.c **** }
1233:../../../core/ST/STM32L4xx_HAL_Driver/Src/stm32l4xx_hal_rtc_ex.c **** #endif /* #if defined(STM32L412xx) || defined(STM32L422xx) */
1234:../../../core/ST/STM32L4xx_HAL_Driver/Src/stm32l4xx_hal_rtc_ex.c **** 
1235:../../../core/ST/STM32L4xx_HAL_Driver/Src/stm32l4xx_hal_rtc_ex.c **** /**
1236:../../../core/ST/STM32L4xx_HAL_Driver/Src/stm32l4xx_hal_rtc_ex.c ****   * @brief  Configure the Synchronization Shift Control Settings.
1237:../../../core/ST/STM32L4xx_HAL_Driver/Src/stm32l4xx_hal_rtc_ex.c ****   * @note   When REFCKON is set, firmware must not write to Shift control register.
1238:../../../core/ST/STM32L4xx_HAL_Driver/Src/stm32l4xx_hal_rtc_ex.c ****   * @param  hrtc RTC handle
ARM GAS  C:\Users\tomra\AppData\Local\Temp\ccoul9Yc.s 			page 57


1239:../../../core/ST/STM32L4xx_HAL_Driver/Src/stm32l4xx_hal_rtc_ex.c ****   * @param  ShiftAdd1S Select to add or not 1 second to the time calendar.
1240:../../../core/ST/STM32L4xx_HAL_Driver/Src/stm32l4xx_hal_rtc_ex.c ****   *          This parameter can be one of the following values:
1241:../../../core/ST/STM32L4xx_HAL_Driver/Src/stm32l4xx_hal_rtc_ex.c ****   *             @arg RTC_SHIFTADD1S_SET: Add one second to the clock calendar.
1242:../../../core/ST/STM32L4xx_HAL_Driver/Src/stm32l4xx_hal_rtc_ex.c ****   *             @arg RTC_SHIFTADD1S_RESET: No effect.
1243:../../../core/ST/STM32L4xx_HAL_Driver/Src/stm32l4xx_hal_rtc_ex.c ****   * @param  ShiftSubFS Select the number of Second Fractions to substitute.
1244:../../../core/ST/STM32L4xx_HAL_Driver/Src/stm32l4xx_hal_rtc_ex.c ****   *          This parameter can be one any value from 0 to 0x7FFF.
1245:../../../core/ST/STM32L4xx_HAL_Driver/Src/stm32l4xx_hal_rtc_ex.c ****   * @retval HAL status
1246:../../../core/ST/STM32L4xx_HAL_Driver/Src/stm32l4xx_hal_rtc_ex.c ****   */
1247:../../../core/ST/STM32L4xx_HAL_Driver/Src/stm32l4xx_hal_rtc_ex.c **** HAL_StatusTypeDef HAL_RTCEx_SetSynchroShift(RTC_HandleTypeDef* hrtc, uint32_t ShiftAdd1S, uint32_t 
1248:../../../core/ST/STM32L4xx_HAL_Driver/Src/stm32l4xx_hal_rtc_ex.c **** {
 1885              		.loc 1 1248 1 is_stmt 1 view -0
 1886              		.cfi_startproc
 1887              		@ args = 0, pretend = 0, frame = 0
 1888              		@ frame_needed = 0, uses_anonymous_args = 0
 1889              		.loc 1 1248 1 is_stmt 0 view .LVU617
 1890 0000 F8B5     		push	{r3, r4, r5, r6, r7, lr}
 1891              	.LCFI10:
 1892              		.cfi_def_cfa_offset 24
 1893              		.cfi_offset 3, -24
 1894              		.cfi_offset 4, -20
 1895              		.cfi_offset 5, -16
 1896              		.cfi_offset 6, -12
 1897              		.cfi_offset 7, -8
 1898              		.cfi_offset 14, -4
 1899 0002 0446     		mov	r4, r0
 1900 0004 1646     		mov	r6, r2
1249:../../../core/ST/STM32L4xx_HAL_Driver/Src/stm32l4xx_hal_rtc_ex.c ****   uint32_t tickstart;
 1901              		.loc 1 1249 3 is_stmt 1 view .LVU618
1250:../../../core/ST/STM32L4xx_HAL_Driver/Src/stm32l4xx_hal_rtc_ex.c **** 
1251:../../../core/ST/STM32L4xx_HAL_Driver/Src/stm32l4xx_hal_rtc_ex.c ****   /* Check the parameters */
1252:../../../core/ST/STM32L4xx_HAL_Driver/Src/stm32l4xx_hal_rtc_ex.c ****   assert_param(IS_RTC_SHIFT_ADD1S(ShiftAdd1S));
 1902              		.loc 1 1252 3 view .LVU619
 1903 0006 0F46     		mov	r7, r1
 1904 0008 11B1     		cbz	r1, .L121
 1905              		.loc 1 1252 3 is_stmt 0 discriminator 1 view .LVU620
 1906 000a B1F1004F 		cmp	r1, #-2147483648
 1907 000e 2AD1     		bne	.L130
 1908              	.LVL124:
 1909              	.L121:
1253:../../../core/ST/STM32L4xx_HAL_Driver/Src/stm32l4xx_hal_rtc_ex.c ****   assert_param(IS_RTC_SHIFT_SUBFS(ShiftSubFS));
 1910              		.loc 1 1253 3 is_stmt 1 view .LVU621
 1911 0010 B6F5004F 		cmp	r6, #32768
 1912 0014 2DD2     		bcs	.L131
 1913              	.L122:
1254:../../../core/ST/STM32L4xx_HAL_Driver/Src/stm32l4xx_hal_rtc_ex.c **** 
1255:../../../core/ST/STM32L4xx_HAL_Driver/Src/stm32l4xx_hal_rtc_ex.c ****   /* Process Locked */
1256:../../../core/ST/STM32L4xx_HAL_Driver/Src/stm32l4xx_hal_rtc_ex.c ****   __HAL_LOCK(hrtc);
 1914              		.loc 1 1256 3 view .LVU622
 1915              		.loc 1 1256 3 view .LVU623
 1916 0016 94F82030 		ldrb	r3, [r4, #32]	@ zero_extendqisi2
 1917 001a 012B     		cmp	r3, #1
 1918 001c 5ED0     		beq	.L128
 1919              		.loc 1 1256 3 discriminator 2 view .LVU624
 1920 001e 0123     		movs	r3, #1
 1921 0020 84F82030 		strb	r3, [r4, #32]
 1922              		.loc 1 1256 3 discriminator 2 view .LVU625
1257:../../../core/ST/STM32L4xx_HAL_Driver/Src/stm32l4xx_hal_rtc_ex.c **** 
ARM GAS  C:\Users\tomra\AppData\Local\Temp\ccoul9Yc.s 			page 58


1258:../../../core/ST/STM32L4xx_HAL_Driver/Src/stm32l4xx_hal_rtc_ex.c ****   hrtc->State = HAL_RTC_STATE_BUSY;
 1923              		.loc 1 1258 3 discriminator 2 view .LVU626
 1924              		.loc 1 1258 15 is_stmt 0 discriminator 2 view .LVU627
 1925 0024 0223     		movs	r3, #2
 1926 0026 84F82130 		strb	r3, [r4, #33]
1259:../../../core/ST/STM32L4xx_HAL_Driver/Src/stm32l4xx_hal_rtc_ex.c **** 
1260:../../../core/ST/STM32L4xx_HAL_Driver/Src/stm32l4xx_hal_rtc_ex.c ****   /* Disable the write protection for RTC registers */
1261:../../../core/ST/STM32L4xx_HAL_Driver/Src/stm32l4xx_hal_rtc_ex.c ****   __HAL_RTC_WRITEPROTECTION_DISABLE(hrtc);
 1927              		.loc 1 1261 3 is_stmt 1 discriminator 2 view .LVU628
 1928              		.loc 1 1261 3 discriminator 2 view .LVU629
 1929 002a 2368     		ldr	r3, [r4]
 1930 002c CA22     		movs	r2, #202
 1931 002e 5A62     		str	r2, [r3, #36]
 1932              		.loc 1 1261 3 discriminator 2 view .LVU630
 1933 0030 2368     		ldr	r3, [r4]
 1934 0032 5322     		movs	r2, #83
 1935 0034 5A62     		str	r2, [r3, #36]
 1936              		.loc 1 1261 3 discriminator 2 view .LVU631
1262:../../../core/ST/STM32L4xx_HAL_Driver/Src/stm32l4xx_hal_rtc_ex.c **** 
1263:../../../core/ST/STM32L4xx_HAL_Driver/Src/stm32l4xx_hal_rtc_ex.c ****     tickstart = HAL_GetTick();
 1937              		.loc 1 1263 5 discriminator 2 view .LVU632
 1938              		.loc 1 1263 17 is_stmt 0 discriminator 2 view .LVU633
 1939 0036 FFF7FEFF 		bl	HAL_GetTick
 1940              	.LVL125:
 1941 003a 0546     		mov	r5, r0
 1942              	.LVL126:
1264:../../../core/ST/STM32L4xx_HAL_Driver/Src/stm32l4xx_hal_rtc_ex.c **** 
1265:../../../core/ST/STM32L4xx_HAL_Driver/Src/stm32l4xx_hal_rtc_ex.c ****     /* Wait until the shift is completed*/
1266:../../../core/ST/STM32L4xx_HAL_Driver/Src/stm32l4xx_hal_rtc_ex.c **** #if defined(STM32L412xx) || defined(STM32L422xx)
1267:../../../core/ST/STM32L4xx_HAL_Driver/Src/stm32l4xx_hal_rtc_ex.c ****     while((hrtc->Instance->ICSR & RTC_ICSR_SHPF) != 0U)
1268:../../../core/ST/STM32L4xx_HAL_Driver/Src/stm32l4xx_hal_rtc_ex.c **** #else
1269:../../../core/ST/STM32L4xx_HAL_Driver/Src/stm32l4xx_hal_rtc_ex.c ****     while((hrtc->Instance->ISR & RTC_ISR_SHPF) != 0U)
 1943              		.loc 1 1269 5 is_stmt 1 discriminator 2 view .LVU634
 1944              	.L124:
 1945              		.loc 1 1269 10 view .LVU635
 1946              		.loc 1 1269 16 is_stmt 0 view .LVU636
 1947 003c 2368     		ldr	r3, [r4]
 1948              		.loc 1 1269 26 view .LVU637
 1949 003e D968     		ldr	r1, [r3, #12]
 1950              		.loc 1 1269 10 view .LVU638
 1951 0040 11F0080F 		tst	r1, #8
 1952 0044 1BD0     		beq	.L132
1270:../../../core/ST/STM32L4xx_HAL_Driver/Src/stm32l4xx_hal_rtc_ex.c **** #endif
1271:../../../core/ST/STM32L4xx_HAL_Driver/Src/stm32l4xx_hal_rtc_ex.c ****     {
1272:../../../core/ST/STM32L4xx_HAL_Driver/Src/stm32l4xx_hal_rtc_ex.c ****       if((HAL_GetTick() - tickstart ) > RTC_TIMEOUT_VALUE)
 1953              		.loc 1 1272 7 is_stmt 1 view .LVU639
 1954              		.loc 1 1272 11 is_stmt 0 view .LVU640
 1955 0046 FFF7FEFF 		bl	HAL_GetTick
 1956              	.LVL127:
 1957              		.loc 1 1272 25 view .LVU641
 1958 004a 431B     		subs	r3, r0, r5
 1959              		.loc 1 1272 9 view .LVU642
 1960 004c B3F57A7F 		cmp	r3, #1000
 1961 0050 F4D9     		bls	.L124
1273:../../../core/ST/STM32L4xx_HAL_Driver/Src/stm32l4xx_hal_rtc_ex.c ****       {
1274:../../../core/ST/STM32L4xx_HAL_Driver/Src/stm32l4xx_hal_rtc_ex.c ****         /* Enable the write protection for RTC registers */
1275:../../../core/ST/STM32L4xx_HAL_Driver/Src/stm32l4xx_hal_rtc_ex.c ****         __HAL_RTC_WRITEPROTECTION_ENABLE(hrtc);
ARM GAS  C:\Users\tomra\AppData\Local\Temp\ccoul9Yc.s 			page 59


 1962              		.loc 1 1275 9 is_stmt 1 view .LVU643
 1963              		.loc 1 1275 9 view .LVU644
 1964 0052 2368     		ldr	r3, [r4]
 1965 0054 FF22     		movs	r2, #255
 1966 0056 5A62     		str	r2, [r3, #36]
 1967              		.loc 1 1275 9 view .LVU645
1276:../../../core/ST/STM32L4xx_HAL_Driver/Src/stm32l4xx_hal_rtc_ex.c **** 
1277:../../../core/ST/STM32L4xx_HAL_Driver/Src/stm32l4xx_hal_rtc_ex.c ****         hrtc->State = HAL_RTC_STATE_TIMEOUT;
 1968              		.loc 1 1277 9 view .LVU646
 1969              		.loc 1 1277 21 is_stmt 0 view .LVU647
 1970 0058 0320     		movs	r0, #3
 1971 005a 84F82100 		strb	r0, [r4, #33]
1278:../../../core/ST/STM32L4xx_HAL_Driver/Src/stm32l4xx_hal_rtc_ex.c **** 
1279:../../../core/ST/STM32L4xx_HAL_Driver/Src/stm32l4xx_hal_rtc_ex.c ****         /* Process Unlocked */
1280:../../../core/ST/STM32L4xx_HAL_Driver/Src/stm32l4xx_hal_rtc_ex.c ****         __HAL_UNLOCK(hrtc);
 1972              		.loc 1 1280 9 is_stmt 1 view .LVU648
 1973              		.loc 1 1280 9 view .LVU649
 1974 005e 0023     		movs	r3, #0
 1975 0060 84F82030 		strb	r3, [r4, #32]
 1976              		.loc 1 1280 9 view .LVU650
1281:../../../core/ST/STM32L4xx_HAL_Driver/Src/stm32l4xx_hal_rtc_ex.c **** 
1282:../../../core/ST/STM32L4xx_HAL_Driver/Src/stm32l4xx_hal_rtc_ex.c ****         return HAL_TIMEOUT;
 1977              		.loc 1 1282 9 view .LVU651
 1978              	.LVL128:
 1979              	.L123:
1283:../../../core/ST/STM32L4xx_HAL_Driver/Src/stm32l4xx_hal_rtc_ex.c ****       }
1284:../../../core/ST/STM32L4xx_HAL_Driver/Src/stm32l4xx_hal_rtc_ex.c ****     }
1285:../../../core/ST/STM32L4xx_HAL_Driver/Src/stm32l4xx_hal_rtc_ex.c **** 
1286:../../../core/ST/STM32L4xx_HAL_Driver/Src/stm32l4xx_hal_rtc_ex.c ****     /* Check if the reference clock detection is disabled */
1287:../../../core/ST/STM32L4xx_HAL_Driver/Src/stm32l4xx_hal_rtc_ex.c ****     if((hrtc->Instance->CR & RTC_CR_REFCKON) == 0U)
1288:../../../core/ST/STM32L4xx_HAL_Driver/Src/stm32l4xx_hal_rtc_ex.c ****     {
1289:../../../core/ST/STM32L4xx_HAL_Driver/Src/stm32l4xx_hal_rtc_ex.c ****       /* Configure the Shift settings */
1290:../../../core/ST/STM32L4xx_HAL_Driver/Src/stm32l4xx_hal_rtc_ex.c ****       hrtc->Instance->SHIFTR = (uint32_t)(uint32_t)(ShiftSubFS) | (uint32_t)(ShiftAdd1S);
1291:../../../core/ST/STM32L4xx_HAL_Driver/Src/stm32l4xx_hal_rtc_ex.c **** 
1292:../../../core/ST/STM32L4xx_HAL_Driver/Src/stm32l4xx_hal_rtc_ex.c ****       /* If  RTC_CR_BYPSHAD bit = 0, wait for synchro else this check is not needed */
1293:../../../core/ST/STM32L4xx_HAL_Driver/Src/stm32l4xx_hal_rtc_ex.c ****       if((hrtc->Instance->CR & RTC_CR_BYPSHAD) == 0U)
1294:../../../core/ST/STM32L4xx_HAL_Driver/Src/stm32l4xx_hal_rtc_ex.c ****       {
1295:../../../core/ST/STM32L4xx_HAL_Driver/Src/stm32l4xx_hal_rtc_ex.c ****         if(HAL_RTC_WaitForSynchro(hrtc) != HAL_OK)
1296:../../../core/ST/STM32L4xx_HAL_Driver/Src/stm32l4xx_hal_rtc_ex.c ****         {
1297:../../../core/ST/STM32L4xx_HAL_Driver/Src/stm32l4xx_hal_rtc_ex.c ****           /* Enable the write protection for RTC registers */
1298:../../../core/ST/STM32L4xx_HAL_Driver/Src/stm32l4xx_hal_rtc_ex.c ****           __HAL_RTC_WRITEPROTECTION_ENABLE(hrtc);
1299:../../../core/ST/STM32L4xx_HAL_Driver/Src/stm32l4xx_hal_rtc_ex.c **** 
1300:../../../core/ST/STM32L4xx_HAL_Driver/Src/stm32l4xx_hal_rtc_ex.c ****           hrtc->State = HAL_RTC_STATE_ERROR;
1301:../../../core/ST/STM32L4xx_HAL_Driver/Src/stm32l4xx_hal_rtc_ex.c **** 
1302:../../../core/ST/STM32L4xx_HAL_Driver/Src/stm32l4xx_hal_rtc_ex.c ****           /* Process Unlocked */
1303:../../../core/ST/STM32L4xx_HAL_Driver/Src/stm32l4xx_hal_rtc_ex.c ****           __HAL_UNLOCK(hrtc);
1304:../../../core/ST/STM32L4xx_HAL_Driver/Src/stm32l4xx_hal_rtc_ex.c **** 
1305:../../../core/ST/STM32L4xx_HAL_Driver/Src/stm32l4xx_hal_rtc_ex.c ****           return HAL_ERROR;
1306:../../../core/ST/STM32L4xx_HAL_Driver/Src/stm32l4xx_hal_rtc_ex.c ****         }
1307:../../../core/ST/STM32L4xx_HAL_Driver/Src/stm32l4xx_hal_rtc_ex.c ****       }
1308:../../../core/ST/STM32L4xx_HAL_Driver/Src/stm32l4xx_hal_rtc_ex.c ****     }
1309:../../../core/ST/STM32L4xx_HAL_Driver/Src/stm32l4xx_hal_rtc_ex.c ****     else
1310:../../../core/ST/STM32L4xx_HAL_Driver/Src/stm32l4xx_hal_rtc_ex.c ****     {
1311:../../../core/ST/STM32L4xx_HAL_Driver/Src/stm32l4xx_hal_rtc_ex.c ****       /* Enable the write protection for RTC registers */
1312:../../../core/ST/STM32L4xx_HAL_Driver/Src/stm32l4xx_hal_rtc_ex.c ****       __HAL_RTC_WRITEPROTECTION_ENABLE(hrtc);
1313:../../../core/ST/STM32L4xx_HAL_Driver/Src/stm32l4xx_hal_rtc_ex.c **** 
1314:../../../core/ST/STM32L4xx_HAL_Driver/Src/stm32l4xx_hal_rtc_ex.c ****       /* Change RTC state */
ARM GAS  C:\Users\tomra\AppData\Local\Temp\ccoul9Yc.s 			page 60


1315:../../../core/ST/STM32L4xx_HAL_Driver/Src/stm32l4xx_hal_rtc_ex.c ****       hrtc->State = HAL_RTC_STATE_ERROR;
1316:../../../core/ST/STM32L4xx_HAL_Driver/Src/stm32l4xx_hal_rtc_ex.c **** 
1317:../../../core/ST/STM32L4xx_HAL_Driver/Src/stm32l4xx_hal_rtc_ex.c ****       /* Process Unlocked */
1318:../../../core/ST/STM32L4xx_HAL_Driver/Src/stm32l4xx_hal_rtc_ex.c ****       __HAL_UNLOCK(hrtc);
1319:../../../core/ST/STM32L4xx_HAL_Driver/Src/stm32l4xx_hal_rtc_ex.c **** 
1320:../../../core/ST/STM32L4xx_HAL_Driver/Src/stm32l4xx_hal_rtc_ex.c ****       return HAL_ERROR;
1321:../../../core/ST/STM32L4xx_HAL_Driver/Src/stm32l4xx_hal_rtc_ex.c ****     }
1322:../../../core/ST/STM32L4xx_HAL_Driver/Src/stm32l4xx_hal_rtc_ex.c **** 
1323:../../../core/ST/STM32L4xx_HAL_Driver/Src/stm32l4xx_hal_rtc_ex.c ****   /* Enable the write protection for RTC registers */
1324:../../../core/ST/STM32L4xx_HAL_Driver/Src/stm32l4xx_hal_rtc_ex.c ****   __HAL_RTC_WRITEPROTECTION_ENABLE(hrtc);
1325:../../../core/ST/STM32L4xx_HAL_Driver/Src/stm32l4xx_hal_rtc_ex.c **** 
1326:../../../core/ST/STM32L4xx_HAL_Driver/Src/stm32l4xx_hal_rtc_ex.c ****   /* Change RTC state */
1327:../../../core/ST/STM32L4xx_HAL_Driver/Src/stm32l4xx_hal_rtc_ex.c ****   hrtc->State = HAL_RTC_STATE_READY;
1328:../../../core/ST/STM32L4xx_HAL_Driver/Src/stm32l4xx_hal_rtc_ex.c **** 
1329:../../../core/ST/STM32L4xx_HAL_Driver/Src/stm32l4xx_hal_rtc_ex.c ****   /* Process Unlocked */
1330:../../../core/ST/STM32L4xx_HAL_Driver/Src/stm32l4xx_hal_rtc_ex.c ****   __HAL_UNLOCK(hrtc);
1331:../../../core/ST/STM32L4xx_HAL_Driver/Src/stm32l4xx_hal_rtc_ex.c **** 
1332:../../../core/ST/STM32L4xx_HAL_Driver/Src/stm32l4xx_hal_rtc_ex.c ****   return HAL_OK;
1333:../../../core/ST/STM32L4xx_HAL_Driver/Src/stm32l4xx_hal_rtc_ex.c **** }
 1980              		.loc 1 1333 1 is_stmt 0 view .LVU652
 1981 0064 F8BD     		pop	{r3, r4, r5, r6, r7, pc}
 1982              	.LVL129:
 1983              	.L130:
1252:../../../core/ST/STM32L4xx_HAL_Driver/Src/stm32l4xx_hal_rtc_ex.c ****   assert_param(IS_RTC_SHIFT_SUBFS(ShiftSubFS));
 1984              		.loc 1 1252 3 discriminator 2 view .LVU653
 1985 0066 40F2E441 		movw	r1, #1252
 1986              	.LVL130:
1252:../../../core/ST/STM32L4xx_HAL_Driver/Src/stm32l4xx_hal_rtc_ex.c ****   assert_param(IS_RTC_SHIFT_SUBFS(ShiftSubFS));
 1987              		.loc 1 1252 3 discriminator 2 view .LVU654
 1988 006a 1D48     		ldr	r0, .L134
 1989              	.LVL131:
1252:../../../core/ST/STM32L4xx_HAL_Driver/Src/stm32l4xx_hal_rtc_ex.c ****   assert_param(IS_RTC_SHIFT_SUBFS(ShiftSubFS));
 1990              		.loc 1 1252 3 discriminator 2 view .LVU655
 1991 006c FFF7FEFF 		bl	assert_failed
 1992              	.LVL132:
1252:../../../core/ST/STM32L4xx_HAL_Driver/Src/stm32l4xx_hal_rtc_ex.c ****   assert_param(IS_RTC_SHIFT_SUBFS(ShiftSubFS));
 1993              		.loc 1 1252 3 discriminator 2 view .LVU656
 1994 0070 CEE7     		b	.L121
 1995              	.L131:
1253:../../../core/ST/STM32L4xx_HAL_Driver/Src/stm32l4xx_hal_rtc_ex.c **** 
 1996              		.loc 1 1253 3 discriminator 1 view .LVU657
 1997 0072 40F2E541 		movw	r1, #1253
 1998 0076 1A48     		ldr	r0, .L134
 1999 0078 FFF7FEFF 		bl	assert_failed
 2000              	.LVL133:
 2001 007c CBE7     		b	.L122
 2002              	.LVL134:
 2003              	.L132:
1287:../../../core/ST/STM32L4xx_HAL_Driver/Src/stm32l4xx_hal_rtc_ex.c ****     {
 2004              		.loc 1 1287 5 is_stmt 1 view .LVU658
1287:../../../core/ST/STM32L4xx_HAL_Driver/Src/stm32l4xx_hal_rtc_ex.c ****     {
 2005              		.loc 1 1287 23 is_stmt 0 view .LVU659
 2006 007e 9A68     		ldr	r2, [r3, #8]
1287:../../../core/ST/STM32L4xx_HAL_Driver/Src/stm32l4xx_hal_rtc_ex.c ****     {
 2007              		.loc 1 1287 7 view .LVU660
 2008 0080 12F0100F 		tst	r2, #16
 2009 0084 20D1     		bne	.L126
ARM GAS  C:\Users\tomra\AppData\Local\Temp\ccoul9Yc.s 			page 61


1290:../../../core/ST/STM32L4xx_HAL_Driver/Src/stm32l4xx_hal_rtc_ex.c **** 
 2010              		.loc 1 1290 7 is_stmt 1 view .LVU661
1290:../../../core/ST/STM32L4xx_HAL_Driver/Src/stm32l4xx_hal_rtc_ex.c **** 
 2011              		.loc 1 1290 65 is_stmt 0 view .LVU662
 2012 0086 3E43     		orrs	r6, r6, r7
 2013              	.LVL135:
1290:../../../core/ST/STM32L4xx_HAL_Driver/Src/stm32l4xx_hal_rtc_ex.c **** 
 2014              		.loc 1 1290 30 view .LVU663
 2015 0088 DE62     		str	r6, [r3, #44]
1293:../../../core/ST/STM32L4xx_HAL_Driver/Src/stm32l4xx_hal_rtc_ex.c ****       {
 2016              		.loc 1 1293 7 is_stmt 1 view .LVU664
1293:../../../core/ST/STM32L4xx_HAL_Driver/Src/stm32l4xx_hal_rtc_ex.c ****       {
 2017              		.loc 1 1293 15 is_stmt 0 view .LVU665
 2018 008a 2368     		ldr	r3, [r4]
1293:../../../core/ST/STM32L4xx_HAL_Driver/Src/stm32l4xx_hal_rtc_ex.c ****       {
 2019              		.loc 1 1293 25 view .LVU666
 2020 008c 9B68     		ldr	r3, [r3, #8]
1293:../../../core/ST/STM32L4xx_HAL_Driver/Src/stm32l4xx_hal_rtc_ex.c ****       {
 2021              		.loc 1 1293 9 view .LVU667
 2022 008e 13F0200F 		tst	r3, #32
 2023 0092 09D0     		beq	.L133
 2024              	.L127:
1324:../../../core/ST/STM32L4xx_HAL_Driver/Src/stm32l4xx_hal_rtc_ex.c **** 
 2025              		.loc 1 1324 3 is_stmt 1 view .LVU668
1324:../../../core/ST/STM32L4xx_HAL_Driver/Src/stm32l4xx_hal_rtc_ex.c **** 
 2026              		.loc 1 1324 3 view .LVU669
 2027 0094 2368     		ldr	r3, [r4]
 2028 0096 FF22     		movs	r2, #255
 2029 0098 5A62     		str	r2, [r3, #36]
1324:../../../core/ST/STM32L4xx_HAL_Driver/Src/stm32l4xx_hal_rtc_ex.c **** 
 2030              		.loc 1 1324 3 view .LVU670
1327:../../../core/ST/STM32L4xx_HAL_Driver/Src/stm32l4xx_hal_rtc_ex.c **** 
 2031              		.loc 1 1327 3 view .LVU671
1327:../../../core/ST/STM32L4xx_HAL_Driver/Src/stm32l4xx_hal_rtc_ex.c **** 
 2032              		.loc 1 1327 15 is_stmt 0 view .LVU672
 2033 009a 0123     		movs	r3, #1
 2034 009c 84F82130 		strb	r3, [r4, #33]
1330:../../../core/ST/STM32L4xx_HAL_Driver/Src/stm32l4xx_hal_rtc_ex.c **** 
 2035              		.loc 1 1330 3 is_stmt 1 view .LVU673
1330:../../../core/ST/STM32L4xx_HAL_Driver/Src/stm32l4xx_hal_rtc_ex.c **** 
 2036              		.loc 1 1330 3 view .LVU674
 2037 00a0 0020     		movs	r0, #0
 2038 00a2 84F82000 		strb	r0, [r4, #32]
1330:../../../core/ST/STM32L4xx_HAL_Driver/Src/stm32l4xx_hal_rtc_ex.c **** 
 2039              		.loc 1 1330 3 view .LVU675
1332:../../../core/ST/STM32L4xx_HAL_Driver/Src/stm32l4xx_hal_rtc_ex.c **** }
 2040              		.loc 1 1332 3 view .LVU676
1332:../../../core/ST/STM32L4xx_HAL_Driver/Src/stm32l4xx_hal_rtc_ex.c **** }
 2041              		.loc 1 1332 10 is_stmt 0 view .LVU677
 2042 00a6 DDE7     		b	.L123
 2043              	.L133:
1295:../../../core/ST/STM32L4xx_HAL_Driver/Src/stm32l4xx_hal_rtc_ex.c ****         {
 2044              		.loc 1 1295 9 is_stmt 1 view .LVU678
1295:../../../core/ST/STM32L4xx_HAL_Driver/Src/stm32l4xx_hal_rtc_ex.c ****         {
 2045              		.loc 1 1295 12 is_stmt 0 view .LVU679
 2046 00a8 2046     		mov	r0, r4
 2047 00aa FFF7FEFF 		bl	HAL_RTC_WaitForSynchro
ARM GAS  C:\Users\tomra\AppData\Local\Temp\ccoul9Yc.s 			page 62


 2048              	.LVL136:
1295:../../../core/ST/STM32L4xx_HAL_Driver/Src/stm32l4xx_hal_rtc_ex.c ****         {
 2049              		.loc 1 1295 11 view .LVU680
 2050 00ae 0028     		cmp	r0, #0
 2051 00b0 F0D0     		beq	.L127
1298:../../../core/ST/STM32L4xx_HAL_Driver/Src/stm32l4xx_hal_rtc_ex.c **** 
 2052              		.loc 1 1298 11 is_stmt 1 view .LVU681
1298:../../../core/ST/STM32L4xx_HAL_Driver/Src/stm32l4xx_hal_rtc_ex.c **** 
 2053              		.loc 1 1298 11 view .LVU682
 2054 00b2 2368     		ldr	r3, [r4]
 2055 00b4 FF22     		movs	r2, #255
 2056 00b6 5A62     		str	r2, [r3, #36]
1298:../../../core/ST/STM32L4xx_HAL_Driver/Src/stm32l4xx_hal_rtc_ex.c **** 
 2057              		.loc 1 1298 11 view .LVU683
1300:../../../core/ST/STM32L4xx_HAL_Driver/Src/stm32l4xx_hal_rtc_ex.c **** 
 2058              		.loc 1 1300 11 view .LVU684
1300:../../../core/ST/STM32L4xx_HAL_Driver/Src/stm32l4xx_hal_rtc_ex.c **** 
 2059              		.loc 1 1300 23 is_stmt 0 view .LVU685
 2060 00b8 0423     		movs	r3, #4
 2061 00ba 84F82130 		strb	r3, [r4, #33]
1303:../../../core/ST/STM32L4xx_HAL_Driver/Src/stm32l4xx_hal_rtc_ex.c **** 
 2062              		.loc 1 1303 11 is_stmt 1 view .LVU686
1303:../../../core/ST/STM32L4xx_HAL_Driver/Src/stm32l4xx_hal_rtc_ex.c **** 
 2063              		.loc 1 1303 11 view .LVU687
 2064 00be 0023     		movs	r3, #0
 2065 00c0 84F82030 		strb	r3, [r4, #32]
1303:../../../core/ST/STM32L4xx_HAL_Driver/Src/stm32l4xx_hal_rtc_ex.c **** 
 2066              		.loc 1 1303 11 view .LVU688
1305:../../../core/ST/STM32L4xx_HAL_Driver/Src/stm32l4xx_hal_rtc_ex.c ****         }
 2067              		.loc 1 1305 11 view .LVU689
1305:../../../core/ST/STM32L4xx_HAL_Driver/Src/stm32l4xx_hal_rtc_ex.c ****         }
 2068              		.loc 1 1305 18 is_stmt 0 view .LVU690
 2069 00c4 0120     		movs	r0, #1
 2070 00c6 CDE7     		b	.L123
 2071              	.LVL137:
 2072              	.L126:
1312:../../../core/ST/STM32L4xx_HAL_Driver/Src/stm32l4xx_hal_rtc_ex.c **** 
 2073              		.loc 1 1312 7 is_stmt 1 view .LVU691
1312:../../../core/ST/STM32L4xx_HAL_Driver/Src/stm32l4xx_hal_rtc_ex.c **** 
 2074              		.loc 1 1312 7 view .LVU692
 2075 00c8 FF22     		movs	r2, #255
 2076 00ca 5A62     		str	r2, [r3, #36]
1312:../../../core/ST/STM32L4xx_HAL_Driver/Src/stm32l4xx_hal_rtc_ex.c **** 
 2077              		.loc 1 1312 7 view .LVU693
1315:../../../core/ST/STM32L4xx_HAL_Driver/Src/stm32l4xx_hal_rtc_ex.c **** 
 2078              		.loc 1 1315 7 view .LVU694
1315:../../../core/ST/STM32L4xx_HAL_Driver/Src/stm32l4xx_hal_rtc_ex.c **** 
 2079              		.loc 1 1315 19 is_stmt 0 view .LVU695
 2080 00cc 0423     		movs	r3, #4
 2081 00ce 84F82130 		strb	r3, [r4, #33]
1318:../../../core/ST/STM32L4xx_HAL_Driver/Src/stm32l4xx_hal_rtc_ex.c **** 
 2082              		.loc 1 1318 7 is_stmt 1 view .LVU696
1318:../../../core/ST/STM32L4xx_HAL_Driver/Src/stm32l4xx_hal_rtc_ex.c **** 
 2083              		.loc 1 1318 7 view .LVU697
 2084 00d2 0023     		movs	r3, #0
 2085 00d4 84F82030 		strb	r3, [r4, #32]
1318:../../../core/ST/STM32L4xx_HAL_Driver/Src/stm32l4xx_hal_rtc_ex.c **** 
ARM GAS  C:\Users\tomra\AppData\Local\Temp\ccoul9Yc.s 			page 63


 2086              		.loc 1 1318 7 view .LVU698
1320:../../../core/ST/STM32L4xx_HAL_Driver/Src/stm32l4xx_hal_rtc_ex.c ****     }
 2087              		.loc 1 1320 7 view .LVU699
1320:../../../core/ST/STM32L4xx_HAL_Driver/Src/stm32l4xx_hal_rtc_ex.c ****     }
 2088              		.loc 1 1320 14 is_stmt 0 view .LVU700
 2089 00d8 0120     		movs	r0, #1
 2090 00da C3E7     		b	.L123
 2091              	.LVL138:
 2092              	.L128:
1256:../../../core/ST/STM32L4xx_HAL_Driver/Src/stm32l4xx_hal_rtc_ex.c **** 
 2093              		.loc 1 1256 3 view .LVU701
 2094 00dc 0220     		movs	r0, #2
 2095 00de C1E7     		b	.L123
 2096              	.L135:
 2097              		.align	2
 2098              	.L134:
 2099 00e0 00000000 		.word	.LC0
 2100              		.cfi_endproc
 2101              	.LFE140:
 2103              		.section	.text.HAL_RTCEx_SetCalibrationOutPut,"ax",%progbits
 2104              		.align	1
 2105              		.global	HAL_RTCEx_SetCalibrationOutPut
 2106              		.syntax unified
 2107              		.thumb
 2108              		.thumb_func
 2109              		.fpu fpv4-sp-d16
 2111              	HAL_RTCEx_SetCalibrationOutPut:
 2112              	.LVL139:
 2113              	.LFB141:
1334:../../../core/ST/STM32L4xx_HAL_Driver/Src/stm32l4xx_hal_rtc_ex.c **** 
1335:../../../core/ST/STM32L4xx_HAL_Driver/Src/stm32l4xx_hal_rtc_ex.c **** /**
1336:../../../core/ST/STM32L4xx_HAL_Driver/Src/stm32l4xx_hal_rtc_ex.c ****   * @brief  Configure the Calibration Pinout (RTC_CALIB) Selection (1Hz or 512Hz).
1337:../../../core/ST/STM32L4xx_HAL_Driver/Src/stm32l4xx_hal_rtc_ex.c ****   * @param  hrtc RTC handle
1338:../../../core/ST/STM32L4xx_HAL_Driver/Src/stm32l4xx_hal_rtc_ex.c ****   * @param  CalibOutput Select the Calibration output Selection .
1339:../../../core/ST/STM32L4xx_HAL_Driver/Src/stm32l4xx_hal_rtc_ex.c ****   *          This parameter can be one of the following values:
1340:../../../core/ST/STM32L4xx_HAL_Driver/Src/stm32l4xx_hal_rtc_ex.c ****   *             @arg RTC_CALIBOUTPUT_512HZ: A signal has a regular waveform at 512Hz.
1341:../../../core/ST/STM32L4xx_HAL_Driver/Src/stm32l4xx_hal_rtc_ex.c ****   *             @arg RTC_CALIBOUTPUT_1HZ: A signal has a regular waveform at 1Hz.
1342:../../../core/ST/STM32L4xx_HAL_Driver/Src/stm32l4xx_hal_rtc_ex.c ****   * @retval HAL status
1343:../../../core/ST/STM32L4xx_HAL_Driver/Src/stm32l4xx_hal_rtc_ex.c ****   */
1344:../../../core/ST/STM32L4xx_HAL_Driver/Src/stm32l4xx_hal_rtc_ex.c **** HAL_StatusTypeDef HAL_RTCEx_SetCalibrationOutPut(RTC_HandleTypeDef* hrtc, uint32_t CalibOutput)
1345:../../../core/ST/STM32L4xx_HAL_Driver/Src/stm32l4xx_hal_rtc_ex.c **** {
 2114              		.loc 1 1345 1 is_stmt 1 view -0
 2115              		.cfi_startproc
 2116              		@ args = 0, pretend = 0, frame = 0
 2117              		@ frame_needed = 0, uses_anonymous_args = 0
 2118              		.loc 1 1345 1 is_stmt 0 view .LVU703
 2119 0000 38B5     		push	{r3, r4, r5, lr}
 2120              	.LCFI11:
 2121              		.cfi_def_cfa_offset 16
 2122              		.cfi_offset 3, -16
 2123              		.cfi_offset 4, -12
 2124              		.cfi_offset 5, -8
 2125              		.cfi_offset 14, -4
 2126 0002 0446     		mov	r4, r0
1346:../../../core/ST/STM32L4xx_HAL_Driver/Src/stm32l4xx_hal_rtc_ex.c ****   /* Check the parameters */
1347:../../../core/ST/STM32L4xx_HAL_Driver/Src/stm32l4xx_hal_rtc_ex.c ****   assert_param(IS_RTC_CALIB_OUTPUT(CalibOutput));
 2127              		.loc 1 1347 3 is_stmt 1 view .LVU704
ARM GAS  C:\Users\tomra\AppData\Local\Temp\ccoul9Yc.s 			page 64


 2128 0004 0D46     		mov	r5, r1
 2129 0006 11B1     		cbz	r1, .L137
 2130              		.loc 1 1347 3 is_stmt 0 discriminator 1 view .LVU705
 2131 0008 B1F5002F 		cmp	r1, #524288
 2132 000c 26D1     		bne	.L141
 2133              	.LVL140:
 2134              	.L137:
1348:../../../core/ST/STM32L4xx_HAL_Driver/Src/stm32l4xx_hal_rtc_ex.c **** 
1349:../../../core/ST/STM32L4xx_HAL_Driver/Src/stm32l4xx_hal_rtc_ex.c ****   /* Process Locked */
1350:../../../core/ST/STM32L4xx_HAL_Driver/Src/stm32l4xx_hal_rtc_ex.c ****   __HAL_LOCK(hrtc);
 2135              		.loc 1 1350 3 is_stmt 1 view .LVU706
 2136              		.loc 1 1350 3 view .LVU707
 2137 000e 94F82030 		ldrb	r3, [r4, #32]	@ zero_extendqisi2
 2138 0012 012B     		cmp	r3, #1
 2139 0014 28D0     		beq	.L139
 2140              		.loc 1 1350 3 discriminator 2 view .LVU708
 2141 0016 0122     		movs	r2, #1
 2142 0018 84F82020 		strb	r2, [r4, #32]
 2143              		.loc 1 1350 3 discriminator 2 view .LVU709
1351:../../../core/ST/STM32L4xx_HAL_Driver/Src/stm32l4xx_hal_rtc_ex.c **** 
1352:../../../core/ST/STM32L4xx_HAL_Driver/Src/stm32l4xx_hal_rtc_ex.c ****   hrtc->State = HAL_RTC_STATE_BUSY;
 2144              		.loc 1 1352 3 discriminator 2 view .LVU710
 2145              		.loc 1 1352 15 is_stmt 0 discriminator 2 view .LVU711
 2146 001c 0223     		movs	r3, #2
 2147 001e 84F82130 		strb	r3, [r4, #33]
1353:../../../core/ST/STM32L4xx_HAL_Driver/Src/stm32l4xx_hal_rtc_ex.c **** 
1354:../../../core/ST/STM32L4xx_HAL_Driver/Src/stm32l4xx_hal_rtc_ex.c ****   /* Disable the write protection for RTC registers */
1355:../../../core/ST/STM32L4xx_HAL_Driver/Src/stm32l4xx_hal_rtc_ex.c ****   __HAL_RTC_WRITEPROTECTION_DISABLE(hrtc);
 2148              		.loc 1 1355 3 is_stmt 1 discriminator 2 view .LVU712
 2149              		.loc 1 1355 3 discriminator 2 view .LVU713
 2150 0022 2368     		ldr	r3, [r4]
 2151 0024 CA21     		movs	r1, #202
 2152 0026 5962     		str	r1, [r3, #36]
 2153              		.loc 1 1355 3 discriminator 2 view .LVU714
 2154 0028 2368     		ldr	r3, [r4]
 2155 002a 5321     		movs	r1, #83
 2156 002c 5962     		str	r1, [r3, #36]
 2157              		.loc 1 1355 3 discriminator 2 view .LVU715
1356:../../../core/ST/STM32L4xx_HAL_Driver/Src/stm32l4xx_hal_rtc_ex.c **** 
1357:../../../core/ST/STM32L4xx_HAL_Driver/Src/stm32l4xx_hal_rtc_ex.c ****   /* Clear flags before config */
1358:../../../core/ST/STM32L4xx_HAL_Driver/Src/stm32l4xx_hal_rtc_ex.c ****   hrtc->Instance->CR &= (uint32_t)~RTC_CR_COSEL;
 2158              		.loc 1 1358 3 discriminator 2 view .LVU716
 2159              		.loc 1 1358 7 is_stmt 0 discriminator 2 view .LVU717
 2160 002e 2168     		ldr	r1, [r4]
 2161              		.loc 1 1358 22 discriminator 2 view .LVU718
 2162 0030 8B68     		ldr	r3, [r1, #8]
 2163 0032 23F40023 		bic	r3, r3, #524288
 2164 0036 8B60     		str	r3, [r1, #8]
1359:../../../core/ST/STM32L4xx_HAL_Driver/Src/stm32l4xx_hal_rtc_ex.c **** 
1360:../../../core/ST/STM32L4xx_HAL_Driver/Src/stm32l4xx_hal_rtc_ex.c ****   /* Configure the RTC_CR register */
1361:../../../core/ST/STM32L4xx_HAL_Driver/Src/stm32l4xx_hal_rtc_ex.c ****   hrtc->Instance->CR |= (uint32_t)CalibOutput;
 2165              		.loc 1 1361 3 is_stmt 1 discriminator 2 view .LVU719
 2166              		.loc 1 1361 7 is_stmt 0 discriminator 2 view .LVU720
 2167 0038 2168     		ldr	r1, [r4]
 2168              		.loc 1 1361 22 discriminator 2 view .LVU721
 2169 003a 8B68     		ldr	r3, [r1, #8]
 2170 003c 2B43     		orrs	r3, r3, r5
ARM GAS  C:\Users\tomra\AppData\Local\Temp\ccoul9Yc.s 			page 65


 2171 003e 8B60     		str	r3, [r1, #8]
1362:../../../core/ST/STM32L4xx_HAL_Driver/Src/stm32l4xx_hal_rtc_ex.c **** 
1363:../../../core/ST/STM32L4xx_HAL_Driver/Src/stm32l4xx_hal_rtc_ex.c ****   __HAL_RTC_CALIBRATION_OUTPUT_ENABLE(hrtc);
 2172              		.loc 1 1363 3 is_stmt 1 discriminator 2 view .LVU722
 2173 0040 2168     		ldr	r1, [r4]
 2174 0042 8B68     		ldr	r3, [r1, #8]
 2175 0044 43F40003 		orr	r3, r3, #8388608
 2176 0048 8B60     		str	r3, [r1, #8]
1364:../../../core/ST/STM32L4xx_HAL_Driver/Src/stm32l4xx_hal_rtc_ex.c **** 
1365:../../../core/ST/STM32L4xx_HAL_Driver/Src/stm32l4xx_hal_rtc_ex.c ****   /* Enable the write protection for RTC registers */
1366:../../../core/ST/STM32L4xx_HAL_Driver/Src/stm32l4xx_hal_rtc_ex.c ****   __HAL_RTC_WRITEPROTECTION_ENABLE(hrtc);
 2177              		.loc 1 1366 3 discriminator 2 view .LVU723
 2178              		.loc 1 1366 3 discriminator 2 view .LVU724
 2179 004a 2368     		ldr	r3, [r4]
 2180 004c FF21     		movs	r1, #255
 2181 004e 5962     		str	r1, [r3, #36]
 2182              		.loc 1 1366 3 discriminator 2 view .LVU725
1367:../../../core/ST/STM32L4xx_HAL_Driver/Src/stm32l4xx_hal_rtc_ex.c **** 
1368:../../../core/ST/STM32L4xx_HAL_Driver/Src/stm32l4xx_hal_rtc_ex.c ****   /* Change RTC state */
1369:../../../core/ST/STM32L4xx_HAL_Driver/Src/stm32l4xx_hal_rtc_ex.c ****   hrtc->State = HAL_RTC_STATE_READY;
 2183              		.loc 1 1369 3 discriminator 2 view .LVU726
 2184              		.loc 1 1369 15 is_stmt 0 discriminator 2 view .LVU727
 2185 0050 84F82120 		strb	r2, [r4, #33]
1370:../../../core/ST/STM32L4xx_HAL_Driver/Src/stm32l4xx_hal_rtc_ex.c **** 
1371:../../../core/ST/STM32L4xx_HAL_Driver/Src/stm32l4xx_hal_rtc_ex.c ****   /* Process Unlocked */
1372:../../../core/ST/STM32L4xx_HAL_Driver/Src/stm32l4xx_hal_rtc_ex.c ****   __HAL_UNLOCK(hrtc);
 2186              		.loc 1 1372 3 is_stmt 1 discriminator 2 view .LVU728
 2187              		.loc 1 1372 3 discriminator 2 view .LVU729
 2188 0054 0020     		movs	r0, #0
 2189 0056 84F82000 		strb	r0, [r4, #32]
 2190              		.loc 1 1372 3 discriminator 2 view .LVU730
1373:../../../core/ST/STM32L4xx_HAL_Driver/Src/stm32l4xx_hal_rtc_ex.c **** 
1374:../../../core/ST/STM32L4xx_HAL_Driver/Src/stm32l4xx_hal_rtc_ex.c ****   return HAL_OK;
 2191              		.loc 1 1374 3 discriminator 2 view .LVU731
 2192              	.L138:
1375:../../../core/ST/STM32L4xx_HAL_Driver/Src/stm32l4xx_hal_rtc_ex.c **** }
 2193              		.loc 1 1375 1 is_stmt 0 view .LVU732
 2194 005a 38BD     		pop	{r3, r4, r5, pc}
 2195              	.LVL141:
 2196              	.L141:
1347:../../../core/ST/STM32L4xx_HAL_Driver/Src/stm32l4xx_hal_rtc_ex.c **** 
 2197              		.loc 1 1347 3 discriminator 2 view .LVU733
 2198 005c 40F24351 		movw	r1, #1347
 2199              	.LVL142:
1347:../../../core/ST/STM32L4xx_HAL_Driver/Src/stm32l4xx_hal_rtc_ex.c **** 
 2200              		.loc 1 1347 3 discriminator 2 view .LVU734
 2201 0060 0248     		ldr	r0, .L142
 2202              	.LVL143:
1347:../../../core/ST/STM32L4xx_HAL_Driver/Src/stm32l4xx_hal_rtc_ex.c **** 
 2203              		.loc 1 1347 3 discriminator 2 view .LVU735
 2204 0062 FFF7FEFF 		bl	assert_failed
 2205              	.LVL144:
 2206 0066 D2E7     		b	.L137
 2207              	.L139:
1350:../../../core/ST/STM32L4xx_HAL_Driver/Src/stm32l4xx_hal_rtc_ex.c **** 
 2208              		.loc 1 1350 3 view .LVU736
 2209 0068 0220     		movs	r0, #2
ARM GAS  C:\Users\tomra\AppData\Local\Temp\ccoul9Yc.s 			page 66


 2210 006a F6E7     		b	.L138
 2211              	.L143:
 2212              		.align	2
 2213              	.L142:
 2214 006c 00000000 		.word	.LC0
 2215              		.cfi_endproc
 2216              	.LFE141:
 2218              		.section	.text.HAL_RTCEx_DeactivateCalibrationOutPut,"ax",%progbits
 2219              		.align	1
 2220              		.global	HAL_RTCEx_DeactivateCalibrationOutPut
 2221              		.syntax unified
 2222              		.thumb
 2223              		.thumb_func
 2224              		.fpu fpv4-sp-d16
 2226              	HAL_RTCEx_DeactivateCalibrationOutPut:
 2227              	.LVL145:
 2228              	.LFB142:
1376:../../../core/ST/STM32L4xx_HAL_Driver/Src/stm32l4xx_hal_rtc_ex.c **** 
1377:../../../core/ST/STM32L4xx_HAL_Driver/Src/stm32l4xx_hal_rtc_ex.c **** /**
1378:../../../core/ST/STM32L4xx_HAL_Driver/Src/stm32l4xx_hal_rtc_ex.c ****   * @brief  Deactivate the Calibration Pinout (RTC_CALIB) Selection (1Hz or 512Hz).
1379:../../../core/ST/STM32L4xx_HAL_Driver/Src/stm32l4xx_hal_rtc_ex.c ****   * @param  hrtc RTC handle
1380:../../../core/ST/STM32L4xx_HAL_Driver/Src/stm32l4xx_hal_rtc_ex.c ****   * @retval HAL status
1381:../../../core/ST/STM32L4xx_HAL_Driver/Src/stm32l4xx_hal_rtc_ex.c ****   */
1382:../../../core/ST/STM32L4xx_HAL_Driver/Src/stm32l4xx_hal_rtc_ex.c **** HAL_StatusTypeDef HAL_RTCEx_DeactivateCalibrationOutPut(RTC_HandleTypeDef* hrtc)
1383:../../../core/ST/STM32L4xx_HAL_Driver/Src/stm32l4xx_hal_rtc_ex.c **** {
 2229              		.loc 1 1383 1 is_stmt 1 view -0
 2230              		.cfi_startproc
 2231              		@ args = 0, pretend = 0, frame = 0
 2232              		@ frame_needed = 0, uses_anonymous_args = 0
 2233              		@ link register save eliminated.
1384:../../../core/ST/STM32L4xx_HAL_Driver/Src/stm32l4xx_hal_rtc_ex.c ****   /* Process Locked */
1385:../../../core/ST/STM32L4xx_HAL_Driver/Src/stm32l4xx_hal_rtc_ex.c ****   __HAL_LOCK(hrtc);
 2234              		.loc 1 1385 3 view .LVU738
 2235              		.loc 1 1385 3 view .LVU739
 2236 0000 90F82030 		ldrb	r3, [r0, #32]	@ zero_extendqisi2
 2237 0004 012B     		cmp	r3, #1
 2238 0006 1AD0     		beq	.L146
 2239              		.loc 1 1385 3 discriminator 2 view .LVU740
 2240 0008 0122     		movs	r2, #1
 2241 000a 80F82020 		strb	r2, [r0, #32]
 2242              		.loc 1 1385 3 discriminator 2 view .LVU741
1386:../../../core/ST/STM32L4xx_HAL_Driver/Src/stm32l4xx_hal_rtc_ex.c **** 
1387:../../../core/ST/STM32L4xx_HAL_Driver/Src/stm32l4xx_hal_rtc_ex.c ****   hrtc->State = HAL_RTC_STATE_BUSY;
 2243              		.loc 1 1387 3 discriminator 2 view .LVU742
 2244              		.loc 1 1387 15 is_stmt 0 discriminator 2 view .LVU743
 2245 000e 0223     		movs	r3, #2
 2246 0010 80F82130 		strb	r3, [r0, #33]
1388:../../../core/ST/STM32L4xx_HAL_Driver/Src/stm32l4xx_hal_rtc_ex.c **** 
1389:../../../core/ST/STM32L4xx_HAL_Driver/Src/stm32l4xx_hal_rtc_ex.c ****   /* Disable the write protection for RTC registers */
1390:../../../core/ST/STM32L4xx_HAL_Driver/Src/stm32l4xx_hal_rtc_ex.c ****   __HAL_RTC_WRITEPROTECTION_DISABLE(hrtc);
 2247              		.loc 1 1390 3 is_stmt 1 discriminator 2 view .LVU744
 2248              		.loc 1 1390 3 discriminator 2 view .LVU745
 2249 0014 0368     		ldr	r3, [r0]
 2250 0016 CA21     		movs	r1, #202
 2251 0018 5962     		str	r1, [r3, #36]
 2252              		.loc 1 1390 3 discriminator 2 view .LVU746
 2253 001a 0368     		ldr	r3, [r0]
ARM GAS  C:\Users\tomra\AppData\Local\Temp\ccoul9Yc.s 			page 67


 2254 001c 5321     		movs	r1, #83
 2255 001e 5962     		str	r1, [r3, #36]
 2256              		.loc 1 1390 3 discriminator 2 view .LVU747
1391:../../../core/ST/STM32L4xx_HAL_Driver/Src/stm32l4xx_hal_rtc_ex.c **** 
1392:../../../core/ST/STM32L4xx_HAL_Driver/Src/stm32l4xx_hal_rtc_ex.c ****   __HAL_RTC_CALIBRATION_OUTPUT_DISABLE(hrtc);
 2257              		.loc 1 1392 3 discriminator 2 view .LVU748
 2258 0020 0168     		ldr	r1, [r0]
 2259 0022 8B68     		ldr	r3, [r1, #8]
 2260 0024 23F40003 		bic	r3, r3, #8388608
 2261 0028 8B60     		str	r3, [r1, #8]
1393:../../../core/ST/STM32L4xx_HAL_Driver/Src/stm32l4xx_hal_rtc_ex.c **** 
1394:../../../core/ST/STM32L4xx_HAL_Driver/Src/stm32l4xx_hal_rtc_ex.c ****   /* Enable the write protection for RTC registers */
1395:../../../core/ST/STM32L4xx_HAL_Driver/Src/stm32l4xx_hal_rtc_ex.c ****   __HAL_RTC_WRITEPROTECTION_ENABLE(hrtc);
 2262              		.loc 1 1395 3 discriminator 2 view .LVU749
 2263              		.loc 1 1395 3 discriminator 2 view .LVU750
 2264 002a 0368     		ldr	r3, [r0]
 2265 002c FF21     		movs	r1, #255
 2266 002e 5962     		str	r1, [r3, #36]
 2267              		.loc 1 1395 3 discriminator 2 view .LVU751
1396:../../../core/ST/STM32L4xx_HAL_Driver/Src/stm32l4xx_hal_rtc_ex.c **** 
1397:../../../core/ST/STM32L4xx_HAL_Driver/Src/stm32l4xx_hal_rtc_ex.c ****   /* Change RTC state */
1398:../../../core/ST/STM32L4xx_HAL_Driver/Src/stm32l4xx_hal_rtc_ex.c ****   hrtc->State = HAL_RTC_STATE_READY;
 2268              		.loc 1 1398 3 discriminator 2 view .LVU752
 2269              		.loc 1 1398 15 is_stmt 0 discriminator 2 view .LVU753
 2270 0030 80F82120 		strb	r2, [r0, #33]
1399:../../../core/ST/STM32L4xx_HAL_Driver/Src/stm32l4xx_hal_rtc_ex.c **** 
1400:../../../core/ST/STM32L4xx_HAL_Driver/Src/stm32l4xx_hal_rtc_ex.c ****   /* Process Unlocked */
1401:../../../core/ST/STM32L4xx_HAL_Driver/Src/stm32l4xx_hal_rtc_ex.c ****   __HAL_UNLOCK(hrtc);
 2271              		.loc 1 1401 3 is_stmt 1 discriminator 2 view .LVU754
 2272              		.loc 1 1401 3 discriminator 2 view .LVU755
 2273 0034 0023     		movs	r3, #0
 2274 0036 80F82030 		strb	r3, [r0, #32]
 2275              		.loc 1 1401 3 discriminator 2 view .LVU756
1402:../../../core/ST/STM32L4xx_HAL_Driver/Src/stm32l4xx_hal_rtc_ex.c **** 
1403:../../../core/ST/STM32L4xx_HAL_Driver/Src/stm32l4xx_hal_rtc_ex.c ****   return HAL_OK;
 2276              		.loc 1 1403 3 discriminator 2 view .LVU757
 2277              		.loc 1 1403 10 is_stmt 0 discriminator 2 view .LVU758
 2278 003a 1846     		mov	r0, r3
 2279              	.LVL146:
 2280              		.loc 1 1403 10 discriminator 2 view .LVU759
 2281 003c 7047     		bx	lr
 2282              	.LVL147:
 2283              	.L146:
1385:../../../core/ST/STM32L4xx_HAL_Driver/Src/stm32l4xx_hal_rtc_ex.c **** 
 2284              		.loc 1 1385 3 view .LVU760
 2285 003e 0220     		movs	r0, #2
 2286              	.LVL148:
1404:../../../core/ST/STM32L4xx_HAL_Driver/Src/stm32l4xx_hal_rtc_ex.c **** }
 2287              		.loc 1 1404 1 view .LVU761
 2288 0040 7047     		bx	lr
 2289              		.cfi_endproc
 2290              	.LFE142:
 2292              		.section	.text.HAL_RTCEx_SetRefClock,"ax",%progbits
 2293              		.align	1
 2294              		.global	HAL_RTCEx_SetRefClock
 2295              		.syntax unified
 2296              		.thumb
ARM GAS  C:\Users\tomra\AppData\Local\Temp\ccoul9Yc.s 			page 68


 2297              		.thumb_func
 2298              		.fpu fpv4-sp-d16
 2300              	HAL_RTCEx_SetRefClock:
 2301              	.LVL149:
 2302              	.LFB143:
1405:../../../core/ST/STM32L4xx_HAL_Driver/Src/stm32l4xx_hal_rtc_ex.c **** 
1406:../../../core/ST/STM32L4xx_HAL_Driver/Src/stm32l4xx_hal_rtc_ex.c **** /**
1407:../../../core/ST/STM32L4xx_HAL_Driver/Src/stm32l4xx_hal_rtc_ex.c ****   * @brief  Enable the RTC reference clock detection.
1408:../../../core/ST/STM32L4xx_HAL_Driver/Src/stm32l4xx_hal_rtc_ex.c ****   * @param  hrtc RTC handle
1409:../../../core/ST/STM32L4xx_HAL_Driver/Src/stm32l4xx_hal_rtc_ex.c ****   * @retval HAL status
1410:../../../core/ST/STM32L4xx_HAL_Driver/Src/stm32l4xx_hal_rtc_ex.c ****   */
1411:../../../core/ST/STM32L4xx_HAL_Driver/Src/stm32l4xx_hal_rtc_ex.c **** HAL_StatusTypeDef HAL_RTCEx_SetRefClock(RTC_HandleTypeDef* hrtc)
1412:../../../core/ST/STM32L4xx_HAL_Driver/Src/stm32l4xx_hal_rtc_ex.c **** {
 2303              		.loc 1 1412 1 is_stmt 1 view -0
 2304              		.cfi_startproc
 2305              		@ args = 0, pretend = 0, frame = 0
 2306              		@ frame_needed = 0, uses_anonymous_args = 0
1413:../../../core/ST/STM32L4xx_HAL_Driver/Src/stm32l4xx_hal_rtc_ex.c ****   /* Process Locked */
1414:../../../core/ST/STM32L4xx_HAL_Driver/Src/stm32l4xx_hal_rtc_ex.c ****   __HAL_LOCK(hrtc);
 2307              		.loc 1 1414 3 view .LVU763
 2308              		.loc 1 1414 3 view .LVU764
 2309 0000 90F82030 		ldrb	r3, [r0, #32]	@ zero_extendqisi2
 2310 0004 012B     		cmp	r3, #1
 2311 0006 2FD0     		beq	.L150
1412:../../../core/ST/STM32L4xx_HAL_Driver/Src/stm32l4xx_hal_rtc_ex.c ****   /* Process Locked */
 2312              		.loc 1 1412 1 is_stmt 0 discriminator 2 view .LVU765
 2313 0008 10B5     		push	{r4, lr}
 2314              	.LCFI12:
 2315              		.cfi_def_cfa_offset 8
 2316              		.cfi_offset 4, -8
 2317              		.cfi_offset 14, -4
 2318 000a 0446     		mov	r4, r0
 2319              		.loc 1 1414 3 is_stmt 1 discriminator 2 view .LVU766
 2320 000c 0123     		movs	r3, #1
 2321 000e 80F82030 		strb	r3, [r0, #32]
 2322              		.loc 1 1414 3 discriminator 2 view .LVU767
1415:../../../core/ST/STM32L4xx_HAL_Driver/Src/stm32l4xx_hal_rtc_ex.c **** 
1416:../../../core/ST/STM32L4xx_HAL_Driver/Src/stm32l4xx_hal_rtc_ex.c ****   hrtc->State = HAL_RTC_STATE_BUSY;
 2323              		.loc 1 1416 3 discriminator 2 view .LVU768
 2324              		.loc 1 1416 15 is_stmt 0 discriminator 2 view .LVU769
 2325 0012 0223     		movs	r3, #2
 2326 0014 80F82130 		strb	r3, [r0, #33]
1417:../../../core/ST/STM32L4xx_HAL_Driver/Src/stm32l4xx_hal_rtc_ex.c **** 
1418:../../../core/ST/STM32L4xx_HAL_Driver/Src/stm32l4xx_hal_rtc_ex.c ****   /* Disable the write protection for RTC registers */
1419:../../../core/ST/STM32L4xx_HAL_Driver/Src/stm32l4xx_hal_rtc_ex.c ****   __HAL_RTC_WRITEPROTECTION_DISABLE(hrtc);
 2327              		.loc 1 1419 3 is_stmt 1 discriminator 2 view .LVU770
 2328              		.loc 1 1419 3 discriminator 2 view .LVU771
 2329 0018 0368     		ldr	r3, [r0]
 2330 001a CA22     		movs	r2, #202
 2331 001c 5A62     		str	r2, [r3, #36]
 2332              		.loc 1 1419 3 discriminator 2 view .LVU772
 2333 001e 0368     		ldr	r3, [r0]
 2334 0020 5322     		movs	r2, #83
 2335 0022 5A62     		str	r2, [r3, #36]
 2336              		.loc 1 1419 3 discriminator 2 view .LVU773
1420:../../../core/ST/STM32L4xx_HAL_Driver/Src/stm32l4xx_hal_rtc_ex.c **** 
1421:../../../core/ST/STM32L4xx_HAL_Driver/Src/stm32l4xx_hal_rtc_ex.c ****   /* Set Initialization mode */
ARM GAS  C:\Users\tomra\AppData\Local\Temp\ccoul9Yc.s 			page 69


1422:../../../core/ST/STM32L4xx_HAL_Driver/Src/stm32l4xx_hal_rtc_ex.c ****   if(RTC_EnterInitMode(hrtc) != HAL_OK)
 2337              		.loc 1 1422 3 discriminator 2 view .LVU774
 2338              		.loc 1 1422 6 is_stmt 0 discriminator 2 view .LVU775
 2339 0024 FFF7FEFF 		bl	RTC_EnterInitMode
 2340              	.LVL150:
 2341              		.loc 1 1422 5 discriminator 2 view .LVU776
 2342 0028 98B9     		cbnz	r0, .L155
1423:../../../core/ST/STM32L4xx_HAL_Driver/Src/stm32l4xx_hal_rtc_ex.c ****   {
1424:../../../core/ST/STM32L4xx_HAL_Driver/Src/stm32l4xx_hal_rtc_ex.c ****     /* Enable the write protection for RTC registers */
1425:../../../core/ST/STM32L4xx_HAL_Driver/Src/stm32l4xx_hal_rtc_ex.c ****     __HAL_RTC_WRITEPROTECTION_ENABLE(hrtc);
1426:../../../core/ST/STM32L4xx_HAL_Driver/Src/stm32l4xx_hal_rtc_ex.c **** 
1427:../../../core/ST/STM32L4xx_HAL_Driver/Src/stm32l4xx_hal_rtc_ex.c ****     /* Set RTC state*/
1428:../../../core/ST/STM32L4xx_HAL_Driver/Src/stm32l4xx_hal_rtc_ex.c ****     hrtc->State = HAL_RTC_STATE_ERROR;
1429:../../../core/ST/STM32L4xx_HAL_Driver/Src/stm32l4xx_hal_rtc_ex.c **** 
1430:../../../core/ST/STM32L4xx_HAL_Driver/Src/stm32l4xx_hal_rtc_ex.c ****     /* Process Unlocked */
1431:../../../core/ST/STM32L4xx_HAL_Driver/Src/stm32l4xx_hal_rtc_ex.c ****     __HAL_UNLOCK(hrtc);
1432:../../../core/ST/STM32L4xx_HAL_Driver/Src/stm32l4xx_hal_rtc_ex.c **** 
1433:../../../core/ST/STM32L4xx_HAL_Driver/Src/stm32l4xx_hal_rtc_ex.c ****     return HAL_ERROR;
1434:../../../core/ST/STM32L4xx_HAL_Driver/Src/stm32l4xx_hal_rtc_ex.c ****   }
1435:../../../core/ST/STM32L4xx_HAL_Driver/Src/stm32l4xx_hal_rtc_ex.c ****   else
1436:../../../core/ST/STM32L4xx_HAL_Driver/Src/stm32l4xx_hal_rtc_ex.c ****   {
1437:../../../core/ST/STM32L4xx_HAL_Driver/Src/stm32l4xx_hal_rtc_ex.c ****     __HAL_RTC_CLOCKREF_DETECTION_ENABLE(hrtc);
 2343              		.loc 1 1437 5 is_stmt 1 view .LVU777
 2344 002a 2268     		ldr	r2, [r4]
 2345 002c 9368     		ldr	r3, [r2, #8]
 2346 002e 43F01003 		orr	r3, r3, #16
 2347 0032 9360     		str	r3, [r2, #8]
1438:../../../core/ST/STM32L4xx_HAL_Driver/Src/stm32l4xx_hal_rtc_ex.c **** 
1439:../../../core/ST/STM32L4xx_HAL_Driver/Src/stm32l4xx_hal_rtc_ex.c ****     /* Exit Initialization mode */
1440:../../../core/ST/STM32L4xx_HAL_Driver/Src/stm32l4xx_hal_rtc_ex.c **** #if defined(STM32L412xx) || defined(STM32L422xx)
1441:../../../core/ST/STM32L4xx_HAL_Driver/Src/stm32l4xx_hal_rtc_ex.c ****     hrtc->Instance->ICSR &= (uint32_t)~RTC_ICSR_INIT;
1442:../../../core/ST/STM32L4xx_HAL_Driver/Src/stm32l4xx_hal_rtc_ex.c **** #else
1443:../../../core/ST/STM32L4xx_HAL_Driver/Src/stm32l4xx_hal_rtc_ex.c ****     hrtc->Instance->ISR &= (uint32_t)~RTC_ISR_INIT;
 2348              		.loc 1 1443 5 view .LVU778
 2349              		.loc 1 1443 9 is_stmt 0 view .LVU779
 2350 0034 2268     		ldr	r2, [r4]
 2351              		.loc 1 1443 25 view .LVU780
 2352 0036 D368     		ldr	r3, [r2, #12]
 2353 0038 23F08003 		bic	r3, r3, #128
 2354 003c D360     		str	r3, [r2, #12]
1444:../../../core/ST/STM32L4xx_HAL_Driver/Src/stm32l4xx_hal_rtc_ex.c **** #endif
1445:../../../core/ST/STM32L4xx_HAL_Driver/Src/stm32l4xx_hal_rtc_ex.c ****   }
1446:../../../core/ST/STM32L4xx_HAL_Driver/Src/stm32l4xx_hal_rtc_ex.c **** 
1447:../../../core/ST/STM32L4xx_HAL_Driver/Src/stm32l4xx_hal_rtc_ex.c ****   /* Enable the write protection for RTC registers */
1448:../../../core/ST/STM32L4xx_HAL_Driver/Src/stm32l4xx_hal_rtc_ex.c ****   __HAL_RTC_WRITEPROTECTION_ENABLE(hrtc);
 2355              		.loc 1 1448 3 is_stmt 1 view .LVU781
 2356              		.loc 1 1448 3 view .LVU782
 2357 003e 2368     		ldr	r3, [r4]
 2358 0040 FF22     		movs	r2, #255
 2359 0042 5A62     		str	r2, [r3, #36]
 2360              		.loc 1 1448 3 view .LVU783
1449:../../../core/ST/STM32L4xx_HAL_Driver/Src/stm32l4xx_hal_rtc_ex.c **** 
1450:../../../core/ST/STM32L4xx_HAL_Driver/Src/stm32l4xx_hal_rtc_ex.c ****    /* Change RTC state */
1451:../../../core/ST/STM32L4xx_HAL_Driver/Src/stm32l4xx_hal_rtc_ex.c ****   hrtc->State = HAL_RTC_STATE_READY;
 2361              		.loc 1 1451 3 view .LVU784
 2362              		.loc 1 1451 15 is_stmt 0 view .LVU785
 2363 0044 0123     		movs	r3, #1
ARM GAS  C:\Users\tomra\AppData\Local\Temp\ccoul9Yc.s 			page 70


 2364 0046 84F82130 		strb	r3, [r4, #33]
1452:../../../core/ST/STM32L4xx_HAL_Driver/Src/stm32l4xx_hal_rtc_ex.c **** 
1453:../../../core/ST/STM32L4xx_HAL_Driver/Src/stm32l4xx_hal_rtc_ex.c ****   /* Process Unlocked */
1454:../../../core/ST/STM32L4xx_HAL_Driver/Src/stm32l4xx_hal_rtc_ex.c ****   __HAL_UNLOCK(hrtc);
 2365              		.loc 1 1454 3 is_stmt 1 view .LVU786
 2366              		.loc 1 1454 3 view .LVU787
 2367 004a 0023     		movs	r3, #0
 2368 004c 84F82030 		strb	r3, [r4, #32]
 2369              		.loc 1 1454 3 view .LVU788
1455:../../../core/ST/STM32L4xx_HAL_Driver/Src/stm32l4xx_hal_rtc_ex.c **** 
1456:../../../core/ST/STM32L4xx_HAL_Driver/Src/stm32l4xx_hal_rtc_ex.c ****   return HAL_OK;
 2370              		.loc 1 1456 3 view .LVU789
 2371              	.L148:
1457:../../../core/ST/STM32L4xx_HAL_Driver/Src/stm32l4xx_hal_rtc_ex.c **** }
 2372              		.loc 1 1457 1 is_stmt 0 view .LVU790
 2373 0050 10BD     		pop	{r4, pc}
 2374              	.LVL151:
 2375              	.L155:
1425:../../../core/ST/STM32L4xx_HAL_Driver/Src/stm32l4xx_hal_rtc_ex.c **** 
 2376              		.loc 1 1425 5 is_stmt 1 view .LVU791
1425:../../../core/ST/STM32L4xx_HAL_Driver/Src/stm32l4xx_hal_rtc_ex.c **** 
 2377              		.loc 1 1425 5 view .LVU792
 2378 0052 2368     		ldr	r3, [r4]
 2379 0054 FF22     		movs	r2, #255
 2380 0056 5A62     		str	r2, [r3, #36]
1425:../../../core/ST/STM32L4xx_HAL_Driver/Src/stm32l4xx_hal_rtc_ex.c **** 
 2381              		.loc 1 1425 5 view .LVU793
1428:../../../core/ST/STM32L4xx_HAL_Driver/Src/stm32l4xx_hal_rtc_ex.c **** 
 2382              		.loc 1 1428 5 view .LVU794
1428:../../../core/ST/STM32L4xx_HAL_Driver/Src/stm32l4xx_hal_rtc_ex.c **** 
 2383              		.loc 1 1428 17 is_stmt 0 view .LVU795
 2384 0058 0423     		movs	r3, #4
 2385 005a 84F82130 		strb	r3, [r4, #33]
1431:../../../core/ST/STM32L4xx_HAL_Driver/Src/stm32l4xx_hal_rtc_ex.c **** 
 2386              		.loc 1 1431 5 is_stmt 1 view .LVU796
1431:../../../core/ST/STM32L4xx_HAL_Driver/Src/stm32l4xx_hal_rtc_ex.c **** 
 2387              		.loc 1 1431 5 view .LVU797
 2388 005e 0023     		movs	r3, #0
 2389 0060 84F82030 		strb	r3, [r4, #32]
1431:../../../core/ST/STM32L4xx_HAL_Driver/Src/stm32l4xx_hal_rtc_ex.c **** 
 2390              		.loc 1 1431 5 view .LVU798
1433:../../../core/ST/STM32L4xx_HAL_Driver/Src/stm32l4xx_hal_rtc_ex.c ****   }
 2391              		.loc 1 1433 5 view .LVU799
1433:../../../core/ST/STM32L4xx_HAL_Driver/Src/stm32l4xx_hal_rtc_ex.c ****   }
 2392              		.loc 1 1433 12 is_stmt 0 view .LVU800
 2393 0064 0120     		movs	r0, #1
 2394 0066 F3E7     		b	.L148
 2395              	.LVL152:
 2396              	.L150:
 2397              	.LCFI13:
 2398              		.cfi_def_cfa_offset 0
 2399              		.cfi_restore 4
 2400              		.cfi_restore 14
1414:../../../core/ST/STM32L4xx_HAL_Driver/Src/stm32l4xx_hal_rtc_ex.c **** 
 2401              		.loc 1 1414 3 view .LVU801
 2402 0068 0220     		movs	r0, #2
 2403              	.LVL153:
ARM GAS  C:\Users\tomra\AppData\Local\Temp\ccoul9Yc.s 			page 71


 2404              		.loc 1 1457 1 view .LVU802
 2405 006a 7047     		bx	lr
 2406              		.cfi_endproc
 2407              	.LFE143:
 2409              		.section	.text.HAL_RTCEx_DeactivateRefClock,"ax",%progbits
 2410              		.align	1
 2411              		.global	HAL_RTCEx_DeactivateRefClock
 2412              		.syntax unified
 2413              		.thumb
 2414              		.thumb_func
 2415              		.fpu fpv4-sp-d16
 2417              	HAL_RTCEx_DeactivateRefClock:
 2418              	.LVL154:
 2419              	.LFB144:
1458:../../../core/ST/STM32L4xx_HAL_Driver/Src/stm32l4xx_hal_rtc_ex.c **** 
1459:../../../core/ST/STM32L4xx_HAL_Driver/Src/stm32l4xx_hal_rtc_ex.c **** /**
1460:../../../core/ST/STM32L4xx_HAL_Driver/Src/stm32l4xx_hal_rtc_ex.c ****   * @brief  Disable the RTC reference clock detection.
1461:../../../core/ST/STM32L4xx_HAL_Driver/Src/stm32l4xx_hal_rtc_ex.c ****   * @param  hrtc RTC handle
1462:../../../core/ST/STM32L4xx_HAL_Driver/Src/stm32l4xx_hal_rtc_ex.c ****   * @retval HAL status
1463:../../../core/ST/STM32L4xx_HAL_Driver/Src/stm32l4xx_hal_rtc_ex.c ****   */
1464:../../../core/ST/STM32L4xx_HAL_Driver/Src/stm32l4xx_hal_rtc_ex.c **** HAL_StatusTypeDef HAL_RTCEx_DeactivateRefClock(RTC_HandleTypeDef* hrtc)
1465:../../../core/ST/STM32L4xx_HAL_Driver/Src/stm32l4xx_hal_rtc_ex.c **** {
 2420              		.loc 1 1465 1 is_stmt 1 view -0
 2421              		.cfi_startproc
 2422              		@ args = 0, pretend = 0, frame = 0
 2423              		@ frame_needed = 0, uses_anonymous_args = 0
1466:../../../core/ST/STM32L4xx_HAL_Driver/Src/stm32l4xx_hal_rtc_ex.c ****   /* Process Locked */
1467:../../../core/ST/STM32L4xx_HAL_Driver/Src/stm32l4xx_hal_rtc_ex.c ****   __HAL_LOCK(hrtc);
 2424              		.loc 1 1467 3 view .LVU804
 2425              		.loc 1 1467 3 view .LVU805
 2426 0000 90F82030 		ldrb	r3, [r0, #32]	@ zero_extendqisi2
 2427 0004 012B     		cmp	r3, #1
 2428 0006 2FD0     		beq	.L159
1465:../../../core/ST/STM32L4xx_HAL_Driver/Src/stm32l4xx_hal_rtc_ex.c ****   /* Process Locked */
 2429              		.loc 1 1465 1 is_stmt 0 discriminator 2 view .LVU806
 2430 0008 10B5     		push	{r4, lr}
 2431              	.LCFI14:
 2432              		.cfi_def_cfa_offset 8
 2433              		.cfi_offset 4, -8
 2434              		.cfi_offset 14, -4
 2435 000a 0446     		mov	r4, r0
 2436              		.loc 1 1467 3 is_stmt 1 discriminator 2 view .LVU807
 2437 000c 0123     		movs	r3, #1
 2438 000e 80F82030 		strb	r3, [r0, #32]
 2439              		.loc 1 1467 3 discriminator 2 view .LVU808
1468:../../../core/ST/STM32L4xx_HAL_Driver/Src/stm32l4xx_hal_rtc_ex.c **** 
1469:../../../core/ST/STM32L4xx_HAL_Driver/Src/stm32l4xx_hal_rtc_ex.c ****   hrtc->State = HAL_RTC_STATE_BUSY;
 2440              		.loc 1 1469 3 discriminator 2 view .LVU809
 2441              		.loc 1 1469 15 is_stmt 0 discriminator 2 view .LVU810
 2442 0012 0223     		movs	r3, #2
 2443 0014 80F82130 		strb	r3, [r0, #33]
1470:../../../core/ST/STM32L4xx_HAL_Driver/Src/stm32l4xx_hal_rtc_ex.c **** 
1471:../../../core/ST/STM32L4xx_HAL_Driver/Src/stm32l4xx_hal_rtc_ex.c ****   /* Disable the write protection for RTC registers */
1472:../../../core/ST/STM32L4xx_HAL_Driver/Src/stm32l4xx_hal_rtc_ex.c ****   __HAL_RTC_WRITEPROTECTION_DISABLE(hrtc);
 2444              		.loc 1 1472 3 is_stmt 1 discriminator 2 view .LVU811
 2445              		.loc 1 1472 3 discriminator 2 view .LVU812
 2446 0018 0368     		ldr	r3, [r0]
ARM GAS  C:\Users\tomra\AppData\Local\Temp\ccoul9Yc.s 			page 72


 2447 001a CA22     		movs	r2, #202
 2448 001c 5A62     		str	r2, [r3, #36]
 2449              		.loc 1 1472 3 discriminator 2 view .LVU813
 2450 001e 0368     		ldr	r3, [r0]
 2451 0020 5322     		movs	r2, #83
 2452 0022 5A62     		str	r2, [r3, #36]
 2453              		.loc 1 1472 3 discriminator 2 view .LVU814
1473:../../../core/ST/STM32L4xx_HAL_Driver/Src/stm32l4xx_hal_rtc_ex.c **** 
1474:../../../core/ST/STM32L4xx_HAL_Driver/Src/stm32l4xx_hal_rtc_ex.c ****   /* Set Initialization mode */
1475:../../../core/ST/STM32L4xx_HAL_Driver/Src/stm32l4xx_hal_rtc_ex.c ****   if(RTC_EnterInitMode(hrtc) != HAL_OK)
 2454              		.loc 1 1475 3 discriminator 2 view .LVU815
 2455              		.loc 1 1475 6 is_stmt 0 discriminator 2 view .LVU816
 2456 0024 FFF7FEFF 		bl	RTC_EnterInitMode
 2457              	.LVL155:
 2458              		.loc 1 1475 5 discriminator 2 view .LVU817
 2459 0028 98B9     		cbnz	r0, .L164
1476:../../../core/ST/STM32L4xx_HAL_Driver/Src/stm32l4xx_hal_rtc_ex.c ****   {
1477:../../../core/ST/STM32L4xx_HAL_Driver/Src/stm32l4xx_hal_rtc_ex.c ****     /* Enable the write protection for RTC registers */
1478:../../../core/ST/STM32L4xx_HAL_Driver/Src/stm32l4xx_hal_rtc_ex.c ****     __HAL_RTC_WRITEPROTECTION_ENABLE(hrtc);
1479:../../../core/ST/STM32L4xx_HAL_Driver/Src/stm32l4xx_hal_rtc_ex.c **** 
1480:../../../core/ST/STM32L4xx_HAL_Driver/Src/stm32l4xx_hal_rtc_ex.c ****     /* Set RTC state*/
1481:../../../core/ST/STM32L4xx_HAL_Driver/Src/stm32l4xx_hal_rtc_ex.c ****     hrtc->State = HAL_RTC_STATE_ERROR;
1482:../../../core/ST/STM32L4xx_HAL_Driver/Src/stm32l4xx_hal_rtc_ex.c **** 
1483:../../../core/ST/STM32L4xx_HAL_Driver/Src/stm32l4xx_hal_rtc_ex.c ****     /* Process Unlocked */
1484:../../../core/ST/STM32L4xx_HAL_Driver/Src/stm32l4xx_hal_rtc_ex.c ****     __HAL_UNLOCK(hrtc);
1485:../../../core/ST/STM32L4xx_HAL_Driver/Src/stm32l4xx_hal_rtc_ex.c **** 
1486:../../../core/ST/STM32L4xx_HAL_Driver/Src/stm32l4xx_hal_rtc_ex.c ****     return HAL_ERROR;
1487:../../../core/ST/STM32L4xx_HAL_Driver/Src/stm32l4xx_hal_rtc_ex.c ****   }
1488:../../../core/ST/STM32L4xx_HAL_Driver/Src/stm32l4xx_hal_rtc_ex.c ****   else
1489:../../../core/ST/STM32L4xx_HAL_Driver/Src/stm32l4xx_hal_rtc_ex.c ****   {
1490:../../../core/ST/STM32L4xx_HAL_Driver/Src/stm32l4xx_hal_rtc_ex.c ****     __HAL_RTC_CLOCKREF_DETECTION_DISABLE(hrtc);
 2460              		.loc 1 1490 5 is_stmt 1 view .LVU818
 2461 002a 2268     		ldr	r2, [r4]
 2462 002c 9368     		ldr	r3, [r2, #8]
 2463 002e 23F01003 		bic	r3, r3, #16
 2464 0032 9360     		str	r3, [r2, #8]
1491:../../../core/ST/STM32L4xx_HAL_Driver/Src/stm32l4xx_hal_rtc_ex.c **** 
1492:../../../core/ST/STM32L4xx_HAL_Driver/Src/stm32l4xx_hal_rtc_ex.c ****     /* Exit Initialization mode */
1493:../../../core/ST/STM32L4xx_HAL_Driver/Src/stm32l4xx_hal_rtc_ex.c **** #if defined(STM32L412xx) || defined(STM32L422xx)
1494:../../../core/ST/STM32L4xx_HAL_Driver/Src/stm32l4xx_hal_rtc_ex.c ****     hrtc->Instance->ICSR &= (uint32_t)~RTC_ICSR_INIT;
1495:../../../core/ST/STM32L4xx_HAL_Driver/Src/stm32l4xx_hal_rtc_ex.c **** #else
1496:../../../core/ST/STM32L4xx_HAL_Driver/Src/stm32l4xx_hal_rtc_ex.c ****     hrtc->Instance->ISR &= (uint32_t)~RTC_ISR_INIT;
 2465              		.loc 1 1496 5 view .LVU819
 2466              		.loc 1 1496 9 is_stmt 0 view .LVU820
 2467 0034 2268     		ldr	r2, [r4]
 2468              		.loc 1 1496 25 view .LVU821
 2469 0036 D368     		ldr	r3, [r2, #12]
 2470 0038 23F08003 		bic	r3, r3, #128
 2471 003c D360     		str	r3, [r2, #12]
1497:../../../core/ST/STM32L4xx_HAL_Driver/Src/stm32l4xx_hal_rtc_ex.c **** #endif
1498:../../../core/ST/STM32L4xx_HAL_Driver/Src/stm32l4xx_hal_rtc_ex.c ****   }
1499:../../../core/ST/STM32L4xx_HAL_Driver/Src/stm32l4xx_hal_rtc_ex.c **** 
1500:../../../core/ST/STM32L4xx_HAL_Driver/Src/stm32l4xx_hal_rtc_ex.c ****   /* Enable the write protection for RTC registers */
1501:../../../core/ST/STM32L4xx_HAL_Driver/Src/stm32l4xx_hal_rtc_ex.c ****   __HAL_RTC_WRITEPROTECTION_ENABLE(hrtc);
 2472              		.loc 1 1501 3 is_stmt 1 view .LVU822
 2473              		.loc 1 1501 3 view .LVU823
 2474 003e 2368     		ldr	r3, [r4]
ARM GAS  C:\Users\tomra\AppData\Local\Temp\ccoul9Yc.s 			page 73


 2475 0040 FF22     		movs	r2, #255
 2476 0042 5A62     		str	r2, [r3, #36]
 2477              		.loc 1 1501 3 view .LVU824
1502:../../../core/ST/STM32L4xx_HAL_Driver/Src/stm32l4xx_hal_rtc_ex.c **** 
1503:../../../core/ST/STM32L4xx_HAL_Driver/Src/stm32l4xx_hal_rtc_ex.c ****   /* Change RTC state */
1504:../../../core/ST/STM32L4xx_HAL_Driver/Src/stm32l4xx_hal_rtc_ex.c ****   hrtc->State = HAL_RTC_STATE_READY;
 2478              		.loc 1 1504 3 view .LVU825
 2479              		.loc 1 1504 15 is_stmt 0 view .LVU826
 2480 0044 0123     		movs	r3, #1
 2481 0046 84F82130 		strb	r3, [r4, #33]
1505:../../../core/ST/STM32L4xx_HAL_Driver/Src/stm32l4xx_hal_rtc_ex.c **** 
1506:../../../core/ST/STM32L4xx_HAL_Driver/Src/stm32l4xx_hal_rtc_ex.c ****   /* Process Unlocked */
1507:../../../core/ST/STM32L4xx_HAL_Driver/Src/stm32l4xx_hal_rtc_ex.c ****   __HAL_UNLOCK(hrtc);
 2482              		.loc 1 1507 3 is_stmt 1 view .LVU827
 2483              		.loc 1 1507 3 view .LVU828
 2484 004a 0023     		movs	r3, #0
 2485 004c 84F82030 		strb	r3, [r4, #32]
 2486              		.loc 1 1507 3 view .LVU829
1508:../../../core/ST/STM32L4xx_HAL_Driver/Src/stm32l4xx_hal_rtc_ex.c **** 
1509:../../../core/ST/STM32L4xx_HAL_Driver/Src/stm32l4xx_hal_rtc_ex.c ****   return HAL_OK;
 2487              		.loc 1 1509 3 view .LVU830
 2488              	.L157:
1510:../../../core/ST/STM32L4xx_HAL_Driver/Src/stm32l4xx_hal_rtc_ex.c **** }
 2489              		.loc 1 1510 1 is_stmt 0 view .LVU831
 2490 0050 10BD     		pop	{r4, pc}
 2491              	.LVL156:
 2492              	.L164:
1478:../../../core/ST/STM32L4xx_HAL_Driver/Src/stm32l4xx_hal_rtc_ex.c **** 
 2493              		.loc 1 1478 5 is_stmt 1 view .LVU832
1478:../../../core/ST/STM32L4xx_HAL_Driver/Src/stm32l4xx_hal_rtc_ex.c **** 
 2494              		.loc 1 1478 5 view .LVU833
 2495 0052 2368     		ldr	r3, [r4]
 2496 0054 FF22     		movs	r2, #255
 2497 0056 5A62     		str	r2, [r3, #36]
1478:../../../core/ST/STM32L4xx_HAL_Driver/Src/stm32l4xx_hal_rtc_ex.c **** 
 2498              		.loc 1 1478 5 view .LVU834
1481:../../../core/ST/STM32L4xx_HAL_Driver/Src/stm32l4xx_hal_rtc_ex.c **** 
 2499              		.loc 1 1481 5 view .LVU835
1481:../../../core/ST/STM32L4xx_HAL_Driver/Src/stm32l4xx_hal_rtc_ex.c **** 
 2500              		.loc 1 1481 17 is_stmt 0 view .LVU836
 2501 0058 0423     		movs	r3, #4
 2502 005a 84F82130 		strb	r3, [r4, #33]
1484:../../../core/ST/STM32L4xx_HAL_Driver/Src/stm32l4xx_hal_rtc_ex.c **** 
 2503              		.loc 1 1484 5 is_stmt 1 view .LVU837
1484:../../../core/ST/STM32L4xx_HAL_Driver/Src/stm32l4xx_hal_rtc_ex.c **** 
 2504              		.loc 1 1484 5 view .LVU838
 2505 005e 0023     		movs	r3, #0
 2506 0060 84F82030 		strb	r3, [r4, #32]
1484:../../../core/ST/STM32L4xx_HAL_Driver/Src/stm32l4xx_hal_rtc_ex.c **** 
 2507              		.loc 1 1484 5 view .LVU839
1486:../../../core/ST/STM32L4xx_HAL_Driver/Src/stm32l4xx_hal_rtc_ex.c ****   }
 2508              		.loc 1 1486 5 view .LVU840
1486:../../../core/ST/STM32L4xx_HAL_Driver/Src/stm32l4xx_hal_rtc_ex.c ****   }
 2509              		.loc 1 1486 12 is_stmt 0 view .LVU841
 2510 0064 0120     		movs	r0, #1
 2511 0066 F3E7     		b	.L157
 2512              	.LVL157:
ARM GAS  C:\Users\tomra\AppData\Local\Temp\ccoul9Yc.s 			page 74


 2513              	.L159:
 2514              	.LCFI15:
 2515              		.cfi_def_cfa_offset 0
 2516              		.cfi_restore 4
 2517              		.cfi_restore 14
1467:../../../core/ST/STM32L4xx_HAL_Driver/Src/stm32l4xx_hal_rtc_ex.c **** 
 2518              		.loc 1 1467 3 view .LVU842
 2519 0068 0220     		movs	r0, #2
 2520              	.LVL158:
 2521              		.loc 1 1510 1 view .LVU843
 2522 006a 7047     		bx	lr
 2523              		.cfi_endproc
 2524              	.LFE144:
 2526              		.section	.text.HAL_RTCEx_EnableBypassShadow,"ax",%progbits
 2527              		.align	1
 2528              		.global	HAL_RTCEx_EnableBypassShadow
 2529              		.syntax unified
 2530              		.thumb
 2531              		.thumb_func
 2532              		.fpu fpv4-sp-d16
 2534              	HAL_RTCEx_EnableBypassShadow:
 2535              	.LVL159:
 2536              	.LFB145:
1511:../../../core/ST/STM32L4xx_HAL_Driver/Src/stm32l4xx_hal_rtc_ex.c **** 
1512:../../../core/ST/STM32L4xx_HAL_Driver/Src/stm32l4xx_hal_rtc_ex.c **** /**
1513:../../../core/ST/STM32L4xx_HAL_Driver/Src/stm32l4xx_hal_rtc_ex.c ****   * @brief  Enable the Bypass Shadow feature.
1514:../../../core/ST/STM32L4xx_HAL_Driver/Src/stm32l4xx_hal_rtc_ex.c ****   * @note   When the Bypass Shadow is enabled the calendar value are taken
1515:../../../core/ST/STM32L4xx_HAL_Driver/Src/stm32l4xx_hal_rtc_ex.c ****   *         directly from the Calendar counter.
1516:../../../core/ST/STM32L4xx_HAL_Driver/Src/stm32l4xx_hal_rtc_ex.c ****   * @param  hrtc RTC handle
1517:../../../core/ST/STM32L4xx_HAL_Driver/Src/stm32l4xx_hal_rtc_ex.c ****   * @retval HAL status
1518:../../../core/ST/STM32L4xx_HAL_Driver/Src/stm32l4xx_hal_rtc_ex.c ****   */
1519:../../../core/ST/STM32L4xx_HAL_Driver/Src/stm32l4xx_hal_rtc_ex.c **** HAL_StatusTypeDef HAL_RTCEx_EnableBypassShadow(RTC_HandleTypeDef* hrtc)
1520:../../../core/ST/STM32L4xx_HAL_Driver/Src/stm32l4xx_hal_rtc_ex.c **** {
 2537              		.loc 1 1520 1 is_stmt 1 view -0
 2538              		.cfi_startproc
 2539              		@ args = 0, pretend = 0, frame = 0
 2540              		@ frame_needed = 0, uses_anonymous_args = 0
 2541              		@ link register save eliminated.
1521:../../../core/ST/STM32L4xx_HAL_Driver/Src/stm32l4xx_hal_rtc_ex.c ****   /* Process Locked */
1522:../../../core/ST/STM32L4xx_HAL_Driver/Src/stm32l4xx_hal_rtc_ex.c ****   __HAL_LOCK(hrtc);
 2542              		.loc 1 1522 3 view .LVU845
 2543              		.loc 1 1522 3 view .LVU846
 2544 0000 90F82030 		ldrb	r3, [r0, #32]	@ zero_extendqisi2
 2545 0004 012B     		cmp	r3, #1
 2546 0006 1AD0     		beq	.L167
 2547              		.loc 1 1522 3 discriminator 2 view .LVU847
 2548 0008 0122     		movs	r2, #1
 2549 000a 80F82020 		strb	r2, [r0, #32]
 2550              		.loc 1 1522 3 discriminator 2 view .LVU848
1523:../../../core/ST/STM32L4xx_HAL_Driver/Src/stm32l4xx_hal_rtc_ex.c **** 
1524:../../../core/ST/STM32L4xx_HAL_Driver/Src/stm32l4xx_hal_rtc_ex.c ****   hrtc->State = HAL_RTC_STATE_BUSY;
 2551              		.loc 1 1524 3 discriminator 2 view .LVU849
 2552              		.loc 1 1524 15 is_stmt 0 discriminator 2 view .LVU850
 2553 000e 0223     		movs	r3, #2
 2554 0010 80F82130 		strb	r3, [r0, #33]
1525:../../../core/ST/STM32L4xx_HAL_Driver/Src/stm32l4xx_hal_rtc_ex.c **** 
1526:../../../core/ST/STM32L4xx_HAL_Driver/Src/stm32l4xx_hal_rtc_ex.c ****   /* Disable the write protection for RTC registers */
ARM GAS  C:\Users\tomra\AppData\Local\Temp\ccoul9Yc.s 			page 75


1527:../../../core/ST/STM32L4xx_HAL_Driver/Src/stm32l4xx_hal_rtc_ex.c ****   __HAL_RTC_WRITEPROTECTION_DISABLE(hrtc);
 2555              		.loc 1 1527 3 is_stmt 1 discriminator 2 view .LVU851
 2556              		.loc 1 1527 3 discriminator 2 view .LVU852
 2557 0014 0368     		ldr	r3, [r0]
 2558 0016 CA21     		movs	r1, #202
 2559 0018 5962     		str	r1, [r3, #36]
 2560              		.loc 1 1527 3 discriminator 2 view .LVU853
 2561 001a 0368     		ldr	r3, [r0]
 2562 001c 5321     		movs	r1, #83
 2563 001e 5962     		str	r1, [r3, #36]
 2564              		.loc 1 1527 3 discriminator 2 view .LVU854
1528:../../../core/ST/STM32L4xx_HAL_Driver/Src/stm32l4xx_hal_rtc_ex.c **** 
1529:../../../core/ST/STM32L4xx_HAL_Driver/Src/stm32l4xx_hal_rtc_ex.c ****   /* Set the BYPSHAD bit */
1530:../../../core/ST/STM32L4xx_HAL_Driver/Src/stm32l4xx_hal_rtc_ex.c ****   hrtc->Instance->CR |= (uint8_t)RTC_CR_BYPSHAD;
 2565              		.loc 1 1530 3 discriminator 2 view .LVU855
 2566              		.loc 1 1530 7 is_stmt 0 discriminator 2 view .LVU856
 2567 0020 0168     		ldr	r1, [r0]
 2568              		.loc 1 1530 22 discriminator 2 view .LVU857
 2569 0022 8B68     		ldr	r3, [r1, #8]
 2570 0024 43F02003 		orr	r3, r3, #32
 2571 0028 8B60     		str	r3, [r1, #8]
1531:../../../core/ST/STM32L4xx_HAL_Driver/Src/stm32l4xx_hal_rtc_ex.c **** 
1532:../../../core/ST/STM32L4xx_HAL_Driver/Src/stm32l4xx_hal_rtc_ex.c ****   /* Enable the write protection for RTC registers */
1533:../../../core/ST/STM32L4xx_HAL_Driver/Src/stm32l4xx_hal_rtc_ex.c ****   __HAL_RTC_WRITEPROTECTION_ENABLE(hrtc);
 2572              		.loc 1 1533 3 is_stmt 1 discriminator 2 view .LVU858
 2573              		.loc 1 1533 3 discriminator 2 view .LVU859
 2574 002a 0368     		ldr	r3, [r0]
 2575 002c FF21     		movs	r1, #255
 2576 002e 5962     		str	r1, [r3, #36]
 2577              		.loc 1 1533 3 discriminator 2 view .LVU860
1534:../../../core/ST/STM32L4xx_HAL_Driver/Src/stm32l4xx_hal_rtc_ex.c **** 
1535:../../../core/ST/STM32L4xx_HAL_Driver/Src/stm32l4xx_hal_rtc_ex.c ****   /* Change RTC state */
1536:../../../core/ST/STM32L4xx_HAL_Driver/Src/stm32l4xx_hal_rtc_ex.c ****   hrtc->State = HAL_RTC_STATE_READY;
 2578              		.loc 1 1536 3 discriminator 2 view .LVU861
 2579              		.loc 1 1536 15 is_stmt 0 discriminator 2 view .LVU862
 2580 0030 80F82120 		strb	r2, [r0, #33]
1537:../../../core/ST/STM32L4xx_HAL_Driver/Src/stm32l4xx_hal_rtc_ex.c **** 
1538:../../../core/ST/STM32L4xx_HAL_Driver/Src/stm32l4xx_hal_rtc_ex.c ****   /* Process Unlocked */
1539:../../../core/ST/STM32L4xx_HAL_Driver/Src/stm32l4xx_hal_rtc_ex.c ****   __HAL_UNLOCK(hrtc);
 2581              		.loc 1 1539 3 is_stmt 1 discriminator 2 view .LVU863
 2582              		.loc 1 1539 3 discriminator 2 view .LVU864
 2583 0034 0023     		movs	r3, #0
 2584 0036 80F82030 		strb	r3, [r0, #32]
 2585              		.loc 1 1539 3 discriminator 2 view .LVU865
1540:../../../core/ST/STM32L4xx_HAL_Driver/Src/stm32l4xx_hal_rtc_ex.c **** 
1541:../../../core/ST/STM32L4xx_HAL_Driver/Src/stm32l4xx_hal_rtc_ex.c ****   return HAL_OK;
 2586              		.loc 1 1541 3 discriminator 2 view .LVU866
 2587              		.loc 1 1541 10 is_stmt 0 discriminator 2 view .LVU867
 2588 003a 1846     		mov	r0, r3
 2589              	.LVL160:
 2590              		.loc 1 1541 10 discriminator 2 view .LVU868
 2591 003c 7047     		bx	lr
 2592              	.LVL161:
 2593              	.L167:
1522:../../../core/ST/STM32L4xx_HAL_Driver/Src/stm32l4xx_hal_rtc_ex.c **** 
 2594              		.loc 1 1522 3 view .LVU869
 2595 003e 0220     		movs	r0, #2
ARM GAS  C:\Users\tomra\AppData\Local\Temp\ccoul9Yc.s 			page 76


 2596              	.LVL162:
1542:../../../core/ST/STM32L4xx_HAL_Driver/Src/stm32l4xx_hal_rtc_ex.c **** }
 2597              		.loc 1 1542 1 view .LVU870
 2598 0040 7047     		bx	lr
 2599              		.cfi_endproc
 2600              	.LFE145:
 2602              		.section	.text.HAL_RTCEx_DisableBypassShadow,"ax",%progbits
 2603              		.align	1
 2604              		.global	HAL_RTCEx_DisableBypassShadow
 2605              		.syntax unified
 2606              		.thumb
 2607              		.thumb_func
 2608              		.fpu fpv4-sp-d16
 2610              	HAL_RTCEx_DisableBypassShadow:
 2611              	.LVL163:
 2612              	.LFB146:
1543:../../../core/ST/STM32L4xx_HAL_Driver/Src/stm32l4xx_hal_rtc_ex.c **** 
1544:../../../core/ST/STM32L4xx_HAL_Driver/Src/stm32l4xx_hal_rtc_ex.c **** /**
1545:../../../core/ST/STM32L4xx_HAL_Driver/Src/stm32l4xx_hal_rtc_ex.c ****   * @brief  Disable the Bypass Shadow feature.
1546:../../../core/ST/STM32L4xx_HAL_Driver/Src/stm32l4xx_hal_rtc_ex.c ****   * @note   When the Bypass Shadow is enabled the calendar value are taken
1547:../../../core/ST/STM32L4xx_HAL_Driver/Src/stm32l4xx_hal_rtc_ex.c ****   *         directly from the Calendar counter.
1548:../../../core/ST/STM32L4xx_HAL_Driver/Src/stm32l4xx_hal_rtc_ex.c ****   * @param  hrtc RTC handle
1549:../../../core/ST/STM32L4xx_HAL_Driver/Src/stm32l4xx_hal_rtc_ex.c ****   * @retval HAL status
1550:../../../core/ST/STM32L4xx_HAL_Driver/Src/stm32l4xx_hal_rtc_ex.c ****   */
1551:../../../core/ST/STM32L4xx_HAL_Driver/Src/stm32l4xx_hal_rtc_ex.c **** HAL_StatusTypeDef HAL_RTCEx_DisableBypassShadow(RTC_HandleTypeDef* hrtc)
1552:../../../core/ST/STM32L4xx_HAL_Driver/Src/stm32l4xx_hal_rtc_ex.c **** {
 2613              		.loc 1 1552 1 is_stmt 1 view -0
 2614              		.cfi_startproc
 2615              		@ args = 0, pretend = 0, frame = 0
 2616              		@ frame_needed = 0, uses_anonymous_args = 0
 2617              		@ link register save eliminated.
1553:../../../core/ST/STM32L4xx_HAL_Driver/Src/stm32l4xx_hal_rtc_ex.c ****   /* Process Locked */
1554:../../../core/ST/STM32L4xx_HAL_Driver/Src/stm32l4xx_hal_rtc_ex.c ****   __HAL_LOCK(hrtc);
 2618              		.loc 1 1554 3 view .LVU872
 2619              		.loc 1 1554 3 view .LVU873
 2620 0000 90F82030 		ldrb	r3, [r0, #32]	@ zero_extendqisi2
 2621 0004 012B     		cmp	r3, #1
 2622 0006 1AD0     		beq	.L170
 2623              		.loc 1 1554 3 discriminator 2 view .LVU874
 2624 0008 0122     		movs	r2, #1
 2625 000a 80F82020 		strb	r2, [r0, #32]
 2626              		.loc 1 1554 3 discriminator 2 view .LVU875
1555:../../../core/ST/STM32L4xx_HAL_Driver/Src/stm32l4xx_hal_rtc_ex.c **** 
1556:../../../core/ST/STM32L4xx_HAL_Driver/Src/stm32l4xx_hal_rtc_ex.c ****   hrtc->State = HAL_RTC_STATE_BUSY;
 2627              		.loc 1 1556 3 discriminator 2 view .LVU876
 2628              		.loc 1 1556 15 is_stmt 0 discriminator 2 view .LVU877
 2629 000e 0223     		movs	r3, #2
 2630 0010 80F82130 		strb	r3, [r0, #33]
1557:../../../core/ST/STM32L4xx_HAL_Driver/Src/stm32l4xx_hal_rtc_ex.c **** 
1558:../../../core/ST/STM32L4xx_HAL_Driver/Src/stm32l4xx_hal_rtc_ex.c ****   /* Disable the write protection for RTC registers */
1559:../../../core/ST/STM32L4xx_HAL_Driver/Src/stm32l4xx_hal_rtc_ex.c ****   __HAL_RTC_WRITEPROTECTION_DISABLE(hrtc);
 2631              		.loc 1 1559 3 is_stmt 1 discriminator 2 view .LVU878
 2632              		.loc 1 1559 3 discriminator 2 view .LVU879
 2633 0014 0368     		ldr	r3, [r0]
 2634 0016 CA21     		movs	r1, #202
 2635 0018 5962     		str	r1, [r3, #36]
 2636              		.loc 1 1559 3 discriminator 2 view .LVU880
ARM GAS  C:\Users\tomra\AppData\Local\Temp\ccoul9Yc.s 			page 77


 2637 001a 0368     		ldr	r3, [r0]
 2638 001c 5321     		movs	r1, #83
 2639 001e 5962     		str	r1, [r3, #36]
 2640              		.loc 1 1559 3 discriminator 2 view .LVU881
1560:../../../core/ST/STM32L4xx_HAL_Driver/Src/stm32l4xx_hal_rtc_ex.c **** 
1561:../../../core/ST/STM32L4xx_HAL_Driver/Src/stm32l4xx_hal_rtc_ex.c ****   /* Reset the BYPSHAD bit */
1562:../../../core/ST/STM32L4xx_HAL_Driver/Src/stm32l4xx_hal_rtc_ex.c ****   hrtc->Instance->CR &= ((uint8_t)~RTC_CR_BYPSHAD);
 2641              		.loc 1 1562 3 discriminator 2 view .LVU882
 2642              		.loc 1 1562 7 is_stmt 0 discriminator 2 view .LVU883
 2643 0020 0168     		ldr	r1, [r0]
 2644              		.loc 1 1562 22 discriminator 2 view .LVU884
 2645 0022 8B68     		ldr	r3, [r1, #8]
 2646 0024 03F0DF03 		and	r3, r3, #223
 2647 0028 8B60     		str	r3, [r1, #8]
1563:../../../core/ST/STM32L4xx_HAL_Driver/Src/stm32l4xx_hal_rtc_ex.c **** 
1564:../../../core/ST/STM32L4xx_HAL_Driver/Src/stm32l4xx_hal_rtc_ex.c ****   /* Enable the write protection for RTC registers */
1565:../../../core/ST/STM32L4xx_HAL_Driver/Src/stm32l4xx_hal_rtc_ex.c ****   __HAL_RTC_WRITEPROTECTION_ENABLE(hrtc);
 2648              		.loc 1 1565 3 is_stmt 1 discriminator 2 view .LVU885
 2649              		.loc 1 1565 3 discriminator 2 view .LVU886
 2650 002a 0368     		ldr	r3, [r0]
 2651 002c FF21     		movs	r1, #255
 2652 002e 5962     		str	r1, [r3, #36]
 2653              		.loc 1 1565 3 discriminator 2 view .LVU887
1566:../../../core/ST/STM32L4xx_HAL_Driver/Src/stm32l4xx_hal_rtc_ex.c **** 
1567:../../../core/ST/STM32L4xx_HAL_Driver/Src/stm32l4xx_hal_rtc_ex.c ****   /* Change RTC state */
1568:../../../core/ST/STM32L4xx_HAL_Driver/Src/stm32l4xx_hal_rtc_ex.c ****   hrtc->State = HAL_RTC_STATE_READY;
 2654              		.loc 1 1568 3 discriminator 2 view .LVU888
 2655              		.loc 1 1568 15 is_stmt 0 discriminator 2 view .LVU889
 2656 0030 80F82120 		strb	r2, [r0, #33]
1569:../../../core/ST/STM32L4xx_HAL_Driver/Src/stm32l4xx_hal_rtc_ex.c **** 
1570:../../../core/ST/STM32L4xx_HAL_Driver/Src/stm32l4xx_hal_rtc_ex.c ****   /* Process Unlocked */
1571:../../../core/ST/STM32L4xx_HAL_Driver/Src/stm32l4xx_hal_rtc_ex.c ****   __HAL_UNLOCK(hrtc);
 2657              		.loc 1 1571 3 is_stmt 1 discriminator 2 view .LVU890
 2658              		.loc 1 1571 3 discriminator 2 view .LVU891
 2659 0034 0023     		movs	r3, #0
 2660 0036 80F82030 		strb	r3, [r0, #32]
 2661              		.loc 1 1571 3 discriminator 2 view .LVU892
1572:../../../core/ST/STM32L4xx_HAL_Driver/Src/stm32l4xx_hal_rtc_ex.c **** 
1573:../../../core/ST/STM32L4xx_HAL_Driver/Src/stm32l4xx_hal_rtc_ex.c ****   return HAL_OK;
 2662              		.loc 1 1573 3 discriminator 2 view .LVU893
 2663              		.loc 1 1573 10 is_stmt 0 discriminator 2 view .LVU894
 2664 003a 1846     		mov	r0, r3
 2665              	.LVL164:
 2666              		.loc 1 1573 10 discriminator 2 view .LVU895
 2667 003c 7047     		bx	lr
 2668              	.LVL165:
 2669              	.L170:
1554:../../../core/ST/STM32L4xx_HAL_Driver/Src/stm32l4xx_hal_rtc_ex.c **** 
 2670              		.loc 1 1554 3 view .LVU896
 2671 003e 0220     		movs	r0, #2
 2672              	.LVL166:
1574:../../../core/ST/STM32L4xx_HAL_Driver/Src/stm32l4xx_hal_rtc_ex.c **** }
 2673              		.loc 1 1574 1 view .LVU897
 2674 0040 7047     		bx	lr
 2675              		.cfi_endproc
 2676              	.LFE146:
 2678              		.section	.text.HAL_RTCEx_AlarmBEventCallback,"ax",%progbits
ARM GAS  C:\Users\tomra\AppData\Local\Temp\ccoul9Yc.s 			page 78


 2679              		.align	1
 2680              		.weak	HAL_RTCEx_AlarmBEventCallback
 2681              		.syntax unified
 2682              		.thumb
 2683              		.thumb_func
 2684              		.fpu fpv4-sp-d16
 2686              	HAL_RTCEx_AlarmBEventCallback:
 2687              	.LVL167:
 2688              	.LFB147:
1575:../../../core/ST/STM32L4xx_HAL_Driver/Src/stm32l4xx_hal_rtc_ex.c **** 
1576:../../../core/ST/STM32L4xx_HAL_Driver/Src/stm32l4xx_hal_rtc_ex.c **** /**
1577:../../../core/ST/STM32L4xx_HAL_Driver/Src/stm32l4xx_hal_rtc_ex.c ****   * @}
1578:../../../core/ST/STM32L4xx_HAL_Driver/Src/stm32l4xx_hal_rtc_ex.c ****   */
1579:../../../core/ST/STM32L4xx_HAL_Driver/Src/stm32l4xx_hal_rtc_ex.c **** 
1580:../../../core/ST/STM32L4xx_HAL_Driver/Src/stm32l4xx_hal_rtc_ex.c **** /** @addtogroup RTCEx_Exported_Functions_Group4
1581:../../../core/ST/STM32L4xx_HAL_Driver/Src/stm32l4xx_hal_rtc_ex.c ****   * @brief    Extended features functions
1582:../../../core/ST/STM32L4xx_HAL_Driver/Src/stm32l4xx_hal_rtc_ex.c ****   *
1583:../../../core/ST/STM32L4xx_HAL_Driver/Src/stm32l4xx_hal_rtc_ex.c **** @verbatim
1584:../../../core/ST/STM32L4xx_HAL_Driver/Src/stm32l4xx_hal_rtc_ex.c ****  ===============================================================================
1585:../../../core/ST/STM32L4xx_HAL_Driver/Src/stm32l4xx_hal_rtc_ex.c ****                  ##### Extended features functions #####
1586:../../../core/ST/STM32L4xx_HAL_Driver/Src/stm32l4xx_hal_rtc_ex.c ****  ===============================================================================
1587:../../../core/ST/STM32L4xx_HAL_Driver/Src/stm32l4xx_hal_rtc_ex.c ****     [..]  This section provides functions allowing to:
1588:../../../core/ST/STM32L4xx_HAL_Driver/Src/stm32l4xx_hal_rtc_ex.c ****       (+) RTC Alarm B callback
1589:../../../core/ST/STM32L4xx_HAL_Driver/Src/stm32l4xx_hal_rtc_ex.c ****       (+) RTC Poll for Alarm B request
1590:../../../core/ST/STM32L4xx_HAL_Driver/Src/stm32l4xx_hal_rtc_ex.c **** 
1591:../../../core/ST/STM32L4xx_HAL_Driver/Src/stm32l4xx_hal_rtc_ex.c **** @endverbatim
1592:../../../core/ST/STM32L4xx_HAL_Driver/Src/stm32l4xx_hal_rtc_ex.c ****   * @{
1593:../../../core/ST/STM32L4xx_HAL_Driver/Src/stm32l4xx_hal_rtc_ex.c ****   */
1594:../../../core/ST/STM32L4xx_HAL_Driver/Src/stm32l4xx_hal_rtc_ex.c **** 
1595:../../../core/ST/STM32L4xx_HAL_Driver/Src/stm32l4xx_hal_rtc_ex.c **** /**
1596:../../../core/ST/STM32L4xx_HAL_Driver/Src/stm32l4xx_hal_rtc_ex.c ****   * @brief  Alarm B callback.
1597:../../../core/ST/STM32L4xx_HAL_Driver/Src/stm32l4xx_hal_rtc_ex.c ****   * @param  hrtc RTC handle
1598:../../../core/ST/STM32L4xx_HAL_Driver/Src/stm32l4xx_hal_rtc_ex.c ****   * @retval None
1599:../../../core/ST/STM32L4xx_HAL_Driver/Src/stm32l4xx_hal_rtc_ex.c ****   */
1600:../../../core/ST/STM32L4xx_HAL_Driver/Src/stm32l4xx_hal_rtc_ex.c **** __weak void HAL_RTCEx_AlarmBEventCallback(RTC_HandleTypeDef *hrtc)
1601:../../../core/ST/STM32L4xx_HAL_Driver/Src/stm32l4xx_hal_rtc_ex.c **** {
 2689              		.loc 1 1601 1 is_stmt 1 view -0
 2690              		.cfi_startproc
 2691              		@ args = 0, pretend = 0, frame = 0
 2692              		@ frame_needed = 0, uses_anonymous_args = 0
 2693              		@ link register save eliminated.
1602:../../../core/ST/STM32L4xx_HAL_Driver/Src/stm32l4xx_hal_rtc_ex.c ****   /* Prevent unused argument(s) compilation warning */
1603:../../../core/ST/STM32L4xx_HAL_Driver/Src/stm32l4xx_hal_rtc_ex.c ****   UNUSED(hrtc);
 2694              		.loc 1 1603 3 view .LVU899
1604:../../../core/ST/STM32L4xx_HAL_Driver/Src/stm32l4xx_hal_rtc_ex.c **** 
1605:../../../core/ST/STM32L4xx_HAL_Driver/Src/stm32l4xx_hal_rtc_ex.c ****   /* NOTE : This function should not be modified, when the callback is needed,
1606:../../../core/ST/STM32L4xx_HAL_Driver/Src/stm32l4xx_hal_rtc_ex.c ****             the HAL_RTCEx_AlarmBEventCallback could be implemented in the user file
1607:../../../core/ST/STM32L4xx_HAL_Driver/Src/stm32l4xx_hal_rtc_ex.c ****    */
1608:../../../core/ST/STM32L4xx_HAL_Driver/Src/stm32l4xx_hal_rtc_ex.c **** }
 2695              		.loc 1 1608 1 is_stmt 0 view .LVU900
 2696 0000 7047     		bx	lr
 2697              		.cfi_endproc
 2698              	.LFE147:
 2700              		.section	.text.HAL_RTCEx_PollForAlarmBEvent,"ax",%progbits
 2701              		.align	1
 2702              		.global	HAL_RTCEx_PollForAlarmBEvent
 2703              		.syntax unified
ARM GAS  C:\Users\tomra\AppData\Local\Temp\ccoul9Yc.s 			page 79


 2704              		.thumb
 2705              		.thumb_func
 2706              		.fpu fpv4-sp-d16
 2708              	HAL_RTCEx_PollForAlarmBEvent:
 2709              	.LVL168:
 2710              	.LFB148:
1609:../../../core/ST/STM32L4xx_HAL_Driver/Src/stm32l4xx_hal_rtc_ex.c **** 
1610:../../../core/ST/STM32L4xx_HAL_Driver/Src/stm32l4xx_hal_rtc_ex.c **** /**
1611:../../../core/ST/STM32L4xx_HAL_Driver/Src/stm32l4xx_hal_rtc_ex.c ****   * @brief  Handle Alarm B Polling request.
1612:../../../core/ST/STM32L4xx_HAL_Driver/Src/stm32l4xx_hal_rtc_ex.c ****   * @param  hrtc RTC handle
1613:../../../core/ST/STM32L4xx_HAL_Driver/Src/stm32l4xx_hal_rtc_ex.c ****   * @param  Timeout Timeout duration
1614:../../../core/ST/STM32L4xx_HAL_Driver/Src/stm32l4xx_hal_rtc_ex.c ****   * @retval HAL status
1615:../../../core/ST/STM32L4xx_HAL_Driver/Src/stm32l4xx_hal_rtc_ex.c ****   */
1616:../../../core/ST/STM32L4xx_HAL_Driver/Src/stm32l4xx_hal_rtc_ex.c **** HAL_StatusTypeDef HAL_RTCEx_PollForAlarmBEvent(RTC_HandleTypeDef *hrtc, uint32_t Timeout)
1617:../../../core/ST/STM32L4xx_HAL_Driver/Src/stm32l4xx_hal_rtc_ex.c **** {
 2711              		.loc 1 1617 1 is_stmt 1 view -0
 2712              		.cfi_startproc
 2713              		@ args = 0, pretend = 0, frame = 0
 2714              		@ frame_needed = 0, uses_anonymous_args = 0
 2715              		.loc 1 1617 1 is_stmt 0 view .LVU902
 2716 0000 70B5     		push	{r4, r5, r6, lr}
 2717              	.LCFI16:
 2718              		.cfi_def_cfa_offset 16
 2719              		.cfi_offset 4, -16
 2720              		.cfi_offset 5, -12
 2721              		.cfi_offset 6, -8
 2722              		.cfi_offset 14, -4
 2723 0002 0446     		mov	r4, r0
 2724 0004 0D46     		mov	r5, r1
1618:../../../core/ST/STM32L4xx_HAL_Driver/Src/stm32l4xx_hal_rtc_ex.c ****   uint32_t tickstart = HAL_GetTick();
 2725              		.loc 1 1618 3 is_stmt 1 view .LVU903
 2726              		.loc 1 1618 24 is_stmt 0 view .LVU904
 2727 0006 FFF7FEFF 		bl	HAL_GetTick
 2728              	.LVL169:
 2729              		.loc 1 1618 24 view .LVU905
 2730 000a 0646     		mov	r6, r0
 2731              	.LVL170:
1619:../../../core/ST/STM32L4xx_HAL_Driver/Src/stm32l4xx_hal_rtc_ex.c **** 
1620:../../../core/ST/STM32L4xx_HAL_Driver/Src/stm32l4xx_hal_rtc_ex.c ****   while(__HAL_RTC_ALARM_GET_FLAG(hrtc, RTC_FLAG_ALRBF) == 0U)
 2732              		.loc 1 1620 3 is_stmt 1 view .LVU906
 2733              	.L174:
 2734              		.loc 1 1620 8 view .LVU907
 2735              		.loc 1 1620 9 is_stmt 0 view .LVU908
 2736 000c 2368     		ldr	r3, [r4]
 2737 000e DA68     		ldr	r2, [r3, #12]
 2738              		.loc 1 1620 8 view .LVU909
 2739 0010 12F4007F 		tst	r2, #512
 2740 0014 0DD1     		bne	.L179
1621:../../../core/ST/STM32L4xx_HAL_Driver/Src/stm32l4xx_hal_rtc_ex.c ****   {
1622:../../../core/ST/STM32L4xx_HAL_Driver/Src/stm32l4xx_hal_rtc_ex.c ****     if(Timeout != HAL_MAX_DELAY)
 2741              		.loc 1 1622 5 is_stmt 1 view .LVU910
 2742              		.loc 1 1622 7 is_stmt 0 view .LVU911
 2743 0016 B5F1FF3F 		cmp	r5, #-1
 2744 001a F7D0     		beq	.L174
1623:../../../core/ST/STM32L4xx_HAL_Driver/Src/stm32l4xx_hal_rtc_ex.c ****     {
1624:../../../core/ST/STM32L4xx_HAL_Driver/Src/stm32l4xx_hal_rtc_ex.c ****       if(((HAL_GetTick() - tickstart ) > Timeout)||(Timeout == 0U))
 2745              		.loc 1 1624 7 is_stmt 1 view .LVU912
ARM GAS  C:\Users\tomra\AppData\Local\Temp\ccoul9Yc.s 			page 80


 2746              		.loc 1 1624 12 is_stmt 0 view .LVU913
 2747 001c FFF7FEFF 		bl	HAL_GetTick
 2748              	.LVL171:
 2749              		.loc 1 1624 26 view .LVU914
 2750 0020 801B     		subs	r0, r0, r6
 2751              		.loc 1 1624 9 view .LVU915
 2752 0022 A842     		cmp	r0, r5
 2753 0024 01D8     		bhi	.L175
 2754              		.loc 1 1624 50 discriminator 1 view .LVU916
 2755 0026 002D     		cmp	r5, #0
 2756 0028 F0D1     		bne	.L174
 2757              	.L175:
1625:../../../core/ST/STM32L4xx_HAL_Driver/Src/stm32l4xx_hal_rtc_ex.c ****       {
1626:../../../core/ST/STM32L4xx_HAL_Driver/Src/stm32l4xx_hal_rtc_ex.c ****         hrtc->State = HAL_RTC_STATE_TIMEOUT;
 2758              		.loc 1 1626 9 is_stmt 1 view .LVU917
 2759              		.loc 1 1626 21 is_stmt 0 view .LVU918
 2760 002a 0320     		movs	r0, #3
 2761 002c 84F82100 		strb	r0, [r4, #33]
1627:../../../core/ST/STM32L4xx_HAL_Driver/Src/stm32l4xx_hal_rtc_ex.c ****         return HAL_TIMEOUT;
 2762              		.loc 1 1627 9 is_stmt 1 view .LVU919
 2763              		.loc 1 1627 16 is_stmt 0 view .LVU920
 2764 0030 08E0     		b	.L176
 2765              	.L179:
1628:../../../core/ST/STM32L4xx_HAL_Driver/Src/stm32l4xx_hal_rtc_ex.c ****       }
1629:../../../core/ST/STM32L4xx_HAL_Driver/Src/stm32l4xx_hal_rtc_ex.c ****     }
1630:../../../core/ST/STM32L4xx_HAL_Driver/Src/stm32l4xx_hal_rtc_ex.c ****   }
1631:../../../core/ST/STM32L4xx_HAL_Driver/Src/stm32l4xx_hal_rtc_ex.c **** 
1632:../../../core/ST/STM32L4xx_HAL_Driver/Src/stm32l4xx_hal_rtc_ex.c ****   /* Clear the Alarm Flag */
1633:../../../core/ST/STM32L4xx_HAL_Driver/Src/stm32l4xx_hal_rtc_ex.c ****   __HAL_RTC_ALARM_CLEAR_FLAG(hrtc, RTC_FLAG_ALRBF);
 2766              		.loc 1 1633 3 is_stmt 1 view .LVU921
 2767 0032 DA68     		ldr	r2, [r3, #12]
 2768 0034 D2B2     		uxtb	r2, r2
 2769 0036 62F42072 		orn	r2, r2, #640
 2770 003a DA60     		str	r2, [r3, #12]
1634:../../../core/ST/STM32L4xx_HAL_Driver/Src/stm32l4xx_hal_rtc_ex.c **** 
1635:../../../core/ST/STM32L4xx_HAL_Driver/Src/stm32l4xx_hal_rtc_ex.c ****   /* Change RTC state */
1636:../../../core/ST/STM32L4xx_HAL_Driver/Src/stm32l4xx_hal_rtc_ex.c ****   hrtc->State = HAL_RTC_STATE_READY;
 2771              		.loc 1 1636 3 view .LVU922
 2772              		.loc 1 1636 15 is_stmt 0 view .LVU923
 2773 003c 0123     		movs	r3, #1
 2774 003e 84F82130 		strb	r3, [r4, #33]
1637:../../../core/ST/STM32L4xx_HAL_Driver/Src/stm32l4xx_hal_rtc_ex.c **** 
1638:../../../core/ST/STM32L4xx_HAL_Driver/Src/stm32l4xx_hal_rtc_ex.c ****   return HAL_OK;
 2775              		.loc 1 1638 3 is_stmt 1 view .LVU924
 2776              		.loc 1 1638 10 is_stmt 0 view .LVU925
 2777 0042 0020     		movs	r0, #0
 2778              	.L176:
1639:../../../core/ST/STM32L4xx_HAL_Driver/Src/stm32l4xx_hal_rtc_ex.c **** }
 2779              		.loc 1 1639 1 view .LVU926
 2780 0044 70BD     		pop	{r4, r5, r6, pc}
 2781              		.loc 1 1639 1 view .LVU927
 2782              		.cfi_endproc
 2783              	.LFE148:
 2785              		.section	.text.HAL_RTCEx_SetTamper,"ax",%progbits
 2786              		.align	1
 2787              		.global	HAL_RTCEx_SetTamper
 2788              		.syntax unified
ARM GAS  C:\Users\tomra\AppData\Local\Temp\ccoul9Yc.s 			page 81


 2789              		.thumb
 2790              		.thumb_func
 2791              		.fpu fpv4-sp-d16
 2793              	HAL_RTCEx_SetTamper:
 2794              	.LVL172:
 2795              	.LFB149:
1640:../../../core/ST/STM32L4xx_HAL_Driver/Src/stm32l4xx_hal_rtc_ex.c **** 
1641:../../../core/ST/STM32L4xx_HAL_Driver/Src/stm32l4xx_hal_rtc_ex.c **** /**
1642:../../../core/ST/STM32L4xx_HAL_Driver/Src/stm32l4xx_hal_rtc_ex.c ****   * @}
1643:../../../core/ST/STM32L4xx_HAL_Driver/Src/stm32l4xx_hal_rtc_ex.c ****   */
1644:../../../core/ST/STM32L4xx_HAL_Driver/Src/stm32l4xx_hal_rtc_ex.c **** 
1645:../../../core/ST/STM32L4xx_HAL_Driver/Src/stm32l4xx_hal_rtc_ex.c **** /** @addtogroup RTCEx_Exported_Functions_Group5
1646:../../../core/ST/STM32L4xx_HAL_Driver/Src/stm32l4xx_hal_rtc_ex.c ****   * @brief      Extended RTC Tamper functions
1647:../../../core/ST/STM32L4xx_HAL_Driver/Src/stm32l4xx_hal_rtc_ex.c ****   *
1648:../../../core/ST/STM32L4xx_HAL_Driver/Src/stm32l4xx_hal_rtc_ex.c **** @verbatim
1649:../../../core/ST/STM32L4xx_HAL_Driver/Src/stm32l4xx_hal_rtc_ex.c ****   ==============================================================================
1650:../../../core/ST/STM32L4xx_HAL_Driver/Src/stm32l4xx_hal_rtc_ex.c ****                          ##### Tamper functions #####
1651:../../../core/ST/STM32L4xx_HAL_Driver/Src/stm32l4xx_hal_rtc_ex.c ****   ==============================================================================
1652:../../../core/ST/STM32L4xx_HAL_Driver/Src/stm32l4xx_hal_rtc_ex.c ****   [..]
1653:../../../core/ST/STM32L4xx_HAL_Driver/Src/stm32l4xx_hal_rtc_ex.c ****    (+) Before calling any tamper or internal tamper function, you have to call first
1654:../../../core/ST/STM32L4xx_HAL_Driver/Src/stm32l4xx_hal_rtc_ex.c ****        HAL_RTC_Init() function.
1655:../../../core/ST/STM32L4xx_HAL_Driver/Src/stm32l4xx_hal_rtc_ex.c ****    (+) In that ine you can select to output tamper event on RTC pin.
1656:../../../core/ST/STM32L4xx_HAL_Driver/Src/stm32l4xx_hal_rtc_ex.c ****   [..]
1657:../../../core/ST/STM32L4xx_HAL_Driver/Src/stm32l4xx_hal_rtc_ex.c ****    (+) Enable the Tamper and configure the Tamper filter count, trigger Edge
1658:../../../core/ST/STM32L4xx_HAL_Driver/Src/stm32l4xx_hal_rtc_ex.c ****        or Level according to the Tamper filter (if equal to 0 Edge else Level)
1659:../../../core/ST/STM32L4xx_HAL_Driver/Src/stm32l4xx_hal_rtc_ex.c ****        value, sampling frequency, NoErase, MaskFlag, precharge or discharge and
1660:../../../core/ST/STM32L4xx_HAL_Driver/Src/stm32l4xx_hal_rtc_ex.c ****        Pull-UP, timestamp using the HAL_RTCEx_SetTamper() function.
1661:../../../core/ST/STM32L4xx_HAL_Driver/Src/stm32l4xx_hal_rtc_ex.c ****        You can configure Tamper with interrupt mode using HAL_RTCEx_SetTamper_IT() function.
1662:../../../core/ST/STM32L4xx_HAL_Driver/Src/stm32l4xx_hal_rtc_ex.c ****    (+) The default configuration of the Tamper erases the backup registers. To avoid
1663:../../../core/ST/STM32L4xx_HAL_Driver/Src/stm32l4xx_hal_rtc_ex.c ****        erase, enable the NoErase field on the TAMP_TAMPCR register.
1664:../../../core/ST/STM32L4xx_HAL_Driver/Src/stm32l4xx_hal_rtc_ex.c ****   [..]
1665:../../../core/ST/STM32L4xx_HAL_Driver/Src/stm32l4xx_hal_rtc_ex.c ****    (+) Enable Internal Tamper and configure it with interrupt, timestamp using
1666:../../../core/ST/STM32L4xx_HAL_Driver/Src/stm32l4xx_hal_rtc_ex.c ****        the HAL_RTCEx_SetInternalTamper() function.
1667:../../../core/ST/STM32L4xx_HAL_Driver/Src/stm32l4xx_hal_rtc_ex.c **** 
1668:../../../core/ST/STM32L4xx_HAL_Driver/Src/stm32l4xx_hal_rtc_ex.c **** @endverbatim
1669:../../../core/ST/STM32L4xx_HAL_Driver/Src/stm32l4xx_hal_rtc_ex.c ****   * @{
1670:../../../core/ST/STM32L4xx_HAL_Driver/Src/stm32l4xx_hal_rtc_ex.c ****   */
1671:../../../core/ST/STM32L4xx_HAL_Driver/Src/stm32l4xx_hal_rtc_ex.c **** 
1672:../../../core/ST/STM32L4xx_HAL_Driver/Src/stm32l4xx_hal_rtc_ex.c **** #if defined(STM32L412xx) || defined(STM32L422xx)
1673:../../../core/ST/STM32L4xx_HAL_Driver/Src/stm32l4xx_hal_rtc_ex.c **** /**
1674:../../../core/ST/STM32L4xx_HAL_Driver/Src/stm32l4xx_hal_rtc_ex.c ****   * @brief  Set Tamper
1675:../../../core/ST/STM32L4xx_HAL_Driver/Src/stm32l4xx_hal_rtc_ex.c ****   * @param  hrtc RTC handle
1676:../../../core/ST/STM32L4xx_HAL_Driver/Src/stm32l4xx_hal_rtc_ex.c ****   * @param  sTamper Pointer to Tamper Structure.
1677:../../../core/ST/STM32L4xx_HAL_Driver/Src/stm32l4xx_hal_rtc_ex.c ****   * @retval HAL status
1678:../../../core/ST/STM32L4xx_HAL_Driver/Src/stm32l4xx_hal_rtc_ex.c ****   */
1679:../../../core/ST/STM32L4xx_HAL_Driver/Src/stm32l4xx_hal_rtc_ex.c **** HAL_StatusTypeDef HAL_RTCEx_SetTamper(RTC_HandleTypeDef *hrtc, RTC_TamperTypeDef* sTamper)
1680:../../../core/ST/STM32L4xx_HAL_Driver/Src/stm32l4xx_hal_rtc_ex.c **** {
1681:../../../core/ST/STM32L4xx_HAL_Driver/Src/stm32l4xx_hal_rtc_ex.c ****   uint32_t tmpreg;
1682:../../../core/ST/STM32L4xx_HAL_Driver/Src/stm32l4xx_hal_rtc_ex.c ****   /* Process TAMP instance pointer */
1683:../../../core/ST/STM32L4xx_HAL_Driver/Src/stm32l4xx_hal_rtc_ex.c ****   TAMP_TypeDef *tamp = (TAMP_TypeDef *)((uint32_t)hrtc->Instance + hrtc->TampOffset);
1684:../../../core/ST/STM32L4xx_HAL_Driver/Src/stm32l4xx_hal_rtc_ex.c **** 
1685:../../../core/ST/STM32L4xx_HAL_Driver/Src/stm32l4xx_hal_rtc_ex.c ****   /* Check the parameters */
1686:../../../core/ST/STM32L4xx_HAL_Driver/Src/stm32l4xx_hal_rtc_ex.c ****   assert_param(IS_RTC_TAMPER(sTamper->Tamper));
1687:../../../core/ST/STM32L4xx_HAL_Driver/Src/stm32l4xx_hal_rtc_ex.c ****   assert_param(IS_RTC_TAMPER_TRIGGER(sTamper->Trigger));
1688:../../../core/ST/STM32L4xx_HAL_Driver/Src/stm32l4xx_hal_rtc_ex.c ****   assert_param(IS_RTC_TAMPER_ERASE_MODE(sTamper->NoErase));
1689:../../../core/ST/STM32L4xx_HAL_Driver/Src/stm32l4xx_hal_rtc_ex.c ****   assert_param(IS_RTC_TAMPER_MASKFLAG_STATE(sTamper->MaskFlag));
1690:../../../core/ST/STM32L4xx_HAL_Driver/Src/stm32l4xx_hal_rtc_ex.c ****   assert_param(IS_RTC_TAMPER_TIMESTAMPONTAMPER_DETECTION(sTamper->TimeStampOnTamperDetection));
ARM GAS  C:\Users\tomra\AppData\Local\Temp\ccoul9Yc.s 			page 82


1691:../../../core/ST/STM32L4xx_HAL_Driver/Src/stm32l4xx_hal_rtc_ex.c ****   assert_param(IS_RTC_TAMPER_FILTER(sTamper->Filter));
1692:../../../core/ST/STM32L4xx_HAL_Driver/Src/stm32l4xx_hal_rtc_ex.c ****   assert_param(IS_RTC_TAMPER_SAMPLING_FREQ(sTamper->SamplingFrequency));
1693:../../../core/ST/STM32L4xx_HAL_Driver/Src/stm32l4xx_hal_rtc_ex.c ****   assert_param(IS_RTC_TAMPER_PRECHARGE_DURATION(sTamper->PrechargeDuration));
1694:../../../core/ST/STM32L4xx_HAL_Driver/Src/stm32l4xx_hal_rtc_ex.c ****   assert_param(IS_RTC_TAMPER_PULLUP_STATE(sTamper->TamperPullUp));
1695:../../../core/ST/STM32L4xx_HAL_Driver/Src/stm32l4xx_hal_rtc_ex.c ****   /* Trigger and Filter have exclusive configurations */
1696:../../../core/ST/STM32L4xx_HAL_Driver/Src/stm32l4xx_hal_rtc_ex.c ****   assert_param(((sTamper->Filter != RTC_TAMPERFILTER_DISABLE) && ((sTamper->Trigger == RTC_TAMPERTR
1697:../../../core/ST/STM32L4xx_HAL_Driver/Src/stm32l4xx_hal_rtc_ex.c ****             || ((sTamper->Filter == RTC_TAMPERFILTER_DISABLE) && ((sTamper->Trigger == RTC_TAMPERTR
1698:../../../core/ST/STM32L4xx_HAL_Driver/Src/stm32l4xx_hal_rtc_ex.c **** 
1699:../../../core/ST/STM32L4xx_HAL_Driver/Src/stm32l4xx_hal_rtc_ex.c ****   /* Configuration register 2 */
1700:../../../core/ST/STM32L4xx_HAL_Driver/Src/stm32l4xx_hal_rtc_ex.c ****   tmpreg = tamp->CR2;
1701:../../../core/ST/STM32L4xx_HAL_Driver/Src/stm32l4xx_hal_rtc_ex.c ****   tmpreg &= ~((sTamper->Tamper << TAMP_CR2_TAMP1TRG_Pos) | (sTamper->Tamper << TAMP_CR2_TAMP1MSK_Po
1702:../../../core/ST/STM32L4xx_HAL_Driver/Src/stm32l4xx_hal_rtc_ex.c **** 
1703:../../../core/ST/STM32L4xx_HAL_Driver/Src/stm32l4xx_hal_rtc_ex.c ****   /* Configure the tamper trigger bit */
1704:../../../core/ST/STM32L4xx_HAL_Driver/Src/stm32l4xx_hal_rtc_ex.c ****   if((sTamper->Trigger == RTC_TAMPERTRIGGER_HIGHLEVEL) || (sTamper->Trigger == RTC_TAMPERTRIGGER_FA
1705:../../../core/ST/STM32L4xx_HAL_Driver/Src/stm32l4xx_hal_rtc_ex.c ****   {
1706:../../../core/ST/STM32L4xx_HAL_Driver/Src/stm32l4xx_hal_rtc_ex.c ****     tmpreg |= (sTamper->Tamper << TAMP_CR2_TAMP1TRG_Pos);
1707:../../../core/ST/STM32L4xx_HAL_Driver/Src/stm32l4xx_hal_rtc_ex.c ****   }
1708:../../../core/ST/STM32L4xx_HAL_Driver/Src/stm32l4xx_hal_rtc_ex.c **** 
1709:../../../core/ST/STM32L4xx_HAL_Driver/Src/stm32l4xx_hal_rtc_ex.c ****   /* Configure the tamper flags masking bit */
1710:../../../core/ST/STM32L4xx_HAL_Driver/Src/stm32l4xx_hal_rtc_ex.c ****   if(sTamper->MaskFlag != RTC_TAMPERMASK_FLAG_DISABLE)
1711:../../../core/ST/STM32L4xx_HAL_Driver/Src/stm32l4xx_hal_rtc_ex.c ****   {
1712:../../../core/ST/STM32L4xx_HAL_Driver/Src/stm32l4xx_hal_rtc_ex.c ****     tmpreg |= (sTamper->Tamper << TAMP_CR2_TAMP1MSK_Pos);
1713:../../../core/ST/STM32L4xx_HAL_Driver/Src/stm32l4xx_hal_rtc_ex.c ****   }
1714:../../../core/ST/STM32L4xx_HAL_Driver/Src/stm32l4xx_hal_rtc_ex.c **** 
1715:../../../core/ST/STM32L4xx_HAL_Driver/Src/stm32l4xx_hal_rtc_ex.c ****   /* Configure the tamper backup registers erasure bit */
1716:../../../core/ST/STM32L4xx_HAL_Driver/Src/stm32l4xx_hal_rtc_ex.c ****   if(sTamper->NoErase != RTC_TAMPER_ERASE_BACKUP_ENABLE)
1717:../../../core/ST/STM32L4xx_HAL_Driver/Src/stm32l4xx_hal_rtc_ex.c ****   {
1718:../../../core/ST/STM32L4xx_HAL_Driver/Src/stm32l4xx_hal_rtc_ex.c ****     tmpreg |= (sTamper->Tamper << TAMP_CR2_TAMP1NOERASE_Pos);
1719:../../../core/ST/STM32L4xx_HAL_Driver/Src/stm32l4xx_hal_rtc_ex.c ****   }
1720:../../../core/ST/STM32L4xx_HAL_Driver/Src/stm32l4xx_hal_rtc_ex.c ****   tamp->CR2 = tmpreg;
1721:../../../core/ST/STM32L4xx_HAL_Driver/Src/stm32l4xx_hal_rtc_ex.c **** 
1722:../../../core/ST/STM32L4xx_HAL_Driver/Src/stm32l4xx_hal_rtc_ex.c ****   /* Configure filtering parameters */
1723:../../../core/ST/STM32L4xx_HAL_Driver/Src/stm32l4xx_hal_rtc_ex.c ****   tamp->FLTCR = (sTamper->Filter) | (sTamper->SamplingFrequency) | \
1724:../../../core/ST/STM32L4xx_HAL_Driver/Src/stm32l4xx_hal_rtc_ex.c ****                  (sTamper->PrechargeDuration) | (sTamper->TamperPullUp);
1725:../../../core/ST/STM32L4xx_HAL_Driver/Src/stm32l4xx_hal_rtc_ex.c **** 
1726:../../../core/ST/STM32L4xx_HAL_Driver/Src/stm32l4xx_hal_rtc_ex.c ****   /* Configure Timestamp saving on tamper detection */
1727:../../../core/ST/STM32L4xx_HAL_Driver/Src/stm32l4xx_hal_rtc_ex.c ****   if((hrtc->Instance->CR & RTC_CR_TAMPTS) != (sTamper->TimeStampOnTamperDetection))
1728:../../../core/ST/STM32L4xx_HAL_Driver/Src/stm32l4xx_hal_rtc_ex.c ****   {
1729:../../../core/ST/STM32L4xx_HAL_Driver/Src/stm32l4xx_hal_rtc_ex.c ****     __HAL_RTC_WRITEPROTECTION_DISABLE(hrtc);
1730:../../../core/ST/STM32L4xx_HAL_Driver/Src/stm32l4xx_hal_rtc_ex.c ****     tmpreg = (hrtc->Instance->CR & ~RTC_CR_TAMPTS);
1731:../../../core/ST/STM32L4xx_HAL_Driver/Src/stm32l4xx_hal_rtc_ex.c ****     hrtc->Instance->CR = (tmpreg | (sTamper->TimeStampOnTamperDetection));
1732:../../../core/ST/STM32L4xx_HAL_Driver/Src/stm32l4xx_hal_rtc_ex.c ****     __HAL_RTC_WRITEPROTECTION_ENABLE(hrtc);
1733:../../../core/ST/STM32L4xx_HAL_Driver/Src/stm32l4xx_hal_rtc_ex.c ****   }
1734:../../../core/ST/STM32L4xx_HAL_Driver/Src/stm32l4xx_hal_rtc_ex.c **** 
1735:../../../core/ST/STM32L4xx_HAL_Driver/Src/stm32l4xx_hal_rtc_ex.c ****   /* Enable selected tamper */
1736:../../../core/ST/STM32L4xx_HAL_Driver/Src/stm32l4xx_hal_rtc_ex.c ****   tamp->CR1 |= (sTamper->Tamper);
1737:../../../core/ST/STM32L4xx_HAL_Driver/Src/stm32l4xx_hal_rtc_ex.c **** 
1738:../../../core/ST/STM32L4xx_HAL_Driver/Src/stm32l4xx_hal_rtc_ex.c ****   return HAL_OK;
1739:../../../core/ST/STM32L4xx_HAL_Driver/Src/stm32l4xx_hal_rtc_ex.c **** }
1740:../../../core/ST/STM32L4xx_HAL_Driver/Src/stm32l4xx_hal_rtc_ex.c **** #else /* #if defined(STM32L412xx) || defined(STM32L422xx) */
1741:../../../core/ST/STM32L4xx_HAL_Driver/Src/stm32l4xx_hal_rtc_ex.c **** /**
1742:../../../core/ST/STM32L4xx_HAL_Driver/Src/stm32l4xx_hal_rtc_ex.c ****   * @brief  Set Tamper.
1743:../../../core/ST/STM32L4xx_HAL_Driver/Src/stm32l4xx_hal_rtc_ex.c ****   * @note   By calling this API we disable the tamper interrupt for all tampers.
1744:../../../core/ST/STM32L4xx_HAL_Driver/Src/stm32l4xx_hal_rtc_ex.c ****   * @param  hrtc RTC handle
1745:../../../core/ST/STM32L4xx_HAL_Driver/Src/stm32l4xx_hal_rtc_ex.c ****   * @param  sTamper Pointer to Tamper Structure.
1746:../../../core/ST/STM32L4xx_HAL_Driver/Src/stm32l4xx_hal_rtc_ex.c ****   * @retval HAL status
1747:../../../core/ST/STM32L4xx_HAL_Driver/Src/stm32l4xx_hal_rtc_ex.c ****   */
ARM GAS  C:\Users\tomra\AppData\Local\Temp\ccoul9Yc.s 			page 83


1748:../../../core/ST/STM32L4xx_HAL_Driver/Src/stm32l4xx_hal_rtc_ex.c **** HAL_StatusTypeDef HAL_RTCEx_SetTamper(RTC_HandleTypeDef *hrtc, RTC_TamperTypeDef* sTamper)
1749:../../../core/ST/STM32L4xx_HAL_Driver/Src/stm32l4xx_hal_rtc_ex.c **** {
 2796              		.loc 1 1749 1 is_stmt 1 view -0
 2797              		.cfi_startproc
 2798              		@ args = 0, pretend = 0, frame = 0
 2799              		@ frame_needed = 0, uses_anonymous_args = 0
 2800              		.loc 1 1749 1 is_stmt 0 view .LVU929
 2801 0000 38B5     		push	{r3, r4, r5, lr}
 2802              	.LCFI17:
 2803              		.cfi_def_cfa_offset 16
 2804              		.cfi_offset 3, -16
 2805              		.cfi_offset 4, -12
 2806              		.cfi_offset 5, -8
 2807              		.cfi_offset 14, -4
 2808 0002 0546     		mov	r5, r0
 2809 0004 0C46     		mov	r4, r1
1750:../../../core/ST/STM32L4xx_HAL_Driver/Src/stm32l4xx_hal_rtc_ex.c ****   uint32_t tmpreg;
 2810              		.loc 1 1750 3 is_stmt 1 view .LVU930
1751:../../../core/ST/STM32L4xx_HAL_Driver/Src/stm32l4xx_hal_rtc_ex.c **** 
1752:../../../core/ST/STM32L4xx_HAL_Driver/Src/stm32l4xx_hal_rtc_ex.c ****   /* Check the parameters */
1753:../../../core/ST/STM32L4xx_HAL_Driver/Src/stm32l4xx_hal_rtc_ex.c ****   assert_param(IS_RTC_TAMPER(sTamper->Tamper));
 2811              		.loc 1 1753 3 view .LVU931
 2812 0006 0B68     		ldr	r3, [r1]
 2813 0008 33F02902 		bics	r2, r3, #41
 2814 000c 00D1     		bne	.L181
 2815              		.loc 1 1753 3 is_stmt 0 discriminator 2 view .LVU932
 2816 000e 23B9     		cbnz	r3, .L182
 2817              	.L181:
 2818              		.loc 1 1753 3 discriminator 3 view .LVU933
 2819 0010 40F2D961 		movw	r1, #1753
 2820              	.LVL173:
 2821              		.loc 1 1753 3 discriminator 3 view .LVU934
 2822 0014 7448     		ldr	r0, .L209
 2823              	.LVL174:
 2824              		.loc 1 1753 3 discriminator 3 view .LVU935
 2825 0016 FFF7FEFF 		bl	assert_failed
 2826              	.LVL175:
 2827              	.L182:
1754:../../../core/ST/STM32L4xx_HAL_Driver/Src/stm32l4xx_hal_rtc_ex.c ****   assert_param(IS_RTC_TAMPER_TRIGGER(sTamper->Trigger));
 2828              		.loc 1 1754 3 is_stmt 1 view .LVU936
 2829 001a A368     		ldr	r3, [r4, #8]
 2830 001c 13B1     		cbz	r3, .L183
 2831              		.loc 1 1754 3 is_stmt 0 discriminator 1 view .LVU937
 2832 001e 022B     		cmp	r3, #2
 2833 0020 40F0B080 		bne	.L201
 2834              	.L183:
1755:../../../core/ST/STM32L4xx_HAL_Driver/Src/stm32l4xx_hal_rtc_ex.c ****   assert_param(IS_RTC_TAMPER_ERASE_MODE(sTamper->NoErase));
 2835              		.loc 1 1755 3 is_stmt 1 view .LVU938
 2836 0024 E368     		ldr	r3, [r4, #12]
 2837 0026 1BB1     		cbz	r3, .L184
 2838              		.loc 1 1755 3 is_stmt 0 discriminator 1 view .LVU939
 2839 0028 B3F5003F 		cmp	r3, #131072
 2840 002c 40F0B080 		bne	.L202
 2841              	.L184:
1756:../../../core/ST/STM32L4xx_HAL_Driver/Src/stm32l4xx_hal_rtc_ex.c ****   assert_param(IS_RTC_TAMPER_MASKFLAG_STATE(sTamper->MaskFlag));
 2842              		.loc 1 1756 3 is_stmt 1 view .LVU940
 2843 0030 2369     		ldr	r3, [r4, #16]
ARM GAS  C:\Users\tomra\AppData\Local\Temp\ccoul9Yc.s 			page 84


 2844 0032 B3F5802F 		cmp	r3, #262144
 2845 0036 02D0     		beq	.L185
 2846              		.loc 1 1756 3 is_stmt 0 discriminator 1 view .LVU941
 2847 0038 002B     		cmp	r3, #0
 2848 003a 40F0AF80 		bne	.L203
 2849              	.L185:
1757:../../../core/ST/STM32L4xx_HAL_Driver/Src/stm32l4xx_hal_rtc_ex.c ****   assert_param(IS_RTC_TAMPER_FILTER(sTamper->Filter));
 2850              		.loc 1 1757 3 is_stmt 1 view .LVU942
 2851 003e 6369     		ldr	r3, [r4, #20]
 2852 0040 4BB1     		cbz	r3, .L186
 2853              		.loc 1 1757 3 is_stmt 0 discriminator 1 view .LVU943
 2854 0042 B3F5006F 		cmp	r3, #2048
 2855 0046 06D0     		beq	.L186
 2856              		.loc 1 1757 3 discriminator 2 view .LVU944
 2857 0048 B3F5805F 		cmp	r3, #4096
 2858 004c 03D0     		beq	.L186
 2859              		.loc 1 1757 3 discriminator 3 view .LVU945
 2860 004e B3F5C05F 		cmp	r3, #6144
 2861 0052 40F0A980 		bne	.L204
 2862              	.L186:
1758:../../../core/ST/STM32L4xx_HAL_Driver/Src/stm32l4xx_hal_rtc_ex.c ****   assert_param(IS_RTC_TAMPER_SAMPLING_FREQ(sTamper->SamplingFrequency));
 2863              		.loc 1 1758 3 is_stmt 1 view .LVU946
 2864 0056 A369     		ldr	r3, [r4, #24]
 2865 0058 ABB1     		cbz	r3, .L187
 2866              		.loc 1 1758 3 is_stmt 0 discriminator 1 view .LVU947
 2867 005a B3F5807F 		cmp	r3, #256
 2868 005e 12D0     		beq	.L187
 2869              		.loc 1 1758 3 discriminator 2 view .LVU948
 2870 0060 B3F5007F 		cmp	r3, #512
 2871 0064 0FD0     		beq	.L187
 2872              		.loc 1 1758 3 discriminator 3 view .LVU949
 2873 0066 B3F5407F 		cmp	r3, #768
 2874 006a 0CD0     		beq	.L187
 2875              		.loc 1 1758 3 discriminator 4 view .LVU950
 2876 006c B3F5806F 		cmp	r3, #1024
 2877 0070 09D0     		beq	.L187
 2878              		.loc 1 1758 3 discriminator 5 view .LVU951
 2879 0072 B3F5A06F 		cmp	r3, #1280
 2880 0076 06D0     		beq	.L187
 2881              		.loc 1 1758 3 discriminator 6 view .LVU952
 2882 0078 B3F5C06F 		cmp	r3, #1536
 2883 007c 03D0     		beq	.L187
 2884              		.loc 1 1758 3 discriminator 7 view .LVU953
 2885 007e B3F5E06F 		cmp	r3, #1792
 2886 0082 40F09780 		bne	.L205
 2887              	.L187:
1759:../../../core/ST/STM32L4xx_HAL_Driver/Src/stm32l4xx_hal_rtc_ex.c ****   assert_param(IS_RTC_TAMPER_PRECHARGE_DURATION(sTamper->PrechargeDuration));
 2888              		.loc 1 1759 3 is_stmt 1 view .LVU954
 2889 0086 E369     		ldr	r3, [r4, #28]
 2890 0088 4BB1     		cbz	r3, .L188
 2891              		.loc 1 1759 3 is_stmt 0 discriminator 1 view .LVU955
 2892 008a B3F5005F 		cmp	r3, #8192
 2893 008e 06D0     		beq	.L188
 2894              		.loc 1 1759 3 discriminator 2 view .LVU956
 2895 0090 B3F5804F 		cmp	r3, #16384
 2896 0094 03D0     		beq	.L188
 2897              		.loc 1 1759 3 discriminator 3 view .LVU957
ARM GAS  C:\Users\tomra\AppData\Local\Temp\ccoul9Yc.s 			page 85


 2898 0096 B3F5C04F 		cmp	r3, #24576
 2899 009a 40F09180 		bne	.L206
 2900              	.L188:
1760:../../../core/ST/STM32L4xx_HAL_Driver/Src/stm32l4xx_hal_rtc_ex.c ****   assert_param(IS_RTC_TAMPER_PULLUP_STATE(sTamper->TamperPullUp));
 2901              		.loc 1 1760 3 is_stmt 1 view .LVU958
 2902 009e 236A     		ldr	r3, [r4, #32]
 2903 00a0 1BB1     		cbz	r3, .L189
 2904              		.loc 1 1760 3 is_stmt 0 discriminator 1 view .LVU959
 2905 00a2 B3F5004F 		cmp	r3, #32768
 2906 00a6 40F09180 		bne	.L207
 2907              	.L189:
1761:../../../core/ST/STM32L4xx_HAL_Driver/Src/stm32l4xx_hal_rtc_ex.c ****   assert_param(IS_RTC_TAMPER_TIMESTAMPONTAMPER_DETECTION(sTamper->TimeStampOnTamperDetection));
 2908              		.loc 1 1761 3 is_stmt 1 view .LVU960
 2909 00aa 636A     		ldr	r3, [r4, #36]
 2910 00ac 802B     		cmp	r3, #128
 2911 00ae 02D0     		beq	.L190
 2912              		.loc 1 1761 3 is_stmt 0 discriminator 1 view .LVU961
 2913 00b0 002B     		cmp	r3, #0
 2914 00b2 40F09180 		bne	.L208
 2915              	.L190:
1762:../../../core/ST/STM32L4xx_HAL_Driver/Src/stm32l4xx_hal_rtc_ex.c **** 
1763:../../../core/ST/STM32L4xx_HAL_Driver/Src/stm32l4xx_hal_rtc_ex.c ****   /* Process Locked */
1764:../../../core/ST/STM32L4xx_HAL_Driver/Src/stm32l4xx_hal_rtc_ex.c ****   __HAL_LOCK(hrtc);
 2916              		.loc 1 1764 3 is_stmt 1 view .LVU962
 2917              		.loc 1 1764 3 view .LVU963
 2918 00b6 95F82030 		ldrb	r3, [r5, #32]	@ zero_extendqisi2
 2919 00ba 012B     		cmp	r3, #1
 2920 00bc 00F09280 		beq	.L199
 2921              		.loc 1 1764 3 discriminator 2 view .LVU964
 2922 00c0 0123     		movs	r3, #1
 2923 00c2 85F82030 		strb	r3, [r5, #32]
 2924              		.loc 1 1764 3 discriminator 2 view .LVU965
1765:../../../core/ST/STM32L4xx_HAL_Driver/Src/stm32l4xx_hal_rtc_ex.c **** 
1766:../../../core/ST/STM32L4xx_HAL_Driver/Src/stm32l4xx_hal_rtc_ex.c ****   hrtc->State = HAL_RTC_STATE_BUSY;
 2925              		.loc 1 1766 3 discriminator 2 view .LVU966
 2926              		.loc 1 1766 15 is_stmt 0 discriminator 2 view .LVU967
 2927 00c6 0223     		movs	r3, #2
 2928 00c8 85F82130 		strb	r3, [r5, #33]
1767:../../../core/ST/STM32L4xx_HAL_Driver/Src/stm32l4xx_hal_rtc_ex.c **** 
1768:../../../core/ST/STM32L4xx_HAL_Driver/Src/stm32l4xx_hal_rtc_ex.c ****   /* Configure the tamper trigger */
1769:../../../core/ST/STM32L4xx_HAL_Driver/Src/stm32l4xx_hal_rtc_ex.c ****   if(sTamper->Trigger != RTC_TAMPERTRIGGER_RISINGEDGE)
 2929              		.loc 1 1769 3 is_stmt 1 discriminator 2 view .LVU968
 2930              		.loc 1 1769 13 is_stmt 0 discriminator 2 view .LVU969
 2931 00cc A368     		ldr	r3, [r4, #8]
 2932              		.loc 1 1769 5 discriminator 2 view .LVU970
 2933 00ce 13B1     		cbz	r3, .L192
1770:../../../core/ST/STM32L4xx_HAL_Driver/Src/stm32l4xx_hal_rtc_ex.c ****   {
1771:../../../core/ST/STM32L4xx_HAL_Driver/Src/stm32l4xx_hal_rtc_ex.c ****     sTamper->Trigger = (uint32_t)(sTamper->Tamper << 1);
 2934              		.loc 1 1771 5 is_stmt 1 view .LVU971
 2935              		.loc 1 1771 42 is_stmt 0 view .LVU972
 2936 00d0 2368     		ldr	r3, [r4]
 2937              		.loc 1 1771 51 view .LVU973
 2938 00d2 5B00     		lsls	r3, r3, #1
 2939              		.loc 1 1771 22 view .LVU974
 2940 00d4 A360     		str	r3, [r4, #8]
 2941              	.L192:
1772:../../../core/ST/STM32L4xx_HAL_Driver/Src/stm32l4xx_hal_rtc_ex.c ****   }
ARM GAS  C:\Users\tomra\AppData\Local\Temp\ccoul9Yc.s 			page 86


1773:../../../core/ST/STM32L4xx_HAL_Driver/Src/stm32l4xx_hal_rtc_ex.c **** 
1774:../../../core/ST/STM32L4xx_HAL_Driver/Src/stm32l4xx_hal_rtc_ex.c ****   if(sTamper->NoErase != RTC_TAMPER_ERASE_BACKUP_ENABLE)
 2942              		.loc 1 1774 3 is_stmt 1 view .LVU975
 2943              		.loc 1 1774 13 is_stmt 0 view .LVU976
 2944 00d6 E368     		ldr	r3, [r4, #12]
 2945              		.loc 1 1774 5 view .LVU977
 2946 00d8 B3B1     		cbz	r3, .L193
1775:../../../core/ST/STM32L4xx_HAL_Driver/Src/stm32l4xx_hal_rtc_ex.c ****   {
1776:../../../core/ST/STM32L4xx_HAL_Driver/Src/stm32l4xx_hal_rtc_ex.c ****     sTamper->NoErase = 0;
 2947              		.loc 1 1776 5 is_stmt 1 view .LVU978
 2948              		.loc 1 1776 22 is_stmt 0 view .LVU979
 2949 00da 0023     		movs	r3, #0
 2950 00dc E360     		str	r3, [r4, #12]
1777:../../../core/ST/STM32L4xx_HAL_Driver/Src/stm32l4xx_hal_rtc_ex.c **** #if defined(RTC_TAMPER1_SUPPORT)
1778:../../../core/ST/STM32L4xx_HAL_Driver/Src/stm32l4xx_hal_rtc_ex.c ****     if((sTamper->Tamper & RTC_TAMPER_1) != 0)
 2951              		.loc 1 1778 5 is_stmt 1 view .LVU980
 2952              		.loc 1 1778 16 is_stmt 0 view .LVU981
 2953 00de 2368     		ldr	r3, [r4]
 2954              		.loc 1 1778 7 view .LVU982
 2955 00e0 13F0010F 		tst	r3, #1
 2956 00e4 02D0     		beq	.L194
1779:../../../core/ST/STM32L4xx_HAL_Driver/Src/stm32l4xx_hal_rtc_ex.c ****     {
1780:../../../core/ST/STM32L4xx_HAL_Driver/Src/stm32l4xx_hal_rtc_ex.c ****       sTamper->NoErase |= RTC_TAMPCR_TAMP1NOERASE;
 2957              		.loc 1 1780 7 is_stmt 1 view .LVU983
 2958              		.loc 1 1780 24 is_stmt 0 view .LVU984
 2959 00e6 4FF40032 		mov	r2, #131072
 2960 00ea E260     		str	r2, [r4, #12]
 2961              	.L194:
1781:../../../core/ST/STM32L4xx_HAL_Driver/Src/stm32l4xx_hal_rtc_ex.c ****     }
1782:../../../core/ST/STM32L4xx_HAL_Driver/Src/stm32l4xx_hal_rtc_ex.c **** #endif /* RTC_TAMPER1_SUPPORT */
1783:../../../core/ST/STM32L4xx_HAL_Driver/Src/stm32l4xx_hal_rtc_ex.c ****     if((sTamper->Tamper & RTC_TAMPER_2) != 0)
 2962              		.loc 1 1783 5 is_stmt 1 view .LVU985
 2963              		.loc 1 1783 7 is_stmt 0 view .LVU986
 2964 00ec 13F0080F 		tst	r3, #8
 2965 00f0 03D0     		beq	.L195
1784:../../../core/ST/STM32L4xx_HAL_Driver/Src/stm32l4xx_hal_rtc_ex.c ****     {
1785:../../../core/ST/STM32L4xx_HAL_Driver/Src/stm32l4xx_hal_rtc_ex.c ****       sTamper->NoErase |= RTC_TAMPCR_TAMP2NOERASE;
 2966              		.loc 1 1785 7 is_stmt 1 view .LVU987
 2967              		.loc 1 1785 24 is_stmt 0 view .LVU988
 2968 00f2 E268     		ldr	r2, [r4, #12]
 2969 00f4 42F48012 		orr	r2, r2, #1048576
 2970 00f8 E260     		str	r2, [r4, #12]
 2971              	.L195:
1786:../../../core/ST/STM32L4xx_HAL_Driver/Src/stm32l4xx_hal_rtc_ex.c ****     }
1787:../../../core/ST/STM32L4xx_HAL_Driver/Src/stm32l4xx_hal_rtc_ex.c **** #if defined(RTC_TAMPER3_SUPPORT)
1788:../../../core/ST/STM32L4xx_HAL_Driver/Src/stm32l4xx_hal_rtc_ex.c ****     if((sTamper->Tamper & RTC_TAMPER_3) != 0)
 2972              		.loc 1 1788 5 is_stmt 1 view .LVU989
 2973              		.loc 1 1788 7 is_stmt 0 view .LVU990
 2974 00fa 13F0200F 		tst	r3, #32
 2975 00fe 03D0     		beq	.L193
1789:../../../core/ST/STM32L4xx_HAL_Driver/Src/stm32l4xx_hal_rtc_ex.c ****     {
1790:../../../core/ST/STM32L4xx_HAL_Driver/Src/stm32l4xx_hal_rtc_ex.c ****       sTamper->NoErase |= RTC_TAMPCR_TAMP3NOERASE;
 2976              		.loc 1 1790 7 is_stmt 1 view .LVU991
 2977              		.loc 1 1790 24 is_stmt 0 view .LVU992
 2978 0100 E368     		ldr	r3, [r4, #12]
 2979 0102 43F40003 		orr	r3, r3, #8388608
 2980 0106 E360     		str	r3, [r4, #12]
ARM GAS  C:\Users\tomra\AppData\Local\Temp\ccoul9Yc.s 			page 87


 2981              	.L193:
1791:../../../core/ST/STM32L4xx_HAL_Driver/Src/stm32l4xx_hal_rtc_ex.c ****     }
1792:../../../core/ST/STM32L4xx_HAL_Driver/Src/stm32l4xx_hal_rtc_ex.c **** #endif /* RTC_TAMPER3_SUPPORT */
1793:../../../core/ST/STM32L4xx_HAL_Driver/Src/stm32l4xx_hal_rtc_ex.c ****   }
1794:../../../core/ST/STM32L4xx_HAL_Driver/Src/stm32l4xx_hal_rtc_ex.c **** 
1795:../../../core/ST/STM32L4xx_HAL_Driver/Src/stm32l4xx_hal_rtc_ex.c ****   if(sTamper->MaskFlag != RTC_TAMPERMASK_FLAG_DISABLE)
 2982              		.loc 1 1795 3 is_stmt 1 view .LVU993
 2983              		.loc 1 1795 13 is_stmt 0 view .LVU994
 2984 0108 2369     		ldr	r3, [r4, #16]
 2985              		.loc 1 1795 5 view .LVU995
 2986 010a B3B1     		cbz	r3, .L196
1796:../../../core/ST/STM32L4xx_HAL_Driver/Src/stm32l4xx_hal_rtc_ex.c ****   {
1797:../../../core/ST/STM32L4xx_HAL_Driver/Src/stm32l4xx_hal_rtc_ex.c ****     sTamper->MaskFlag = 0;
 2987              		.loc 1 1797 5 is_stmt 1 view .LVU996
 2988              		.loc 1 1797 23 is_stmt 0 view .LVU997
 2989 010c 0023     		movs	r3, #0
 2990 010e 2361     		str	r3, [r4, #16]
1798:../../../core/ST/STM32L4xx_HAL_Driver/Src/stm32l4xx_hal_rtc_ex.c **** #if defined(RTC_TAMPER1_SUPPORT)
1799:../../../core/ST/STM32L4xx_HAL_Driver/Src/stm32l4xx_hal_rtc_ex.c ****     if((sTamper->Tamper & RTC_TAMPER_1) != 0)
 2991              		.loc 1 1799 5 is_stmt 1 view .LVU998
 2992              		.loc 1 1799 16 is_stmt 0 view .LVU999
 2993 0110 2368     		ldr	r3, [r4]
 2994              		.loc 1 1799 7 view .LVU1000
 2995 0112 13F0010F 		tst	r3, #1
 2996 0116 02D0     		beq	.L197
1800:../../../core/ST/STM32L4xx_HAL_Driver/Src/stm32l4xx_hal_rtc_ex.c ****     {
1801:../../../core/ST/STM32L4xx_HAL_Driver/Src/stm32l4xx_hal_rtc_ex.c ****       sTamper->MaskFlag |= RTC_TAMPCR_TAMP1MF;
 2997              		.loc 1 1801 7 is_stmt 1 view .LVU1001
 2998              		.loc 1 1801 25 is_stmt 0 view .LVU1002
 2999 0118 4FF48022 		mov	r2, #262144
 3000 011c 2261     		str	r2, [r4, #16]
 3001              	.L197:
1802:../../../core/ST/STM32L4xx_HAL_Driver/Src/stm32l4xx_hal_rtc_ex.c ****     }
1803:../../../core/ST/STM32L4xx_HAL_Driver/Src/stm32l4xx_hal_rtc_ex.c **** #endif /* RTC_TAMPER1_SUPPORT */
1804:../../../core/ST/STM32L4xx_HAL_Driver/Src/stm32l4xx_hal_rtc_ex.c ****     if((sTamper->Tamper & RTC_TAMPER_2) != 0)
 3002              		.loc 1 1804 5 is_stmt 1 view .LVU1003
 3003              		.loc 1 1804 7 is_stmt 0 view .LVU1004
 3004 011e 13F0080F 		tst	r3, #8
 3005 0122 03D0     		beq	.L198
1805:../../../core/ST/STM32L4xx_HAL_Driver/Src/stm32l4xx_hal_rtc_ex.c ****     {
1806:../../../core/ST/STM32L4xx_HAL_Driver/Src/stm32l4xx_hal_rtc_ex.c ****       sTamper->MaskFlag |= RTC_TAMPCR_TAMP2MF;
 3006              		.loc 1 1806 7 is_stmt 1 view .LVU1005
 3007              		.loc 1 1806 25 is_stmt 0 view .LVU1006
 3008 0124 2269     		ldr	r2, [r4, #16]
 3009 0126 42F40012 		orr	r2, r2, #2097152
 3010 012a 2261     		str	r2, [r4, #16]
 3011              	.L198:
1807:../../../core/ST/STM32L4xx_HAL_Driver/Src/stm32l4xx_hal_rtc_ex.c ****     }
1808:../../../core/ST/STM32L4xx_HAL_Driver/Src/stm32l4xx_hal_rtc_ex.c **** #if defined(RTC_TAMPER3_SUPPORT)
1809:../../../core/ST/STM32L4xx_HAL_Driver/Src/stm32l4xx_hal_rtc_ex.c ****     if((sTamper->Tamper & RTC_TAMPER_3) != 0)
 3012              		.loc 1 1809 5 is_stmt 1 view .LVU1007
 3013              		.loc 1 1809 7 is_stmt 0 view .LVU1008
 3014 012c 13F0200F 		tst	r3, #32
 3015 0130 03D0     		beq	.L196
1810:../../../core/ST/STM32L4xx_HAL_Driver/Src/stm32l4xx_hal_rtc_ex.c ****     {
1811:../../../core/ST/STM32L4xx_HAL_Driver/Src/stm32l4xx_hal_rtc_ex.c ****       sTamper->MaskFlag |= RTC_TAMPCR_TAMP3MF;
 3016              		.loc 1 1811 7 is_stmt 1 view .LVU1009
ARM GAS  C:\Users\tomra\AppData\Local\Temp\ccoul9Yc.s 			page 88


 3017              		.loc 1 1811 25 is_stmt 0 view .LVU1010
 3018 0132 2369     		ldr	r3, [r4, #16]
 3019 0134 43F08073 		orr	r3, r3, #16777216
 3020 0138 2361     		str	r3, [r4, #16]
 3021              	.L196:
1812:../../../core/ST/STM32L4xx_HAL_Driver/Src/stm32l4xx_hal_rtc_ex.c ****     }
1813:../../../core/ST/STM32L4xx_HAL_Driver/Src/stm32l4xx_hal_rtc_ex.c **** #endif /* RTC_TAMPER3_SUPPORT */
1814:../../../core/ST/STM32L4xx_HAL_Driver/Src/stm32l4xx_hal_rtc_ex.c ****   }
1815:../../../core/ST/STM32L4xx_HAL_Driver/Src/stm32l4xx_hal_rtc_ex.c **** 
1816:../../../core/ST/STM32L4xx_HAL_Driver/Src/stm32l4xx_hal_rtc_ex.c ****   tmpreg = ((uint32_t)sTamper->Tamper | (uint32_t)sTamper->Trigger  | (uint32_t)sTamper->NoErase |\
 3022              		.loc 1 1816 3 is_stmt 1 view .LVU1011
 3023              		.loc 1 1816 30 is_stmt 0 view .LVU1012
 3024 013a 2268     		ldr	r2, [r4]
 3025              		.loc 1 1816 58 view .LVU1013
 3026 013c A368     		ldr	r3, [r4, #8]
 3027              		.loc 1 1816 39 view .LVU1014
 3028 013e 1343     		orrs	r3, r3, r2
 3029              		.loc 1 1816 88 view .LVU1015
 3030 0140 E168     		ldr	r1, [r4, #12]
 3031              		.loc 1 1816 69 view .LVU1016
 3032 0142 0B43     		orrs	r3, r3, r1
1817:../../../core/ST/STM32L4xx_HAL_Driver/Src/stm32l4xx_hal_rtc_ex.c ****             (uint32_t)sTamper->MaskFlag | (uint32_t)sTamper->Filter | (uint32_t)sTamper->SamplingFr
 3033              		.loc 1 1817 30 view .LVU1017
 3034 0144 2169     		ldr	r1, [r4, #16]
1816:../../../core/ST/STM32L4xx_HAL_Driver/Src/stm32l4xx_hal_rtc_ex.c ****             (uint32_t)sTamper->MaskFlag | (uint32_t)sTamper->Filter | (uint32_t)sTamper->SamplingFr
 3035              		.loc 1 1816 98 view .LVU1018
 3036 0146 0B43     		orrs	r3, r3, r1
 3037              		.loc 1 1817 60 view .LVU1019
 3038 0148 6169     		ldr	r1, [r4, #20]
 3039              		.loc 1 1817 41 view .LVU1020
 3040 014a 0B43     		orrs	r3, r3, r1
 3041              		.loc 1 1817 88 view .LVU1021
 3042 014c A169     		ldr	r1, [r4, #24]
 3043              		.loc 1 1817 69 view .LVU1022
 3044 014e 0B43     		orrs	r3, r3, r1
1818:../../../core/ST/STM32L4xx_HAL_Driver/Src/stm32l4xx_hal_rtc_ex.c ****             (uint32_t)sTamper->PrechargeDuration | (uint32_t)sTamper->TamperPullUp | sTamper->TimeS
 3045              		.loc 1 1818 30 view .LVU1023
 3046 0150 E169     		ldr	r1, [r4, #28]
1817:../../../core/ST/STM32L4xx_HAL_Driver/Src/stm32l4xx_hal_rtc_ex.c ****             (uint32_t)sTamper->MaskFlag | (uint32_t)sTamper->Filter | (uint32_t)sTamper->SamplingFr
 3047              		.loc 1 1817 108 view .LVU1024
 3048 0152 0B43     		orrs	r3, r3, r1
 3049              		.loc 1 1818 69 view .LVU1025
 3050 0154 216A     		ldr	r1, [r4, #32]
 3051              		.loc 1 1818 50 view .LVU1026
 3052 0156 0B43     		orrs	r3, r3, r1
 3053              		.loc 1 1818 93 view .LVU1027
 3054 0158 616A     		ldr	r1, [r4, #36]
1816:../../../core/ST/STM32L4xx_HAL_Driver/Src/stm32l4xx_hal_rtc_ex.c ****             (uint32_t)sTamper->MaskFlag | (uint32_t)sTamper->Filter | (uint32_t)sTamper->SamplingFr
 3055              		.loc 1 1816 10 view .LVU1028
 3056 015a 0B43     		orrs	r3, r3, r1
 3057              	.LVL176:
1819:../../../core/ST/STM32L4xx_HAL_Driver/Src/stm32l4xx_hal_rtc_ex.c **** 
1820:../../../core/ST/STM32L4xx_HAL_Driver/Src/stm32l4xx_hal_rtc_ex.c ****   hrtc->Instance->TAMPCR &= (uint32_t)~((uint32_t)sTamper->Tamper | (uint32_t)(sTamper->Tamper << 1
 3058              		.loc 1 1820 3 is_stmt 1 view .LVU1029
 3059              		.loc 1 1820 7 is_stmt 0 view .LVU1030
 3060 015c 2C68     		ldr	r4, [r5]
 3061              	.LVL177:
ARM GAS  C:\Users\tomra\AppData\Local\Temp\ccoul9Yc.s 			page 89


 3062              		.loc 1 1820 26 view .LVU1031
 3063 015e 216C     		ldr	r1, [r4, #64]
 3064              		.loc 1 1820 67 view .LVU1032
 3065 0160 42EA4202 		orr	r2, r2, r2, lsl #1
 3066              		.loc 1 1820 102 view .LVU1033
 3067 0164 2148     		ldr	r0, .L209+4
 3068 0166 1043     		orrs	r0, r0, r2
 3069              		.loc 1 1820 26 view .LVU1034
 3070 0168 21EA0001 		bic	r1, r1, r0
 3071 016c 2164     		str	r1, [r4, #64]
1821:../../../core/ST/STM32L4xx_HAL_Driver/Src/stm32l4xx_hal_rtc_ex.c **** 
1822:../../../core/ST/STM32L4xx_HAL_Driver/Src/stm32l4xx_hal_rtc_ex.c ****   hrtc->Instance->TAMPCR |= tmpreg;
 3072              		.loc 1 1822 3 is_stmt 1 view .LVU1035
 3073              		.loc 1 1822 7 is_stmt 0 view .LVU1036
 3074 016e 2968     		ldr	r1, [r5]
 3075              		.loc 1 1822 26 view .LVU1037
 3076 0170 0A6C     		ldr	r2, [r1, #64]
 3077 0172 1343     		orrs	r3, r3, r2
 3078              	.LVL178:
 3079              		.loc 1 1822 26 view .LVU1038
 3080 0174 0B64     		str	r3, [r1, #64]
1823:../../../core/ST/STM32L4xx_HAL_Driver/Src/stm32l4xx_hal_rtc_ex.c **** 
1824:../../../core/ST/STM32L4xx_HAL_Driver/Src/stm32l4xx_hal_rtc_ex.c ****   hrtc->State = HAL_RTC_STATE_READY;
 3081              		.loc 1 1824 3 is_stmt 1 view .LVU1039
 3082              		.loc 1 1824 15 is_stmt 0 view .LVU1040
 3083 0176 0123     		movs	r3, #1
 3084 0178 85F82130 		strb	r3, [r5, #33]
1825:../../../core/ST/STM32L4xx_HAL_Driver/Src/stm32l4xx_hal_rtc_ex.c **** 
1826:../../../core/ST/STM32L4xx_HAL_Driver/Src/stm32l4xx_hal_rtc_ex.c ****   /* Process Unlocked */
1827:../../../core/ST/STM32L4xx_HAL_Driver/Src/stm32l4xx_hal_rtc_ex.c ****   __HAL_UNLOCK(hrtc);
 3085              		.loc 1 1827 3 is_stmt 1 view .LVU1041
 3086              		.loc 1 1827 3 view .LVU1042
 3087 017c 0020     		movs	r0, #0
 3088 017e 85F82000 		strb	r0, [r5, #32]
 3089              		.loc 1 1827 3 view .LVU1043
1828:../../../core/ST/STM32L4xx_HAL_Driver/Src/stm32l4xx_hal_rtc_ex.c **** 
1829:../../../core/ST/STM32L4xx_HAL_Driver/Src/stm32l4xx_hal_rtc_ex.c ****   return HAL_OK;
 3090              		.loc 1 1829 3 view .LVU1044
 3091              	.L191:
1830:../../../core/ST/STM32L4xx_HAL_Driver/Src/stm32l4xx_hal_rtc_ex.c **** }
 3092              		.loc 1 1830 1 is_stmt 0 view .LVU1045
 3093 0182 38BD     		pop	{r3, r4, r5, pc}
 3094              	.LVL179:
 3095              	.L201:
1754:../../../core/ST/STM32L4xx_HAL_Driver/Src/stm32l4xx_hal_rtc_ex.c ****   assert_param(IS_RTC_TAMPER_ERASE_MODE(sTamper->NoErase));
 3096              		.loc 1 1754 3 discriminator 4 view .LVU1046
 3097 0184 40F2DA61 		movw	r1, #1754
 3098 0188 1748     		ldr	r0, .L209
 3099 018a FFF7FEFF 		bl	assert_failed
 3100              	.LVL180:
 3101 018e 49E7     		b	.L183
 3102              	.L202:
1755:../../../core/ST/STM32L4xx_HAL_Driver/Src/stm32l4xx_hal_rtc_ex.c ****   assert_param(IS_RTC_TAMPER_MASKFLAG_STATE(sTamper->MaskFlag));
 3103              		.loc 1 1755 3 discriminator 2 view .LVU1047
 3104 0190 40F2DB61 		movw	r1, #1755
 3105 0194 1448     		ldr	r0, .L209
 3106 0196 FFF7FEFF 		bl	assert_failed
ARM GAS  C:\Users\tomra\AppData\Local\Temp\ccoul9Yc.s 			page 90


 3107              	.LVL181:
 3108 019a 49E7     		b	.L184
 3109              	.L203:
1756:../../../core/ST/STM32L4xx_HAL_Driver/Src/stm32l4xx_hal_rtc_ex.c ****   assert_param(IS_RTC_TAMPER_FILTER(sTamper->Filter));
 3110              		.loc 1 1756 3 discriminator 2 view .LVU1048
 3111 019c 40F2DC61 		movw	r1, #1756
 3112 01a0 1148     		ldr	r0, .L209
 3113 01a2 FFF7FEFF 		bl	assert_failed
 3114              	.LVL182:
 3115 01a6 4AE7     		b	.L185
 3116              	.L204:
1757:../../../core/ST/STM32L4xx_HAL_Driver/Src/stm32l4xx_hal_rtc_ex.c ****   assert_param(IS_RTC_TAMPER_SAMPLING_FREQ(sTamper->SamplingFrequency));
 3117              		.loc 1 1757 3 discriminator 4 view .LVU1049
 3118 01a8 40F2DD61 		movw	r1, #1757
 3119 01ac 0E48     		ldr	r0, .L209
 3120 01ae FFF7FEFF 		bl	assert_failed
 3121              	.LVL183:
 3122 01b2 50E7     		b	.L186
 3123              	.L205:
1758:../../../core/ST/STM32L4xx_HAL_Driver/Src/stm32l4xx_hal_rtc_ex.c ****   assert_param(IS_RTC_TAMPER_PRECHARGE_DURATION(sTamper->PrechargeDuration));
 3124              		.loc 1 1758 3 discriminator 8 view .LVU1050
 3125 01b4 40F2DE61 		movw	r1, #1758
 3126 01b8 0B48     		ldr	r0, .L209
 3127 01ba FFF7FEFF 		bl	assert_failed
 3128              	.LVL184:
 3129 01be 62E7     		b	.L187
 3130              	.L206:
1759:../../../core/ST/STM32L4xx_HAL_Driver/Src/stm32l4xx_hal_rtc_ex.c ****   assert_param(IS_RTC_TAMPER_PULLUP_STATE(sTamper->TamperPullUp));
 3131              		.loc 1 1759 3 discriminator 4 view .LVU1051
 3132 01c0 40F2DF61 		movw	r1, #1759
 3133 01c4 0848     		ldr	r0, .L209
 3134 01c6 FFF7FEFF 		bl	assert_failed
 3135              	.LVL185:
 3136 01ca 68E7     		b	.L188
 3137              	.L207:
1760:../../../core/ST/STM32L4xx_HAL_Driver/Src/stm32l4xx_hal_rtc_ex.c ****   assert_param(IS_RTC_TAMPER_TIMESTAMPONTAMPER_DETECTION(sTamper->TimeStampOnTamperDetection));
 3138              		.loc 1 1760 3 discriminator 2 view .LVU1052
 3139 01cc 4FF4DC61 		mov	r1, #1760
 3140 01d0 0548     		ldr	r0, .L209
 3141 01d2 FFF7FEFF 		bl	assert_failed
 3142              	.LVL186:
 3143 01d6 68E7     		b	.L189
 3144              	.L208:
1761:../../../core/ST/STM32L4xx_HAL_Driver/Src/stm32l4xx_hal_rtc_ex.c **** 
 3145              		.loc 1 1761 3 discriminator 2 view .LVU1053
 3146 01d8 40F2E161 		movw	r1, #1761
 3147 01dc 0248     		ldr	r0, .L209
 3148 01de FFF7FEFF 		bl	assert_failed
 3149              	.LVL187:
 3150 01e2 68E7     		b	.L190
 3151              	.L199:
1764:../../../core/ST/STM32L4xx_HAL_Driver/Src/stm32l4xx_hal_rtc_ex.c **** 
 3152              		.loc 1 1764 3 view .LVU1054
 3153 01e4 0220     		movs	r0, #2
 3154 01e6 CCE7     		b	.L191
 3155              	.L210:
 3156              		.align	2
ARM GAS  C:\Users\tomra\AppData\Local\Temp\ccoul9Yc.s 			page 91


 3157              	.L209:
 3158 01e8 00000000 		.word	.LC0
 3159 01ec 84FFFF01 		.word	33554308
 3160              		.cfi_endproc
 3161              	.LFE149:
 3163              		.section	.text.HAL_RTCEx_SetTamper_IT,"ax",%progbits
 3164              		.align	1
 3165              		.global	HAL_RTCEx_SetTamper_IT
 3166              		.syntax unified
 3167              		.thumb
 3168              		.thumb_func
 3169              		.fpu fpv4-sp-d16
 3171              	HAL_RTCEx_SetTamper_IT:
 3172              	.LVL188:
 3173              	.LFB150:
1831:../../../core/ST/STM32L4xx_HAL_Driver/Src/stm32l4xx_hal_rtc_ex.c **** #endif /* #if defined(STM32L412xx) || defined(STM32L422xx) */
1832:../../../core/ST/STM32L4xx_HAL_Driver/Src/stm32l4xx_hal_rtc_ex.c **** 
1833:../../../core/ST/STM32L4xx_HAL_Driver/Src/stm32l4xx_hal_rtc_ex.c **** 
1834:../../../core/ST/STM32L4xx_HAL_Driver/Src/stm32l4xx_hal_rtc_ex.c **** 
1835:../../../core/ST/STM32L4xx_HAL_Driver/Src/stm32l4xx_hal_rtc_ex.c **** #if defined(STM32L412xx) || defined(STM32L422xx)
1836:../../../core/ST/STM32L4xx_HAL_Driver/Src/stm32l4xx_hal_rtc_ex.c **** /**
1837:../../../core/ST/STM32L4xx_HAL_Driver/Src/stm32l4xx_hal_rtc_ex.c ****   * @brief  Set Tamper with interrupt.
1838:../../../core/ST/STM32L4xx_HAL_Driver/Src/stm32l4xx_hal_rtc_ex.c ****   * @param  hrtc RTC handle
1839:../../../core/ST/STM32L4xx_HAL_Driver/Src/stm32l4xx_hal_rtc_ex.c ****   * @param  sTamper Pointer to Tamper Structure.
1840:../../../core/ST/STM32L4xx_HAL_Driver/Src/stm32l4xx_hal_rtc_ex.c ****   * @retval HAL status
1841:../../../core/ST/STM32L4xx_HAL_Driver/Src/stm32l4xx_hal_rtc_ex.c ****   */
1842:../../../core/ST/STM32L4xx_HAL_Driver/Src/stm32l4xx_hal_rtc_ex.c **** HAL_StatusTypeDef HAL_RTCEx_SetTamper_IT(RTC_HandleTypeDef *hrtc, RTC_TamperTypeDef* sTamper)
1843:../../../core/ST/STM32L4xx_HAL_Driver/Src/stm32l4xx_hal_rtc_ex.c **** {
1844:../../../core/ST/STM32L4xx_HAL_Driver/Src/stm32l4xx_hal_rtc_ex.c ****   uint32_t tmpreg;
1845:../../../core/ST/STM32L4xx_HAL_Driver/Src/stm32l4xx_hal_rtc_ex.c ****   /* Process TAMP instance pointer */
1846:../../../core/ST/STM32L4xx_HAL_Driver/Src/stm32l4xx_hal_rtc_ex.c ****   TAMP_TypeDef *tamp = (TAMP_TypeDef *)((uint32_t)hrtc->Instance + hrtc->TampOffset);
1847:../../../core/ST/STM32L4xx_HAL_Driver/Src/stm32l4xx_hal_rtc_ex.c **** 
1848:../../../core/ST/STM32L4xx_HAL_Driver/Src/stm32l4xx_hal_rtc_ex.c ****   /* Check the parameters */
1849:../../../core/ST/STM32L4xx_HAL_Driver/Src/stm32l4xx_hal_rtc_ex.c ****   assert_param(IS_RTC_TAMPER(sTamper->Tamper));
1850:../../../core/ST/STM32L4xx_HAL_Driver/Src/stm32l4xx_hal_rtc_ex.c ****   assert_param(IS_RTC_TAMPER_TRIGGER(sTamper->Trigger));
1851:../../../core/ST/STM32L4xx_HAL_Driver/Src/stm32l4xx_hal_rtc_ex.c ****   assert_param(IS_RTC_TAMPER_ERASE_MODE(sTamper->NoErase));
1852:../../../core/ST/STM32L4xx_HAL_Driver/Src/stm32l4xx_hal_rtc_ex.c ****   assert_param(IS_RTC_TAMPER_MASKFLAG_STATE(sTamper->MaskFlag));
1853:../../../core/ST/STM32L4xx_HAL_Driver/Src/stm32l4xx_hal_rtc_ex.c ****   assert_param(IS_RTC_TAMPER_FILTER(sTamper->Filter));
1854:../../../core/ST/STM32L4xx_HAL_Driver/Src/stm32l4xx_hal_rtc_ex.c ****   assert_param(IS_RTC_TAMPER_SAMPLING_FREQ(sTamper->SamplingFrequency));
1855:../../../core/ST/STM32L4xx_HAL_Driver/Src/stm32l4xx_hal_rtc_ex.c ****   assert_param(IS_RTC_TAMPER_PRECHARGE_DURATION(sTamper->PrechargeDuration));
1856:../../../core/ST/STM32L4xx_HAL_Driver/Src/stm32l4xx_hal_rtc_ex.c ****   assert_param(IS_RTC_TAMPER_PULLUP_STATE(sTamper->TamperPullUp));
1857:../../../core/ST/STM32L4xx_HAL_Driver/Src/stm32l4xx_hal_rtc_ex.c ****   assert_param(IS_RTC_TAMPER_TIMESTAMPONTAMPER_DETECTION(sTamper->TimeStampOnTamperDetection));
1858:../../../core/ST/STM32L4xx_HAL_Driver/Src/stm32l4xx_hal_rtc_ex.c **** 
1859:../../../core/ST/STM32L4xx_HAL_Driver/Src/stm32l4xx_hal_rtc_ex.c ****   /* Copy configuration register into temporary variable */
1860:../../../core/ST/STM32L4xx_HAL_Driver/Src/stm32l4xx_hal_rtc_ex.c ****   tmpreg = tamp->CR2;
1861:../../../core/ST/STM32L4xx_HAL_Driver/Src/stm32l4xx_hal_rtc_ex.c **** 
1862:../../../core/ST/STM32L4xx_HAL_Driver/Src/stm32l4xx_hal_rtc_ex.c ****   /* Clear the bits that are going to be configured and leave the others unchanged */
1863:../../../core/ST/STM32L4xx_HAL_Driver/Src/stm32l4xx_hal_rtc_ex.c ****   tmpreg &= ~((sTamper->Tamper << TAMP_CR2_TAMP1TRG_Pos) | (sTamper->Tamper << TAMP_CR2_TAMP1MSK_Po
1864:../../../core/ST/STM32L4xx_HAL_Driver/Src/stm32l4xx_hal_rtc_ex.c **** 
1865:../../../core/ST/STM32L4xx_HAL_Driver/Src/stm32l4xx_hal_rtc_ex.c ****   if(sTamper->Trigger != RTC_TAMPERTRIGGER_RISINGEDGE)
1866:../../../core/ST/STM32L4xx_HAL_Driver/Src/stm32l4xx_hal_rtc_ex.c ****   {
1867:../../../core/ST/STM32L4xx_HAL_Driver/Src/stm32l4xx_hal_rtc_ex.c ****     tmpreg |= (sTamper->Tamper << TAMP_CR2_TAMP1TRG_Pos);
1868:../../../core/ST/STM32L4xx_HAL_Driver/Src/stm32l4xx_hal_rtc_ex.c ****   }
1869:../../../core/ST/STM32L4xx_HAL_Driver/Src/stm32l4xx_hal_rtc_ex.c **** 
1870:../../../core/ST/STM32L4xx_HAL_Driver/Src/stm32l4xx_hal_rtc_ex.c ****   /* Configure the tamper flags masking bit */
1871:../../../core/ST/STM32L4xx_HAL_Driver/Src/stm32l4xx_hal_rtc_ex.c ****   if(sTamper->MaskFlag != RTC_TAMPERMASK_FLAG_DISABLE)
1872:../../../core/ST/STM32L4xx_HAL_Driver/Src/stm32l4xx_hal_rtc_ex.c ****   {
ARM GAS  C:\Users\tomra\AppData\Local\Temp\ccoul9Yc.s 			page 92


1873:../../../core/ST/STM32L4xx_HAL_Driver/Src/stm32l4xx_hal_rtc_ex.c ****     tmpreg |= (sTamper->Tamper << TAMP_CR2_TAMP1MSK_Pos);
1874:../../../core/ST/STM32L4xx_HAL_Driver/Src/stm32l4xx_hal_rtc_ex.c ****   }
1875:../../../core/ST/STM32L4xx_HAL_Driver/Src/stm32l4xx_hal_rtc_ex.c **** 
1876:../../../core/ST/STM32L4xx_HAL_Driver/Src/stm32l4xx_hal_rtc_ex.c ****   /* Configure the tamper backup registers erasure bit */
1877:../../../core/ST/STM32L4xx_HAL_Driver/Src/stm32l4xx_hal_rtc_ex.c ****   if(sTamper->NoErase != RTC_TAMPER_ERASE_BACKUP_ENABLE)
1878:../../../core/ST/STM32L4xx_HAL_Driver/Src/stm32l4xx_hal_rtc_ex.c ****   {
1879:../../../core/ST/STM32L4xx_HAL_Driver/Src/stm32l4xx_hal_rtc_ex.c ****     tmpreg |= (sTamper->Tamper << TAMP_CR2_TAMP1NOERASE_Pos);
1880:../../../core/ST/STM32L4xx_HAL_Driver/Src/stm32l4xx_hal_rtc_ex.c ****   }
1881:../../../core/ST/STM32L4xx_HAL_Driver/Src/stm32l4xx_hal_rtc_ex.c ****   tamp->CR2 = tmpreg;
1882:../../../core/ST/STM32L4xx_HAL_Driver/Src/stm32l4xx_hal_rtc_ex.c **** 
1883:../../../core/ST/STM32L4xx_HAL_Driver/Src/stm32l4xx_hal_rtc_ex.c ****   /* Configure filtering parameters */
1884:../../../core/ST/STM32L4xx_HAL_Driver/Src/stm32l4xx_hal_rtc_ex.c ****   tamp->FLTCR = (sTamper->Filter) | (sTamper->SamplingFrequency) | \
1885:../../../core/ST/STM32L4xx_HAL_Driver/Src/stm32l4xx_hal_rtc_ex.c ****                  (sTamper->PrechargeDuration) | (sTamper->TamperPullUp);
1886:../../../core/ST/STM32L4xx_HAL_Driver/Src/stm32l4xx_hal_rtc_ex.c **** 
1887:../../../core/ST/STM32L4xx_HAL_Driver/Src/stm32l4xx_hal_rtc_ex.c ****   /* Configure Timestamp saving on tamper detection */
1888:../../../core/ST/STM32L4xx_HAL_Driver/Src/stm32l4xx_hal_rtc_ex.c ****   if((hrtc->Instance->CR & RTC_CR_TAMPTS) != (sTamper->TimeStampOnTamperDetection))
1889:../../../core/ST/STM32L4xx_HAL_Driver/Src/stm32l4xx_hal_rtc_ex.c ****   {
1890:../../../core/ST/STM32L4xx_HAL_Driver/Src/stm32l4xx_hal_rtc_ex.c ****     __HAL_RTC_WRITEPROTECTION_DISABLE(hrtc);
1891:../../../core/ST/STM32L4xx_HAL_Driver/Src/stm32l4xx_hal_rtc_ex.c ****     tmpreg = (hrtc->Instance->CR & ~RTC_CR_TAMPTS);
1892:../../../core/ST/STM32L4xx_HAL_Driver/Src/stm32l4xx_hal_rtc_ex.c ****     hrtc->Instance->CR = (tmpreg | (sTamper->TimeStampOnTamperDetection));
1893:../../../core/ST/STM32L4xx_HAL_Driver/Src/stm32l4xx_hal_rtc_ex.c ****     __HAL_RTC_WRITEPROTECTION_ENABLE(hrtc);
1894:../../../core/ST/STM32L4xx_HAL_Driver/Src/stm32l4xx_hal_rtc_ex.c ****   }
1895:../../../core/ST/STM32L4xx_HAL_Driver/Src/stm32l4xx_hal_rtc_ex.c **** 
1896:../../../core/ST/STM32L4xx_HAL_Driver/Src/stm32l4xx_hal_rtc_ex.c ****   /* Configure RTC Tamper Interrupt: EXTI configuration */
1897:../../../core/ST/STM32L4xx_HAL_Driver/Src/stm32l4xx_hal_rtc_ex.c ****   __HAL_RTC_TAMPER_TIMESTAMP_EXTI_ENABLE_IT();
1898:../../../core/ST/STM32L4xx_HAL_Driver/Src/stm32l4xx_hal_rtc_ex.c ****   __HAL_RTC_TAMPER_TIMESTAMP_EXTI_ENABLE_RISING_FALLING_EDGE();
1899:../../../core/ST/STM32L4xx_HAL_Driver/Src/stm32l4xx_hal_rtc_ex.c **** 
1900:../../../core/ST/STM32L4xx_HAL_Driver/Src/stm32l4xx_hal_rtc_ex.c ****   /* Enable interrupt on selected tamper */
1901:../../../core/ST/STM32L4xx_HAL_Driver/Src/stm32l4xx_hal_rtc_ex.c ****   tamp->IER |= sTamper->Tamper;
1902:../../../core/ST/STM32L4xx_HAL_Driver/Src/stm32l4xx_hal_rtc_ex.c **** 
1903:../../../core/ST/STM32L4xx_HAL_Driver/Src/stm32l4xx_hal_rtc_ex.c ****   /* Enable selected tamper */
1904:../../../core/ST/STM32L4xx_HAL_Driver/Src/stm32l4xx_hal_rtc_ex.c ****   tamp->CR1 |= sTamper->Tamper;
1905:../../../core/ST/STM32L4xx_HAL_Driver/Src/stm32l4xx_hal_rtc_ex.c **** 
1906:../../../core/ST/STM32L4xx_HAL_Driver/Src/stm32l4xx_hal_rtc_ex.c ****   return HAL_OK;
1907:../../../core/ST/STM32L4xx_HAL_Driver/Src/stm32l4xx_hal_rtc_ex.c **** }
1908:../../../core/ST/STM32L4xx_HAL_Driver/Src/stm32l4xx_hal_rtc_ex.c **** #else /* #if defined(STM32L412xx) || defined(STM32L422xx) */
1909:../../../core/ST/STM32L4xx_HAL_Driver/Src/stm32l4xx_hal_rtc_ex.c **** 
1910:../../../core/ST/STM32L4xx_HAL_Driver/Src/stm32l4xx_hal_rtc_ex.c **** /**
1911:../../../core/ST/STM32L4xx_HAL_Driver/Src/stm32l4xx_hal_rtc_ex.c ****   * @brief  Set Tamper with interrupt.
1912:../../../core/ST/STM32L4xx_HAL_Driver/Src/stm32l4xx_hal_rtc_ex.c ****   * @note   By calling this API we force the tamper interrupt for all tampers.
1913:../../../core/ST/STM32L4xx_HAL_Driver/Src/stm32l4xx_hal_rtc_ex.c ****   * @param  hrtc RTC handle
1914:../../../core/ST/STM32L4xx_HAL_Driver/Src/stm32l4xx_hal_rtc_ex.c ****   * @param  sTamper Pointer to Tamper Structure.
1915:../../../core/ST/STM32L4xx_HAL_Driver/Src/stm32l4xx_hal_rtc_ex.c ****   * @retval HAL status
1916:../../../core/ST/STM32L4xx_HAL_Driver/Src/stm32l4xx_hal_rtc_ex.c ****   */
1917:../../../core/ST/STM32L4xx_HAL_Driver/Src/stm32l4xx_hal_rtc_ex.c **** HAL_StatusTypeDef HAL_RTCEx_SetTamper_IT(RTC_HandleTypeDef *hrtc, RTC_TamperTypeDef* sTamper)
1918:../../../core/ST/STM32L4xx_HAL_Driver/Src/stm32l4xx_hal_rtc_ex.c **** {
 3174              		.loc 1 1918 1 is_stmt 1 view -0
 3175              		.cfi_startproc
 3176              		@ args = 0, pretend = 0, frame = 0
 3177              		@ frame_needed = 0, uses_anonymous_args = 0
 3178              		.loc 1 1918 1 is_stmt 0 view .LVU1056
 3179 0000 38B5     		push	{r3, r4, r5, lr}
 3180              	.LCFI18:
 3181              		.cfi_def_cfa_offset 16
 3182              		.cfi_offset 3, -16
 3183              		.cfi_offset 4, -12
 3184              		.cfi_offset 5, -8
ARM GAS  C:\Users\tomra\AppData\Local\Temp\ccoul9Yc.s 			page 93


 3185              		.cfi_offset 14, -4
 3186 0002 0546     		mov	r5, r0
 3187 0004 0C46     		mov	r4, r1
1919:../../../core/ST/STM32L4xx_HAL_Driver/Src/stm32l4xx_hal_rtc_ex.c ****   uint32_t tmpreg = 0;
 3188              		.loc 1 1919 3 is_stmt 1 view .LVU1057
 3189              	.LVL189:
1920:../../../core/ST/STM32L4xx_HAL_Driver/Src/stm32l4xx_hal_rtc_ex.c **** 
1921:../../../core/ST/STM32L4xx_HAL_Driver/Src/stm32l4xx_hal_rtc_ex.c ****   /* Check the parameters */
1922:../../../core/ST/STM32L4xx_HAL_Driver/Src/stm32l4xx_hal_rtc_ex.c ****   assert_param(IS_RTC_TAMPER(sTamper->Tamper));
 3190              		.loc 1 1922 3 view .LVU1058
 3191 0006 0B68     		ldr	r3, [r1]
 3192 0008 33F02902 		bics	r2, r3, #41
 3193 000c 00D1     		bne	.L212
 3194              		.loc 1 1922 3 is_stmt 0 discriminator 2 view .LVU1059
 3195 000e 23B9     		cbnz	r3, .L213
 3196              	.L212:
 3197              		.loc 1 1922 3 discriminator 3 view .LVU1060
 3198 0010 40F28271 		movw	r1, #1922
 3199              	.LVL190:
 3200              		.loc 1 1922 3 discriminator 3 view .LVU1061
 3201 0014 8048     		ldr	r0, .L242
 3202              	.LVL191:
 3203              		.loc 1 1922 3 discriminator 3 view .LVU1062
 3204 0016 FFF7FEFF 		bl	assert_failed
 3205              	.LVL192:
 3206              	.L213:
1923:../../../core/ST/STM32L4xx_HAL_Driver/Src/stm32l4xx_hal_rtc_ex.c ****   assert_param(IS_RTC_TAMPER_INTERRUPT(sTamper->Interrupt));
 3207              		.loc 1 1923 3 is_stmt 1 view .LVU1063
 3208 001a 6268     		ldr	r2, [r4, #4]
 3209 001c 22F49203 		bic	r3, r2, #4784128
 3210 0020 23F00403 		bic	r3, r3, #4
 3211 0024 03B9     		cbnz	r3, .L214
 3212              		.loc 1 1923 3 is_stmt 0 discriminator 2 view .LVU1064
 3213 0026 22B9     		cbnz	r2, .L215
 3214              	.L214:
 3215              		.loc 1 1923 3 discriminator 3 view .LVU1065
 3216 0028 40F28371 		movw	r1, #1923
 3217 002c 7A48     		ldr	r0, .L242
 3218 002e FFF7FEFF 		bl	assert_failed
 3219              	.LVL193:
 3220              	.L215:
1924:../../../core/ST/STM32L4xx_HAL_Driver/Src/stm32l4xx_hal_rtc_ex.c ****   assert_param(IS_RTC_TAMPER_TRIGGER(sTamper->Trigger));
 3221              		.loc 1 1924 3 is_stmt 1 view .LVU1066
 3222 0032 A368     		ldr	r3, [r4, #8]
 3223 0034 13B1     		cbz	r3, .L216
 3224              		.loc 1 1924 3 is_stmt 0 discriminator 1 view .LVU1067
 3225 0036 022B     		cmp	r3, #2
 3226 0038 40F0BB80 		bne	.L234
 3227              	.L216:
1925:../../../core/ST/STM32L4xx_HAL_Driver/Src/stm32l4xx_hal_rtc_ex.c ****   assert_param(IS_RTC_TAMPER_ERASE_MODE(sTamper->NoErase));
 3228              		.loc 1 1925 3 is_stmt 1 view .LVU1068
 3229 003c E368     		ldr	r3, [r4, #12]
 3230 003e 1BB1     		cbz	r3, .L217
 3231              		.loc 1 1925 3 is_stmt 0 discriminator 1 view .LVU1069
 3232 0040 B3F5003F 		cmp	r3, #131072
 3233 0044 40F0BB80 		bne	.L235
 3234              	.L217:
ARM GAS  C:\Users\tomra\AppData\Local\Temp\ccoul9Yc.s 			page 94


1926:../../../core/ST/STM32L4xx_HAL_Driver/Src/stm32l4xx_hal_rtc_ex.c ****   assert_param(IS_RTC_TAMPER_MASKFLAG_STATE(sTamper->MaskFlag));
 3235              		.loc 1 1926 3 is_stmt 1 view .LVU1070
 3236 0048 2369     		ldr	r3, [r4, #16]
 3237 004a B3F5802F 		cmp	r3, #262144
 3238 004e 02D0     		beq	.L218
 3239              		.loc 1 1926 3 is_stmt 0 discriminator 1 view .LVU1071
 3240 0050 002B     		cmp	r3, #0
 3241 0052 40F0BA80 		bne	.L236
 3242              	.L218:
1927:../../../core/ST/STM32L4xx_HAL_Driver/Src/stm32l4xx_hal_rtc_ex.c ****   assert_param(IS_RTC_TAMPER_FILTER(sTamper->Filter));
 3243              		.loc 1 1927 3 is_stmt 1 view .LVU1072
 3244 0056 6369     		ldr	r3, [r4, #20]
 3245 0058 4BB1     		cbz	r3, .L219
 3246              		.loc 1 1927 3 is_stmt 0 discriminator 1 view .LVU1073
 3247 005a B3F5006F 		cmp	r3, #2048
 3248 005e 06D0     		beq	.L219
 3249              		.loc 1 1927 3 discriminator 2 view .LVU1074
 3250 0060 B3F5805F 		cmp	r3, #4096
 3251 0064 03D0     		beq	.L219
 3252              		.loc 1 1927 3 discriminator 3 view .LVU1075
 3253 0066 B3F5C05F 		cmp	r3, #6144
 3254 006a 40F0B480 		bne	.L237
 3255              	.L219:
1928:../../../core/ST/STM32L4xx_HAL_Driver/Src/stm32l4xx_hal_rtc_ex.c ****   assert_param(IS_RTC_TAMPER_SAMPLING_FREQ(sTamper->SamplingFrequency));
 3256              		.loc 1 1928 3 is_stmt 1 view .LVU1076
 3257 006e A369     		ldr	r3, [r4, #24]
 3258 0070 ABB1     		cbz	r3, .L220
 3259              		.loc 1 1928 3 is_stmt 0 discriminator 1 view .LVU1077
 3260 0072 B3F5807F 		cmp	r3, #256
 3261 0076 12D0     		beq	.L220
 3262              		.loc 1 1928 3 discriminator 2 view .LVU1078
 3263 0078 B3F5007F 		cmp	r3, #512
 3264 007c 0FD0     		beq	.L220
 3265              		.loc 1 1928 3 discriminator 3 view .LVU1079
 3266 007e B3F5407F 		cmp	r3, #768
 3267 0082 0CD0     		beq	.L220
 3268              		.loc 1 1928 3 discriminator 4 view .LVU1080
 3269 0084 B3F5806F 		cmp	r3, #1024
 3270 0088 09D0     		beq	.L220
 3271              		.loc 1 1928 3 discriminator 5 view .LVU1081
 3272 008a B3F5A06F 		cmp	r3, #1280
 3273 008e 06D0     		beq	.L220
 3274              		.loc 1 1928 3 discriminator 6 view .LVU1082
 3275 0090 B3F5C06F 		cmp	r3, #1536
 3276 0094 03D0     		beq	.L220
 3277              		.loc 1 1928 3 discriminator 7 view .LVU1083
 3278 0096 B3F5E06F 		cmp	r3, #1792
 3279 009a 40F0A280 		bne	.L238
 3280              	.L220:
1929:../../../core/ST/STM32L4xx_HAL_Driver/Src/stm32l4xx_hal_rtc_ex.c ****   assert_param(IS_RTC_TAMPER_PRECHARGE_DURATION(sTamper->PrechargeDuration));
 3281              		.loc 1 1929 3 is_stmt 1 view .LVU1084
 3282 009e E369     		ldr	r3, [r4, #28]
 3283 00a0 4BB1     		cbz	r3, .L221
 3284              		.loc 1 1929 3 is_stmt 0 discriminator 1 view .LVU1085
 3285 00a2 B3F5005F 		cmp	r3, #8192
 3286 00a6 06D0     		beq	.L221
 3287              		.loc 1 1929 3 discriminator 2 view .LVU1086
ARM GAS  C:\Users\tomra\AppData\Local\Temp\ccoul9Yc.s 			page 95


 3288 00a8 B3F5804F 		cmp	r3, #16384
 3289 00ac 03D0     		beq	.L221
 3290              		.loc 1 1929 3 discriminator 3 view .LVU1087
 3291 00ae B3F5C04F 		cmp	r3, #24576
 3292 00b2 40F09C80 		bne	.L239
 3293              	.L221:
1930:../../../core/ST/STM32L4xx_HAL_Driver/Src/stm32l4xx_hal_rtc_ex.c ****   assert_param(IS_RTC_TAMPER_PULLUP_STATE(sTamper->TamperPullUp));
 3294              		.loc 1 1930 3 is_stmt 1 view .LVU1088
 3295 00b6 236A     		ldr	r3, [r4, #32]
 3296 00b8 1BB1     		cbz	r3, .L222
 3297              		.loc 1 1930 3 is_stmt 0 discriminator 1 view .LVU1089
 3298 00ba B3F5004F 		cmp	r3, #32768
 3299 00be 40F09C80 		bne	.L240
 3300              	.L222:
1931:../../../core/ST/STM32L4xx_HAL_Driver/Src/stm32l4xx_hal_rtc_ex.c ****   assert_param(IS_RTC_TAMPER_TIMESTAMPONTAMPER_DETECTION(sTamper->TimeStampOnTamperDetection));
 3301              		.loc 1 1931 3 is_stmt 1 view .LVU1090
 3302 00c2 636A     		ldr	r3, [r4, #36]
 3303 00c4 802B     		cmp	r3, #128
 3304 00c6 02D0     		beq	.L223
 3305              		.loc 1 1931 3 is_stmt 0 discriminator 1 view .LVU1091
 3306 00c8 002B     		cmp	r3, #0
 3307 00ca 40F09C80 		bne	.L241
 3308              	.L223:
1932:../../../core/ST/STM32L4xx_HAL_Driver/Src/stm32l4xx_hal_rtc_ex.c **** 
1933:../../../core/ST/STM32L4xx_HAL_Driver/Src/stm32l4xx_hal_rtc_ex.c ****   /* Process Locked */
1934:../../../core/ST/STM32L4xx_HAL_Driver/Src/stm32l4xx_hal_rtc_ex.c ****   __HAL_LOCK(hrtc);
 3309              		.loc 1 1934 3 is_stmt 1 view .LVU1092
 3310              		.loc 1 1934 3 view .LVU1093
 3311 00ce 95F82030 		ldrb	r3, [r5, #32]	@ zero_extendqisi2
 3312 00d2 012B     		cmp	r3, #1
 3313 00d4 00F09D80 		beq	.L232
 3314              		.loc 1 1934 3 discriminator 2 view .LVU1094
 3315 00d8 0123     		movs	r3, #1
 3316 00da 85F82030 		strb	r3, [r5, #32]
 3317              		.loc 1 1934 3 discriminator 2 view .LVU1095
1935:../../../core/ST/STM32L4xx_HAL_Driver/Src/stm32l4xx_hal_rtc_ex.c **** 
1936:../../../core/ST/STM32L4xx_HAL_Driver/Src/stm32l4xx_hal_rtc_ex.c ****   hrtc->State = HAL_RTC_STATE_BUSY;
 3318              		.loc 1 1936 3 discriminator 2 view .LVU1096
 3319              		.loc 1 1936 15 is_stmt 0 discriminator 2 view .LVU1097
 3320 00de 0223     		movs	r3, #2
 3321 00e0 85F82130 		strb	r3, [r5, #33]
1937:../../../core/ST/STM32L4xx_HAL_Driver/Src/stm32l4xx_hal_rtc_ex.c **** 
1938:../../../core/ST/STM32L4xx_HAL_Driver/Src/stm32l4xx_hal_rtc_ex.c ****   /* Configure the tamper trigger */
1939:../../../core/ST/STM32L4xx_HAL_Driver/Src/stm32l4xx_hal_rtc_ex.c ****   if(sTamper->Trigger != RTC_TAMPERTRIGGER_RISINGEDGE)
 3322              		.loc 1 1939 3 is_stmt 1 discriminator 2 view .LVU1098
 3323              		.loc 1 1939 13 is_stmt 0 discriminator 2 view .LVU1099
 3324 00e4 A368     		ldr	r3, [r4, #8]
 3325              		.loc 1 1939 5 discriminator 2 view .LVU1100
 3326 00e6 13B1     		cbz	r3, .L225
1940:../../../core/ST/STM32L4xx_HAL_Driver/Src/stm32l4xx_hal_rtc_ex.c ****   {
1941:../../../core/ST/STM32L4xx_HAL_Driver/Src/stm32l4xx_hal_rtc_ex.c ****     sTamper->Trigger = (uint32_t)(sTamper->Tamper << 1);
 3327              		.loc 1 1941 5 is_stmt 1 view .LVU1101
 3328              		.loc 1 1941 42 is_stmt 0 view .LVU1102
 3329 00e8 2368     		ldr	r3, [r4]
 3330              		.loc 1 1941 51 view .LVU1103
 3331 00ea 5B00     		lsls	r3, r3, #1
 3332              		.loc 1 1941 22 view .LVU1104
ARM GAS  C:\Users\tomra\AppData\Local\Temp\ccoul9Yc.s 			page 96


 3333 00ec A360     		str	r3, [r4, #8]
 3334              	.L225:
1942:../../../core/ST/STM32L4xx_HAL_Driver/Src/stm32l4xx_hal_rtc_ex.c ****   }
1943:../../../core/ST/STM32L4xx_HAL_Driver/Src/stm32l4xx_hal_rtc_ex.c **** 
1944:../../../core/ST/STM32L4xx_HAL_Driver/Src/stm32l4xx_hal_rtc_ex.c ****   if(sTamper->NoErase != RTC_TAMPER_ERASE_BACKUP_ENABLE)
 3335              		.loc 1 1944 3 is_stmt 1 view .LVU1105
 3336              		.loc 1 1944 13 is_stmt 0 view .LVU1106
 3337 00ee E368     		ldr	r3, [r4, #12]
 3338              		.loc 1 1944 5 view .LVU1107
 3339 00f0 B3B1     		cbz	r3, .L226
1945:../../../core/ST/STM32L4xx_HAL_Driver/Src/stm32l4xx_hal_rtc_ex.c ****   {
1946:../../../core/ST/STM32L4xx_HAL_Driver/Src/stm32l4xx_hal_rtc_ex.c ****     sTamper->NoErase = 0;
 3340              		.loc 1 1946 5 is_stmt 1 view .LVU1108
 3341              		.loc 1 1946 22 is_stmt 0 view .LVU1109
 3342 00f2 0023     		movs	r3, #0
 3343 00f4 E360     		str	r3, [r4, #12]
1947:../../../core/ST/STM32L4xx_HAL_Driver/Src/stm32l4xx_hal_rtc_ex.c **** #if defined(RTC_TAMPER1_SUPPORT)
1948:../../../core/ST/STM32L4xx_HAL_Driver/Src/stm32l4xx_hal_rtc_ex.c ****     if((sTamper->Tamper & RTC_TAMPER_1) != 0)
 3344              		.loc 1 1948 5 is_stmt 1 view .LVU1110
 3345              		.loc 1 1948 16 is_stmt 0 view .LVU1111
 3346 00f6 2368     		ldr	r3, [r4]
 3347              		.loc 1 1948 7 view .LVU1112
 3348 00f8 13F0010F 		tst	r3, #1
 3349 00fc 02D0     		beq	.L227
1949:../../../core/ST/STM32L4xx_HAL_Driver/Src/stm32l4xx_hal_rtc_ex.c ****     {
1950:../../../core/ST/STM32L4xx_HAL_Driver/Src/stm32l4xx_hal_rtc_ex.c ****       sTamper->NoErase |= RTC_TAMPCR_TAMP1NOERASE;
 3350              		.loc 1 1950 7 is_stmt 1 view .LVU1113
 3351              		.loc 1 1950 24 is_stmt 0 view .LVU1114
 3352 00fe 4FF40032 		mov	r2, #131072
 3353 0102 E260     		str	r2, [r4, #12]
 3354              	.L227:
1951:../../../core/ST/STM32L4xx_HAL_Driver/Src/stm32l4xx_hal_rtc_ex.c ****     }
1952:../../../core/ST/STM32L4xx_HAL_Driver/Src/stm32l4xx_hal_rtc_ex.c **** #endif /* RTC_TAMPER1_SUPPORT */
1953:../../../core/ST/STM32L4xx_HAL_Driver/Src/stm32l4xx_hal_rtc_ex.c ****     if((sTamper->Tamper & RTC_TAMPER_2) != 0)
 3355              		.loc 1 1953 5 is_stmt 1 view .LVU1115
 3356              		.loc 1 1953 7 is_stmt 0 view .LVU1116
 3357 0104 13F0080F 		tst	r3, #8
 3358 0108 03D0     		beq	.L228
1954:../../../core/ST/STM32L4xx_HAL_Driver/Src/stm32l4xx_hal_rtc_ex.c ****     {
1955:../../../core/ST/STM32L4xx_HAL_Driver/Src/stm32l4xx_hal_rtc_ex.c ****       sTamper->NoErase |= RTC_TAMPCR_TAMP2NOERASE;
 3359              		.loc 1 1955 7 is_stmt 1 view .LVU1117
 3360              		.loc 1 1955 24 is_stmt 0 view .LVU1118
 3361 010a E268     		ldr	r2, [r4, #12]
 3362 010c 42F48012 		orr	r2, r2, #1048576
 3363 0110 E260     		str	r2, [r4, #12]
 3364              	.L228:
1956:../../../core/ST/STM32L4xx_HAL_Driver/Src/stm32l4xx_hal_rtc_ex.c ****     }
1957:../../../core/ST/STM32L4xx_HAL_Driver/Src/stm32l4xx_hal_rtc_ex.c **** #if defined(RTC_TAMPER3_SUPPORT)
1958:../../../core/ST/STM32L4xx_HAL_Driver/Src/stm32l4xx_hal_rtc_ex.c ****     if((sTamper->Tamper & RTC_TAMPER_3) != 0)
 3365              		.loc 1 1958 5 is_stmt 1 view .LVU1119
 3366              		.loc 1 1958 7 is_stmt 0 view .LVU1120
 3367 0112 13F0200F 		tst	r3, #32
 3368 0116 03D0     		beq	.L226
1959:../../../core/ST/STM32L4xx_HAL_Driver/Src/stm32l4xx_hal_rtc_ex.c ****     {
1960:../../../core/ST/STM32L4xx_HAL_Driver/Src/stm32l4xx_hal_rtc_ex.c ****       sTamper->NoErase |= RTC_TAMPCR_TAMP3NOERASE;
 3369              		.loc 1 1960 7 is_stmt 1 view .LVU1121
 3370              		.loc 1 1960 24 is_stmt 0 view .LVU1122
ARM GAS  C:\Users\tomra\AppData\Local\Temp\ccoul9Yc.s 			page 97


 3371 0118 E368     		ldr	r3, [r4, #12]
 3372 011a 43F40003 		orr	r3, r3, #8388608
 3373 011e E360     		str	r3, [r4, #12]
 3374              	.L226:
1961:../../../core/ST/STM32L4xx_HAL_Driver/Src/stm32l4xx_hal_rtc_ex.c ****     }
1962:../../../core/ST/STM32L4xx_HAL_Driver/Src/stm32l4xx_hal_rtc_ex.c **** #endif /* RTC_TAMPER3_SUPPORT */
1963:../../../core/ST/STM32L4xx_HAL_Driver/Src/stm32l4xx_hal_rtc_ex.c ****   }
1964:../../../core/ST/STM32L4xx_HAL_Driver/Src/stm32l4xx_hal_rtc_ex.c **** 
1965:../../../core/ST/STM32L4xx_HAL_Driver/Src/stm32l4xx_hal_rtc_ex.c ****   if(sTamper->MaskFlag != RTC_TAMPERMASK_FLAG_DISABLE)
 3375              		.loc 1 1965 3 is_stmt 1 view .LVU1123
 3376              		.loc 1 1965 13 is_stmt 0 view .LVU1124
 3377 0120 2369     		ldr	r3, [r4, #16]
 3378              		.loc 1 1965 5 view .LVU1125
 3379 0122 B3B1     		cbz	r3, .L229
1966:../../../core/ST/STM32L4xx_HAL_Driver/Src/stm32l4xx_hal_rtc_ex.c ****   {
1967:../../../core/ST/STM32L4xx_HAL_Driver/Src/stm32l4xx_hal_rtc_ex.c ****     sTamper->MaskFlag = 0;
 3380              		.loc 1 1967 5 is_stmt 1 view .LVU1126
 3381              		.loc 1 1967 23 is_stmt 0 view .LVU1127
 3382 0124 0023     		movs	r3, #0
 3383 0126 2361     		str	r3, [r4, #16]
1968:../../../core/ST/STM32L4xx_HAL_Driver/Src/stm32l4xx_hal_rtc_ex.c **** #if defined(RTC_TAMPER1_SUPPORT)
1969:../../../core/ST/STM32L4xx_HAL_Driver/Src/stm32l4xx_hal_rtc_ex.c ****     if((sTamper->Tamper & RTC_TAMPER_1) != 0)
 3384              		.loc 1 1969 5 is_stmt 1 view .LVU1128
 3385              		.loc 1 1969 16 is_stmt 0 view .LVU1129
 3386 0128 2368     		ldr	r3, [r4]
 3387              		.loc 1 1969 7 view .LVU1130
 3388 012a 13F0010F 		tst	r3, #1
 3389 012e 02D0     		beq	.L230
1970:../../../core/ST/STM32L4xx_HAL_Driver/Src/stm32l4xx_hal_rtc_ex.c ****     {
1971:../../../core/ST/STM32L4xx_HAL_Driver/Src/stm32l4xx_hal_rtc_ex.c ****       sTamper->MaskFlag |= RTC_TAMPCR_TAMP1MF;
 3390              		.loc 1 1971 7 is_stmt 1 view .LVU1131
 3391              		.loc 1 1971 25 is_stmt 0 view .LVU1132
 3392 0130 4FF48022 		mov	r2, #262144
 3393 0134 2261     		str	r2, [r4, #16]
 3394              	.L230:
1972:../../../core/ST/STM32L4xx_HAL_Driver/Src/stm32l4xx_hal_rtc_ex.c ****     }
1973:../../../core/ST/STM32L4xx_HAL_Driver/Src/stm32l4xx_hal_rtc_ex.c **** #endif /* RTC_TAMPER1_SUPPORT */
1974:../../../core/ST/STM32L4xx_HAL_Driver/Src/stm32l4xx_hal_rtc_ex.c ****     if((sTamper->Tamper & RTC_TAMPER_2) != 0)
 3395              		.loc 1 1974 5 is_stmt 1 view .LVU1133
 3396              		.loc 1 1974 7 is_stmt 0 view .LVU1134
 3397 0136 13F0080F 		tst	r3, #8
 3398 013a 03D0     		beq	.L231
1975:../../../core/ST/STM32L4xx_HAL_Driver/Src/stm32l4xx_hal_rtc_ex.c ****     {
1976:../../../core/ST/STM32L4xx_HAL_Driver/Src/stm32l4xx_hal_rtc_ex.c ****       sTamper->MaskFlag |= RTC_TAMPCR_TAMP2MF;
 3399              		.loc 1 1976 7 is_stmt 1 view .LVU1135
 3400              		.loc 1 1976 25 is_stmt 0 view .LVU1136
 3401 013c 2269     		ldr	r2, [r4, #16]
 3402 013e 42F40012 		orr	r2, r2, #2097152
 3403 0142 2261     		str	r2, [r4, #16]
 3404              	.L231:
1977:../../../core/ST/STM32L4xx_HAL_Driver/Src/stm32l4xx_hal_rtc_ex.c ****     }
1978:../../../core/ST/STM32L4xx_HAL_Driver/Src/stm32l4xx_hal_rtc_ex.c **** #if defined(RTC_TAMPER3_SUPPORT)
1979:../../../core/ST/STM32L4xx_HAL_Driver/Src/stm32l4xx_hal_rtc_ex.c ****     if((sTamper->Tamper & RTC_TAMPER_3) != 0)
 3405              		.loc 1 1979 5 is_stmt 1 view .LVU1137
 3406              		.loc 1 1979 7 is_stmt 0 view .LVU1138
 3407 0144 13F0200F 		tst	r3, #32
 3408 0148 03D0     		beq	.L229
ARM GAS  C:\Users\tomra\AppData\Local\Temp\ccoul9Yc.s 			page 98


1980:../../../core/ST/STM32L4xx_HAL_Driver/Src/stm32l4xx_hal_rtc_ex.c ****     {
1981:../../../core/ST/STM32L4xx_HAL_Driver/Src/stm32l4xx_hal_rtc_ex.c ****       sTamper->MaskFlag |= RTC_TAMPCR_TAMP3MF;
 3409              		.loc 1 1981 7 is_stmt 1 view .LVU1139
 3410              		.loc 1 1981 25 is_stmt 0 view .LVU1140
 3411 014a 2369     		ldr	r3, [r4, #16]
 3412 014c 43F08073 		orr	r3, r3, #16777216
 3413 0150 2361     		str	r3, [r4, #16]
 3414              	.L229:
1982:../../../core/ST/STM32L4xx_HAL_Driver/Src/stm32l4xx_hal_rtc_ex.c ****     }
1983:../../../core/ST/STM32L4xx_HAL_Driver/Src/stm32l4xx_hal_rtc_ex.c **** #endif /* RTC_TAMPER3_SUPPORT */
1984:../../../core/ST/STM32L4xx_HAL_Driver/Src/stm32l4xx_hal_rtc_ex.c ****   }
1985:../../../core/ST/STM32L4xx_HAL_Driver/Src/stm32l4xx_hal_rtc_ex.c **** 
1986:../../../core/ST/STM32L4xx_HAL_Driver/Src/stm32l4xx_hal_rtc_ex.c ****   tmpreg = ((uint32_t)sTamper->Tamper | (uint32_t)sTamper->Interrupt | (uint32_t)sTamper->Trigger  
 3415              		.loc 1 1986 3 is_stmt 1 view .LVU1141
 3416              		.loc 1 1986 30 is_stmt 0 view .LVU1142
 3417 0152 2268     		ldr	r2, [r4]
 3418              		.loc 1 1986 58 view .LVU1143
 3419 0154 6368     		ldr	r3, [r4, #4]
 3420              		.loc 1 1986 39 view .LVU1144
 3421 0156 1343     		orrs	r3, r3, r2
 3422              		.loc 1 1986 89 view .LVU1145
 3423 0158 A168     		ldr	r1, [r4, #8]
 3424              		.loc 1 1986 70 view .LVU1146
 3425 015a 0B43     		orrs	r3, r3, r1
 3426              		.loc 1 1986 119 view .LVU1147
 3427 015c E168     		ldr	r1, [r4, #12]
 3428              		.loc 1 1986 100 view .LVU1148
 3429 015e 0B43     		orrs	r3, r3, r1
1987:../../../core/ST/STM32L4xx_HAL_Driver/Src/stm32l4xx_hal_rtc_ex.c ****             (uint32_t)sTamper->MaskFlag | (uint32_t)sTamper->Filter | (uint32_t)sTamper->SamplingFr
 3430              		.loc 1 1987 30 view .LVU1149
 3431 0160 2169     		ldr	r1, [r4, #16]
1986:../../../core/ST/STM32L4xx_HAL_Driver/Src/stm32l4xx_hal_rtc_ex.c ****             (uint32_t)sTamper->MaskFlag | (uint32_t)sTamper->Filter | (uint32_t)sTamper->SamplingFr
 3432              		.loc 1 1986 129 view .LVU1150
 3433 0162 0B43     		orrs	r3, r3, r1
 3434              		.loc 1 1987 60 view .LVU1151
 3435 0164 6169     		ldr	r1, [r4, #20]
 3436              		.loc 1 1987 41 view .LVU1152
 3437 0166 0B43     		orrs	r3, r3, r1
 3438              		.loc 1 1987 88 view .LVU1153
 3439 0168 A169     		ldr	r1, [r4, #24]
 3440              		.loc 1 1987 69 view .LVU1154
 3441 016a 0B43     		orrs	r3, r3, r1
1988:../../../core/ST/STM32L4xx_HAL_Driver/Src/stm32l4xx_hal_rtc_ex.c ****             (uint32_t)sTamper->PrechargeDuration | (uint32_t)sTamper->TamperPullUp | sTamper->TimeS
 3442              		.loc 1 1988 30 view .LVU1155
 3443 016c E169     		ldr	r1, [r4, #28]
1987:../../../core/ST/STM32L4xx_HAL_Driver/Src/stm32l4xx_hal_rtc_ex.c ****             (uint32_t)sTamper->MaskFlag | (uint32_t)sTamper->Filter | (uint32_t)sTamper->SamplingFr
 3444              		.loc 1 1987 108 view .LVU1156
 3445 016e 0B43     		orrs	r3, r3, r1
 3446              		.loc 1 1988 69 view .LVU1157
 3447 0170 216A     		ldr	r1, [r4, #32]
 3448              		.loc 1 1988 50 view .LVU1158
 3449 0172 0B43     		orrs	r3, r3, r1
 3450              		.loc 1 1988 93 view .LVU1159
 3451 0174 616A     		ldr	r1, [r4, #36]
1986:../../../core/ST/STM32L4xx_HAL_Driver/Src/stm32l4xx_hal_rtc_ex.c ****             (uint32_t)sTamper->MaskFlag | (uint32_t)sTamper->Filter | (uint32_t)sTamper->SamplingFr
 3452              		.loc 1 1986 10 view .LVU1160
 3453 0176 0B43     		orrs	r3, r3, r1
ARM GAS  C:\Users\tomra\AppData\Local\Temp\ccoul9Yc.s 			page 99


 3454              	.LVL194:
1989:../../../core/ST/STM32L4xx_HAL_Driver/Src/stm32l4xx_hal_rtc_ex.c **** 
1990:../../../core/ST/STM32L4xx_HAL_Driver/Src/stm32l4xx_hal_rtc_ex.c ****   hrtc->Instance->TAMPCR &= (uint32_t)~((uint32_t)sTamper->Tamper | (uint32_t)(sTamper->Tamper << 1
 3455              		.loc 1 1990 3 is_stmt 1 view .LVU1161
 3456              		.loc 1 1990 7 is_stmt 0 view .LVU1162
 3457 0178 2C68     		ldr	r4, [r5]
 3458              	.LVL195:
 3459              		.loc 1 1990 26 view .LVU1163
 3460 017a 216C     		ldr	r1, [r4, #64]
 3461              		.loc 1 1990 67 view .LVU1164
 3462 017c 42EA4202 		orr	r2, r2, r2, lsl #1
 3463              		.loc 1 1990 102 view .LVU1165
 3464 0180 2648     		ldr	r0, .L242+4
 3465 0182 1043     		orrs	r0, r0, r2
 3466              		.loc 1 1990 26 view .LVU1166
 3467 0184 21EA0001 		bic	r1, r1, r0
 3468 0188 2164     		str	r1, [r4, #64]
1991:../../../core/ST/STM32L4xx_HAL_Driver/Src/stm32l4xx_hal_rtc_ex.c **** 
1992:../../../core/ST/STM32L4xx_HAL_Driver/Src/stm32l4xx_hal_rtc_ex.c ****   hrtc->Instance->TAMPCR |= tmpreg;
 3469              		.loc 1 1992 3 is_stmt 1 view .LVU1167
 3470              		.loc 1 1992 7 is_stmt 0 view .LVU1168
 3471 018a 2968     		ldr	r1, [r5]
 3472              		.loc 1 1992 26 view .LVU1169
 3473 018c 0A6C     		ldr	r2, [r1, #64]
 3474 018e 1343     		orrs	r3, r3, r2
 3475              	.LVL196:
 3476              		.loc 1 1992 26 view .LVU1170
 3477 0190 0B64     		str	r3, [r1, #64]
1993:../../../core/ST/STM32L4xx_HAL_Driver/Src/stm32l4xx_hal_rtc_ex.c **** 
1994:../../../core/ST/STM32L4xx_HAL_Driver/Src/stm32l4xx_hal_rtc_ex.c ****   /* RTC Tamper Interrupt Configuration: EXTI configuration */
1995:../../../core/ST/STM32L4xx_HAL_Driver/Src/stm32l4xx_hal_rtc_ex.c ****   __HAL_RTC_TAMPER_TIMESTAMP_EXTI_ENABLE_IT();
 3478              		.loc 1 1995 3 is_stmt 1 view .LVU1171
 3479 0192 234B     		ldr	r3, .L242+8
 3480 0194 1A68     		ldr	r2, [r3]
 3481 0196 42F40022 		orr	r2, r2, #524288
 3482 019a 1A60     		str	r2, [r3]
1996:../../../core/ST/STM32L4xx_HAL_Driver/Src/stm32l4xx_hal_rtc_ex.c ****   __HAL_RTC_TAMPER_TIMESTAMP_EXTI_ENABLE_RISING_EDGE();
 3483              		.loc 1 1996 3 view .LVU1172
 3484 019c 9A68     		ldr	r2, [r3, #8]
 3485 019e 42F40022 		orr	r2, r2, #524288
 3486 01a2 9A60     		str	r2, [r3, #8]
1997:../../../core/ST/STM32L4xx_HAL_Driver/Src/stm32l4xx_hal_rtc_ex.c **** 
1998:../../../core/ST/STM32L4xx_HAL_Driver/Src/stm32l4xx_hal_rtc_ex.c ****   hrtc->State = HAL_RTC_STATE_READY;
 3487              		.loc 1 1998 3 view .LVU1173
 3488              		.loc 1 1998 15 is_stmt 0 view .LVU1174
 3489 01a4 0123     		movs	r3, #1
 3490 01a6 85F82130 		strb	r3, [r5, #33]
1999:../../../core/ST/STM32L4xx_HAL_Driver/Src/stm32l4xx_hal_rtc_ex.c **** 
2000:../../../core/ST/STM32L4xx_HAL_Driver/Src/stm32l4xx_hal_rtc_ex.c ****   /* Process Unlocked */
2001:../../../core/ST/STM32L4xx_HAL_Driver/Src/stm32l4xx_hal_rtc_ex.c ****   __HAL_UNLOCK(hrtc);
 3491              		.loc 1 2001 3 is_stmt 1 view .LVU1175
 3492              		.loc 1 2001 3 view .LVU1176
 3493 01aa 0020     		movs	r0, #0
 3494 01ac 85F82000 		strb	r0, [r5, #32]
 3495              		.loc 1 2001 3 view .LVU1177
2002:../../../core/ST/STM32L4xx_HAL_Driver/Src/stm32l4xx_hal_rtc_ex.c **** 
2003:../../../core/ST/STM32L4xx_HAL_Driver/Src/stm32l4xx_hal_rtc_ex.c ****   return HAL_OK;
ARM GAS  C:\Users\tomra\AppData\Local\Temp\ccoul9Yc.s 			page 100


 3496              		.loc 1 2003 3 view .LVU1178
 3497              	.L224:
2004:../../../core/ST/STM32L4xx_HAL_Driver/Src/stm32l4xx_hal_rtc_ex.c **** }
 3498              		.loc 1 2004 1 is_stmt 0 view .LVU1179
 3499 01b0 38BD     		pop	{r3, r4, r5, pc}
 3500              	.LVL197:
 3501              	.L234:
1924:../../../core/ST/STM32L4xx_HAL_Driver/Src/stm32l4xx_hal_rtc_ex.c ****   assert_param(IS_RTC_TAMPER_ERASE_MODE(sTamper->NoErase));
 3502              		.loc 1 1924 3 discriminator 4 view .LVU1180
 3503 01b2 40F28471 		movw	r1, #1924
 3504 01b6 1848     		ldr	r0, .L242
 3505 01b8 FFF7FEFF 		bl	assert_failed
 3506              	.LVL198:
 3507 01bc 3EE7     		b	.L216
 3508              	.L235:
1925:../../../core/ST/STM32L4xx_HAL_Driver/Src/stm32l4xx_hal_rtc_ex.c ****   assert_param(IS_RTC_TAMPER_MASKFLAG_STATE(sTamper->MaskFlag));
 3509              		.loc 1 1925 3 discriminator 2 view .LVU1181
 3510 01be 40F28571 		movw	r1, #1925
 3511 01c2 1548     		ldr	r0, .L242
 3512 01c4 FFF7FEFF 		bl	assert_failed
 3513              	.LVL199:
 3514 01c8 3EE7     		b	.L217
 3515              	.L236:
1926:../../../core/ST/STM32L4xx_HAL_Driver/Src/stm32l4xx_hal_rtc_ex.c ****   assert_param(IS_RTC_TAMPER_FILTER(sTamper->Filter));
 3516              		.loc 1 1926 3 discriminator 2 view .LVU1182
 3517 01ca 40F28671 		movw	r1, #1926
 3518 01ce 1248     		ldr	r0, .L242
 3519 01d0 FFF7FEFF 		bl	assert_failed
 3520              	.LVL200:
 3521 01d4 3FE7     		b	.L218
 3522              	.L237:
1927:../../../core/ST/STM32L4xx_HAL_Driver/Src/stm32l4xx_hal_rtc_ex.c ****   assert_param(IS_RTC_TAMPER_SAMPLING_FREQ(sTamper->SamplingFrequency));
 3523              		.loc 1 1927 3 discriminator 4 view .LVU1183
 3524 01d6 40F28771 		movw	r1, #1927
 3525 01da 0F48     		ldr	r0, .L242
 3526 01dc FFF7FEFF 		bl	assert_failed
 3527              	.LVL201:
 3528 01e0 45E7     		b	.L219
 3529              	.L238:
1928:../../../core/ST/STM32L4xx_HAL_Driver/Src/stm32l4xx_hal_rtc_ex.c ****   assert_param(IS_RTC_TAMPER_PRECHARGE_DURATION(sTamper->PrechargeDuration));
 3530              		.loc 1 1928 3 discriminator 8 view .LVU1184
 3531 01e2 4FF4F161 		mov	r1, #1928
 3532 01e6 0C48     		ldr	r0, .L242
 3533 01e8 FFF7FEFF 		bl	assert_failed
 3534              	.LVL202:
 3535 01ec 57E7     		b	.L220
 3536              	.L239:
1929:../../../core/ST/STM32L4xx_HAL_Driver/Src/stm32l4xx_hal_rtc_ex.c ****   assert_param(IS_RTC_TAMPER_PULLUP_STATE(sTamper->TamperPullUp));
 3537              		.loc 1 1929 3 discriminator 4 view .LVU1185
 3538 01ee 40F28971 		movw	r1, #1929
 3539 01f2 0948     		ldr	r0, .L242
 3540 01f4 FFF7FEFF 		bl	assert_failed
 3541              	.LVL203:
 3542 01f8 5DE7     		b	.L221
 3543              	.L240:
1930:../../../core/ST/STM32L4xx_HAL_Driver/Src/stm32l4xx_hal_rtc_ex.c ****   assert_param(IS_RTC_TAMPER_TIMESTAMPONTAMPER_DETECTION(sTamper->TimeStampOnTamperDetection));
 3544              		.loc 1 1930 3 discriminator 2 view .LVU1186
ARM GAS  C:\Users\tomra\AppData\Local\Temp\ccoul9Yc.s 			page 101


 3545 01fa 40F28A71 		movw	r1, #1930
 3546 01fe 0648     		ldr	r0, .L242
 3547 0200 FFF7FEFF 		bl	assert_failed
 3548              	.LVL204:
 3549 0204 5DE7     		b	.L222
 3550              	.L241:
1931:../../../core/ST/STM32L4xx_HAL_Driver/Src/stm32l4xx_hal_rtc_ex.c **** 
 3551              		.loc 1 1931 3 discriminator 2 view .LVU1187
 3552 0206 40F28B71 		movw	r1, #1931
 3553 020a 0348     		ldr	r0, .L242
 3554 020c FFF7FEFF 		bl	assert_failed
 3555              	.LVL205:
 3556 0210 5DE7     		b	.L223
 3557              	.L232:
1934:../../../core/ST/STM32L4xx_HAL_Driver/Src/stm32l4xx_hal_rtc_ex.c **** 
 3558              		.loc 1 1934 3 view .LVU1188
 3559 0212 0220     		movs	r0, #2
 3560 0214 CCE7     		b	.L224
 3561              	.L243:
 3562 0216 00BF     		.align	2
 3563              	.L242:
 3564 0218 00000000 		.word	.LC0
 3565 021c 84FFFF01 		.word	33554308
 3566 0220 00040140 		.word	1073808384
 3567              		.cfi_endproc
 3568              	.LFE150:
 3570              		.section	.text.HAL_RTCEx_DeactivateTamper,"ax",%progbits
 3571              		.align	1
 3572              		.global	HAL_RTCEx_DeactivateTamper
 3573              		.syntax unified
 3574              		.thumb
 3575              		.thumb_func
 3576              		.fpu fpv4-sp-d16
 3578              	HAL_RTCEx_DeactivateTamper:
 3579              	.LVL206:
 3580              	.LFB151:
2005:../../../core/ST/STM32L4xx_HAL_Driver/Src/stm32l4xx_hal_rtc_ex.c **** #endif /* #if defined(STM32L412xx) || defined(STM32L422xx) */
2006:../../../core/ST/STM32L4xx_HAL_Driver/Src/stm32l4xx_hal_rtc_ex.c **** 
2007:../../../core/ST/STM32L4xx_HAL_Driver/Src/stm32l4xx_hal_rtc_ex.c **** 
2008:../../../core/ST/STM32L4xx_HAL_Driver/Src/stm32l4xx_hal_rtc_ex.c **** #if defined(STM32L412xx) || defined(STM32L422xx)
2009:../../../core/ST/STM32L4xx_HAL_Driver/Src/stm32l4xx_hal_rtc_ex.c **** /**
2010:../../../core/ST/STM32L4xx_HAL_Driver/Src/stm32l4xx_hal_rtc_ex.c ****   * @brief  Deactivate Tamper.
2011:../../../core/ST/STM32L4xx_HAL_Driver/Src/stm32l4xx_hal_rtc_ex.c ****   * @param  hrtc RTC handle
2012:../../../core/ST/STM32L4xx_HAL_Driver/Src/stm32l4xx_hal_rtc_ex.c ****   * @param  Tamper Selected tamper pin.
2013:../../../core/ST/STM32L4xx_HAL_Driver/Src/stm32l4xx_hal_rtc_ex.c ****   *         This parameter can be a combination of the following values:
2014:../../../core/ST/STM32L4xx_HAL_Driver/Src/stm32l4xx_hal_rtc_ex.c ****   *         @arg RTC_TAMPER_1
2015:../../../core/ST/STM32L4xx_HAL_Driver/Src/stm32l4xx_hal_rtc_ex.c ****   *         @arg RTC_TAMPER_2
2016:../../../core/ST/STM32L4xx_HAL_Driver/Src/stm32l4xx_hal_rtc_ex.c ****   * @retval HAL status
2017:../../../core/ST/STM32L4xx_HAL_Driver/Src/stm32l4xx_hal_rtc_ex.c ****   */
2018:../../../core/ST/STM32L4xx_HAL_Driver/Src/stm32l4xx_hal_rtc_ex.c **** HAL_StatusTypeDef HAL_RTCEx_DeactivateTamper(RTC_HandleTypeDef *hrtc, uint32_t Tamper)
2019:../../../core/ST/STM32L4xx_HAL_Driver/Src/stm32l4xx_hal_rtc_ex.c **** {
2020:../../../core/ST/STM32L4xx_HAL_Driver/Src/stm32l4xx_hal_rtc_ex.c ****   /* Process TAMP instance pointer */
2021:../../../core/ST/STM32L4xx_HAL_Driver/Src/stm32l4xx_hal_rtc_ex.c ****   TAMP_TypeDef *tamp = (TAMP_TypeDef *)((uint32_t)hrtc->Instance + hrtc->TampOffset);
2022:../../../core/ST/STM32L4xx_HAL_Driver/Src/stm32l4xx_hal_rtc_ex.c **** 
2023:../../../core/ST/STM32L4xx_HAL_Driver/Src/stm32l4xx_hal_rtc_ex.c ****   assert_param(IS_RTC_TAMPER(Tamper));
2024:../../../core/ST/STM32L4xx_HAL_Driver/Src/stm32l4xx_hal_rtc_ex.c **** 
2025:../../../core/ST/STM32L4xx_HAL_Driver/Src/stm32l4xx_hal_rtc_ex.c ****   /* Disable the selected Tamper pin */
ARM GAS  C:\Users\tomra\AppData\Local\Temp\ccoul9Yc.s 			page 102


2026:../../../core/ST/STM32L4xx_HAL_Driver/Src/stm32l4xx_hal_rtc_ex.c ****   tamp->CR1 &= ~Tamper;
2027:../../../core/ST/STM32L4xx_HAL_Driver/Src/stm32l4xx_hal_rtc_ex.c **** 
2028:../../../core/ST/STM32L4xx_HAL_Driver/Src/stm32l4xx_hal_rtc_ex.c ****   /* Clear tamper mask/noerase/trigger configuration */
2029:../../../core/ST/STM32L4xx_HAL_Driver/Src/stm32l4xx_hal_rtc_ex.c ****   tamp->CR2 &= ~((Tamper << 24) | (Tamper << 16) | Tamper);
2030:../../../core/ST/STM32L4xx_HAL_Driver/Src/stm32l4xx_hal_rtc_ex.c **** 
2031:../../../core/ST/STM32L4xx_HAL_Driver/Src/stm32l4xx_hal_rtc_ex.c ****   /* Clear tamper interrupt mode configuration */
2032:../../../core/ST/STM32L4xx_HAL_Driver/Src/stm32l4xx_hal_rtc_ex.c ****   tamp->IER &= ~Tamper;
2033:../../../core/ST/STM32L4xx_HAL_Driver/Src/stm32l4xx_hal_rtc_ex.c **** 
2034:../../../core/ST/STM32L4xx_HAL_Driver/Src/stm32l4xx_hal_rtc_ex.c ****   /* Clear tamper interrupt and event flags (WO register) */
2035:../../../core/ST/STM32L4xx_HAL_Driver/Src/stm32l4xx_hal_rtc_ex.c ****   tamp->SCR = Tamper;
2036:../../../core/ST/STM32L4xx_HAL_Driver/Src/stm32l4xx_hal_rtc_ex.c **** 
2037:../../../core/ST/STM32L4xx_HAL_Driver/Src/stm32l4xx_hal_rtc_ex.c ****   return HAL_OK;
2038:../../../core/ST/STM32L4xx_HAL_Driver/Src/stm32l4xx_hal_rtc_ex.c **** }
2039:../../../core/ST/STM32L4xx_HAL_Driver/Src/stm32l4xx_hal_rtc_ex.c **** #else /* #if defined(STM32L412xx) || defined(STM32L422xx) */
2040:../../../core/ST/STM32L4xx_HAL_Driver/Src/stm32l4xx_hal_rtc_ex.c **** /**
2041:../../../core/ST/STM32L4xx_HAL_Driver/Src/stm32l4xx_hal_rtc_ex.c ****   * @brief  Deactivate Tamper.
2042:../../../core/ST/STM32L4xx_HAL_Driver/Src/stm32l4xx_hal_rtc_ex.c ****   * @param  hrtc RTC handle
2043:../../../core/ST/STM32L4xx_HAL_Driver/Src/stm32l4xx_hal_rtc_ex.c ****   * @param  Tamper Selected tamper pin.
2044:../../../core/ST/STM32L4xx_HAL_Driver/Src/stm32l4xx_hal_rtc_ex.c ****   *         This parameter can be any combination of the following values:
2045:../../../core/ST/STM32L4xx_HAL_Driver/Src/stm32l4xx_hal_rtc_ex.c ****   *         @arg RTC_TAMPER_1
2046:../../../core/ST/STM32L4xx_HAL_Driver/Src/stm32l4xx_hal_rtc_ex.c ****   *         @arg RTC_TAMPER_2
2047:../../../core/ST/STM32L4xx_HAL_Driver/Src/stm32l4xx_hal_rtc_ex.c ****   *         @arg RTC_TAMPER_3
2048:../../../core/ST/STM32L4xx_HAL_Driver/Src/stm32l4xx_hal_rtc_ex.c ****   * @retval HAL status
2049:../../../core/ST/STM32L4xx_HAL_Driver/Src/stm32l4xx_hal_rtc_ex.c ****   */
2050:../../../core/ST/STM32L4xx_HAL_Driver/Src/stm32l4xx_hal_rtc_ex.c **** HAL_StatusTypeDef HAL_RTCEx_DeactivateTamper(RTC_HandleTypeDef *hrtc, uint32_t Tamper)
2051:../../../core/ST/STM32L4xx_HAL_Driver/Src/stm32l4xx_hal_rtc_ex.c **** {
 3581              		.loc 1 2051 1 is_stmt 1 view -0
 3582              		.cfi_startproc
 3583              		@ args = 0, pretend = 0, frame = 0
 3584              		@ frame_needed = 0, uses_anonymous_args = 0
 3585              		.loc 1 2051 1 is_stmt 0 view .LVU1190
 3586 0000 38B5     		push	{r3, r4, r5, lr}
 3587              	.LCFI19:
 3588              		.cfi_def_cfa_offset 16
 3589              		.cfi_offset 3, -16
 3590              		.cfi_offset 4, -12
 3591              		.cfi_offset 5, -8
 3592              		.cfi_offset 14, -4
 3593 0002 0446     		mov	r4, r0
 3594 0004 0D46     		mov	r5, r1
2052:../../../core/ST/STM32L4xx_HAL_Driver/Src/stm32l4xx_hal_rtc_ex.c ****   assert_param(IS_RTC_TAMPER(Tamper));
 3595              		.loc 1 2052 3 is_stmt 1 view .LVU1191
 3596 0006 31F02903 		bics	r3, r1, #41
 3597 000a 00D1     		bne	.L245
 3598              		.loc 1 2052 3 is_stmt 0 discriminator 2 view .LVU1192
 3599 000c 21B9     		cbnz	r1, .L246
 3600              	.L245:
 3601              		.loc 1 2052 3 discriminator 3 view .LVU1193
 3602 000e 40F60401 		movw	r1, #2052
 3603              	.LVL207:
 3604              		.loc 1 2052 3 discriminator 3 view .LVU1194
 3605 0012 1C48     		ldr	r0, .L253
 3606              	.LVL208:
 3607              		.loc 1 2052 3 discriminator 3 view .LVU1195
 3608 0014 FFF7FEFF 		bl	assert_failed
 3609              	.LVL209:
 3610              	.L246:
ARM GAS  C:\Users\tomra\AppData\Local\Temp\ccoul9Yc.s 			page 103


2053:../../../core/ST/STM32L4xx_HAL_Driver/Src/stm32l4xx_hal_rtc_ex.c **** 
2054:../../../core/ST/STM32L4xx_HAL_Driver/Src/stm32l4xx_hal_rtc_ex.c ****   /* Process Locked */
2055:../../../core/ST/STM32L4xx_HAL_Driver/Src/stm32l4xx_hal_rtc_ex.c ****   __HAL_LOCK(hrtc);
 3611              		.loc 1 2055 3 is_stmt 1 view .LVU1196
 3612              		.loc 1 2055 3 view .LVU1197
 3613 0018 94F82030 		ldrb	r3, [r4, #32]	@ zero_extendqisi2
 3614 001c 012B     		cmp	r3, #1
 3615 001e 2FD0     		beq	.L251
 3616              		.loc 1 2055 3 discriminator 2 view .LVU1198
 3617 0020 0123     		movs	r3, #1
 3618 0022 84F82030 		strb	r3, [r4, #32]
 3619              		.loc 1 2055 3 discriminator 2 view .LVU1199
2056:../../../core/ST/STM32L4xx_HAL_Driver/Src/stm32l4xx_hal_rtc_ex.c **** 
2057:../../../core/ST/STM32L4xx_HAL_Driver/Src/stm32l4xx_hal_rtc_ex.c ****   hrtc->State = HAL_RTC_STATE_BUSY;
 3620              		.loc 1 2057 3 discriminator 2 view .LVU1200
 3621              		.loc 1 2057 15 is_stmt 0 discriminator 2 view .LVU1201
 3622 0026 0223     		movs	r3, #2
 3623 0028 84F82130 		strb	r3, [r4, #33]
2058:../../../core/ST/STM32L4xx_HAL_Driver/Src/stm32l4xx_hal_rtc_ex.c **** 
2059:../../../core/ST/STM32L4xx_HAL_Driver/Src/stm32l4xx_hal_rtc_ex.c ****   /* Disable the selected Tamper pin */
2060:../../../core/ST/STM32L4xx_HAL_Driver/Src/stm32l4xx_hal_rtc_ex.c ****   hrtc->Instance->TAMPCR &= ~Tamper;
 3624              		.loc 1 2060 3 is_stmt 1 discriminator 2 view .LVU1202
 3625              		.loc 1 2060 7 is_stmt 0 discriminator 2 view .LVU1203
 3626 002c 2268     		ldr	r2, [r4]
 3627              		.loc 1 2060 26 discriminator 2 view .LVU1204
 3628 002e 136C     		ldr	r3, [r2, #64]
 3629 0030 23EA0503 		bic	r3, r3, r5
 3630 0034 1364     		str	r3, [r2, #64]
2061:../../../core/ST/STM32L4xx_HAL_Driver/Src/stm32l4xx_hal_rtc_ex.c **** 
2062:../../../core/ST/STM32L4xx_HAL_Driver/Src/stm32l4xx_hal_rtc_ex.c **** #if defined(RTC_TAMPER1_SUPPORT)
2063:../../../core/ST/STM32L4xx_HAL_Driver/Src/stm32l4xx_hal_rtc_ex.c ****   if ((Tamper & RTC_TAMPER_1) != 0U)
 3631              		.loc 1 2063 3 is_stmt 1 discriminator 2 view .LVU1205
 3632              		.loc 1 2063 6 is_stmt 0 discriminator 2 view .LVU1206
 3633 0036 15F0010F 		tst	r5, #1
 3634 003a 06D0     		beq	.L248
2064:../../../core/ST/STM32L4xx_HAL_Driver/Src/stm32l4xx_hal_rtc_ex.c ****   {
2065:../../../core/ST/STM32L4xx_HAL_Driver/Src/stm32l4xx_hal_rtc_ex.c ****     /* Disable the Tamper1 interrupt */
2066:../../../core/ST/STM32L4xx_HAL_Driver/Src/stm32l4xx_hal_rtc_ex.c ****     hrtc->Instance->TAMPCR &= ((uint32_t)~(RTC_IT_TAMP | RTC_IT_TAMP1));
 3635              		.loc 1 2066 5 is_stmt 1 view .LVU1207
 3636              		.loc 1 2066 9 is_stmt 0 view .LVU1208
 3637 003c 2268     		ldr	r2, [r4]
 3638              		.loc 1 2066 28 view .LVU1209
 3639 003e 136C     		ldr	r3, [r2, #64]
 3640 0040 23F48033 		bic	r3, r3, #65536
 3641 0044 23F00403 		bic	r3, r3, #4
 3642 0048 1364     		str	r3, [r2, #64]
 3643              	.L248:
2067:../../../core/ST/STM32L4xx_HAL_Driver/Src/stm32l4xx_hal_rtc_ex.c ****   }
2068:../../../core/ST/STM32L4xx_HAL_Driver/Src/stm32l4xx_hal_rtc_ex.c **** #endif /* RTC_TAMPER1_SUPPORT */
2069:../../../core/ST/STM32L4xx_HAL_Driver/Src/stm32l4xx_hal_rtc_ex.c ****   if ((Tamper & RTC_TAMPER_2) != 0U)
 3644              		.loc 1 2069 3 is_stmt 1 view .LVU1210
 3645              		.loc 1 2069 6 is_stmt 0 view .LVU1211
 3646 004a 15F0080F 		tst	r5, #8
 3647 004e 06D0     		beq	.L249
2070:../../../core/ST/STM32L4xx_HAL_Driver/Src/stm32l4xx_hal_rtc_ex.c ****   {
2071:../../../core/ST/STM32L4xx_HAL_Driver/Src/stm32l4xx_hal_rtc_ex.c ****     /* Disable the Tamper2 interrupt */
2072:../../../core/ST/STM32L4xx_HAL_Driver/Src/stm32l4xx_hal_rtc_ex.c ****     hrtc->Instance->TAMPCR &= ((uint32_t)~(RTC_IT_TAMP | RTC_IT_TAMP2));
ARM GAS  C:\Users\tomra\AppData\Local\Temp\ccoul9Yc.s 			page 104


 3648              		.loc 1 2072 5 is_stmt 1 view .LVU1212
 3649              		.loc 1 2072 9 is_stmt 0 view .LVU1213
 3650 0050 2268     		ldr	r2, [r4]
 3651              		.loc 1 2072 28 view .LVU1214
 3652 0052 136C     		ldr	r3, [r2, #64]
 3653 0054 23F40023 		bic	r3, r3, #524288
 3654 0058 23F00403 		bic	r3, r3, #4
 3655 005c 1364     		str	r3, [r2, #64]
 3656              	.L249:
2073:../../../core/ST/STM32L4xx_HAL_Driver/Src/stm32l4xx_hal_rtc_ex.c ****   }
2074:../../../core/ST/STM32L4xx_HAL_Driver/Src/stm32l4xx_hal_rtc_ex.c **** #if defined(RTC_TAMPER3_SUPPORT)
2075:../../../core/ST/STM32L4xx_HAL_Driver/Src/stm32l4xx_hal_rtc_ex.c ****   if ((Tamper & RTC_TAMPER_3) != 0U)
 3657              		.loc 1 2075 3 is_stmt 1 view .LVU1215
 3658              		.loc 1 2075 6 is_stmt 0 view .LVU1216
 3659 005e 15F0200F 		tst	r5, #32
 3660 0062 06D0     		beq	.L250
2076:../../../core/ST/STM32L4xx_HAL_Driver/Src/stm32l4xx_hal_rtc_ex.c ****   {
2077:../../../core/ST/STM32L4xx_HAL_Driver/Src/stm32l4xx_hal_rtc_ex.c ****     /* Disable the Tamper3 interrupt */
2078:../../../core/ST/STM32L4xx_HAL_Driver/Src/stm32l4xx_hal_rtc_ex.c ****     hrtc->Instance->TAMPCR &= ((uint32_t)~(RTC_IT_TAMP | RTC_IT_TAMP3));
 3661              		.loc 1 2078 5 is_stmt 1 view .LVU1217
 3662              		.loc 1 2078 9 is_stmt 0 view .LVU1218
 3663 0064 2268     		ldr	r2, [r4]
 3664              		.loc 1 2078 28 view .LVU1219
 3665 0066 136C     		ldr	r3, [r2, #64]
 3666 0068 23F48003 		bic	r3, r3, #4194304
 3667 006c 23F00403 		bic	r3, r3, #4
 3668 0070 1364     		str	r3, [r2, #64]
 3669              	.L250:
2079:../../../core/ST/STM32L4xx_HAL_Driver/Src/stm32l4xx_hal_rtc_ex.c ****   }
2080:../../../core/ST/STM32L4xx_HAL_Driver/Src/stm32l4xx_hal_rtc_ex.c **** #endif /* RTC_TAMPER3_SUPPORT */
2081:../../../core/ST/STM32L4xx_HAL_Driver/Src/stm32l4xx_hal_rtc_ex.c **** 
2082:../../../core/ST/STM32L4xx_HAL_Driver/Src/stm32l4xx_hal_rtc_ex.c ****   hrtc->State = HAL_RTC_STATE_READY;
 3670              		.loc 1 2082 3 is_stmt 1 view .LVU1220
 3671              		.loc 1 2082 15 is_stmt 0 view .LVU1221
 3672 0072 0123     		movs	r3, #1
 3673 0074 84F82130 		strb	r3, [r4, #33]
2083:../../../core/ST/STM32L4xx_HAL_Driver/Src/stm32l4xx_hal_rtc_ex.c **** 
2084:../../../core/ST/STM32L4xx_HAL_Driver/Src/stm32l4xx_hal_rtc_ex.c ****   /* Process Unlocked */
2085:../../../core/ST/STM32L4xx_HAL_Driver/Src/stm32l4xx_hal_rtc_ex.c ****   __HAL_UNLOCK(hrtc);
 3674              		.loc 1 2085 3 is_stmt 1 view .LVU1222
 3675              		.loc 1 2085 3 view .LVU1223
 3676 0078 0020     		movs	r0, #0
 3677 007a 84F82000 		strb	r0, [r4, #32]
 3678              		.loc 1 2085 3 view .LVU1224
2086:../../../core/ST/STM32L4xx_HAL_Driver/Src/stm32l4xx_hal_rtc_ex.c **** 
2087:../../../core/ST/STM32L4xx_HAL_Driver/Src/stm32l4xx_hal_rtc_ex.c ****   return HAL_OK;
 3679              		.loc 1 2087 3 view .LVU1225
 3680              	.L247:
2088:../../../core/ST/STM32L4xx_HAL_Driver/Src/stm32l4xx_hal_rtc_ex.c **** }
 3681              		.loc 1 2088 1 is_stmt 0 view .LVU1226
 3682 007e 38BD     		pop	{r3, r4, r5, pc}
 3683              	.LVL210:
 3684              	.L251:
2055:../../../core/ST/STM32L4xx_HAL_Driver/Src/stm32l4xx_hal_rtc_ex.c **** 
 3685              		.loc 1 2055 3 view .LVU1227
 3686 0080 0220     		movs	r0, #2
 3687 0082 FCE7     		b	.L247
ARM GAS  C:\Users\tomra\AppData\Local\Temp\ccoul9Yc.s 			page 105


 3688              	.L254:
 3689              		.align	2
 3690              	.L253:
 3691 0084 00000000 		.word	.LC0
 3692              		.cfi_endproc
 3693              	.LFE151:
 3695              		.section	.text.HAL_RTCEx_PollForTamper1Event,"ax",%progbits
 3696              		.align	1
 3697              		.global	HAL_RTCEx_PollForTamper1Event
 3698              		.syntax unified
 3699              		.thumb
 3700              		.thumb_func
 3701              		.fpu fpv4-sp-d16
 3703              	HAL_RTCEx_PollForTamper1Event:
 3704              	.LVL211:
 3705              	.LFB152:
2089:../../../core/ST/STM32L4xx_HAL_Driver/Src/stm32l4xx_hal_rtc_ex.c **** #endif /* #if defined(STM32L412xx) || defined(STM32L422xx) */
2090:../../../core/ST/STM32L4xx_HAL_Driver/Src/stm32l4xx_hal_rtc_ex.c **** 
2091:../../../core/ST/STM32L4xx_HAL_Driver/Src/stm32l4xx_hal_rtc_ex.c **** 
2092:../../../core/ST/STM32L4xx_HAL_Driver/Src/stm32l4xx_hal_rtc_ex.c **** #if defined(RTC_TAMPER1_SUPPORT)
2093:../../../core/ST/STM32L4xx_HAL_Driver/Src/stm32l4xx_hal_rtc_ex.c **** /**
2094:../../../core/ST/STM32L4xx_HAL_Driver/Src/stm32l4xx_hal_rtc_ex.c ****   * @brief  Handle Tamper 1 Polling.
2095:../../../core/ST/STM32L4xx_HAL_Driver/Src/stm32l4xx_hal_rtc_ex.c ****   * @param  hrtc RTC handle
2096:../../../core/ST/STM32L4xx_HAL_Driver/Src/stm32l4xx_hal_rtc_ex.c ****   * @param  Timeout Timeout duration
2097:../../../core/ST/STM32L4xx_HAL_Driver/Src/stm32l4xx_hal_rtc_ex.c ****   * @retval HAL status
2098:../../../core/ST/STM32L4xx_HAL_Driver/Src/stm32l4xx_hal_rtc_ex.c ****   */
2099:../../../core/ST/STM32L4xx_HAL_Driver/Src/stm32l4xx_hal_rtc_ex.c **** HAL_StatusTypeDef HAL_RTCEx_PollForTamper1Event(RTC_HandleTypeDef *hrtc, uint32_t Timeout)
2100:../../../core/ST/STM32L4xx_HAL_Driver/Src/stm32l4xx_hal_rtc_ex.c **** {
 3706              		.loc 1 2100 1 is_stmt 1 view -0
 3707              		.cfi_startproc
 3708              		@ args = 0, pretend = 0, frame = 0
 3709              		@ frame_needed = 0, uses_anonymous_args = 0
 3710              		.loc 1 2100 1 is_stmt 0 view .LVU1229
 3711 0000 70B5     		push	{r4, r5, r6, lr}
 3712              	.LCFI20:
 3713              		.cfi_def_cfa_offset 16
 3714              		.cfi_offset 4, -16
 3715              		.cfi_offset 5, -12
 3716              		.cfi_offset 6, -8
 3717              		.cfi_offset 14, -4
 3718 0002 0446     		mov	r4, r0
 3719 0004 0D46     		mov	r5, r1
2101:../../../core/ST/STM32L4xx_HAL_Driver/Src/stm32l4xx_hal_rtc_ex.c ****   uint32_t tickstart = HAL_GetTick();
 3720              		.loc 1 2101 3 is_stmt 1 view .LVU1230
 3721              		.loc 1 2101 24 is_stmt 0 view .LVU1231
 3722 0006 FFF7FEFF 		bl	HAL_GetTick
 3723              	.LVL212:
 3724              		.loc 1 2101 24 view .LVU1232
 3725 000a 0646     		mov	r6, r0
 3726              	.LVL213:
2102:../../../core/ST/STM32L4xx_HAL_Driver/Src/stm32l4xx_hal_rtc_ex.c **** 
2103:../../../core/ST/STM32L4xx_HAL_Driver/Src/stm32l4xx_hal_rtc_ex.c ****   /* Get the status of the Interrupt */
2104:../../../core/ST/STM32L4xx_HAL_Driver/Src/stm32l4xx_hal_rtc_ex.c ****   while(__HAL_RTC_TAMPER_GET_FLAG(hrtc, RTC_FLAG_TAMP1F)== 0U)
 3727              		.loc 1 2104 3 is_stmt 1 view .LVU1233
 3728              	.L257:
 3729              		.loc 1 2104 8 view .LVU1234
 3730              		.loc 1 2104 9 is_stmt 0 view .LVU1235
ARM GAS  C:\Users\tomra\AppData\Local\Temp\ccoul9Yc.s 			page 106


 3731 000c 2368     		ldr	r3, [r4]
 3732 000e DA68     		ldr	r2, [r3, #12]
 3733              		.loc 1 2104 8 view .LVU1236
 3734 0010 12F4005F 		tst	r2, #8192
 3735 0014 0DD1     		bne	.L262
2105:../../../core/ST/STM32L4xx_HAL_Driver/Src/stm32l4xx_hal_rtc_ex.c ****   {
2106:../../../core/ST/STM32L4xx_HAL_Driver/Src/stm32l4xx_hal_rtc_ex.c ****     if(Timeout != HAL_MAX_DELAY)
 3736              		.loc 1 2106 5 is_stmt 1 view .LVU1237
 3737              		.loc 1 2106 7 is_stmt 0 view .LVU1238
 3738 0016 B5F1FF3F 		cmp	r5, #-1
 3739 001a F7D0     		beq	.L257
2107:../../../core/ST/STM32L4xx_HAL_Driver/Src/stm32l4xx_hal_rtc_ex.c ****     {
2108:../../../core/ST/STM32L4xx_HAL_Driver/Src/stm32l4xx_hal_rtc_ex.c ****       if(((HAL_GetTick() - tickstart ) > Timeout)||(Timeout == 0U))
 3740              		.loc 1 2108 7 is_stmt 1 view .LVU1239
 3741              		.loc 1 2108 12 is_stmt 0 view .LVU1240
 3742 001c FFF7FEFF 		bl	HAL_GetTick
 3743              	.LVL214:
 3744              		.loc 1 2108 26 view .LVU1241
 3745 0020 801B     		subs	r0, r0, r6
 3746              		.loc 1 2108 9 view .LVU1242
 3747 0022 A842     		cmp	r0, r5
 3748 0024 01D8     		bhi	.L258
 3749              		.loc 1 2108 50 discriminator 1 view .LVU1243
 3750 0026 002D     		cmp	r5, #0
 3751 0028 F0D1     		bne	.L257
 3752              	.L258:
2109:../../../core/ST/STM32L4xx_HAL_Driver/Src/stm32l4xx_hal_rtc_ex.c ****       {
2110:../../../core/ST/STM32L4xx_HAL_Driver/Src/stm32l4xx_hal_rtc_ex.c ****         hrtc->State = HAL_RTC_STATE_TIMEOUT;
 3753              		.loc 1 2110 9 is_stmt 1 view .LVU1244
 3754              		.loc 1 2110 21 is_stmt 0 view .LVU1245
 3755 002a 0320     		movs	r0, #3
 3756 002c 84F82100 		strb	r0, [r4, #33]
2111:../../../core/ST/STM32L4xx_HAL_Driver/Src/stm32l4xx_hal_rtc_ex.c ****         return HAL_TIMEOUT;
 3757              		.loc 1 2111 9 is_stmt 1 view .LVU1246
 3758              		.loc 1 2111 16 is_stmt 0 view .LVU1247
 3759 0030 08E0     		b	.L259
 3760              	.L262:
2112:../../../core/ST/STM32L4xx_HAL_Driver/Src/stm32l4xx_hal_rtc_ex.c ****       }
2113:../../../core/ST/STM32L4xx_HAL_Driver/Src/stm32l4xx_hal_rtc_ex.c ****     }
2114:../../../core/ST/STM32L4xx_HAL_Driver/Src/stm32l4xx_hal_rtc_ex.c ****   }
2115:../../../core/ST/STM32L4xx_HAL_Driver/Src/stm32l4xx_hal_rtc_ex.c **** 
2116:../../../core/ST/STM32L4xx_HAL_Driver/Src/stm32l4xx_hal_rtc_ex.c ****   /* Clear the Tamper Flag */
2117:../../../core/ST/STM32L4xx_HAL_Driver/Src/stm32l4xx_hal_rtc_ex.c ****   __HAL_RTC_TAMPER_CLEAR_FLAG(hrtc, RTC_FLAG_TAMP1F);
 3761              		.loc 1 2117 3 is_stmt 1 view .LVU1248
 3762 0032 DA68     		ldr	r2, [r3, #12]
 3763 0034 D2B2     		uxtb	r2, r2
 3764 0036 62F40252 		orn	r2, r2, #8320
 3765 003a DA60     		str	r2, [r3, #12]
2118:../../../core/ST/STM32L4xx_HAL_Driver/Src/stm32l4xx_hal_rtc_ex.c **** 
2119:../../../core/ST/STM32L4xx_HAL_Driver/Src/stm32l4xx_hal_rtc_ex.c ****   /* Change RTC state */
2120:../../../core/ST/STM32L4xx_HAL_Driver/Src/stm32l4xx_hal_rtc_ex.c ****   hrtc->State = HAL_RTC_STATE_READY;
 3766              		.loc 1 2120 3 view .LVU1249
 3767              		.loc 1 2120 15 is_stmt 0 view .LVU1250
 3768 003c 0123     		movs	r3, #1
 3769 003e 84F82130 		strb	r3, [r4, #33]
2121:../../../core/ST/STM32L4xx_HAL_Driver/Src/stm32l4xx_hal_rtc_ex.c **** 
2122:../../../core/ST/STM32L4xx_HAL_Driver/Src/stm32l4xx_hal_rtc_ex.c ****   return HAL_OK;
ARM GAS  C:\Users\tomra\AppData\Local\Temp\ccoul9Yc.s 			page 107


 3770              		.loc 1 2122 3 is_stmt 1 view .LVU1251
 3771              		.loc 1 2122 10 is_stmt 0 view .LVU1252
 3772 0042 0020     		movs	r0, #0
 3773              	.L259:
2123:../../../core/ST/STM32L4xx_HAL_Driver/Src/stm32l4xx_hal_rtc_ex.c **** }
 3774              		.loc 1 2123 1 view .LVU1253
 3775 0044 70BD     		pop	{r4, r5, r6, pc}
 3776              		.loc 1 2123 1 view .LVU1254
 3777              		.cfi_endproc
 3778              	.LFE152:
 3780              		.section	.text.HAL_RTCEx_PollForTamper2Event,"ax",%progbits
 3781              		.align	1
 3782              		.global	HAL_RTCEx_PollForTamper2Event
 3783              		.syntax unified
 3784              		.thumb
 3785              		.thumb_func
 3786              		.fpu fpv4-sp-d16
 3788              	HAL_RTCEx_PollForTamper2Event:
 3789              	.LVL215:
 3790              	.LFB153:
2124:../../../core/ST/STM32L4xx_HAL_Driver/Src/stm32l4xx_hal_rtc_ex.c **** #endif /* RTC_TAMPER1_SUPPORT */
2125:../../../core/ST/STM32L4xx_HAL_Driver/Src/stm32l4xx_hal_rtc_ex.c **** 
2126:../../../core/ST/STM32L4xx_HAL_Driver/Src/stm32l4xx_hal_rtc_ex.c **** /**
2127:../../../core/ST/STM32L4xx_HAL_Driver/Src/stm32l4xx_hal_rtc_ex.c ****   * @brief  Handle Tamper 2 Polling.
2128:../../../core/ST/STM32L4xx_HAL_Driver/Src/stm32l4xx_hal_rtc_ex.c ****   * @param  hrtc RTC handle
2129:../../../core/ST/STM32L4xx_HAL_Driver/Src/stm32l4xx_hal_rtc_ex.c ****   * @param  Timeout Timeout duration
2130:../../../core/ST/STM32L4xx_HAL_Driver/Src/stm32l4xx_hal_rtc_ex.c ****   * @retval HAL status
2131:../../../core/ST/STM32L4xx_HAL_Driver/Src/stm32l4xx_hal_rtc_ex.c ****   */
2132:../../../core/ST/STM32L4xx_HAL_Driver/Src/stm32l4xx_hal_rtc_ex.c **** HAL_StatusTypeDef HAL_RTCEx_PollForTamper2Event(RTC_HandleTypeDef *hrtc, uint32_t Timeout)
2133:../../../core/ST/STM32L4xx_HAL_Driver/Src/stm32l4xx_hal_rtc_ex.c **** {
 3791              		.loc 1 2133 1 is_stmt 1 view -0
 3792              		.cfi_startproc
 3793              		@ args = 0, pretend = 0, frame = 0
 3794              		@ frame_needed = 0, uses_anonymous_args = 0
 3795              		.loc 1 2133 1 is_stmt 0 view .LVU1256
 3796 0000 70B5     		push	{r4, r5, r6, lr}
 3797              	.LCFI21:
 3798              		.cfi_def_cfa_offset 16
 3799              		.cfi_offset 4, -16
 3800              		.cfi_offset 5, -12
 3801              		.cfi_offset 6, -8
 3802              		.cfi_offset 14, -4
 3803 0002 0446     		mov	r4, r0
 3804 0004 0D46     		mov	r5, r1
2134:../../../core/ST/STM32L4xx_HAL_Driver/Src/stm32l4xx_hal_rtc_ex.c ****   uint32_t tickstart = HAL_GetTick();
 3805              		.loc 1 2134 3 is_stmt 1 view .LVU1257
 3806              		.loc 1 2134 24 is_stmt 0 view .LVU1258
 3807 0006 FFF7FEFF 		bl	HAL_GetTick
 3808              	.LVL216:
 3809              		.loc 1 2134 24 view .LVU1259
 3810 000a 0646     		mov	r6, r0
 3811              	.LVL217:
2135:../../../core/ST/STM32L4xx_HAL_Driver/Src/stm32l4xx_hal_rtc_ex.c **** 
2136:../../../core/ST/STM32L4xx_HAL_Driver/Src/stm32l4xx_hal_rtc_ex.c ****   /* Get the status of the Interrupt */
2137:../../../core/ST/STM32L4xx_HAL_Driver/Src/stm32l4xx_hal_rtc_ex.c ****   while(__HAL_RTC_TAMPER_GET_FLAG(hrtc, RTC_FLAG_TAMP2F) == 0U)
 3812              		.loc 1 2137 3 is_stmt 1 view .LVU1260
 3813              	.L265:
ARM GAS  C:\Users\tomra\AppData\Local\Temp\ccoul9Yc.s 			page 108


 3814              		.loc 1 2137 8 view .LVU1261
 3815              		.loc 1 2137 9 is_stmt 0 view .LVU1262
 3816 000c 2368     		ldr	r3, [r4]
 3817 000e DA68     		ldr	r2, [r3, #12]
 3818              		.loc 1 2137 8 view .LVU1263
 3819 0010 12F4804F 		tst	r2, #16384
 3820 0014 0DD1     		bne	.L270
2138:../../../core/ST/STM32L4xx_HAL_Driver/Src/stm32l4xx_hal_rtc_ex.c ****   {
2139:../../../core/ST/STM32L4xx_HAL_Driver/Src/stm32l4xx_hal_rtc_ex.c ****     if(Timeout != HAL_MAX_DELAY)
 3821              		.loc 1 2139 5 is_stmt 1 view .LVU1264
 3822              		.loc 1 2139 7 is_stmt 0 view .LVU1265
 3823 0016 B5F1FF3F 		cmp	r5, #-1
 3824 001a F7D0     		beq	.L265
2140:../../../core/ST/STM32L4xx_HAL_Driver/Src/stm32l4xx_hal_rtc_ex.c ****     {
2141:../../../core/ST/STM32L4xx_HAL_Driver/Src/stm32l4xx_hal_rtc_ex.c ****       if(((HAL_GetTick() - tickstart ) > Timeout)||(Timeout == 0U))
 3825              		.loc 1 2141 7 is_stmt 1 view .LVU1266
 3826              		.loc 1 2141 12 is_stmt 0 view .LVU1267
 3827 001c FFF7FEFF 		bl	HAL_GetTick
 3828              	.LVL218:
 3829              		.loc 1 2141 26 view .LVU1268
 3830 0020 801B     		subs	r0, r0, r6
 3831              		.loc 1 2141 9 view .LVU1269
 3832 0022 A842     		cmp	r0, r5
 3833 0024 01D8     		bhi	.L266
 3834              		.loc 1 2141 50 discriminator 1 view .LVU1270
 3835 0026 002D     		cmp	r5, #0
 3836 0028 F0D1     		bne	.L265
 3837              	.L266:
2142:../../../core/ST/STM32L4xx_HAL_Driver/Src/stm32l4xx_hal_rtc_ex.c ****       {
2143:../../../core/ST/STM32L4xx_HAL_Driver/Src/stm32l4xx_hal_rtc_ex.c ****         hrtc->State = HAL_RTC_STATE_TIMEOUT;
 3838              		.loc 1 2143 9 is_stmt 1 view .LVU1271
 3839              		.loc 1 2143 21 is_stmt 0 view .LVU1272
 3840 002a 0320     		movs	r0, #3
 3841 002c 84F82100 		strb	r0, [r4, #33]
2144:../../../core/ST/STM32L4xx_HAL_Driver/Src/stm32l4xx_hal_rtc_ex.c ****         return HAL_TIMEOUT;
 3842              		.loc 1 2144 9 is_stmt 1 view .LVU1273
 3843              		.loc 1 2144 16 is_stmt 0 view .LVU1274
 3844 0030 08E0     		b	.L267
 3845              	.L270:
2145:../../../core/ST/STM32L4xx_HAL_Driver/Src/stm32l4xx_hal_rtc_ex.c ****       }
2146:../../../core/ST/STM32L4xx_HAL_Driver/Src/stm32l4xx_hal_rtc_ex.c ****     }
2147:../../../core/ST/STM32L4xx_HAL_Driver/Src/stm32l4xx_hal_rtc_ex.c ****   }
2148:../../../core/ST/STM32L4xx_HAL_Driver/Src/stm32l4xx_hal_rtc_ex.c **** 
2149:../../../core/ST/STM32L4xx_HAL_Driver/Src/stm32l4xx_hal_rtc_ex.c ****   /* Clear the Tamper Flag */
2150:../../../core/ST/STM32L4xx_HAL_Driver/Src/stm32l4xx_hal_rtc_ex.c ****   __HAL_RTC_TAMPER_CLEAR_FLAG(hrtc, RTC_FLAG_TAMP2F);
 3846              		.loc 1 2150 3 is_stmt 1 view .LVU1275
 3847 0032 DA68     		ldr	r2, [r3, #12]
 3848 0034 D2B2     		uxtb	r2, r2
 3849 0036 62F48142 		orn	r2, r2, #16512
 3850 003a DA60     		str	r2, [r3, #12]
2151:../../../core/ST/STM32L4xx_HAL_Driver/Src/stm32l4xx_hal_rtc_ex.c **** 
2152:../../../core/ST/STM32L4xx_HAL_Driver/Src/stm32l4xx_hal_rtc_ex.c ****   /* Change RTC state */
2153:../../../core/ST/STM32L4xx_HAL_Driver/Src/stm32l4xx_hal_rtc_ex.c ****   hrtc->State = HAL_RTC_STATE_READY;
 3851              		.loc 1 2153 3 view .LVU1276
 3852              		.loc 1 2153 15 is_stmt 0 view .LVU1277
 3853 003c 0123     		movs	r3, #1
 3854 003e 84F82130 		strb	r3, [r4, #33]
ARM GAS  C:\Users\tomra\AppData\Local\Temp\ccoul9Yc.s 			page 109


2154:../../../core/ST/STM32L4xx_HAL_Driver/Src/stm32l4xx_hal_rtc_ex.c **** 
2155:../../../core/ST/STM32L4xx_HAL_Driver/Src/stm32l4xx_hal_rtc_ex.c ****   return HAL_OK;
 3855              		.loc 1 2155 3 is_stmt 1 view .LVU1278
 3856              		.loc 1 2155 10 is_stmt 0 view .LVU1279
 3857 0042 0020     		movs	r0, #0
 3858              	.L267:
2156:../../../core/ST/STM32L4xx_HAL_Driver/Src/stm32l4xx_hal_rtc_ex.c **** }
 3859              		.loc 1 2156 1 view .LVU1280
 3860 0044 70BD     		pop	{r4, r5, r6, pc}
 3861              		.loc 1 2156 1 view .LVU1281
 3862              		.cfi_endproc
 3863              	.LFE153:
 3865              		.section	.text.HAL_RTCEx_PollForTamper3Event,"ax",%progbits
 3866              		.align	1
 3867              		.global	HAL_RTCEx_PollForTamper3Event
 3868              		.syntax unified
 3869              		.thumb
 3870              		.thumb_func
 3871              		.fpu fpv4-sp-d16
 3873              	HAL_RTCEx_PollForTamper3Event:
 3874              	.LVL219:
 3875              	.LFB154:
2157:../../../core/ST/STM32L4xx_HAL_Driver/Src/stm32l4xx_hal_rtc_ex.c **** 
2158:../../../core/ST/STM32L4xx_HAL_Driver/Src/stm32l4xx_hal_rtc_ex.c **** #if defined(RTC_TAMPER3_SUPPORT)
2159:../../../core/ST/STM32L4xx_HAL_Driver/Src/stm32l4xx_hal_rtc_ex.c **** /**
2160:../../../core/ST/STM32L4xx_HAL_Driver/Src/stm32l4xx_hal_rtc_ex.c ****   * @brief  Handle Tamper 3 Polling.
2161:../../../core/ST/STM32L4xx_HAL_Driver/Src/stm32l4xx_hal_rtc_ex.c ****   * @param  hrtc  RTC handle
2162:../../../core/ST/STM32L4xx_HAL_Driver/Src/stm32l4xx_hal_rtc_ex.c ****   * @param  Timeout  Timeout duration
2163:../../../core/ST/STM32L4xx_HAL_Driver/Src/stm32l4xx_hal_rtc_ex.c ****   * @retval HAL status
2164:../../../core/ST/STM32L4xx_HAL_Driver/Src/stm32l4xx_hal_rtc_ex.c ****   */
2165:../../../core/ST/STM32L4xx_HAL_Driver/Src/stm32l4xx_hal_rtc_ex.c **** HAL_StatusTypeDef HAL_RTCEx_PollForTamper3Event(RTC_HandleTypeDef *hrtc, uint32_t Timeout)
2166:../../../core/ST/STM32L4xx_HAL_Driver/Src/stm32l4xx_hal_rtc_ex.c **** {
 3876              		.loc 1 2166 1 is_stmt 1 view -0
 3877              		.cfi_startproc
 3878              		@ args = 0, pretend = 0, frame = 0
 3879              		@ frame_needed = 0, uses_anonymous_args = 0
 3880              		.loc 1 2166 1 is_stmt 0 view .LVU1283
 3881 0000 70B5     		push	{r4, r5, r6, lr}
 3882              	.LCFI22:
 3883              		.cfi_def_cfa_offset 16
 3884              		.cfi_offset 4, -16
 3885              		.cfi_offset 5, -12
 3886              		.cfi_offset 6, -8
 3887              		.cfi_offset 14, -4
 3888 0002 0446     		mov	r4, r0
 3889 0004 0D46     		mov	r5, r1
2167:../../../core/ST/STM32L4xx_HAL_Driver/Src/stm32l4xx_hal_rtc_ex.c ****   uint32_t tickstart = HAL_GetTick();
 3890              		.loc 1 2167 3 is_stmt 1 view .LVU1284
 3891              		.loc 1 2167 24 is_stmt 0 view .LVU1285
 3892 0006 FFF7FEFF 		bl	HAL_GetTick
 3893              	.LVL220:
 3894              		.loc 1 2167 24 view .LVU1286
 3895 000a 0646     		mov	r6, r0
 3896              	.LVL221:
2168:../../../core/ST/STM32L4xx_HAL_Driver/Src/stm32l4xx_hal_rtc_ex.c **** 
2169:../../../core/ST/STM32L4xx_HAL_Driver/Src/stm32l4xx_hal_rtc_ex.c ****   /* Get the status of the Interrupt */
2170:../../../core/ST/STM32L4xx_HAL_Driver/Src/stm32l4xx_hal_rtc_ex.c ****   while(__HAL_RTC_TAMPER_GET_FLAG(hrtc, RTC_FLAG_TAMP3F) == 0U)
ARM GAS  C:\Users\tomra\AppData\Local\Temp\ccoul9Yc.s 			page 110


 3897              		.loc 1 2170 3 is_stmt 1 view .LVU1287
 3898              	.L273:
 3899              		.loc 1 2170 8 view .LVU1288
 3900              		.loc 1 2170 9 is_stmt 0 view .LVU1289
 3901 000c 2368     		ldr	r3, [r4]
 3902 000e DA68     		ldr	r2, [r3, #12]
 3903              		.loc 1 2170 8 view .LVU1290
 3904 0010 12F4004F 		tst	r2, #32768
 3905 0014 0CD1     		bne	.L278
2171:../../../core/ST/STM32L4xx_HAL_Driver/Src/stm32l4xx_hal_rtc_ex.c ****   {
2172:../../../core/ST/STM32L4xx_HAL_Driver/Src/stm32l4xx_hal_rtc_ex.c ****     if(Timeout != HAL_MAX_DELAY)
 3906              		.loc 1 2172 5 is_stmt 1 view .LVU1291
 3907              		.loc 1 2172 7 is_stmt 0 view .LVU1292
 3908 0016 B5F1FF3F 		cmp	r5, #-1
 3909 001a F7D0     		beq	.L273
2173:../../../core/ST/STM32L4xx_HAL_Driver/Src/stm32l4xx_hal_rtc_ex.c ****     {
2174:../../../core/ST/STM32L4xx_HAL_Driver/Src/stm32l4xx_hal_rtc_ex.c ****       if((Timeout == 0)||((HAL_GetTick() - tickstart ) > Timeout))
 3910              		.loc 1 2174 7 is_stmt 1 view .LVU1293
 3911              		.loc 1 2174 9 is_stmt 0 view .LVU1294
 3912 001c 25B1     		cbz	r5, .L274
 3913              		.loc 1 2174 28 discriminator 1 view .LVU1295
 3914 001e FFF7FEFF 		bl	HAL_GetTick
 3915              	.LVL222:
 3916              		.loc 1 2174 42 discriminator 1 view .LVU1296
 3917 0022 801B     		subs	r0, r0, r6
 3918              		.loc 1 2174 24 discriminator 1 view .LVU1297
 3919 0024 A842     		cmp	r0, r5
 3920 0026 F1D9     		bls	.L273
 3921              	.L274:
2175:../../../core/ST/STM32L4xx_HAL_Driver/Src/stm32l4xx_hal_rtc_ex.c ****       {
2176:../../../core/ST/STM32L4xx_HAL_Driver/Src/stm32l4xx_hal_rtc_ex.c ****         hrtc->State = HAL_RTC_STATE_TIMEOUT;
 3922              		.loc 1 2176 9 is_stmt 1 view .LVU1298
 3923              		.loc 1 2176 21 is_stmt 0 view .LVU1299
 3924 0028 0320     		movs	r0, #3
 3925 002a 84F82100 		strb	r0, [r4, #33]
2177:../../../core/ST/STM32L4xx_HAL_Driver/Src/stm32l4xx_hal_rtc_ex.c ****         return HAL_TIMEOUT;
 3926              		.loc 1 2177 9 is_stmt 1 view .LVU1300
 3927              		.loc 1 2177 16 is_stmt 0 view .LVU1301
 3928 002e 0EE0     		b	.L275
 3929              	.L278:
2178:../../../core/ST/STM32L4xx_HAL_Driver/Src/stm32l4xx_hal_rtc_ex.c ****       }
2179:../../../core/ST/STM32L4xx_HAL_Driver/Src/stm32l4xx_hal_rtc_ex.c ****     }
2180:../../../core/ST/STM32L4xx_HAL_Driver/Src/stm32l4xx_hal_rtc_ex.c ****   }
2181:../../../core/ST/STM32L4xx_HAL_Driver/Src/stm32l4xx_hal_rtc_ex.c **** 
2182:../../../core/ST/STM32L4xx_HAL_Driver/Src/stm32l4xx_hal_rtc_ex.c ****   /* Clear the Tamper Flag */
2183:../../../core/ST/STM32L4xx_HAL_Driver/Src/stm32l4xx_hal_rtc_ex.c ****   __HAL_RTC_TAMPER_CLEAR_FLAG(hrtc, RTC_FLAG_TAMP3F);
 3930              		.loc 1 2183 3 is_stmt 1 view .LVU1302
 3931 0030 DA68     		ldr	r2, [r3, #12]
 3932 0032 D2B2     		uxtb	r2, r2
 3933 0034 42F07F42 		orr	r2, r2, #-16777216
 3934 0038 42F47F02 		orr	r2, r2, #16711680
 3935 003c 42F4FE42 		orr	r2, r2, #32512
 3936 0040 42F07F02 		orr	r2, r2, #127
 3937 0044 DA60     		str	r2, [r3, #12]
2184:../../../core/ST/STM32L4xx_HAL_Driver/Src/stm32l4xx_hal_rtc_ex.c **** 
2185:../../../core/ST/STM32L4xx_HAL_Driver/Src/stm32l4xx_hal_rtc_ex.c ****   /* Change RTC state */
2186:../../../core/ST/STM32L4xx_HAL_Driver/Src/stm32l4xx_hal_rtc_ex.c ****   hrtc->State = HAL_RTC_STATE_READY;
ARM GAS  C:\Users\tomra\AppData\Local\Temp\ccoul9Yc.s 			page 111


 3938              		.loc 1 2186 3 view .LVU1303
 3939              		.loc 1 2186 15 is_stmt 0 view .LVU1304
 3940 0046 0123     		movs	r3, #1
 3941 0048 84F82130 		strb	r3, [r4, #33]
2187:../../../core/ST/STM32L4xx_HAL_Driver/Src/stm32l4xx_hal_rtc_ex.c **** 
2188:../../../core/ST/STM32L4xx_HAL_Driver/Src/stm32l4xx_hal_rtc_ex.c ****   return HAL_OK;
 3942              		.loc 1 2188 3 is_stmt 1 view .LVU1305
 3943              		.loc 1 2188 10 is_stmt 0 view .LVU1306
 3944 004c 0020     		movs	r0, #0
 3945              	.L275:
2189:../../../core/ST/STM32L4xx_HAL_Driver/Src/stm32l4xx_hal_rtc_ex.c **** }
 3946              		.loc 1 2189 1 view .LVU1307
 3947 004e 70BD     		pop	{r4, r5, r6, pc}
 3948              		.loc 1 2189 1 view .LVU1308
 3949              		.cfi_endproc
 3950              	.LFE154:
 3952              		.section	.text.HAL_RTCEx_Tamper1EventCallback,"ax",%progbits
 3953              		.align	1
 3954              		.weak	HAL_RTCEx_Tamper1EventCallback
 3955              		.syntax unified
 3956              		.thumb
 3957              		.thumb_func
 3958              		.fpu fpv4-sp-d16
 3960              	HAL_RTCEx_Tamper1EventCallback:
 3961              	.LVL223:
 3962              	.LFB155:
2190:../../../core/ST/STM32L4xx_HAL_Driver/Src/stm32l4xx_hal_rtc_ex.c **** #endif /* RTC_TAMPER3_SUPPORT */
2191:../../../core/ST/STM32L4xx_HAL_Driver/Src/stm32l4xx_hal_rtc_ex.c **** 
2192:../../../core/ST/STM32L4xx_HAL_Driver/Src/stm32l4xx_hal_rtc_ex.c **** 
2193:../../../core/ST/STM32L4xx_HAL_Driver/Src/stm32l4xx_hal_rtc_ex.c **** 
2194:../../../core/ST/STM32L4xx_HAL_Driver/Src/stm32l4xx_hal_rtc_ex.c **** #if defined(RTC_TAMPER1_SUPPORT)
2195:../../../core/ST/STM32L4xx_HAL_Driver/Src/stm32l4xx_hal_rtc_ex.c **** /**
2196:../../../core/ST/STM32L4xx_HAL_Driver/Src/stm32l4xx_hal_rtc_ex.c ****   * @brief  Tamper 1 callback.
2197:../../../core/ST/STM32L4xx_HAL_Driver/Src/stm32l4xx_hal_rtc_ex.c ****   * @param  hrtc RTC handle
2198:../../../core/ST/STM32L4xx_HAL_Driver/Src/stm32l4xx_hal_rtc_ex.c ****   * @retval None
2199:../../../core/ST/STM32L4xx_HAL_Driver/Src/stm32l4xx_hal_rtc_ex.c ****   */
2200:../../../core/ST/STM32L4xx_HAL_Driver/Src/stm32l4xx_hal_rtc_ex.c **** __weak void HAL_RTCEx_Tamper1EventCallback(RTC_HandleTypeDef *hrtc)
2201:../../../core/ST/STM32L4xx_HAL_Driver/Src/stm32l4xx_hal_rtc_ex.c **** {
 3963              		.loc 1 2201 1 is_stmt 1 view -0
 3964              		.cfi_startproc
 3965              		@ args = 0, pretend = 0, frame = 0
 3966              		@ frame_needed = 0, uses_anonymous_args = 0
 3967              		@ link register save eliminated.
2202:../../../core/ST/STM32L4xx_HAL_Driver/Src/stm32l4xx_hal_rtc_ex.c ****   /* Prevent unused argument(s) compilation warning */
2203:../../../core/ST/STM32L4xx_HAL_Driver/Src/stm32l4xx_hal_rtc_ex.c ****   UNUSED(hrtc);
 3968              		.loc 1 2203 3 view .LVU1310
2204:../../../core/ST/STM32L4xx_HAL_Driver/Src/stm32l4xx_hal_rtc_ex.c **** 
2205:../../../core/ST/STM32L4xx_HAL_Driver/Src/stm32l4xx_hal_rtc_ex.c ****   /* NOTE : This function should not be modified, when the callback is needed,
2206:../../../core/ST/STM32L4xx_HAL_Driver/Src/stm32l4xx_hal_rtc_ex.c ****             the HAL_RTCEx_Tamper1EventCallback could be implemented in the user file
2207:../../../core/ST/STM32L4xx_HAL_Driver/Src/stm32l4xx_hal_rtc_ex.c ****    */
2208:../../../core/ST/STM32L4xx_HAL_Driver/Src/stm32l4xx_hal_rtc_ex.c **** }
 3969              		.loc 1 2208 1 is_stmt 0 view .LVU1311
 3970 0000 7047     		bx	lr
 3971              		.cfi_endproc
 3972              	.LFE155:
 3974              		.section	.text.HAL_RTCEx_Tamper2EventCallback,"ax",%progbits
 3975              		.align	1
ARM GAS  C:\Users\tomra\AppData\Local\Temp\ccoul9Yc.s 			page 112


 3976              		.weak	HAL_RTCEx_Tamper2EventCallback
 3977              		.syntax unified
 3978              		.thumb
 3979              		.thumb_func
 3980              		.fpu fpv4-sp-d16
 3982              	HAL_RTCEx_Tamper2EventCallback:
 3983              	.LVL224:
 3984              	.LFB156:
2209:../../../core/ST/STM32L4xx_HAL_Driver/Src/stm32l4xx_hal_rtc_ex.c **** #endif /* RTC_TAMPER1_SUPPORT */
2210:../../../core/ST/STM32L4xx_HAL_Driver/Src/stm32l4xx_hal_rtc_ex.c **** 
2211:../../../core/ST/STM32L4xx_HAL_Driver/Src/stm32l4xx_hal_rtc_ex.c **** /**
2212:../../../core/ST/STM32L4xx_HAL_Driver/Src/stm32l4xx_hal_rtc_ex.c ****   * @brief  Tamper 2 callback.
2213:../../../core/ST/STM32L4xx_HAL_Driver/Src/stm32l4xx_hal_rtc_ex.c ****   * @param  hrtc RTC handle
2214:../../../core/ST/STM32L4xx_HAL_Driver/Src/stm32l4xx_hal_rtc_ex.c ****   * @retval None
2215:../../../core/ST/STM32L4xx_HAL_Driver/Src/stm32l4xx_hal_rtc_ex.c ****   */
2216:../../../core/ST/STM32L4xx_HAL_Driver/Src/stm32l4xx_hal_rtc_ex.c **** __weak void HAL_RTCEx_Tamper2EventCallback(RTC_HandleTypeDef *hrtc)
2217:../../../core/ST/STM32L4xx_HAL_Driver/Src/stm32l4xx_hal_rtc_ex.c **** {
 3985              		.loc 1 2217 1 is_stmt 1 view -0
 3986              		.cfi_startproc
 3987              		@ args = 0, pretend = 0, frame = 0
 3988              		@ frame_needed = 0, uses_anonymous_args = 0
 3989              		@ link register save eliminated.
2218:../../../core/ST/STM32L4xx_HAL_Driver/Src/stm32l4xx_hal_rtc_ex.c ****   /* Prevent unused argument(s) compilation warning */
2219:../../../core/ST/STM32L4xx_HAL_Driver/Src/stm32l4xx_hal_rtc_ex.c ****   UNUSED(hrtc);
 3990              		.loc 1 2219 3 view .LVU1313
2220:../../../core/ST/STM32L4xx_HAL_Driver/Src/stm32l4xx_hal_rtc_ex.c **** 
2221:../../../core/ST/STM32L4xx_HAL_Driver/Src/stm32l4xx_hal_rtc_ex.c ****   /* NOTE : This function should not be modified, when the callback is needed,
2222:../../../core/ST/STM32L4xx_HAL_Driver/Src/stm32l4xx_hal_rtc_ex.c ****             the HAL_RTCEx_Tamper2EventCallback could be implemented in the user file
2223:../../../core/ST/STM32L4xx_HAL_Driver/Src/stm32l4xx_hal_rtc_ex.c ****    */
2224:../../../core/ST/STM32L4xx_HAL_Driver/Src/stm32l4xx_hal_rtc_ex.c **** }
 3991              		.loc 1 2224 1 is_stmt 0 view .LVU1314
 3992 0000 7047     		bx	lr
 3993              		.cfi_endproc
 3994              	.LFE156:
 3996              		.section	.text.HAL_RTCEx_Tamper3EventCallback,"ax",%progbits
 3997              		.align	1
 3998              		.weak	HAL_RTCEx_Tamper3EventCallback
 3999              		.syntax unified
 4000              		.thumb
 4001              		.thumb_func
 4002              		.fpu fpv4-sp-d16
 4004              	HAL_RTCEx_Tamper3EventCallback:
 4005              	.LVL225:
 4006              	.LFB157:
2225:../../../core/ST/STM32L4xx_HAL_Driver/Src/stm32l4xx_hal_rtc_ex.c **** 
2226:../../../core/ST/STM32L4xx_HAL_Driver/Src/stm32l4xx_hal_rtc_ex.c **** #if defined(RTC_TAMPER3_SUPPORT)
2227:../../../core/ST/STM32L4xx_HAL_Driver/Src/stm32l4xx_hal_rtc_ex.c **** /**
2228:../../../core/ST/STM32L4xx_HAL_Driver/Src/stm32l4xx_hal_rtc_ex.c ****   * @brief  Tamper 3 callback.
2229:../../../core/ST/STM32L4xx_HAL_Driver/Src/stm32l4xx_hal_rtc_ex.c ****   * @param  hrtc RTC handle
2230:../../../core/ST/STM32L4xx_HAL_Driver/Src/stm32l4xx_hal_rtc_ex.c ****   * @retval None
2231:../../../core/ST/STM32L4xx_HAL_Driver/Src/stm32l4xx_hal_rtc_ex.c ****   */
2232:../../../core/ST/STM32L4xx_HAL_Driver/Src/stm32l4xx_hal_rtc_ex.c **** __weak void HAL_RTCEx_Tamper3EventCallback(RTC_HandleTypeDef *hrtc)
2233:../../../core/ST/STM32L4xx_HAL_Driver/Src/stm32l4xx_hal_rtc_ex.c **** {
 4007              		.loc 1 2233 1 is_stmt 1 view -0
 4008              		.cfi_startproc
 4009              		@ args = 0, pretend = 0, frame = 0
 4010              		@ frame_needed = 0, uses_anonymous_args = 0
ARM GAS  C:\Users\tomra\AppData\Local\Temp\ccoul9Yc.s 			page 113


 4011              		@ link register save eliminated.
2234:../../../core/ST/STM32L4xx_HAL_Driver/Src/stm32l4xx_hal_rtc_ex.c ****   /* Prevent unused argument(s) compilation warning */
2235:../../../core/ST/STM32L4xx_HAL_Driver/Src/stm32l4xx_hal_rtc_ex.c ****   UNUSED(hrtc);
 4012              		.loc 1 2235 3 view .LVU1316
2236:../../../core/ST/STM32L4xx_HAL_Driver/Src/stm32l4xx_hal_rtc_ex.c **** 
2237:../../../core/ST/STM32L4xx_HAL_Driver/Src/stm32l4xx_hal_rtc_ex.c ****   /* NOTE : This function should not be modified, when the callback is needed,
2238:../../../core/ST/STM32L4xx_HAL_Driver/Src/stm32l4xx_hal_rtc_ex.c ****             the HAL_RTCEx_Tamper3EventCallback could be implemented in the user file
2239:../../../core/ST/STM32L4xx_HAL_Driver/Src/stm32l4xx_hal_rtc_ex.c ****    */
2240:../../../core/ST/STM32L4xx_HAL_Driver/Src/stm32l4xx_hal_rtc_ex.c **** }
 4013              		.loc 1 2240 1 is_stmt 0 view .LVU1317
 4014 0000 7047     		bx	lr
 4015              		.cfi_endproc
 4016              	.LFE157:
 4018              		.section	.text.HAL_RTCEx_TamperTimeStampIRQHandler,"ax",%progbits
 4019              		.align	1
 4020              		.global	HAL_RTCEx_TamperTimeStampIRQHandler
 4021              		.syntax unified
 4022              		.thumb
 4023              		.thumb_func
 4024              		.fpu fpv4-sp-d16
 4026              	HAL_RTCEx_TamperTimeStampIRQHandler:
 4027              	.LVL226:
 4028              	.LFB129:
 555:../../../core/ST/STM32L4xx_HAL_Driver/Src/stm32l4xx_hal_rtc_ex.c ****   /* Clear the EXTI's Flag for RTC TimeStamp and Tamper */
 4029              		.loc 1 555 1 is_stmt 1 view -0
 4030              		.cfi_startproc
 4031              		@ args = 0, pretend = 0, frame = 0
 4032              		@ frame_needed = 0, uses_anonymous_args = 0
 555:../../../core/ST/STM32L4xx_HAL_Driver/Src/stm32l4xx_hal_rtc_ex.c ****   /* Clear the EXTI's Flag for RTC TimeStamp and Tamper */
 4033              		.loc 1 555 1 is_stmt 0 view .LVU1319
 4034 0000 10B5     		push	{r4, lr}
 4035              	.LCFI23:
 4036              		.cfi_def_cfa_offset 8
 4037              		.cfi_offset 4, -8
 4038              		.cfi_offset 14, -4
 4039 0002 0446     		mov	r4, r0
 557:../../../core/ST/STM32L4xx_HAL_Driver/Src/stm32l4xx_hal_rtc_ex.c **** 
 4040              		.loc 1 557 3 is_stmt 1 view .LVU1320
 4041 0004 2A4B     		ldr	r3, .L292
 4042 0006 4FF40022 		mov	r2, #524288
 4043 000a 5A61     		str	r2, [r3, #20]
 560:../../../core/ST/STM32L4xx_HAL_Driver/Src/stm32l4xx_hal_rtc_ex.c ****   {
 4044              		.loc 1 560 3 view .LVU1321
 560:../../../core/ST/STM32L4xx_HAL_Driver/Src/stm32l4xx_hal_rtc_ex.c ****   {
 4045              		.loc 1 560 6 is_stmt 0 view .LVU1322
 4046 000c 0368     		ldr	r3, [r0]
 4047 000e 9A68     		ldr	r2, [r3, #8]
 560:../../../core/ST/STM32L4xx_HAL_Driver/Src/stm32l4xx_hal_rtc_ex.c ****   {
 4048              		.loc 1 560 5 view .LVU1323
 4049 0010 12F4004F 		tst	r2, #32768
 4050 0014 03D0     		beq	.L283
 562:../../../core/ST/STM32L4xx_HAL_Driver/Src/stm32l4xx_hal_rtc_ex.c ****     {
 4051              		.loc 1 562 5 is_stmt 1 view .LVU1324
 562:../../../core/ST/STM32L4xx_HAL_Driver/Src/stm32l4xx_hal_rtc_ex.c ****     {
 4052              		.loc 1 562 8 is_stmt 0 view .LVU1325
 4053 0016 DB68     		ldr	r3, [r3, #12]
 562:../../../core/ST/STM32L4xx_HAL_Driver/Src/stm32l4xx_hal_rtc_ex.c ****     {
ARM GAS  C:\Users\tomra\AppData\Local\Temp\ccoul9Yc.s 			page 114


 4054              		.loc 1 562 7 view .LVU1326
 4055 0018 13F4006F 		tst	r3, #2048
 4056 001c 1ED1     		bne	.L288
 4057              	.LVL227:
 4058              	.L283:
 578:../../../core/ST/STM32L4xx_HAL_Driver/Src/stm32l4xx_hal_rtc_ex.c ****   {
 4059              		.loc 1 578 3 is_stmt 1 view .LVU1327
 578:../../../core/ST/STM32L4xx_HAL_Driver/Src/stm32l4xx_hal_rtc_ex.c ****   {
 4060              		.loc 1 578 7 is_stmt 0 view .LVU1328
 4061 001e 2268     		ldr	r2, [r4]
 4062 0020 116C     		ldr	r1, [r2, #64]
 4063 0022 244B     		ldr	r3, .L292+4
 4064 0024 0B40     		ands	r3, r3, r1
 578:../../../core/ST/STM32L4xx_HAL_Driver/Src/stm32l4xx_hal_rtc_ex.c ****   {
 4065              		.loc 1 578 6 view .LVU1329
 4066 0026 1BB1     		cbz	r3, .L284
 580:../../../core/ST/STM32L4xx_HAL_Driver/Src/stm32l4xx_hal_rtc_ex.c ****     {
 4067              		.loc 1 580 5 is_stmt 1 view .LVU1330
 580:../../../core/ST/STM32L4xx_HAL_Driver/Src/stm32l4xx_hal_rtc_ex.c ****     {
 4068              		.loc 1 580 9 is_stmt 0 view .LVU1331
 4069 0028 D368     		ldr	r3, [r2, #12]
 580:../../../core/ST/STM32L4xx_HAL_Driver/Src/stm32l4xx_hal_rtc_ex.c ****     {
 4070              		.loc 1 580 8 view .LVU1332
 4071 002a 13F4005F 		tst	r3, #8192
 4072 002e 1ED1     		bne	.L289
 4073              	.L284:
 596:../../../core/ST/STM32L4xx_HAL_Driver/Src/stm32l4xx_hal_rtc_ex.c ****   {
 4074              		.loc 1 596 3 is_stmt 1 view .LVU1333
 596:../../../core/ST/STM32L4xx_HAL_Driver/Src/stm32l4xx_hal_rtc_ex.c ****   {
 4075              		.loc 1 596 7 is_stmt 0 view .LVU1334
 4076 0030 2268     		ldr	r2, [r4]
 4077 0032 116C     		ldr	r1, [r2, #64]
 4078 0034 204B     		ldr	r3, .L292+8
 4079 0036 0B40     		ands	r3, r3, r1
 596:../../../core/ST/STM32L4xx_HAL_Driver/Src/stm32l4xx_hal_rtc_ex.c ****   {
 4080              		.loc 1 596 6 view .LVU1335
 4081 0038 1BB1     		cbz	r3, .L285
 598:../../../core/ST/STM32L4xx_HAL_Driver/Src/stm32l4xx_hal_rtc_ex.c ****     {
 4082              		.loc 1 598 5 is_stmt 1 view .LVU1336
 598:../../../core/ST/STM32L4xx_HAL_Driver/Src/stm32l4xx_hal_rtc_ex.c ****     {
 4083              		.loc 1 598 9 is_stmt 0 view .LVU1337
 4084 003a D368     		ldr	r3, [r2, #12]
 598:../../../core/ST/STM32L4xx_HAL_Driver/Src/stm32l4xx_hal_rtc_ex.c ****     {
 4085              		.loc 1 598 8 view .LVU1338
 4086 003c 13F4804F 		tst	r3, #16384
 4087 0040 1ED1     		bne	.L290
 4088              	.L285:
 614:../../../core/ST/STM32L4xx_HAL_Driver/Src/stm32l4xx_hal_rtc_ex.c ****   {
 4089              		.loc 1 614 3 is_stmt 1 view .LVU1339
 614:../../../core/ST/STM32L4xx_HAL_Driver/Src/stm32l4xx_hal_rtc_ex.c ****   {
 4090              		.loc 1 614 7 is_stmt 0 view .LVU1340
 4091 0042 2268     		ldr	r2, [r4]
 4092 0044 116C     		ldr	r1, [r2, #64]
 4093 0046 1D4B     		ldr	r3, .L292+12
 4094 0048 0B40     		ands	r3, r3, r1
 614:../../../core/ST/STM32L4xx_HAL_Driver/Src/stm32l4xx_hal_rtc_ex.c ****   {
 4095              		.loc 1 614 6 view .LVU1341
ARM GAS  C:\Users\tomra\AppData\Local\Temp\ccoul9Yc.s 			page 115


 4096 004a 1BB1     		cbz	r3, .L286
 616:../../../core/ST/STM32L4xx_HAL_Driver/Src/stm32l4xx_hal_rtc_ex.c ****     {
 4097              		.loc 1 616 5 is_stmt 1 view .LVU1342
 616:../../../core/ST/STM32L4xx_HAL_Driver/Src/stm32l4xx_hal_rtc_ex.c ****     {
 4098              		.loc 1 616 9 is_stmt 0 view .LVU1343
 4099 004c D368     		ldr	r3, [r2, #12]
 616:../../../core/ST/STM32L4xx_HAL_Driver/Src/stm32l4xx_hal_rtc_ex.c ****     {
 4100              		.loc 1 616 8 view .LVU1344
 4101 004e 13F4004F 		tst	r3, #32768
 4102 0052 1ED1     		bne	.L291
 4103              	.L286:
 632:../../../core/ST/STM32L4xx_HAL_Driver/Src/stm32l4xx_hal_rtc_ex.c **** }
 4104              		.loc 1 632 3 is_stmt 1 view .LVU1345
 632:../../../core/ST/STM32L4xx_HAL_Driver/Src/stm32l4xx_hal_rtc_ex.c **** }
 4105              		.loc 1 632 15 is_stmt 0 view .LVU1346
 4106 0054 0123     		movs	r3, #1
 4107 0056 84F82130 		strb	r3, [r4, #33]
 633:../../../core/ST/STM32L4xx_HAL_Driver/Src/stm32l4xx_hal_rtc_ex.c **** #endif /* #if defined(STM32L412xx) || defined(STM32L422xx) */
 4108              		.loc 1 633 1 view .LVU1347
 4109 005a 10BD     		pop	{r4, pc}
 4110              	.LVL228:
 4111              	.L288:
 568:../../../core/ST/STM32L4xx_HAL_Driver/Src/stm32l4xx_hal_rtc_ex.c **** #endif /* (USE_HAL_RTC_REGISTER_CALLBACKS == 1) */
 4112              		.loc 1 568 7 is_stmt 1 view .LVU1348
 4113 005c FFF7FEFF 		bl	HAL_RTCEx_TimeStampEventCallback
 4114              	.LVL229:
 572:../../../core/ST/STM32L4xx_HAL_Driver/Src/stm32l4xx_hal_rtc_ex.c ****     }
 4115              		.loc 1 572 7 view .LVU1349
 4116 0060 2268     		ldr	r2, [r4]
 4117 0062 D368     		ldr	r3, [r2, #12]
 4118 0064 DBB2     		uxtb	r3, r3
 4119 0066 63F40863 		orn	r3, r3, #2176
 4120 006a D360     		str	r3, [r2, #12]
 4121 006c D7E7     		b	.L283
 4122              	.L289:
 583:../../../core/ST/STM32L4xx_HAL_Driver/Src/stm32l4xx_hal_rtc_ex.c **** 
 4123              		.loc 1 583 5 view .LVU1350
 4124 006e D368     		ldr	r3, [r2, #12]
 4125 0070 DBB2     		uxtb	r3, r3
 4126 0072 63F40253 		orn	r3, r3, #8320
 4127 0076 D360     		str	r3, [r2, #12]
 589:../../../core/ST/STM32L4xx_HAL_Driver/Src/stm32l4xx_hal_rtc_ex.c **** #endif /* (USE_HAL_RTC_REGISTER_CALLBACKS == 1) */
 4128              		.loc 1 589 7 view .LVU1351
 4129 0078 2046     		mov	r0, r4
 4130 007a FFF7FEFF 		bl	HAL_RTCEx_Tamper1EventCallback
 4131              	.LVL230:
 4132 007e D7E7     		b	.L284
 4133              	.L290:
 601:../../../core/ST/STM32L4xx_HAL_Driver/Src/stm32l4xx_hal_rtc_ex.c **** 
 4134              		.loc 1 601 7 view .LVU1352
 4135 0080 D368     		ldr	r3, [r2, #12]
 4136 0082 DBB2     		uxtb	r3, r3
 4137 0084 63F48143 		orn	r3, r3, #16512
 4138 0088 D360     		str	r3, [r2, #12]
 607:../../../core/ST/STM32L4xx_HAL_Driver/Src/stm32l4xx_hal_rtc_ex.c **** #endif /* (USE_HAL_RTC_REGISTER_CALLBACKS == 1) */
 4139              		.loc 1 607 7 view .LVU1353
 4140 008a 2046     		mov	r0, r4
ARM GAS  C:\Users\tomra\AppData\Local\Temp\ccoul9Yc.s 			page 116


 4141 008c FFF7FEFF 		bl	HAL_RTCEx_Tamper2EventCallback
 4142              	.LVL231:
 4143 0090 D7E7     		b	.L285
 4144              	.L291:
 619:../../../core/ST/STM32L4xx_HAL_Driver/Src/stm32l4xx_hal_rtc_ex.c **** 
 4145              		.loc 1 619 7 view .LVU1354
 4146 0092 D368     		ldr	r3, [r2, #12]
 4147 0094 DBB2     		uxtb	r3, r3
 4148 0096 43F07F43 		orr	r3, r3, #-16777216
 4149 009a 43F47F03 		orr	r3, r3, #16711680
 4150 009e 43F4FE43 		orr	r3, r3, #32512
 4151 00a2 43F07F03 		orr	r3, r3, #127
 4152 00a6 D360     		str	r3, [r2, #12]
 625:../../../core/ST/STM32L4xx_HAL_Driver/Src/stm32l4xx_hal_rtc_ex.c **** #endif /* USE_HAL_RTC_REGISTER_CALLBACKS */
 4153              		.loc 1 625 7 view .LVU1355
 4154 00a8 2046     		mov	r0, r4
 4155 00aa FFF7FEFF 		bl	HAL_RTCEx_Tamper3EventCallback
 4156              	.LVL232:
 4157 00ae D1E7     		b	.L286
 4158              	.L293:
 4159              		.align	2
 4160              	.L292:
 4161 00b0 00040140 		.word	1073808384
 4162 00b4 04000100 		.word	65540
 4163 00b8 04000800 		.word	524292
 4164 00bc 04004000 		.word	4194308
 4165              		.cfi_endproc
 4166              	.LFE129:
 4168              		.section	.text.HAL_RTCEx_BKUPWrite,"ax",%progbits
 4169              		.align	1
 4170              		.global	HAL_RTCEx_BKUPWrite
 4171              		.syntax unified
 4172              		.thumb
 4173              		.thumb_func
 4174              		.fpu fpv4-sp-d16
 4176              	HAL_RTCEx_BKUPWrite:
 4177              	.LVL233:
 4178              	.LFB158:
2241:../../../core/ST/STM32L4xx_HAL_Driver/Src/stm32l4xx_hal_rtc_ex.c **** #endif /* RTC_TAMPER3_SUPPORT */
2242:../../../core/ST/STM32L4xx_HAL_Driver/Src/stm32l4xx_hal_rtc_ex.c **** 
2243:../../../core/ST/STM32L4xx_HAL_Driver/Src/stm32l4xx_hal_rtc_ex.c **** /**
2244:../../../core/ST/STM32L4xx_HAL_Driver/Src/stm32l4xx_hal_rtc_ex.c ****   * @}
2245:../../../core/ST/STM32L4xx_HAL_Driver/Src/stm32l4xx_hal_rtc_ex.c ****   */
2246:../../../core/ST/STM32L4xx_HAL_Driver/Src/stm32l4xx_hal_rtc_ex.c **** 
2247:../../../core/ST/STM32L4xx_HAL_Driver/Src/stm32l4xx_hal_rtc_ex.c **** 
2248:../../../core/ST/STM32L4xx_HAL_Driver/Src/stm32l4xx_hal_rtc_ex.c **** /** @addtogroup RTCEx_Exported_Functions_Group6
2249:../../../core/ST/STM32L4xx_HAL_Driver/Src/stm32l4xx_hal_rtc_ex.c ****   * @brief      Extended RTC Backup register functions
2250:../../../core/ST/STM32L4xx_HAL_Driver/Src/stm32l4xx_hal_rtc_ex.c ****   *
2251:../../../core/ST/STM32L4xx_HAL_Driver/Src/stm32l4xx_hal_rtc_ex.c **** @verbatim
2252:../../../core/ST/STM32L4xx_HAL_Driver/Src/stm32l4xx_hal_rtc_ex.c ****   ===============================================================================
2253:../../../core/ST/STM32L4xx_HAL_Driver/Src/stm32l4xx_hal_rtc_ex.c ****              ##### Extended RTC Backup register functions #####
2254:../../../core/ST/STM32L4xx_HAL_Driver/Src/stm32l4xx_hal_rtc_ex.c ****   ===============================================================================
2255:../../../core/ST/STM32L4xx_HAL_Driver/Src/stm32l4xx_hal_rtc_ex.c ****   [..]
2256:../../../core/ST/STM32L4xx_HAL_Driver/Src/stm32l4xx_hal_rtc_ex.c ****    (+) Before calling any tamper or internal tamper function, you have to call first
2257:../../../core/ST/STM32L4xx_HAL_Driver/Src/stm32l4xx_hal_rtc_ex.c ****        HAL_RTC_Init() function.
2258:../../../core/ST/STM32L4xx_HAL_Driver/Src/stm32l4xx_hal_rtc_ex.c ****    (+) In that ine you can select to output tamper event on RTC pin.
2259:../../../core/ST/STM32L4xx_HAL_Driver/Src/stm32l4xx_hal_rtc_ex.c ****   [..]
ARM GAS  C:\Users\tomra\AppData\Local\Temp\ccoul9Yc.s 			page 117


2260:../../../core/ST/STM32L4xx_HAL_Driver/Src/stm32l4xx_hal_rtc_ex.c ****    This subsection provides functions allowing to
2261:../../../core/ST/STM32L4xx_HAL_Driver/Src/stm32l4xx_hal_rtc_ex.c ****    (+) Write a data in a specified RTC Backup data register
2262:../../../core/ST/STM32L4xx_HAL_Driver/Src/stm32l4xx_hal_rtc_ex.c ****    (+) Read a data in a specified RTC Backup data register
2263:../../../core/ST/STM32L4xx_HAL_Driver/Src/stm32l4xx_hal_rtc_ex.c **** @endverbatim
2264:../../../core/ST/STM32L4xx_HAL_Driver/Src/stm32l4xx_hal_rtc_ex.c ****   * @{
2265:../../../core/ST/STM32L4xx_HAL_Driver/Src/stm32l4xx_hal_rtc_ex.c ****   */
2266:../../../core/ST/STM32L4xx_HAL_Driver/Src/stm32l4xx_hal_rtc_ex.c **** 
2267:../../../core/ST/STM32L4xx_HAL_Driver/Src/stm32l4xx_hal_rtc_ex.c **** 
2268:../../../core/ST/STM32L4xx_HAL_Driver/Src/stm32l4xx_hal_rtc_ex.c **** /**
2269:../../../core/ST/STM32L4xx_HAL_Driver/Src/stm32l4xx_hal_rtc_ex.c ****   * @brief  Write a data in a specified RTC Backup data register.
2270:../../../core/ST/STM32L4xx_HAL_Driver/Src/stm32l4xx_hal_rtc_ex.c ****   * @param  hrtc RTC handle
2271:../../../core/ST/STM32L4xx_HAL_Driver/Src/stm32l4xx_hal_rtc_ex.c ****   * @param  BackupRegister RTC Backup data Register number.
2272:../../../core/ST/STM32L4xx_HAL_Driver/Src/stm32l4xx_hal_rtc_ex.c ****   *          This parameter can be: RTC_BKP_DRx where x can be from 0 to 31 to
2273:../../../core/ST/STM32L4xx_HAL_Driver/Src/stm32l4xx_hal_rtc_ex.c ****   *          specify the register.
2274:../../../core/ST/STM32L4xx_HAL_Driver/Src/stm32l4xx_hal_rtc_ex.c ****   * @param  Data Data to be written in the specified Backup data register.
2275:../../../core/ST/STM32L4xx_HAL_Driver/Src/stm32l4xx_hal_rtc_ex.c ****   * @retval None
2276:../../../core/ST/STM32L4xx_HAL_Driver/Src/stm32l4xx_hal_rtc_ex.c ****   */
2277:../../../core/ST/STM32L4xx_HAL_Driver/Src/stm32l4xx_hal_rtc_ex.c **** void HAL_RTCEx_BKUPWrite(RTC_HandleTypeDef *hrtc, uint32_t BackupRegister, uint32_t Data)
2278:../../../core/ST/STM32L4xx_HAL_Driver/Src/stm32l4xx_hal_rtc_ex.c **** {
 4179              		.loc 1 2278 1 view -0
 4180              		.cfi_startproc
 4181              		@ args = 0, pretend = 0, frame = 8
 4182              		@ frame_needed = 0, uses_anonymous_args = 0
 4183              		.loc 1 2278 1 is_stmt 0 view .LVU1357
 4184 0000 70B5     		push	{r4, r5, r6, lr}
 4185              	.LCFI24:
 4186              		.cfi_def_cfa_offset 16
 4187              		.cfi_offset 4, -16
 4188              		.cfi_offset 5, -12
 4189              		.cfi_offset 6, -8
 4190              		.cfi_offset 14, -4
 4191 0002 82B0     		sub	sp, sp, #8
 4192              	.LCFI25:
 4193              		.cfi_def_cfa_offset 24
 4194 0004 0646     		mov	r6, r0
 4195 0006 0C46     		mov	r4, r1
 4196 0008 1546     		mov	r5, r2
2279:../../../core/ST/STM32L4xx_HAL_Driver/Src/stm32l4xx_hal_rtc_ex.c ****   uint32_t __IO tmp;
 4197              		.loc 1 2279 3 is_stmt 1 view .LVU1358
2280:../../../core/ST/STM32L4xx_HAL_Driver/Src/stm32l4xx_hal_rtc_ex.c **** #if defined(STM32L412xx) || defined(STM32L422xx)
2281:../../../core/ST/STM32L4xx_HAL_Driver/Src/stm32l4xx_hal_rtc_ex.c ****   /* Process TAMP instance pointer */
2282:../../../core/ST/STM32L4xx_HAL_Driver/Src/stm32l4xx_hal_rtc_ex.c ****   TAMP_TypeDef *tamp = (TAMP_TypeDef *)((uint32_t)hrtc->Instance + hrtc->TampOffset);
2283:../../../core/ST/STM32L4xx_HAL_Driver/Src/stm32l4xx_hal_rtc_ex.c **** 
2284:../../../core/ST/STM32L4xx_HAL_Driver/Src/stm32l4xx_hal_rtc_ex.c ****   /* Check the parameters */
2285:../../../core/ST/STM32L4xx_HAL_Driver/Src/stm32l4xx_hal_rtc_ex.c ****   assert_param(IS_RTC_BKP(BackupRegister));
2286:../../../core/ST/STM32L4xx_HAL_Driver/Src/stm32l4xx_hal_rtc_ex.c **** 
2287:../../../core/ST/STM32L4xx_HAL_Driver/Src/stm32l4xx_hal_rtc_ex.c ****   tmp = (uint32_t)&(tamp->BKP0R);
2288:../../../core/ST/STM32L4xx_HAL_Driver/Src/stm32l4xx_hal_rtc_ex.c **** #else /* #if defined(STM32L412xx) || defined(STM32L422xx) */
2289:../../../core/ST/STM32L4xx_HAL_Driver/Src/stm32l4xx_hal_rtc_ex.c ****   /* Check the parameters */
2290:../../../core/ST/STM32L4xx_HAL_Driver/Src/stm32l4xx_hal_rtc_ex.c ****   assert_param(IS_RTC_BKP(BackupRegister));
 4198              		.loc 1 2290 3 view .LVU1359
 4199 000a 1F29     		cmp	r1, #31
 4200 000c 0AD8     		bhi	.L297
 4201              	.LVL234:
 4202              	.L295:
2291:../../../core/ST/STM32L4xx_HAL_Driver/Src/stm32l4xx_hal_rtc_ex.c **** 
2292:../../../core/ST/STM32L4xx_HAL_Driver/Src/stm32l4xx_hal_rtc_ex.c ****   tmp = (uint32_t)&(hrtc->Instance->BKP0R);
ARM GAS  C:\Users\tomra\AppData\Local\Temp\ccoul9Yc.s 			page 118


 4203              		.loc 1 2292 3 view .LVU1360
 4204              		.loc 1 2292 25 is_stmt 0 view .LVU1361
 4205 000e 3368     		ldr	r3, [r6]
 4206              		.loc 1 2292 19 view .LVU1362
 4207 0010 5033     		adds	r3, r3, #80
 4208              		.loc 1 2292 7 view .LVU1363
 4209 0012 0193     		str	r3, [sp, #4]
2293:../../../core/ST/STM32L4xx_HAL_Driver/Src/stm32l4xx_hal_rtc_ex.c **** #endif /* #if defined(STM32L412xx) || defined(STM32L422xx) */
2294:../../../core/ST/STM32L4xx_HAL_Driver/Src/stm32l4xx_hal_rtc_ex.c **** 
2295:../../../core/ST/STM32L4xx_HAL_Driver/Src/stm32l4xx_hal_rtc_ex.c ****   tmp += (BackupRegister * 4U);
 4210              		.loc 1 2295 3 is_stmt 1 view .LVU1364
 4211              		.loc 1 2295 7 is_stmt 0 view .LVU1365
 4212 0014 0199     		ldr	r1, [sp, #4]
 4213 0016 01EB8404 		add	r4, r1, r4, lsl #2
 4214              	.LVL235:
 4215              		.loc 1 2295 7 view .LVU1366
 4216 001a 0194     		str	r4, [sp, #4]
2296:../../../core/ST/STM32L4xx_HAL_Driver/Src/stm32l4xx_hal_rtc_ex.c **** 
2297:../../../core/ST/STM32L4xx_HAL_Driver/Src/stm32l4xx_hal_rtc_ex.c ****   /* Write the specified register */
2298:../../../core/ST/STM32L4xx_HAL_Driver/Src/stm32l4xx_hal_rtc_ex.c ****   *(__IO uint32_t *)tmp = (uint32_t)Data;
 4217              		.loc 1 2298 3 is_stmt 1 view .LVU1367
 4218              		.loc 1 2298 4 is_stmt 0 view .LVU1368
 4219 001c 019B     		ldr	r3, [sp, #4]
 4220              		.loc 1 2298 25 view .LVU1369
 4221 001e 1D60     		str	r5, [r3]
2299:../../../core/ST/STM32L4xx_HAL_Driver/Src/stm32l4xx_hal_rtc_ex.c **** }
 4222              		.loc 1 2299 1 view .LVU1370
 4223 0020 02B0     		add	sp, sp, #8
 4224              	.LCFI26:
 4225              		.cfi_remember_state
 4226              		.cfi_def_cfa_offset 16
 4227              		@ sp needed
 4228 0022 70BD     		pop	{r4, r5, r6, pc}
 4229              	.LVL236:
 4230              	.L297:
 4231              	.LCFI27:
 4232              		.cfi_restore_state
2290:../../../core/ST/STM32L4xx_HAL_Driver/Src/stm32l4xx_hal_rtc_ex.c **** 
 4233              		.loc 1 2290 3 discriminator 1 view .LVU1371
 4234 0024 40F6F201 		movw	r1, #2290
 4235              	.LVL237:
2290:../../../core/ST/STM32L4xx_HAL_Driver/Src/stm32l4xx_hal_rtc_ex.c **** 
 4236              		.loc 1 2290 3 discriminator 1 view .LVU1372
 4237 0028 0148     		ldr	r0, .L298
 4238              	.LVL238:
2290:../../../core/ST/STM32L4xx_HAL_Driver/Src/stm32l4xx_hal_rtc_ex.c **** 
 4239              		.loc 1 2290 3 discriminator 1 view .LVU1373
 4240 002a FFF7FEFF 		bl	assert_failed
 4241              	.LVL239:
2290:../../../core/ST/STM32L4xx_HAL_Driver/Src/stm32l4xx_hal_rtc_ex.c **** 
 4242              		.loc 1 2290 3 discriminator 1 view .LVU1374
 4243 002e EEE7     		b	.L295
 4244              	.L299:
 4245              		.align	2
 4246              	.L298:
 4247 0030 00000000 		.word	.LC0
 4248              		.cfi_endproc
ARM GAS  C:\Users\tomra\AppData\Local\Temp\ccoul9Yc.s 			page 119


 4249              	.LFE158:
 4251              		.section	.text.HAL_RTCEx_BKUPRead,"ax",%progbits
 4252              		.align	1
 4253              		.global	HAL_RTCEx_BKUPRead
 4254              		.syntax unified
 4255              		.thumb
 4256              		.thumb_func
 4257              		.fpu fpv4-sp-d16
 4259              	HAL_RTCEx_BKUPRead:
 4260              	.LVL240:
 4261              	.LFB159:
2300:../../../core/ST/STM32L4xx_HAL_Driver/Src/stm32l4xx_hal_rtc_ex.c **** 
2301:../../../core/ST/STM32L4xx_HAL_Driver/Src/stm32l4xx_hal_rtc_ex.c **** 
2302:../../../core/ST/STM32L4xx_HAL_Driver/Src/stm32l4xx_hal_rtc_ex.c **** /**
2303:../../../core/ST/STM32L4xx_HAL_Driver/Src/stm32l4xx_hal_rtc_ex.c ****   * @brief  Read data from the specified RTC Backup data Register.
2304:../../../core/ST/STM32L4xx_HAL_Driver/Src/stm32l4xx_hal_rtc_ex.c ****   * @param  hrtc RTC handle
2305:../../../core/ST/STM32L4xx_HAL_Driver/Src/stm32l4xx_hal_rtc_ex.c ****   * @param  BackupRegister  RTC Backup data Register number.
2306:../../../core/ST/STM32L4xx_HAL_Driver/Src/stm32l4xx_hal_rtc_ex.c ****   *         This parameter can be: RTC_BKP_DRx where x can be from 0 to 31 to
2307:../../../core/ST/STM32L4xx_HAL_Driver/Src/stm32l4xx_hal_rtc_ex.c ****   *         specify the register.
2308:../../../core/ST/STM32L4xx_HAL_Driver/Src/stm32l4xx_hal_rtc_ex.c ****   * @retval Read value
2309:../../../core/ST/STM32L4xx_HAL_Driver/Src/stm32l4xx_hal_rtc_ex.c ****   */
2310:../../../core/ST/STM32L4xx_HAL_Driver/Src/stm32l4xx_hal_rtc_ex.c **** uint32_t HAL_RTCEx_BKUPRead(RTC_HandleTypeDef *hrtc, uint32_t BackupRegister)
2311:../../../core/ST/STM32L4xx_HAL_Driver/Src/stm32l4xx_hal_rtc_ex.c **** {
 4262              		.loc 1 2311 1 is_stmt 1 view -0
 4263              		.cfi_startproc
 4264              		@ args = 0, pretend = 0, frame = 0
 4265              		@ frame_needed = 0, uses_anonymous_args = 0
 4266              		.loc 1 2311 1 is_stmt 0 view .LVU1376
 4267 0000 38B5     		push	{r3, r4, r5, lr}
 4268              	.LCFI28:
 4269              		.cfi_def_cfa_offset 16
 4270              		.cfi_offset 3, -16
 4271              		.cfi_offset 4, -12
 4272              		.cfi_offset 5, -8
 4273              		.cfi_offset 14, -4
 4274 0002 0546     		mov	r5, r0
 4275 0004 0C46     		mov	r4, r1
2312:../../../core/ST/STM32L4xx_HAL_Driver/Src/stm32l4xx_hal_rtc_ex.c ****   uint32_t tmp;
 4276              		.loc 1 2312 3 is_stmt 1 view .LVU1377
2313:../../../core/ST/STM32L4xx_HAL_Driver/Src/stm32l4xx_hal_rtc_ex.c **** #if defined(STM32L412xx) || defined(STM32L422xx)
2314:../../../core/ST/STM32L4xx_HAL_Driver/Src/stm32l4xx_hal_rtc_ex.c ****   /* Process TAMP instance pointer */
2315:../../../core/ST/STM32L4xx_HAL_Driver/Src/stm32l4xx_hal_rtc_ex.c ****   TAMP_TypeDef *tamp = (TAMP_TypeDef *)((uint32_t)hrtc->Instance + hrtc->TampOffset);
2316:../../../core/ST/STM32L4xx_HAL_Driver/Src/stm32l4xx_hal_rtc_ex.c **** 
2317:../../../core/ST/STM32L4xx_HAL_Driver/Src/stm32l4xx_hal_rtc_ex.c ****   /* Check the parameters */
2318:../../../core/ST/STM32L4xx_HAL_Driver/Src/stm32l4xx_hal_rtc_ex.c ****   assert_param(IS_RTC_BKP(BackupRegister));
2319:../../../core/ST/STM32L4xx_HAL_Driver/Src/stm32l4xx_hal_rtc_ex.c **** 
2320:../../../core/ST/STM32L4xx_HAL_Driver/Src/stm32l4xx_hal_rtc_ex.c ****   tmp = (uint32_t)&(tamp->BKP0R);
2321:../../../core/ST/STM32L4xx_HAL_Driver/Src/stm32l4xx_hal_rtc_ex.c **** #else /* #if defined(STM32L412xx) || defined(STM32L422xx) */
2322:../../../core/ST/STM32L4xx_HAL_Driver/Src/stm32l4xx_hal_rtc_ex.c ****   /* Check the parameters */
2323:../../../core/ST/STM32L4xx_HAL_Driver/Src/stm32l4xx_hal_rtc_ex.c ****   assert_param(IS_RTC_BKP(BackupRegister));
 4277              		.loc 1 2323 3 view .LVU1378
 4278 0006 1F29     		cmp	r1, #31
 4279 0008 04D8     		bhi	.L303
 4280              	.LVL241:
 4281              	.L301:
2324:../../../core/ST/STM32L4xx_HAL_Driver/Src/stm32l4xx_hal_rtc_ex.c **** 
2325:../../../core/ST/STM32L4xx_HAL_Driver/Src/stm32l4xx_hal_rtc_ex.c ****   tmp = (uint32_t)&(hrtc->Instance->BKP0R);
ARM GAS  C:\Users\tomra\AppData\Local\Temp\ccoul9Yc.s 			page 120


 4282              		.loc 1 2325 3 view .LVU1379
 4283              		.loc 1 2325 25 is_stmt 0 view .LVU1380
 4284 000a 2B68     		ldr	r3, [r5]
 4285              		.loc 1 2325 19 view .LVU1381
 4286 000c 5033     		adds	r3, r3, #80
 4287              	.LVL242:
2326:../../../core/ST/STM32L4xx_HAL_Driver/Src/stm32l4xx_hal_rtc_ex.c **** #endif /* #if defined(STM32L412xx) || defined(STM32L422xx) */
2327:../../../core/ST/STM32L4xx_HAL_Driver/Src/stm32l4xx_hal_rtc_ex.c **** 
2328:../../../core/ST/STM32L4xx_HAL_Driver/Src/stm32l4xx_hal_rtc_ex.c ****   tmp += (BackupRegister * 4U);
 4288              		.loc 1 2328 3 is_stmt 1 view .LVU1382
2329:../../../core/ST/STM32L4xx_HAL_Driver/Src/stm32l4xx_hal_rtc_ex.c **** 
2330:../../../core/ST/STM32L4xx_HAL_Driver/Src/stm32l4xx_hal_rtc_ex.c ****   /* Read the specified register */
2331:../../../core/ST/STM32L4xx_HAL_Driver/Src/stm32l4xx_hal_rtc_ex.c ****   return (*(__IO uint32_t *)tmp);
 4289              		.loc 1 2331 3 view .LVU1383
 4290              		.loc 1 2331 11 is_stmt 0 view .LVU1384
 4291 000e 53F82400 		ldr	r0, [r3, r4, lsl #2]
2332:../../../core/ST/STM32L4xx_HAL_Driver/Src/stm32l4xx_hal_rtc_ex.c **** }
 4292              		.loc 1 2332 1 view .LVU1385
 4293 0012 38BD     		pop	{r3, r4, r5, pc}
 4294              	.LVL243:
 4295              	.L303:
2323:../../../core/ST/STM32L4xx_HAL_Driver/Src/stm32l4xx_hal_rtc_ex.c **** 
 4296              		.loc 1 2323 3 discriminator 1 view .LVU1386
 4297 0014 40F61311 		movw	r1, #2323
 4298              	.LVL244:
2323:../../../core/ST/STM32L4xx_HAL_Driver/Src/stm32l4xx_hal_rtc_ex.c **** 
 4299              		.loc 1 2323 3 discriminator 1 view .LVU1387
 4300 0018 0148     		ldr	r0, .L304
 4301              	.LVL245:
2323:../../../core/ST/STM32L4xx_HAL_Driver/Src/stm32l4xx_hal_rtc_ex.c **** 
 4302              		.loc 1 2323 3 discriminator 1 view .LVU1388
 4303 001a FFF7FEFF 		bl	assert_failed
 4304              	.LVL246:
 4305 001e F4E7     		b	.L301
 4306              	.L305:
 4307              		.align	2
 4308              	.L304:
 4309 0020 00000000 		.word	.LC0
 4310              		.cfi_endproc
 4311              	.LFE159:
 4313              		.text
 4314              	.Letext0:
 4315              		.file 2 "c:\\program files (x86)\\gnu tools arm embedded\\9 2019-q4-major\\arm-none-eabi\\include\
 4316              		.file 3 "c:\\program files (x86)\\gnu tools arm embedded\\9 2019-q4-major\\arm-none-eabi\\include\
 4317              		.file 4 "../../../core/ST/CMSIS/Include/core_cm4.h"
 4318              		.file 5 "../../../core/ST/CMSIS/Device/ST/STM32L4xx/Include/system_stm32l4xx.h"
 4319              		.file 6 "../../../core/ST/CMSIS/Device/ST/STM32L4xx/Include/stm32l496xx.h"
 4320              		.file 7 "../../../core/ST/STM32L4xx_HAL_Driver/Inc/stm32l4xx_hal_def.h"
 4321              		.file 8 "../../../core/ST/STM32L4xx_HAL_Driver/Inc/stm32l4xx_hal_rtc.h"
 4322              		.file 9 "../../../core/ST/STM32L4xx_HAL_Driver/Inc/stm32l4xx_hal_rtc_ex.h"
 4323              		.file 10 "../../../core/ST/STM32L4xx_HAL_Driver/Inc/stm32l4xx_hal.h"
 4324              		.file 11 "../../../core/platform/octa/inc/stm32l4xx_hal_conf.h"
ARM GAS  C:\Users\tomra\AppData\Local\Temp\ccoul9Yc.s 			page 121


DEFINED SYMBOLS
                            *ABS*:00000000 stm32l4xx_hal_rtc_ex.c
C:\Users\tomra\AppData\Local\Temp\ccoul9Yc.s:18     .rodata.HAL_RTCEx_SetTimeStamp.str1.4:00000000 $d
C:\Users\tomra\AppData\Local\Temp\ccoul9Yc.s:23     .text.HAL_RTCEx_SetTimeStamp:00000000 $t
C:\Users\tomra\AppData\Local\Temp\ccoul9Yc.s:31     .text.HAL_RTCEx_SetTimeStamp:00000000 HAL_RTCEx_SetTimeStamp
C:\Users\tomra\AppData\Local\Temp\ccoul9Yc.s:154    .text.HAL_RTCEx_SetTimeStamp:00000074 $d
C:\Users\tomra\AppData\Local\Temp\ccoul9Yc.s:159    .text.HAL_RTCEx_SetTimeStamp_IT:00000000 $t
C:\Users\tomra\AppData\Local\Temp\ccoul9Yc.s:166    .text.HAL_RTCEx_SetTimeStamp_IT:00000000 HAL_RTCEx_SetTimeStamp_IT
C:\Users\tomra\AppData\Local\Temp\ccoul9Yc.s:303    .text.HAL_RTCEx_SetTimeStamp_IT:00000098 $d
C:\Users\tomra\AppData\Local\Temp\ccoul9Yc.s:309    .text.HAL_RTCEx_DeactivateTimeStamp:00000000 $t
C:\Users\tomra\AppData\Local\Temp\ccoul9Yc.s:316    .text.HAL_RTCEx_DeactivateTimeStamp:00000000 HAL_RTCEx_DeactivateTimeStamp
C:\Users\tomra\AppData\Local\Temp\ccoul9Yc.s:400    .text.HAL_RTCEx_SetInternalTimeStamp:00000000 $t
C:\Users\tomra\AppData\Local\Temp\ccoul9Yc.s:407    .text.HAL_RTCEx_SetInternalTimeStamp:00000000 HAL_RTCEx_SetInternalTimeStamp
C:\Users\tomra\AppData\Local\Temp\ccoul9Yc.s:474    .text.HAL_RTCEx_DeactivateInternalTimeStamp:00000000 $t
C:\Users\tomra\AppData\Local\Temp\ccoul9Yc.s:481    .text.HAL_RTCEx_DeactivateInternalTimeStamp:00000000 HAL_RTCEx_DeactivateInternalTimeStamp
C:\Users\tomra\AppData\Local\Temp\ccoul9Yc.s:548    .text.HAL_RTCEx_GetTimeStamp:00000000 $t
C:\Users\tomra\AppData\Local\Temp\ccoul9Yc.s:555    .text.HAL_RTCEx_GetTimeStamp:00000000 HAL_RTCEx_GetTimeStamp
C:\Users\tomra\AppData\Local\Temp\ccoul9Yc.s:721    .text.HAL_RTCEx_GetTimeStamp:000000a4 $d
C:\Users\tomra\AppData\Local\Temp\ccoul9Yc.s:727    .text.HAL_RTCEx_TimeStampEventCallback:00000000 $t
C:\Users\tomra\AppData\Local\Temp\ccoul9Yc.s:734    .text.HAL_RTCEx_TimeStampEventCallback:00000000 HAL_RTCEx_TimeStampEventCallback
C:\Users\tomra\AppData\Local\Temp\ccoul9Yc.s:749    .text.HAL_RTCEx_PollForTimeStampEvent:00000000 $t
C:\Users\tomra\AppData\Local\Temp\ccoul9Yc.s:756    .text.HAL_RTCEx_PollForTimeStampEvent:00000000 HAL_RTCEx_PollForTimeStampEvent
C:\Users\tomra\AppData\Local\Temp\ccoul9Yc.s:849    .text.HAL_RTCEx_SetWakeUpTimer:00000000 $t
C:\Users\tomra\AppData\Local\Temp\ccoul9Yc.s:856    .text.HAL_RTCEx_SetWakeUpTimer:00000000 HAL_RTCEx_SetWakeUpTimer
C:\Users\tomra\AppData\Local\Temp\ccoul9Yc.s:1086   .text.HAL_RTCEx_SetWakeUpTimer:000000f4 $d
C:\Users\tomra\AppData\Local\Temp\ccoul9Yc.s:1091   .text.HAL_RTCEx_SetWakeUpTimer_IT:00000000 $t
C:\Users\tomra\AppData\Local\Temp\ccoul9Yc.s:1098   .text.HAL_RTCEx_SetWakeUpTimer_IT:00000000 HAL_RTCEx_SetWakeUpTimer_IT
C:\Users\tomra\AppData\Local\Temp\ccoul9Yc.s:1348   .text.HAL_RTCEx_SetWakeUpTimer_IT:0000011c $d
C:\Users\tomra\AppData\Local\Temp\ccoul9Yc.s:1354   .text.HAL_RTCEx_DeactivateWakeUpTimer:00000000 $t
C:\Users\tomra\AppData\Local\Temp\ccoul9Yc.s:1361   .text.HAL_RTCEx_DeactivateWakeUpTimer:00000000 HAL_RTCEx_DeactivateWakeUpTimer
C:\Users\tomra\AppData\Local\Temp\ccoul9Yc.s:1485   .text.HAL_RTCEx_GetWakeUpTimer:00000000 $t
C:\Users\tomra\AppData\Local\Temp\ccoul9Yc.s:1492   .text.HAL_RTCEx_GetWakeUpTimer:00000000 HAL_RTCEx_GetWakeUpTimer
C:\Users\tomra\AppData\Local\Temp\ccoul9Yc.s:1513   .text.HAL_RTCEx_WakeUpTimerEventCallback:00000000 $t
C:\Users\tomra\AppData\Local\Temp\ccoul9Yc.s:1520   .text.HAL_RTCEx_WakeUpTimerEventCallback:00000000 HAL_RTCEx_WakeUpTimerEventCallback
C:\Users\tomra\AppData\Local\Temp\ccoul9Yc.s:1535   .text.HAL_RTCEx_WakeUpTimerIRQHandler:00000000 $t
C:\Users\tomra\AppData\Local\Temp\ccoul9Yc.s:1542   .text.HAL_RTCEx_WakeUpTimerIRQHandler:00000000 HAL_RTCEx_WakeUpTimerIRQHandler
C:\Users\tomra\AppData\Local\Temp\ccoul9Yc.s:1590   .text.HAL_RTCEx_WakeUpTimerIRQHandler:00000030 $d
C:\Users\tomra\AppData\Local\Temp\ccoul9Yc.s:1595   .text.HAL_RTCEx_PollForWakeUpTimerEvent:00000000 $t
C:\Users\tomra\AppData\Local\Temp\ccoul9Yc.s:1602   .text.HAL_RTCEx_PollForWakeUpTimerEvent:00000000 HAL_RTCEx_PollForWakeUpTimerEvent
C:\Users\tomra\AppData\Local\Temp\ccoul9Yc.s:1680   .text.HAL_RTCEx_SetSmoothCalib:00000000 $t
C:\Users\tomra\AppData\Local\Temp\ccoul9Yc.s:1687   .text.HAL_RTCEx_SetSmoothCalib:00000000 HAL_RTCEx_SetSmoothCalib
C:\Users\tomra\AppData\Local\Temp\ccoul9Yc.s:1870   .text.HAL_RTCEx_SetSmoothCalib:000000d8 $d
C:\Users\tomra\AppData\Local\Temp\ccoul9Yc.s:1875   .text.HAL_RTCEx_SetSynchroShift:00000000 $t
C:\Users\tomra\AppData\Local\Temp\ccoul9Yc.s:1882   .text.HAL_RTCEx_SetSynchroShift:00000000 HAL_RTCEx_SetSynchroShift
C:\Users\tomra\AppData\Local\Temp\ccoul9Yc.s:2099   .text.HAL_RTCEx_SetSynchroShift:000000e0 $d
C:\Users\tomra\AppData\Local\Temp\ccoul9Yc.s:2104   .text.HAL_RTCEx_SetCalibrationOutPut:00000000 $t
C:\Users\tomra\AppData\Local\Temp\ccoul9Yc.s:2111   .text.HAL_RTCEx_SetCalibrationOutPut:00000000 HAL_RTCEx_SetCalibrationOutPut
C:\Users\tomra\AppData\Local\Temp\ccoul9Yc.s:2214   .text.HAL_RTCEx_SetCalibrationOutPut:0000006c $d
C:\Users\tomra\AppData\Local\Temp\ccoul9Yc.s:2219   .text.HAL_RTCEx_DeactivateCalibrationOutPut:00000000 $t
C:\Users\tomra\AppData\Local\Temp\ccoul9Yc.s:2226   .text.HAL_RTCEx_DeactivateCalibrationOutPut:00000000 HAL_RTCEx_DeactivateCalibrationOutPut
C:\Users\tomra\AppData\Local\Temp\ccoul9Yc.s:2293   .text.HAL_RTCEx_SetRefClock:00000000 $t
C:\Users\tomra\AppData\Local\Temp\ccoul9Yc.s:2300   .text.HAL_RTCEx_SetRefClock:00000000 HAL_RTCEx_SetRefClock
C:\Users\tomra\AppData\Local\Temp\ccoul9Yc.s:2410   .text.HAL_RTCEx_DeactivateRefClock:00000000 $t
C:\Users\tomra\AppData\Local\Temp\ccoul9Yc.s:2417   .text.HAL_RTCEx_DeactivateRefClock:00000000 HAL_RTCEx_DeactivateRefClock
C:\Users\tomra\AppData\Local\Temp\ccoul9Yc.s:2527   .text.HAL_RTCEx_EnableBypassShadow:00000000 $t
C:\Users\tomra\AppData\Local\Temp\ccoul9Yc.s:2534   .text.HAL_RTCEx_EnableBypassShadow:00000000 HAL_RTCEx_EnableBypassShadow
C:\Users\tomra\AppData\Local\Temp\ccoul9Yc.s:2603   .text.HAL_RTCEx_DisableBypassShadow:00000000 $t
ARM GAS  C:\Users\tomra\AppData\Local\Temp\ccoul9Yc.s 			page 122


C:\Users\tomra\AppData\Local\Temp\ccoul9Yc.s:2610   .text.HAL_RTCEx_DisableBypassShadow:00000000 HAL_RTCEx_DisableBypassShadow
C:\Users\tomra\AppData\Local\Temp\ccoul9Yc.s:2679   .text.HAL_RTCEx_AlarmBEventCallback:00000000 $t
C:\Users\tomra\AppData\Local\Temp\ccoul9Yc.s:2686   .text.HAL_RTCEx_AlarmBEventCallback:00000000 HAL_RTCEx_AlarmBEventCallback
C:\Users\tomra\AppData\Local\Temp\ccoul9Yc.s:2701   .text.HAL_RTCEx_PollForAlarmBEvent:00000000 $t
C:\Users\tomra\AppData\Local\Temp\ccoul9Yc.s:2708   .text.HAL_RTCEx_PollForAlarmBEvent:00000000 HAL_RTCEx_PollForAlarmBEvent
C:\Users\tomra\AppData\Local\Temp\ccoul9Yc.s:2786   .text.HAL_RTCEx_SetTamper:00000000 $t
C:\Users\tomra\AppData\Local\Temp\ccoul9Yc.s:2793   .text.HAL_RTCEx_SetTamper:00000000 HAL_RTCEx_SetTamper
C:\Users\tomra\AppData\Local\Temp\ccoul9Yc.s:3158   .text.HAL_RTCEx_SetTamper:000001e8 $d
C:\Users\tomra\AppData\Local\Temp\ccoul9Yc.s:3164   .text.HAL_RTCEx_SetTamper_IT:00000000 $t
C:\Users\tomra\AppData\Local\Temp\ccoul9Yc.s:3171   .text.HAL_RTCEx_SetTamper_IT:00000000 HAL_RTCEx_SetTamper_IT
C:\Users\tomra\AppData\Local\Temp\ccoul9Yc.s:3564   .text.HAL_RTCEx_SetTamper_IT:00000218 $d
C:\Users\tomra\AppData\Local\Temp\ccoul9Yc.s:3571   .text.HAL_RTCEx_DeactivateTamper:00000000 $t
C:\Users\tomra\AppData\Local\Temp\ccoul9Yc.s:3578   .text.HAL_RTCEx_DeactivateTamper:00000000 HAL_RTCEx_DeactivateTamper
C:\Users\tomra\AppData\Local\Temp\ccoul9Yc.s:3691   .text.HAL_RTCEx_DeactivateTamper:00000084 $d
C:\Users\tomra\AppData\Local\Temp\ccoul9Yc.s:3696   .text.HAL_RTCEx_PollForTamper1Event:00000000 $t
C:\Users\tomra\AppData\Local\Temp\ccoul9Yc.s:3703   .text.HAL_RTCEx_PollForTamper1Event:00000000 HAL_RTCEx_PollForTamper1Event
C:\Users\tomra\AppData\Local\Temp\ccoul9Yc.s:3781   .text.HAL_RTCEx_PollForTamper2Event:00000000 $t
C:\Users\tomra\AppData\Local\Temp\ccoul9Yc.s:3788   .text.HAL_RTCEx_PollForTamper2Event:00000000 HAL_RTCEx_PollForTamper2Event
C:\Users\tomra\AppData\Local\Temp\ccoul9Yc.s:3866   .text.HAL_RTCEx_PollForTamper3Event:00000000 $t
C:\Users\tomra\AppData\Local\Temp\ccoul9Yc.s:3873   .text.HAL_RTCEx_PollForTamper3Event:00000000 HAL_RTCEx_PollForTamper3Event
C:\Users\tomra\AppData\Local\Temp\ccoul9Yc.s:3953   .text.HAL_RTCEx_Tamper1EventCallback:00000000 $t
C:\Users\tomra\AppData\Local\Temp\ccoul9Yc.s:3960   .text.HAL_RTCEx_Tamper1EventCallback:00000000 HAL_RTCEx_Tamper1EventCallback
C:\Users\tomra\AppData\Local\Temp\ccoul9Yc.s:3975   .text.HAL_RTCEx_Tamper2EventCallback:00000000 $t
C:\Users\tomra\AppData\Local\Temp\ccoul9Yc.s:3982   .text.HAL_RTCEx_Tamper2EventCallback:00000000 HAL_RTCEx_Tamper2EventCallback
C:\Users\tomra\AppData\Local\Temp\ccoul9Yc.s:3997   .text.HAL_RTCEx_Tamper3EventCallback:00000000 $t
C:\Users\tomra\AppData\Local\Temp\ccoul9Yc.s:4004   .text.HAL_RTCEx_Tamper3EventCallback:00000000 HAL_RTCEx_Tamper3EventCallback
C:\Users\tomra\AppData\Local\Temp\ccoul9Yc.s:4019   .text.HAL_RTCEx_TamperTimeStampIRQHandler:00000000 $t
C:\Users\tomra\AppData\Local\Temp\ccoul9Yc.s:4026   .text.HAL_RTCEx_TamperTimeStampIRQHandler:00000000 HAL_RTCEx_TamperTimeStampIRQHandler
C:\Users\tomra\AppData\Local\Temp\ccoul9Yc.s:4161   .text.HAL_RTCEx_TamperTimeStampIRQHandler:000000b0 $d
C:\Users\tomra\AppData\Local\Temp\ccoul9Yc.s:4169   .text.HAL_RTCEx_BKUPWrite:00000000 $t
C:\Users\tomra\AppData\Local\Temp\ccoul9Yc.s:4176   .text.HAL_RTCEx_BKUPWrite:00000000 HAL_RTCEx_BKUPWrite
C:\Users\tomra\AppData\Local\Temp\ccoul9Yc.s:4247   .text.HAL_RTCEx_BKUPWrite:00000030 $d
C:\Users\tomra\AppData\Local\Temp\ccoul9Yc.s:4252   .text.HAL_RTCEx_BKUPRead:00000000 $t
C:\Users\tomra\AppData\Local\Temp\ccoul9Yc.s:4259   .text.HAL_RTCEx_BKUPRead:00000000 HAL_RTCEx_BKUPRead
C:\Users\tomra\AppData\Local\Temp\ccoul9Yc.s:4309   .text.HAL_RTCEx_BKUPRead:00000020 $d

UNDEFINED SYMBOLS
assert_failed
RTC_Bcd2ToByte
HAL_GetTick
HAL_RTC_WaitForSynchro
RTC_EnterInitMode
