ARM GAS  C:\Users\tijsv\AppData\Local\Temp\cctGyNat.s 			page 1


   1              		.cpu cortex-m4
   2              		.eabi_attribute 27, 1
   3              		.eabi_attribute 28, 1
   4              		.eabi_attribute 20, 1
   5              		.eabi_attribute 21, 1
   6              		.eabi_attribute 23, 3
   7              		.eabi_attribute 24, 1
   8              		.eabi_attribute 25, 1
   9              		.eabi_attribute 26, 1
  10              		.eabi_attribute 30, 1
  11              		.eabi_attribute 34, 1
  12              		.eabi_attribute 18, 4
  13              		.file	"freertos.c"
  14              		.text
  15              	.Ltext0:
  16              		.cfi_sections	.debug_frame
  17              		.section	.rodata.vApplicationStackOverflowHook.str1.4,"aMS",%progbits,1
  18              		.align	2
  19              	.LC0:
  20 0000 2A2A2A2A 		.ascii	"*****FreeRTOS stack overflow*****\015\012\000"
  20      2A467265 
  20      6552544F 
  20      53207374 
  20      61636B20 
  21              		.section	.text.vApplicationStackOverflowHook,"ax",%progbits
  22              		.align	1
  23              		.global	vApplicationStackOverflowHook
  24              		.arch armv7e-m
  25              		.syntax unified
  26              		.thumb
  27              		.thumb_func
  28              		.fpu fpv4-sp-d16
  30              	vApplicationStackOverflowHook:
  31              	.LVL0:
  32              	.LFB131:
  33              		.file 1 "../../../core/platform/octa/src/freertos.c"
   1:../../../core/platform/octa/src/freertos.c **** #include "FreeRTOS.h"
   2:../../../core/platform/octa/src/freertos.c **** #include "task.h"
   3:../../../core/platform/octa/src/freertos.c **** #include "rtosincludes.h"
   4:../../../core/platform/octa/src/freertos.c **** #include "platform.h"
   5:../../../core/platform/octa/src/freertos.c **** 
   6:../../../core/platform/octa/src/freertos.c **** void vApplicationStackOverflowHook(xTaskHandle xTask, signed char pcTaskName)
   7:../../../core/platform/octa/src/freertos.c **** {
  34              		.loc 1 7 1 view -0
  35              		.cfi_startproc
  36              		@ args = 0, pretend = 0, frame = 0
  37              		@ frame_needed = 0, uses_anonymous_args = 0
  38              		.loc 1 7 1 is_stmt 0 view .LVU1
  39 0000 08B5     		push	{r3, lr}
  40              	.LCFI0:
  41              		.cfi_def_cfa_offset 8
  42              		.cfi_offset 3, -8
  43              		.cfi_offset 14, -4
   8:../../../core/platform/octa/src/freertos.c ****    /* Run time stack overflow checking is performed if
   9:../../../core/platform/octa/src/freertos.c ****    configCHECKFORSTACK_OVERFLOW is defined to 1 or 2. This hook function is
  10:../../../core/platform/octa/src/freertos.c ****    called if a stack overflow is detected. */
  11:../../../core/platform/octa/src/freertos.c ****   printERR("*****FreeRTOS stack overflow*****\r\n");
ARM GAS  C:\Users\tijsv\AppData\Local\Temp\cctGyNat.s 			page 2


  44              		.loc 1 11 3 is_stmt 1 view .LVU2
  45 0002 0248     		ldr	r0, .L3
  46              	.LVL1:
  47              		.loc 1 11 3 is_stmt 0 view .LVU3
  48 0004 FFF7FEFF 		bl	printERR
  49              	.LVL2:
  12:../../../core/platform/octa/src/freertos.c ****   asm("bkpt 255");
  50              		.loc 1 12 3 is_stmt 1 view .LVU4
  51              		.syntax unified
  52              	@ 12 "../../../core/platform/octa/src/freertos.c" 1
  53 0008 FFBE     		bkpt 255
  54              	@ 0 "" 2
  13:../../../core/platform/octa/src/freertos.c **** }
  55              		.loc 1 13 1 is_stmt 0 view .LVU5
  56              		.thumb
  57              		.syntax unified
  58 000a 08BD     		pop	{r3, pc}
  59              	.L4:
  60              		.align	2
  61              	.L3:
  62 000c 00000000 		.word	.LC0
  63              		.cfi_endproc
  64              	.LFE131:
  66              		.section	.text.RTOS_Print_Stats_Thread,"ax",%progbits
  67              		.align	1
  68              		.global	RTOS_Print_Stats_Thread
  69              		.syntax unified
  70              		.thumb
  71              		.thumb_func
  72              		.fpu fpv4-sp-d16
  74              	RTOS_Print_Stats_Thread:
  75              	.LFB132:
  14:../../../core/platform/octa/src/freertos.c **** 
  15:../../../core/platform/octa/src/freertos.c **** void RTOS_Print_Stats_Thread(void const *argument)
  16:../../../core/platform/octa/src/freertos.c **** {
  76              		.loc 1 16 1 is_stmt 1 view -0
  77              		.cfi_startproc
  78              		@ Volatile: function does not return.
  79              		@ args = 0, pretend = 0, frame = 0
  80              		@ frame_needed = 0, uses_anonymous_args = 0
  81              	.LVL3:
  82              		.loc 1 16 1 is_stmt 0 view .LVU7
  83 0000 08B5     		push	{r3, lr}
  84              	.LCFI1:
  85              		.cfi_def_cfa_offset 8
  86              		.cfi_offset 3, -8
  87              		.cfi_offset 14, -4
  88              	.LVL4:
  89              	.L6:
  17:../../../core/platform/octa/src/freertos.c ****   for (;;)
  90              		.loc 1 17 3 is_stmt 1 discriminator 1 view .LVU8
  18:../../../core/platform/octa/src/freertos.c ****   {
  19:../../../core/platform/octa/src/freertos.c ****     RTOS_print_stats();
  91              		.loc 1 19 5 discriminator 1 view .LVU9
  92 0002 FFF7FEFF 		bl	RTOS_print_stats
  93              	.LVL5:
  20:../../../core/platform/octa/src/freertos.c ****     osThreadSuspend(NULL);
ARM GAS  C:\Users\tijsv\AppData\Local\Temp\cctGyNat.s 			page 3


  94              		.loc 1 20 5 discriminator 1 view .LVU10
  95 0006 0020     		movs	r0, #0
  96 0008 FFF7FEFF 		bl	osThreadSuspend
  97              	.LVL6:
  17:../../../core/platform/octa/src/freertos.c ****   for (;;)
  98              		.loc 1 17 9 discriminator 1 view .LVU11
  99 000c F9E7     		b	.L6
 100              		.cfi_endproc
 101              	.LFE132:
 103              		.section	.rodata.RTOS_Send_Notification.str1.4,"aMS",%progbits,1
 104              		.align	2
 105              	.LC1:
 106 0000 2E2E2F2E 		.ascii	"../../../core/platform/octa/src/freertos.c\000"
 106      2E2F2E2E 
 106      2F636F72 
 106      652F706C 
 106      6174666F 
 107              		.section	.text.RTOS_Send_Notification,"ax",%progbits
 108              		.align	1
 109              		.global	RTOS_Send_Notification
 110              		.syntax unified
 111              		.thumb
 112              		.thumb_func
 113              		.fpu fpv4-sp-d16
 115              	RTOS_Send_Notification:
 116              	.LVL7:
 117              	.LFB133:
  21:../../../core/platform/octa/src/freertos.c ****   }
  22:../../../core/platform/octa/src/freertos.c **** }
  23:../../../core/platform/octa/src/freertos.c **** 
  24:../../../core/platform/octa/src/freertos.c **** 
  25:../../../core/platform/octa/src/freertos.c **** void RTOS_Send_Notification(osThreadId threadid)
  26:../../../core/platform/octa/src/freertos.c **** {
 118              		.loc 1 26 1 view -0
 119              		.cfi_startproc
 120              		@ args = 0, pretend = 0, frame = 8
 121              		@ frame_needed = 0, uses_anonymous_args = 0
 122              		.loc 1 26 1 is_stmt 0 view .LVU13
 123 0000 10B5     		push	{r4, lr}
 124              	.LCFI2:
 125              		.cfi_def_cfa_offset 8
 126              		.cfi_offset 4, -8
 127              		.cfi_offset 14, -4
 128 0002 82B0     		sub	sp, sp, #8
 129              	.LCFI3:
 130              		.cfi_def_cfa_offset 16
  27:../../../core/platform/octa/src/freertos.c ****     BaseType_t xHigherPriorityTaskWoken = pdFALSE;
 131              		.loc 1 27 5 is_stmt 1 view .LVU14
 132              		.loc 1 27 16 is_stmt 0 view .LVU15
 133 0004 0023     		movs	r3, #0
 134 0006 0193     		str	r3, [sp, #4]
  28:../../../core/platform/octa/src/freertos.c ****     TaskHandle_t xTaskToNotify = threadid;
 135              		.loc 1 28 5 is_stmt 1 view .LVU16
 136              	.LVL8:
  29:../../../core/platform/octa/src/freertos.c ****     /* At this point xTaskToNotify should not be NULL as a transmission was
  30:../../../core/platform/octa/src/freertos.c ****         in progress. */
  31:../../../core/platform/octa/src/freertos.c ****     configASSERT(xTaskToNotify != NULL);
ARM GAS  C:\Users\tijsv\AppData\Local\Temp\cctGyNat.s 			page 4


 137              		.loc 1 31 5 view .LVU17
 138 0008 0446     		mov	r4, r0
 139 000a 78B1     		cbz	r0, .L12
 140              	.LVL9:
 141              	.L9:
  32:../../../core/platform/octa/src/freertos.c **** 
  33:../../../core/platform/octa/src/freertos.c ****     /* Notify the task that the transmission is complete. */
  34:../../../core/platform/octa/src/freertos.c ****     vTaskNotifyGiveFromISR(xTaskToNotify, &xHigherPriorityTaskWoken);
 142              		.loc 1 34 5 view .LVU18
 143 000c 01A9     		add	r1, sp, #4
 144 000e 2046     		mov	r0, r4
 145 0010 FFF7FEFF 		bl	vTaskNotifyGiveFromISR
 146              	.LVL10:
  35:../../../core/platform/octa/src/freertos.c **** 
  36:../../../core/platform/octa/src/freertos.c ****     /* There are no transmissions in progress, so no tasks to notify. */
  37:../../../core/platform/octa/src/freertos.c ****     xTaskToNotify = NULL;
 147              		.loc 1 37 5 view .LVU19
  38:../../../core/platform/octa/src/freertos.c **** 
  39:../../../core/platform/octa/src/freertos.c ****     /* If xHigherPriorityTaskWoken is now set to pdTRUE then a context switch
  40:../../../core/platform/octa/src/freertos.c ****         should be performed to ensure the interrupt returns directly to the highest
  41:../../../core/platform/octa/src/freertos.c ****         priority task.  The macro used for this purpose is dependent on the port in
  42:../../../core/platform/octa/src/freertos.c ****         use and may be called portEND_SWITCHING_ISR(). */
  43:../../../core/platform/octa/src/freertos.c ****     portYIELD_FROM_ISR(xHigherPriorityTaskWoken);
 148              		.loc 1 43 5 view .LVU20
 149 0014 019B     		ldr	r3, [sp, #4]
 150 0016 3BB1     		cbz	r3, .L8
 151              		.loc 1 43 5 discriminator 1 view .LVU21
 152 0018 074B     		ldr	r3, .L13
 153 001a 4FF08052 		mov	r2, #268435456
 154 001e 1A60     		str	r2, [r3]
 155              		.loc 1 43 5 discriminator 1 view .LVU22
 156              		.syntax unified
 157              	@ 43 "../../../core/platform/octa/src/freertos.c" 1
 158 0020 BFF34F8F 		dsb
 159              	@ 0 "" 2
 160              		.loc 1 43 5 discriminator 1 view .LVU23
 161              	@ 43 "../../../core/platform/octa/src/freertos.c" 1
 162 0024 BFF36F8F 		isb
 163              	@ 0 "" 2
 164              		.loc 1 43 49 discriminator 1 view .LVU24
 165              		.thumb
 166              		.syntax unified
 167              	.L8:
  44:../../../core/platform/octa/src/freertos.c **** }
 168              		.loc 1 44 1 is_stmt 0 view .LVU25
 169 0028 02B0     		add	sp, sp, #8
 170              	.LCFI4:
 171              		.cfi_remember_state
 172              		.cfi_def_cfa_offset 8
 173              		@ sp needed
 174 002a 10BD     		pop	{r4, pc}
 175              	.LVL11:
 176              	.L12:
 177              	.LCFI5:
 178              		.cfi_restore_state
  31:../../../core/platform/octa/src/freertos.c **** 
 179              		.loc 1 31 5 is_stmt 1 discriminator 1 view .LVU26
ARM GAS  C:\Users\tijsv\AppData\Local\Temp\cctGyNat.s 			page 5


 180 002c 1F21     		movs	r1, #31
 181 002e 0348     		ldr	r0, .L13+4
 182              	.LVL12:
  31:../../../core/platform/octa/src/freertos.c **** 
 183              		.loc 1 31 5 is_stmt 0 discriminator 1 view .LVU27
 184 0030 FFF7FEFF 		bl	assert_failed
 185              	.LVL13:
 186 0034 EAE7     		b	.L9
 187              	.L14:
 188 0036 00BF     		.align	2
 189              	.L13:
 190 0038 04ED00E0 		.word	-536810236
 191 003c 00000000 		.word	.LC1
 192              		.cfi_endproc
 193              	.LFE133:
 195              		.comm	P3_header,44,4
 196              		.comm	P2_header,44,4
 197              		.comm	P1_header,44,4
 198              		.comm	stackversion_patch,1,1
 199              		.comm	stackversion_minor,1,1
 200              		.comm	stackversion_major,1,1
 201              		.comm	appversion_patch,1,1
 202              		.comm	appversion_minor,1,1
 203              		.comm	appversion_major,1,1
 204              		.comm	short_UID,8,8
 205              		.comm	hard_reset,1,1
 206              		.comm	wd_reset,1,1
 207              		.comm	octa_uid,8,8
 208              		.comm	float_union,4,4
 209              		.comm	uint16LittleEndian,2,4
 210              		.comm	int16LittleEndian,2,4
 211              		.comm	uint32LittleEndian,4,4
 212              		.comm	int32LittleEndian,4,4
 213              		.comm	hrtc,36,4
 214              		.comm	FLASH_SPI,100,4
 215              		.comm	P3_SPI,100,4
 216              		.comm	P2_SPI,100,4
 217              		.comm	P1_SPI,100,4
 218              		.comm	P3_I2C,76,4
 219              		.comm	P2_I2C,76,4
 220              		.comm	P1_I2C,76,4
 221              		.comm	common_I2C,76,4
 222              		.comm	P3_UART,120,4
 223              		.comm	P2_UART,120,4
 224              		.comm	P1_UART,120,4
 225              		.comm	FTDI_UART,120,4
 226              		.comm	BLE_UART,120,4
 227              		.comm	USB_UART,120,4
 228              		.comm	hiwdg,16,4
 229              		.comm	P3_DIO6,8,4
 230              		.comm	P3_DIO5,8,4
 231              		.comm	P3_DIO4,8,4
 232              		.comm	P3_DIO3,8,4
 233              		.comm	P3_DIO2,8,4
 234              		.comm	P3_DIO1,8,4
 235              		.comm	P2_DIO6,8,4
 236              		.comm	P2_DIO5,8,4
ARM GAS  C:\Users\tijsv\AppData\Local\Temp\cctGyNat.s 			page 6


 237              		.comm	P2_DIO4,8,4
 238              		.comm	P2_DIO3,8,4
 239              		.comm	P2_DIO2,8,4
 240              		.comm	P2_DIO1,8,4
 241              		.comm	P1_DIO6,8,4
 242              		.comm	P1_DIO5,8,4
 243              		.comm	P1_DIO4,8,4
 244              		.comm	P1_DIO3,8,4
 245              		.comm	P1_DIO2,8,4
 246              		.comm	P1_DIO1,8,4
 247              		.comm	htim6,64,4
 248              		.comm	htim1,64,4
 249              		.comm	rtosprintHandle,4,4
 250              		.text
 251              	.Letext0:
 252              		.file 2 "c:\\program files (x86)\\gnu tools arm embedded\\9 2019-q4-major\\arm-none-eabi\\include\
 253              		.file 3 "c:\\program files (x86)\\gnu tools arm embedded\\9 2019-q4-major\\arm-none-eabi\\include\
 254              		.file 4 "../../../core/ST/Middlewares/Third_Party/FreeRTOS/Source/portable/GCC/ARM_CM4F/portmacro.
 255              		.file 5 "../../../core/ST/Middlewares/Third_Party/FreeRTOS/Source/include/task.h"
 256              		.file 6 "../../../core/ST/Middlewares/Third_Party/FreeRTOS/Source/CMSIS_RTOS/cmsis_os.h"
 257              		.file 7 "../../../core/platform/octa/inc/FreeRTOSConfig.h"
 258              		.file 8 "../../../core/platform/octa/inc/rtosincludes.h"
 259              		.file 9 "../../../core/ST/CMSIS/Include/core_cm4.h"
 260              		.file 10 "../../../core/ST/CMSIS/Device/ST/STM32L4xx/Include/system_stm32l4xx.h"
 261              		.file 11 "../../../core/ST/CMSIS/Device/ST/STM32L4xx/Include/stm32l496xx.h"
 262              		.file 12 "../../../core/ST/STM32L4xx_HAL_Driver/Inc/stm32l4xx_hal_def.h"
 263              		.file 13 "../../../core/ST/STM32L4xx_HAL_Driver/Inc/stm32l4xx_hal_dma.h"
 264              		.file 14 "../../../core/ST/STM32L4xx_HAL_Driver/Inc/stm32l4xx_hal_i2c.h"
 265              		.file 15 "../../../core/ST/STM32L4xx_HAL_Driver/Inc/stm32l4xx_hal_iwdg.h"
 266              		.file 16 "../../../core/ST/STM32L4xx_HAL_Driver/Inc/stm32l4xx_hal_rtc.h"
 267              		.file 17 "../../../core/ST/STM32L4xx_HAL_Driver/Inc/stm32l4xx_hal_spi.h"
 268              		.file 18 "../../../core/ST/STM32L4xx_HAL_Driver/Inc/stm32l4xx_hal_tim.h"
 269              		.file 19 "../../../core/ST/STM32L4xx_HAL_Driver/Inc/stm32l4xx_hal_uart.h"
 270              		.file 20 "../../../core/ST/STM32L4xx_HAL_Driver/Inc/stm32l4xx_hal.h"
 271              		.file 21 "../../../core/platform/octa/inc/sysclock.h"
 272              		.file 22 "../../../core/platform/octa/inc/gpio.h"
 273              		.file 23 "../../../core/platform/octa/inc/iwdg.h"
 274              		.file 24 "../../../core/platform/octa/inc/uart.h"
 275              		.file 25 "../../../core/platform/octa/inc/i2c.h"
 276              		.file 26 "../../../core/platform/octa/inc/spi.h"
 277              		.file 27 "../../../core/platform/octa/inc/rtc.h"
 278              		.file 28 "c:\\program files (x86)\\gnu tools arm embedded\\9 2019-q4-major\\arm-none-eabi\\include
 279              		.file 29 "c:\\program files (x86)\\gnu tools arm embedded\\9 2019-q4-major\\arm-none-eabi\\include
 280              		.file 30 "c:\\program files (x86)\\gnu tools arm embedded\\9 2019-q4-major\\lib\\gcc\\arm-none-eab
 281              		.file 31 "c:\\program files (x86)\\gnu tools arm embedded\\9 2019-q4-major\\arm-none-eabi\\include
 282              		.file 32 "../../../core/platform/common/inc/datatypes.h"
 283              		.file 33 "../../../core/platform/octa/inc/platform.h"
 284              		.file 34 "../../../core/platform/common/inc/assert.h"
 285              		.file 35 "../../../core/platform/common/inc/print.h"
ARM GAS  C:\Users\tijsv\AppData\Local\Temp\cctGyNat.s 			page 7

