ARM GAS  C:\Users\tijsv\AppData\Local\Temp\cckp8poJ.s 			page 1


   1              		.cpu cortex-m4
   2              		.eabi_attribute 27, 1
   3              		.eabi_attribute 28, 1
   4              		.eabi_attribute 20, 1
   5              		.eabi_attribute 21, 1
   6              		.eabi_attribute 23, 3
   7              		.eabi_attribute 24, 1
   8              		.eabi_attribute 25, 1
   9              		.eabi_attribute 26, 1
  10              		.eabi_attribute 30, 1
  11              		.eabi_attribute 34, 1
  12              		.eabi_attribute 18, 4
  13              		.file	"octa.c"
  14              		.text
  15              	.Ltext0:
  16              		.cfi_sections	.debug_frame
  17              		.section	.text.OCTA_ReInitialize_Common_Peripherals,"ax",%progbits
  18              		.align	1
  19              		.global	OCTA_ReInitialize_Common_Peripherals
  20              		.arch armv7e-m
  21              		.syntax unified
  22              		.thumb
  23              		.thumb_func
  24              		.fpu fpv4-sp-d16
  26              	OCTA_ReInitialize_Common_Peripherals:
  27              	.LFB133:
  28              		.file 1 "../../../core/platform/octa/src/octa.c"
   1:../../../core/platform/octa/src/octa.c **** #include "platform.h"
   2:../../../core/platform/octa/src/octa.c **** 
   3:../../../core/platform/octa/src/octa.c **** static void (*DeInit_Application_Function)(void) = 0;
   4:../../../core/platform/octa/src/octa.c **** static void (*ReInit_Application_Function)(void) = 0;
   5:../../../core/platform/octa/src/octa.c **** 
   6:../../../core/platform/octa/src/octa.c **** void Initialize_Platform(void)
   7:../../../core/platform/octa/src/octa.c **** {
   8:../../../core/platform/octa/src/octa.c ****     //GPIO, IWDG, USB_UART(Logging)
   9:../../../core/platform/octa/src/octa.c ****     OCTA_Initialize_Common_Peripherals();
  10:../../../core/platform/octa/src/octa.c ****     //P1 UART, I2C, SPI & GPIO handles
  11:../../../core/platform/octa/src/octa.c ****     OCTA_Initialize_P1_Peripherals();
  12:../../../core/platform/octa/src/octa.c ****     //P2 UART, I2C, SPI & GPIO handles
  13:../../../core/platform/octa/src/octa.c ****     OCTA_Initialize_P2_Peripherals();
  14:../../../core/platform/octa/src/octa.c ****     //P3 UART, I2C, SPI & GPIO handles
  15:../../../core/platform/octa/src/octa.c ****     OCTA_Initialize_P3_Peripherals();
  16:../../../core/platform/octa/src/octa.c **** }
  17:../../../core/platform/octa/src/octa.c **** 
  18:../../../core/platform/octa/src/octa.c **** void OCTA_Initialize_Common_Peripherals(void)
  19:../../../core/platform/octa/src/octa.c **** {
  20:../../../core/platform/octa/src/octa.c ****     #if USE_BOOTLOADER
  21:../../../core/platform/octa/src/octa.c ****         bootloader_SetVTOR();
  22:../../../core/platform/octa/src/octa.c ****     #endif
  23:../../../core/platform/octa/src/octa.c ****     /* Reset of all peripherals, Initializes the Flash interface and the Systick. */
  24:../../../core/platform/octa/src/octa.c ****     HAL_Init();
  25:../../../core/platform/octa/src/octa.c ****     SystemClock_Config();
  26:../../../core/platform/octa/src/octa.c **** 
  27:../../../core/platform/octa/src/octa.c ****     OCTA_GPIO_Init();
  28:../../../core/platform/octa/src/octa.c ****     OCTA_IWDG_Init();
  29:../../../core/platform/octa/src/octa.c ****     FLASH_SPI_Init();
  30:../../../core/platform/octa/src/octa.c ****     common_I2C_Init();
ARM GAS  C:\Users\tijsv\AppData\Local\Temp\cckp8poJ.s 			page 2


  31:../../../core/platform/octa/src/octa.c ****     RTC_Init();
  32:../../../core/platform/octa/src/octa.c ****     USB_UART_Init(115200);
  33:../../../core/platform/octa/src/octa.c ****     #if USE_FTDI_LOGGING
  34:../../../core/platform/octa/src/octa.c ****         FTDI_UART_Init(115200);
  35:../../../core/platform/octa/src/octa.c ****     #endif
  36:../../../core/platform/octa/src/octa.c ****     #if USE_BOOTLOADER
  37:../../../core/platform/octa/src/octa.c ****         printINF("\r\nusing bootloader, initializing BLE UART\r\n");
  38:../../../core/platform/octa/src/octa.c ****         BLE_UART_Init(115200); 
  39:../../../core/platform/octa/src/octa.c ****         bootloader_initialize(&BLE_UART);
  40:../../../core/platform/octa/src/octa.c ****         UART_BLE_SetRxCallback(bootloader_parse_data);   
  41:../../../core/platform/octa/src/octa.c ****     #endif
  42:../../../core/platform/octa/src/octa.c **** 
  43:../../../core/platform/octa/src/octa.c ****     // Get Unique ID of octa
  44:../../../core/platform/octa/src/octa.c ****     short_UID = get_UID();
  45:../../../core/platform/octa/src/octa.c ****     octa_uid.u64 = short_UID;
  46:../../../core/platform/octa/src/octa.c **** 
  47:../../../core/platform/octa/src/octa.c ****     // Print Welcome Message
  48:../../../core/platform/octa/src/octa.c ****     printWelcome();
  49:../../../core/platform/octa/src/octa.c **** 
  50:../../../core/platform/octa/src/octa.c ****     wd_reset = 0;
  51:../../../core/platform/octa/src/octa.c ****     hard_reset = 0;
  52:../../../core/platform/octa/src/octa.c ****     if(__HAL_RCC_GET_FLAG(RCC_FLAG_IWDGRST)) 
  53:../../../core/platform/octa/src/octa.c ****     {
  54:../../../core/platform/octa/src/octa.c ****         __HAL_RCC_CLEAR_RESET_FLAGS();
  55:../../../core/platform/octa/src/octa.c ****         printINF("Startup after IWDG timeout\r\n\r\n");
  56:../../../core/platform/octa/src/octa.c ****         wd_reset = 1;
  57:../../../core/platform/octa/src/octa.c ****     }
  58:../../../core/platform/octa/src/octa.c ****     else  
  59:../../../core/platform/octa/src/octa.c ****     {
  60:../../../core/platform/octa/src/octa.c ****         printINF("Startup from power cycle\r\n\r\n");
  61:../../../core/platform/octa/src/octa.c ****         hard_reset = 1;
  62:../../../core/platform/octa/src/octa.c ****     }
  63:../../../core/platform/octa/src/octa.c **** }
  64:../../../core/platform/octa/src/octa.c **** 
  65:../../../core/platform/octa/src/octa.c **** void OCTA_ReInitialize_Common_Peripherals(void)
  66:../../../core/platform/octa/src/octa.c **** {
  29              		.loc 1 66 1 view -0
  30              		.cfi_startproc
  31              		@ args = 0, pretend = 0, frame = 0
  32              		@ frame_needed = 0, uses_anonymous_args = 0
  33 0000 08B5     		push	{r3, lr}
  34              	.LCFI0:
  35              		.cfi_def_cfa_offset 8
  36              		.cfi_offset 3, -8
  37              		.cfi_offset 14, -4
  67:../../../core/platform/octa/src/octa.c ****     #if USE_BOOTLOADER
  68:../../../core/platform/octa/src/octa.c ****         bootloader_SetVTOR();
  69:../../../core/platform/octa/src/octa.c ****     #endif
  70:../../../core/platform/octa/src/octa.c ****     /* Reset of all peripherals, Initializes the Flash interface and the Systick. */
  71:../../../core/platform/octa/src/octa.c ****     HAL_Init();
  38              		.loc 1 71 5 view .LVU1
  39 0002 FFF7FEFF 		bl	HAL_Init
  40              	.LVL0:
  72:../../../core/platform/octa/src/octa.c ****     SystemClock_Config();
  41              		.loc 1 72 5 view .LVU2
  42 0006 FFF7FEFF 		bl	SystemClock_Config
  43              	.LVL1:
ARM GAS  C:\Users\tijsv\AppData\Local\Temp\cckp8poJ.s 			page 3


  73:../../../core/platform/octa/src/octa.c **** 
  74:../../../core/platform/octa/src/octa.c ****     OCTA_GPIO_Init();
  44              		.loc 1 74 5 view .LVU3
  45 000a FFF7FEFF 		bl	OCTA_GPIO_Init
  46              	.LVL2:
  75:../../../core/platform/octa/src/octa.c ****     FLASH_SPI_Init();
  47              		.loc 1 75 5 view .LVU4
  48 000e FFF7FEFF 		bl	FLASH_SPI_Init
  49              	.LVL3:
  76:../../../core/platform/octa/src/octa.c ****     common_I2C_Init();
  50              		.loc 1 76 5 view .LVU5
  51 0012 FFF7FEFF 		bl	common_I2C_Init
  52              	.LVL4:
  77:../../../core/platform/octa/src/octa.c ****     USB_UART_Init(115200);
  53              		.loc 1 77 5 view .LVU6
  54 0016 4FF4E130 		mov	r0, #115200
  55 001a FFF7FEFF 		bl	USB_UART_Init
  56              	.LVL5:
  78:../../../core/platform/octa/src/octa.c **** 
  79:../../../core/platform/octa/src/octa.c ****     #if USE_FTDI_LOGGING
  80:../../../core/platform/octa/src/octa.c ****         FTDI_UART_Init(115200);
  81:../../../core/platform/octa/src/octa.c ****     #endif
  82:../../../core/platform/octa/src/octa.c ****     #if USE_BOOTLOADER
  83:../../../core/platform/octa/src/octa.c ****         printINF("\r\nusing bootloader, initializing BLE UART\r\n");
  84:../../../core/platform/octa/src/octa.c ****         BLE_UART_Init(115200); 
  85:../../../core/platform/octa/src/octa.c ****         bootloader_initialize(&BLE_UART);
  86:../../../core/platform/octa/src/octa.c ****         UART_BLE_SetRxCallback(bootloader_parse_data);   
  87:../../../core/platform/octa/src/octa.c ****     #endif
  88:../../../core/platform/octa/src/octa.c **** }
  57              		.loc 1 88 1 is_stmt 0 view .LVU7
  58 001e 08BD     		pop	{r3, pc}
  59              		.cfi_endproc
  60              	.LFE133:
  62              		.section	.text.OCTA_DeInitialize_Common_Peripherals,"ax",%progbits
  63              		.align	1
  64              		.global	OCTA_DeInitialize_Common_Peripherals
  65              		.syntax unified
  66              		.thumb
  67              		.thumb_func
  68              		.fpu fpv4-sp-d16
  70              	OCTA_DeInitialize_Common_Peripherals:
  71              	.LFB134:
  89:../../../core/platform/octa/src/octa.c **** 
  90:../../../core/platform/octa/src/octa.c **** void OCTA_DeInitialize_Common_Peripherals()
  91:../../../core/platform/octa/src/octa.c **** {
  72              		.loc 1 91 1 is_stmt 1 view -0
  73              		.cfi_startproc
  74              		@ args = 0, pretend = 0, frame = 0
  75              		@ frame_needed = 0, uses_anonymous_args = 0
  76 0000 08B5     		push	{r3, lr}
  77              	.LCFI1:
  78              		.cfi_def_cfa_offset 8
  79              		.cfi_offset 3, -8
  80              		.cfi_offset 14, -4
  92:../../../core/platform/octa/src/octa.c ****     HAL_UART_DeInit(&USB_UART);
  81              		.loc 1 92 5 view .LVU9
  82 0002 0648     		ldr	r0, .L5
ARM GAS  C:\Users\tijsv\AppData\Local\Temp\cckp8poJ.s 			page 4


  83 0004 FFF7FEFF 		bl	HAL_UART_DeInit
  84              	.LVL6:
  93:../../../core/platform/octa/src/octa.c ****     #if USE_FTDI_LOGGING
  94:../../../core/platform/octa/src/octa.c ****         HAL_UART_DeInit(&FTDI_UART);
  95:../../../core/platform/octa/src/octa.c ****     #endif
  96:../../../core/platform/octa/src/octa.c ****     HAL_I2C_DeInit(&common_I2C);
  85              		.loc 1 96 5 view .LVU10
  86 0008 0548     		ldr	r0, .L5+4
  87 000a FFF7FEFF 		bl	HAL_I2C_DeInit
  88              	.LVL7:
  97:../../../core/platform/octa/src/octa.c ****     HAL_SPI_DeInit(&FLASH_SPI);
  89              		.loc 1 97 5 view .LVU11
  90 000e 0548     		ldr	r0, .L5+8
  91 0010 FFF7FEFF 		bl	HAL_SPI_DeInit
  92              	.LVL8:
  98:../../../core/platform/octa/src/octa.c ****     OCTA_GPIO_DeInit();
  93              		.loc 1 98 5 view .LVU12
  94 0014 FFF7FEFF 		bl	OCTA_GPIO_DeInit
  95              	.LVL9:
  99:../../../core/platform/octa/src/octa.c **** }
  96              		.loc 1 99 1 is_stmt 0 view .LVU13
  97 0018 08BD     		pop	{r3, pc}
  98              	.L6:
  99 001a 00BF     		.align	2
 100              	.L5:
 101 001c 00000000 		.word	USB_UART
 102 0020 00000000 		.word	common_I2C
 103 0024 00000000 		.word	FLASH_SPI
 104              		.cfi_endproc
 105              	.LFE134:
 107              		.section	.text.OCTA_Initialize_P1_Peripherals,"ax",%progbits
 108              		.align	1
 109              		.global	OCTA_Initialize_P1_Peripherals
 110              		.syntax unified
 111              		.thumb
 112              		.thumb_func
 113              		.fpu fpv4-sp-d16
 115              	OCTA_Initialize_P1_Peripherals:
 116              	.LFB135:
 100:../../../core/platform/octa/src/octa.c **** 
 101:../../../core/platform/octa/src/octa.c **** void OCTA_Initialize_P1_Peripherals(void)
 102:../../../core/platform/octa/src/octa.c **** {
 117              		.loc 1 102 1 is_stmt 1 view -0
 118              		.cfi_startproc
 119              		@ args = 0, pretend = 0, frame = 0
 120              		@ frame_needed = 0, uses_anonymous_args = 0
 121              		@ link register save eliminated.
 103:../../../core/platform/octa/src/octa.c ****     P1_header.number = 1;
 122              		.loc 1 103 5 view .LVU15
 123              		.loc 1 103 22 is_stmt 0 view .LVU16
 124 0000 0A4B     		ldr	r3, .L8
 125 0002 0122     		movs	r2, #1
 126 0004 1A70     		strb	r2, [r3]
 104:../../../core/platform/octa/src/octa.c ****     P1_header.uartHandle = &P1_UART;
 127              		.loc 1 104 5 is_stmt 1 view .LVU17
 128              		.loc 1 104 26 is_stmt 0 view .LVU18
 129 0006 0A4A     		ldr	r2, .L8+4
ARM GAS  C:\Users\tijsv\AppData\Local\Temp\cckp8poJ.s 			page 5


 130 0008 5A60     		str	r2, [r3, #4]
 105:../../../core/platform/octa/src/octa.c ****     P1_header.i2cHandle = &P1_I2C;
 131              		.loc 1 105 5 is_stmt 1 view .LVU19
 132              		.loc 1 105 25 is_stmt 0 view .LVU20
 133 000a 0A4A     		ldr	r2, .L8+8
 134 000c 9A60     		str	r2, [r3, #8]
 106:../../../core/platform/octa/src/octa.c ****     P1_header.spiHandle = &P1_SPI;
 135              		.loc 1 106 5 is_stmt 1 view .LVU21
 136              		.loc 1 106 25 is_stmt 0 view .LVU22
 137 000e 0A4A     		ldr	r2, .L8+12
 138 0010 DA60     		str	r2, [r3, #12]
 107:../../../core/platform/octa/src/octa.c ****     P1_header.DIO1 = &P1_DIO1;
 139              		.loc 1 107 5 is_stmt 1 view .LVU23
 140              		.loc 1 107 20 is_stmt 0 view .LVU24
 141 0012 0A4A     		ldr	r2, .L8+16
 142 0014 1A61     		str	r2, [r3, #16]
 108:../../../core/platform/octa/src/octa.c ****     P1_header.DIO2 = &P1_DIO2;
 143              		.loc 1 108 5 is_stmt 1 view .LVU25
 144              		.loc 1 108 20 is_stmt 0 view .LVU26
 145 0016 0A4A     		ldr	r2, .L8+20
 146 0018 5A61     		str	r2, [r3, #20]
 109:../../../core/platform/octa/src/octa.c ****     P1_header.DIO3 = &P1_DIO3;
 147              		.loc 1 109 5 is_stmt 1 view .LVU27
 148              		.loc 1 109 20 is_stmt 0 view .LVU28
 149 001a 0A4A     		ldr	r2, .L8+24
 150 001c 9A61     		str	r2, [r3, #24]
 110:../../../core/platform/octa/src/octa.c ****     P1_header.DIO4 = &P1_DIO4;
 151              		.loc 1 110 5 is_stmt 1 view .LVU29
 152              		.loc 1 110 20 is_stmt 0 view .LVU30
 153 001e 0A4A     		ldr	r2, .L8+28
 154 0020 DA61     		str	r2, [r3, #28]
 111:../../../core/platform/octa/src/octa.c ****     P1_header.DIO5 = &P1_DIO5;
 155              		.loc 1 111 5 is_stmt 1 view .LVU31
 156              		.loc 1 111 20 is_stmt 0 view .LVU32
 157 0022 0A4A     		ldr	r2, .L8+32
 158 0024 1A62     		str	r2, [r3, #32]
 112:../../../core/platform/octa/src/octa.c ****     P1_header.DIO6 = &P1_DIO6;
 159              		.loc 1 112 5 is_stmt 1 view .LVU33
 160              		.loc 1 112 20 is_stmt 0 view .LVU34
 161 0026 0A4A     		ldr	r2, .L8+36
 162 0028 5A62     		str	r2, [r3, #36]
 113:../../../core/platform/octa/src/octa.c **** }
 163              		.loc 1 113 1 view .LVU35
 164 002a 7047     		bx	lr
 165              	.L9:
 166              		.align	2
 167              	.L8:
 168 002c 00000000 		.word	P1_header
 169 0030 00000000 		.word	P1_UART
 170 0034 00000000 		.word	P1_I2C
 171 0038 00000000 		.word	P1_SPI
 172 003c 00000000 		.word	P1_DIO1
 173 0040 00000000 		.word	P1_DIO2
 174 0044 00000000 		.word	P1_DIO3
 175 0048 00000000 		.word	P1_DIO4
 176 004c 00000000 		.word	P1_DIO5
 177 0050 00000000 		.word	P1_DIO6
ARM GAS  C:\Users\tijsv\AppData\Local\Temp\cckp8poJ.s 			page 6


 178              		.cfi_endproc
 179              	.LFE135:
 181              		.section	.text.OCTA_Initialize_P2_Peripherals,"ax",%progbits
 182              		.align	1
 183              		.global	OCTA_Initialize_P2_Peripherals
 184              		.syntax unified
 185              		.thumb
 186              		.thumb_func
 187              		.fpu fpv4-sp-d16
 189              	OCTA_Initialize_P2_Peripherals:
 190              	.LFB136:
 114:../../../core/platform/octa/src/octa.c **** 
 115:../../../core/platform/octa/src/octa.c **** void OCTA_Initialize_P2_Peripherals(void)
 116:../../../core/platform/octa/src/octa.c **** {
 191              		.loc 1 116 1 is_stmt 1 view -0
 192              		.cfi_startproc
 193              		@ args = 0, pretend = 0, frame = 0
 194              		@ frame_needed = 0, uses_anonymous_args = 0
 195              		@ link register save eliminated.
 117:../../../core/platform/octa/src/octa.c ****     P2_header.number = 2;
 196              		.loc 1 117 5 view .LVU37
 197              		.loc 1 117 22 is_stmt 0 view .LVU38
 198 0000 0A4B     		ldr	r3, .L11
 199 0002 0222     		movs	r2, #2
 200 0004 1A70     		strb	r2, [r3]
 118:../../../core/platform/octa/src/octa.c ****     #if USE_BOOTLOADER
 119:../../../core/platform/octa/src/octa.c ****         printINF("\r\nusing bootloader, P2 UART unavailable\r\n");
 120:../../../core/platform/octa/src/octa.c ****         P2_header.uartHandle = NULL;
 121:../../../core/platform/octa/src/octa.c ****     #else
 122:../../../core/platform/octa/src/octa.c ****         P2_header.uartHandle = &P2_UART;
 201              		.loc 1 122 9 is_stmt 1 view .LVU39
 202              		.loc 1 122 30 is_stmt 0 view .LVU40
 203 0006 0A4A     		ldr	r2, .L11+4
 204 0008 5A60     		str	r2, [r3, #4]
 123:../../../core/platform/octa/src/octa.c ****     #endif
 124:../../../core/platform/octa/src/octa.c ****     P2_header.i2cHandle = &P2_I2C;
 205              		.loc 1 124 5 is_stmt 1 view .LVU41
 206              		.loc 1 124 25 is_stmt 0 view .LVU42
 207 000a 0A4A     		ldr	r2, .L11+8
 208 000c 9A60     		str	r2, [r3, #8]
 125:../../../core/platform/octa/src/octa.c ****     P2_header.spiHandle = &P2_SPI;
 209              		.loc 1 125 5 is_stmt 1 view .LVU43
 210              		.loc 1 125 25 is_stmt 0 view .LVU44
 211 000e 0A4A     		ldr	r2, .L11+12
 212 0010 DA60     		str	r2, [r3, #12]
 126:../../../core/platform/octa/src/octa.c ****     P2_header.DIO1 = &P2_DIO1;
 213              		.loc 1 126 5 is_stmt 1 view .LVU45
 214              		.loc 1 126 20 is_stmt 0 view .LVU46
 215 0012 0A4A     		ldr	r2, .L11+16
 216 0014 1A61     		str	r2, [r3, #16]
 127:../../../core/platform/octa/src/octa.c ****     P2_header.DIO2 = &P2_DIO2;
 217              		.loc 1 127 5 is_stmt 1 view .LVU47
 218              		.loc 1 127 20 is_stmt 0 view .LVU48
 219 0016 0A4A     		ldr	r2, .L11+20
 220 0018 5A61     		str	r2, [r3, #20]
 128:../../../core/platform/octa/src/octa.c ****     P2_header.DIO3 = &P2_DIO3;
 221              		.loc 1 128 5 is_stmt 1 view .LVU49
ARM GAS  C:\Users\tijsv\AppData\Local\Temp\cckp8poJ.s 			page 7


 222              		.loc 1 128 20 is_stmt 0 view .LVU50
 223 001a 0A4A     		ldr	r2, .L11+24
 224 001c 9A61     		str	r2, [r3, #24]
 129:../../../core/platform/octa/src/octa.c ****     P2_header.DIO4 = &P2_DIO4;
 225              		.loc 1 129 5 is_stmt 1 view .LVU51
 226              		.loc 1 129 20 is_stmt 0 view .LVU52
 227 001e 0A4A     		ldr	r2, .L11+28
 228 0020 DA61     		str	r2, [r3, #28]
 130:../../../core/platform/octa/src/octa.c ****     P2_header.DIO5 = &P2_DIO5;
 229              		.loc 1 130 5 is_stmt 1 view .LVU53
 230              		.loc 1 130 20 is_stmt 0 view .LVU54
 231 0022 0A4A     		ldr	r2, .L11+32
 232 0024 1A62     		str	r2, [r3, #32]
 131:../../../core/platform/octa/src/octa.c ****     P2_header.DIO6 = &P2_DIO6;
 233              		.loc 1 131 5 is_stmt 1 view .LVU55
 234              		.loc 1 131 20 is_stmt 0 view .LVU56
 235 0026 0A4A     		ldr	r2, .L11+36
 236 0028 5A62     		str	r2, [r3, #36]
 132:../../../core/platform/octa/src/octa.c **** }
 237              		.loc 1 132 1 view .LVU57
 238 002a 7047     		bx	lr
 239              	.L12:
 240              		.align	2
 241              	.L11:
 242 002c 00000000 		.word	P2_header
 243 0030 00000000 		.word	P2_UART
 244 0034 00000000 		.word	P2_I2C
 245 0038 00000000 		.word	P2_SPI
 246 003c 00000000 		.word	P2_DIO1
 247 0040 00000000 		.word	P2_DIO2
 248 0044 00000000 		.word	P2_DIO3
 249 0048 00000000 		.word	P2_DIO4
 250 004c 00000000 		.word	P2_DIO5
 251 0050 00000000 		.word	P2_DIO6
 252              		.cfi_endproc
 253              	.LFE136:
 255              		.section	.text.OCTA_Initialize_P3_Peripherals,"ax",%progbits
 256              		.align	1
 257              		.global	OCTA_Initialize_P3_Peripherals
 258              		.syntax unified
 259              		.thumb
 260              		.thumb_func
 261              		.fpu fpv4-sp-d16
 263              	OCTA_Initialize_P3_Peripherals:
 264              	.LFB137:
 133:../../../core/platform/octa/src/octa.c **** 
 134:../../../core/platform/octa/src/octa.c **** void OCTA_Initialize_P3_Peripherals(void)
 135:../../../core/platform/octa/src/octa.c **** {
 265              		.loc 1 135 1 is_stmt 1 view -0
 266              		.cfi_startproc
 267              		@ args = 0, pretend = 0, frame = 0
 268              		@ frame_needed = 0, uses_anonymous_args = 0
 269              		@ link register save eliminated.
 136:../../../core/platform/octa/src/octa.c ****     P3_header.number = 3;
 270              		.loc 1 136 5 view .LVU59
 271              		.loc 1 136 22 is_stmt 0 view .LVU60
 272 0000 0A4B     		ldr	r3, .L14
ARM GAS  C:\Users\tijsv\AppData\Local\Temp\cckp8poJ.s 			page 8


 273 0002 0322     		movs	r2, #3
 274 0004 1A70     		strb	r2, [r3]
 137:../../../core/platform/octa/src/octa.c ****     #if USE_FTDI_LOGGING
 138:../../../core/platform/octa/src/octa.c ****         printINF("using FTDI logging, P3 UART unavailable\r\n\r\n");
 139:../../../core/platform/octa/src/octa.c ****         P3_header.uartHandle = NULL;
 140:../../../core/platform/octa/src/octa.c ****     #else
 141:../../../core/platform/octa/src/octa.c ****         P3_header.uartHandle = &P3_UART;
 275              		.loc 1 141 9 is_stmt 1 view .LVU61
 276              		.loc 1 141 30 is_stmt 0 view .LVU62
 277 0006 0A4A     		ldr	r2, .L14+4
 278 0008 5A60     		str	r2, [r3, #4]
 142:../../../core/platform/octa/src/octa.c ****     #endif
 143:../../../core/platform/octa/src/octa.c ****     P3_header.i2cHandle = &P3_I2C;
 279              		.loc 1 143 5 is_stmt 1 view .LVU63
 280              		.loc 1 143 25 is_stmt 0 view .LVU64
 281 000a 0A4A     		ldr	r2, .L14+8
 282 000c 9A60     		str	r2, [r3, #8]
 144:../../../core/platform/octa/src/octa.c ****     P3_header.spiHandle = &P3_SPI;
 283              		.loc 1 144 5 is_stmt 1 view .LVU65
 284              		.loc 1 144 25 is_stmt 0 view .LVU66
 285 000e 0A4A     		ldr	r2, .L14+12
 286 0010 DA60     		str	r2, [r3, #12]
 145:../../../core/platform/octa/src/octa.c ****     P3_header.DIO1 = &P3_DIO1;
 287              		.loc 1 145 5 is_stmt 1 view .LVU67
 288              		.loc 1 145 20 is_stmt 0 view .LVU68
 289 0012 0A4A     		ldr	r2, .L14+16
 290 0014 1A61     		str	r2, [r3, #16]
 146:../../../core/platform/octa/src/octa.c ****     P3_header.DIO2 = &P3_DIO2;
 291              		.loc 1 146 5 is_stmt 1 view .LVU69
 292              		.loc 1 146 20 is_stmt 0 view .LVU70
 293 0016 0A4A     		ldr	r2, .L14+20
 294 0018 5A61     		str	r2, [r3, #20]
 147:../../../core/platform/octa/src/octa.c ****     P3_header.DIO3 = &P3_DIO3;
 295              		.loc 1 147 5 is_stmt 1 view .LVU71
 296              		.loc 1 147 20 is_stmt 0 view .LVU72
 297 001a 0A4A     		ldr	r2, .L14+24
 298 001c 9A61     		str	r2, [r3, #24]
 148:../../../core/platform/octa/src/octa.c ****     P3_header.DIO4 = &P3_DIO4;
 299              		.loc 1 148 5 is_stmt 1 view .LVU73
 300              		.loc 1 148 20 is_stmt 0 view .LVU74
 301 001e 0A4A     		ldr	r2, .L14+28
 302 0020 DA61     		str	r2, [r3, #28]
 149:../../../core/platform/octa/src/octa.c ****     P3_header.DIO5 = &P3_DIO5;
 303              		.loc 1 149 5 is_stmt 1 view .LVU75
 304              		.loc 1 149 20 is_stmt 0 view .LVU76
 305 0022 0A4A     		ldr	r2, .L14+32
 306 0024 1A62     		str	r2, [r3, #32]
 150:../../../core/platform/octa/src/octa.c ****     P3_header.DIO6 = &P3_DIO6;
 307              		.loc 1 150 5 is_stmt 1 view .LVU77
 308              		.loc 1 150 20 is_stmt 0 view .LVU78
 309 0026 0A4A     		ldr	r2, .L14+36
 310 0028 5A62     		str	r2, [r3, #36]
 151:../../../core/platform/octa/src/octa.c **** }
 311              		.loc 1 151 1 view .LVU79
 312 002a 7047     		bx	lr
 313              	.L15:
 314              		.align	2
ARM GAS  C:\Users\tijsv\AppData\Local\Temp\cckp8poJ.s 			page 9


 315              	.L14:
 316 002c 00000000 		.word	P3_header
 317 0030 00000000 		.word	P3_UART
 318 0034 00000000 		.word	P3_I2C
 319 0038 00000000 		.word	P3_SPI
 320 003c 00000000 		.word	P3_DIO1
 321 0040 00000000 		.word	P3_DIO2
 322 0044 00000000 		.word	P3_DIO3
 323 0048 00000000 		.word	P3_DIO4
 324 004c 00000000 		.word	P3_DIO5
 325 0050 00000000 		.word	P3_DIO6
 326              		.cfi_endproc
 327              	.LFE137:
 329              		.section	.text.get_UID,"ax",%progbits
 330              		.align	1
 331              		.global	get_UID
 332              		.syntax unified
 333              		.thumb
 334              		.thumb_func
 335              		.fpu fpv4-sp-d16
 337              	get_UID:
 338              	.LFB138:
 152:../../../core/platform/octa/src/octa.c **** 
 153:../../../core/platform/octa/src/octa.c **** uint64_t get_UID(void)
 154:../../../core/platform/octa/src/octa.c **** {
 339              		.loc 1 154 1 is_stmt 1 view -0
 340              		.cfi_startproc
 341              		@ args = 0, pretend = 0, frame = 0
 342              		@ frame_needed = 0, uses_anonymous_args = 0
 343              		@ link register save eliminated.
 344 0000 10B4     		push	{r4}
 345              	.LCFI2:
 346              		.cfi_def_cfa_offset 4
 347              		.cfi_offset 4, -4
 155:../../../core/platform/octa/src/octa.c ****     return (*((uint64_t *)(UID_BASE)) << 32) + *((uint64_t *)(UID_BASE + 0x04U));
 348              		.loc 1 155 5 view .LVU81
 349              		.loc 1 155 39 is_stmt 0 view .LVU82
 350 0002 064B     		ldr	r3, .L18
 351 0004 1968     		ldr	r1, [r3]
 352 0006 0023     		movs	r3, #0
 353              		.loc 1 155 48 view .LVU83
 354 0008 054C     		ldr	r4, .L18+4
 355 000a 2068     		ldr	r0, [r4]
 356 000c 6268     		ldr	r2, [r4, #4]
 156:../../../core/platform/octa/src/octa.c **** }
 357              		.loc 1 156 1 view .LVU84
 358 000e 1818     		adds	r0, r3, r0
 359 0010 42EB0101 		adc	r1, r2, r1
 360 0014 5DF8044B 		ldr	r4, [sp], #4
 361              	.LCFI3:
 362              		.cfi_restore 4
 363              		.cfi_def_cfa_offset 0
 364 0018 7047     		bx	lr
 365              	.L19:
 366 001a 00BF     		.align	2
 367              	.L18:
 368 001c 9075FF1F 		.word	536835472
ARM GAS  C:\Users\tijsv\AppData\Local\Temp\cckp8poJ.s 			page 10


 369 0020 9475FF1F 		.word	536835476
 370              		.cfi_endproc
 371              	.LFE138:
 373              		.section	.text.platform_initialize_UART,"ax",%progbits
 374              		.align	1
 375              		.global	platform_initialize_UART
 376              		.syntax unified
 377              		.thumb
 378              		.thumb_func
 379              		.fpu fpv4-sp-d16
 381              	platform_initialize_UART:
 382              	.LVL10:
 383              	.LFB139:
 157:../../../core/platform/octa/src/octa.c **** 
 158:../../../core/platform/octa/src/octa.c **** void platform_initialize_UART(struct OCTA_header aHeader, uint32_t aBaudRate)
 159:../../../core/platform/octa/src/octa.c **** {
 384              		.loc 1 159 1 is_stmt 1 view -0
 385              		.cfi_startproc
 386              		@ args = 48, pretend = 16, frame = 0
 387              		@ frame_needed = 0, uses_anonymous_args = 0
 388              		.loc 1 159 1 is_stmt 0 view .LVU86
 389 0000 84B0     		sub	sp, sp, #16
 390              	.LCFI4:
 391              		.cfi_def_cfa_offset 16
 392 0002 08B5     		push	{r3, lr}
 393              	.LCFI5:
 394              		.cfi_def_cfa_offset 24
 395              		.cfi_offset 3, -24
 396              		.cfi_offset 14, -20
 397 0004 0DF1080C 		add	ip, sp, #8
 398 0008 8CE80F00 		stm	ip, {r0, r1, r2, r3}
 160:../../../core/platform/octa/src/octa.c ****     switch(aHeader.number)
 399              		.loc 1 160 5 is_stmt 1 view .LVU87
 400              		.loc 1 160 19 is_stmt 0 view .LVU88
 401 000c 9DF80830 		ldrb	r3, [sp, #8]	@ zero_extendqisi2
 402              		.loc 1 160 5 view .LVU89
 403 0010 022B     		cmp	r3, #2
 404 0012 0BD0     		beq	.L21
 405 0014 032B     		cmp	r3, #3
 406 0016 0DD0     		beq	.L22
 407 0018 012B     		cmp	r3, #1
 408 001a 03D0     		beq	.L25
 409              	.L20:
 161:../../../core/platform/octa/src/octa.c ****     {
 162:../../../core/platform/octa/src/octa.c ****         case 1:
 163:../../../core/platform/octa/src/octa.c ****             P1_UART_Init(aBaudRate);
 164:../../../core/platform/octa/src/octa.c ****             break;
 165:../../../core/platform/octa/src/octa.c ****         case 2:
 166:../../../core/platform/octa/src/octa.c ****             P2_UART_Init(aBaudRate);
 167:../../../core/platform/octa/src/octa.c ****             break;
 168:../../../core/platform/octa/src/octa.c ****         case 3:
 169:../../../core/platform/octa/src/octa.c ****             P3_UART_Init(aBaudRate);
 170:../../../core/platform/octa/src/octa.c ****             break;
 171:../../../core/platform/octa/src/octa.c ****         default:
 172:../../../core/platform/octa/src/octa.c ****             break;
 173:../../../core/platform/octa/src/octa.c ****     }
 174:../../../core/platform/octa/src/octa.c **** }
ARM GAS  C:\Users\tijsv\AppData\Local\Temp\cckp8poJ.s 			page 11


 410              		.loc 1 174 1 view .LVU90
 411 001c BDE80840 		pop	{r3, lr}
 412              	.LCFI6:
 413              		.cfi_remember_state
 414              		.cfi_restore 14
 415              		.cfi_restore 3
 416              		.cfi_def_cfa_offset 16
 417 0020 04B0     		add	sp, sp, #16
 418              	.LCFI7:
 419              		.cfi_def_cfa_offset 0
 420 0022 7047     		bx	lr
 421              	.L25:
 422              	.LCFI8:
 423              		.cfi_restore_state
 163:../../../core/platform/octa/src/octa.c ****             break;
 424              		.loc 1 163 13 is_stmt 1 view .LVU91
 425 0024 0D98     		ldr	r0, [sp, #52]
 426 0026 FFF7FEFF 		bl	P1_UART_Init
 427              	.LVL11:
 164:../../../core/platform/octa/src/octa.c ****         case 2:
 428              		.loc 1 164 13 view .LVU92
 429 002a F7E7     		b	.L20
 430              	.L21:
 166:../../../core/platform/octa/src/octa.c ****             break;
 431              		.loc 1 166 13 view .LVU93
 432 002c 0D98     		ldr	r0, [sp, #52]
 433 002e FFF7FEFF 		bl	P2_UART_Init
 434              	.LVL12:
 167:../../../core/platform/octa/src/octa.c ****         case 3:
 435              		.loc 1 167 13 view .LVU94
 436 0032 F3E7     		b	.L20
 437              	.L22:
 169:../../../core/platform/octa/src/octa.c ****             break;
 438              		.loc 1 169 13 view .LVU95
 439 0034 0D98     		ldr	r0, [sp, #52]
 440 0036 FFF7FEFF 		bl	P3_UART_Init
 441              	.LVL13:
 170:../../../core/platform/octa/src/octa.c ****         default:
 442              		.loc 1 170 13 view .LVU96
 443              		.loc 1 174 1 is_stmt 0 view .LVU97
 444 003a EFE7     		b	.L20
 445              		.cfi_endproc
 446              	.LFE139:
 448              		.section	.text.platform_initialize_I2C,"ax",%progbits
 449              		.align	1
 450              		.global	platform_initialize_I2C
 451              		.syntax unified
 452              		.thumb
 453              		.thumb_func
 454              		.fpu fpv4-sp-d16
 456              	platform_initialize_I2C:
 457              	.LFB140:
 175:../../../core/platform/octa/src/octa.c **** 
 176:../../../core/platform/octa/src/octa.c **** void platform_initialize_I2C(struct OCTA_header aHeader)
 177:../../../core/platform/octa/src/octa.c **** {
 458              		.loc 1 177 1 is_stmt 1 view -0
 459              		.cfi_startproc
ARM GAS  C:\Users\tijsv\AppData\Local\Temp\cckp8poJ.s 			page 12


 460              		@ args = 44, pretend = 16, frame = 0
 461              		@ frame_needed = 0, uses_anonymous_args = 0
 462 0000 84B0     		sub	sp, sp, #16
 463              	.LCFI9:
 464              		.cfi_def_cfa_offset 16
 465 0002 08B5     		push	{r3, lr}
 466              	.LCFI10:
 467              		.cfi_def_cfa_offset 24
 468              		.cfi_offset 3, -24
 469              		.cfi_offset 14, -20
 470 0004 0DF1080C 		add	ip, sp, #8
 471 0008 8CE80F00 		stm	ip, {r0, r1, r2, r3}
 178:../../../core/platform/octa/src/octa.c ****     switch(aHeader.number)
 472              		.loc 1 178 5 view .LVU99
 473              		.loc 1 178 19 is_stmt 0 view .LVU100
 474 000c 9DF80830 		ldrb	r3, [sp, #8]	@ zero_extendqisi2
 475              		.loc 1 178 5 view .LVU101
 476 0010 022B     		cmp	r3, #2
 477 0012 0AD0     		beq	.L27
 478 0014 032B     		cmp	r3, #3
 479 0016 0BD0     		beq	.L28
 480 0018 012B     		cmp	r3, #1
 481 001a 03D0     		beq	.L31
 482              	.L26:
 179:../../../core/platform/octa/src/octa.c ****     {
 180:../../../core/platform/octa/src/octa.c ****         case 1:
 181:../../../core/platform/octa/src/octa.c ****             P1_I2C_Init();
 182:../../../core/platform/octa/src/octa.c ****             break;
 183:../../../core/platform/octa/src/octa.c ****         case 2:
 184:../../../core/platform/octa/src/octa.c ****             P2_I2C_Init();
 185:../../../core/platform/octa/src/octa.c ****             break;
 186:../../../core/platform/octa/src/octa.c ****         case 3:
 187:../../../core/platform/octa/src/octa.c ****             P3_I2C_Init();
 188:../../../core/platform/octa/src/octa.c ****             break;
 189:../../../core/platform/octa/src/octa.c ****         default:
 190:../../../core/platform/octa/src/octa.c ****             break;
 191:../../../core/platform/octa/src/octa.c ****     }
 192:../../../core/platform/octa/src/octa.c **** }
 483              		.loc 1 192 1 view .LVU102
 484 001c BDE80840 		pop	{r3, lr}
 485              	.LCFI11:
 486              		.cfi_remember_state
 487              		.cfi_restore 14
 488              		.cfi_restore 3
 489              		.cfi_def_cfa_offset 16
 490 0020 04B0     		add	sp, sp, #16
 491              	.LCFI12:
 492              		.cfi_def_cfa_offset 0
 493 0022 7047     		bx	lr
 494              	.L31:
 495              	.LCFI13:
 496              		.cfi_restore_state
 181:../../../core/platform/octa/src/octa.c ****             break;
 497              		.loc 1 181 13 is_stmt 1 view .LVU103
 498 0024 FFF7FEFF 		bl	P1_I2C_Init
 499              	.LVL14:
 182:../../../core/platform/octa/src/octa.c ****         case 2:
ARM GAS  C:\Users\tijsv\AppData\Local\Temp\cckp8poJ.s 			page 13


 500              		.loc 1 182 13 view .LVU104
 501 0028 F8E7     		b	.L26
 502              	.L27:
 184:../../../core/platform/octa/src/octa.c ****             break;
 503              		.loc 1 184 13 view .LVU105
 504 002a FFF7FEFF 		bl	P2_I2C_Init
 505              	.LVL15:
 185:../../../core/platform/octa/src/octa.c ****         case 3:
 506              		.loc 1 185 13 view .LVU106
 507 002e F5E7     		b	.L26
 508              	.L28:
 187:../../../core/platform/octa/src/octa.c ****             break;
 509              		.loc 1 187 13 view .LVU107
 510 0030 FFF7FEFF 		bl	P3_I2C_Init
 511              	.LVL16:
 188:../../../core/platform/octa/src/octa.c ****         default:
 512              		.loc 1 188 13 view .LVU108
 513              		.loc 1 192 1 is_stmt 0 view .LVU109
 514 0034 F2E7     		b	.L26
 515              		.cfi_endproc
 516              	.LFE140:
 518              		.section	.text.platform_initialize_SPI,"ax",%progbits
 519              		.align	1
 520              		.global	platform_initialize_SPI
 521              		.syntax unified
 522              		.thumb
 523              		.thumb_func
 524              		.fpu fpv4-sp-d16
 526              	platform_initialize_SPI:
 527              	.LFB141:
 193:../../../core/platform/octa/src/octa.c **** 
 194:../../../core/platform/octa/src/octa.c **** void platform_initialize_SPI(struct OCTA_header aHeader)
 195:../../../core/platform/octa/src/octa.c **** {
 528              		.loc 1 195 1 is_stmt 1 view -0
 529              		.cfi_startproc
 530              		@ args = 44, pretend = 16, frame = 0
 531              		@ frame_needed = 0, uses_anonymous_args = 0
 532 0000 84B0     		sub	sp, sp, #16
 533              	.LCFI14:
 534              		.cfi_def_cfa_offset 16
 535 0002 08B5     		push	{r3, lr}
 536              	.LCFI15:
 537              		.cfi_def_cfa_offset 24
 538              		.cfi_offset 3, -24
 539              		.cfi_offset 14, -20
 540 0004 0DF1080C 		add	ip, sp, #8
 541 0008 8CE80F00 		stm	ip, {r0, r1, r2, r3}
 196:../../../core/platform/octa/src/octa.c ****     switch(aHeader.number)
 542              		.loc 1 196 5 view .LVU111
 543              		.loc 1 196 19 is_stmt 0 view .LVU112
 544 000c 9DF80830 		ldrb	r3, [sp, #8]	@ zero_extendqisi2
 545              		.loc 1 196 5 view .LVU113
 546 0010 022B     		cmp	r3, #2
 547 0012 05D0     		beq	.L33
 548 0014 032B     		cmp	r3, #3
 549 0016 06D0     		beq	.L34
 550              	.L32:
ARM GAS  C:\Users\tijsv\AppData\Local\Temp\cckp8poJ.s 			page 14


 197:../../../core/platform/octa/src/octa.c ****     {
 198:../../../core/platform/octa/src/octa.c ****         case 1:
 199:../../../core/platform/octa/src/octa.c ****             //P1_SPI_Init();
 200:../../../core/platform/octa/src/octa.c ****             break;
 201:../../../core/platform/octa/src/octa.c ****         case 2:
 202:../../../core/platform/octa/src/octa.c ****             P2_SPI_Init();
 203:../../../core/platform/octa/src/octa.c ****             break;
 204:../../../core/platform/octa/src/octa.c ****         case 3:
 205:../../../core/platform/octa/src/octa.c ****             P3_SPI_Init();
 206:../../../core/platform/octa/src/octa.c ****             break;
 207:../../../core/platform/octa/src/octa.c ****         default:
 208:../../../core/platform/octa/src/octa.c ****             break;
 209:../../../core/platform/octa/src/octa.c ****     }
 210:../../../core/platform/octa/src/octa.c **** }
 551              		.loc 1 210 1 view .LVU114
 552 0018 BDE80840 		pop	{r3, lr}
 553              	.LCFI16:
 554              		.cfi_remember_state
 555              		.cfi_restore 14
 556              		.cfi_restore 3
 557              		.cfi_def_cfa_offset 16
 558 001c 04B0     		add	sp, sp, #16
 559              	.LCFI17:
 560              		.cfi_def_cfa_offset 0
 561 001e 7047     		bx	lr
 562              	.L33:
 563              	.LCFI18:
 564              		.cfi_restore_state
 202:../../../core/platform/octa/src/octa.c ****             break;
 565              		.loc 1 202 13 is_stmt 1 view .LVU115
 566 0020 FFF7FEFF 		bl	P2_SPI_Init
 567              	.LVL17:
 203:../../../core/platform/octa/src/octa.c ****         case 3:
 568              		.loc 1 203 13 view .LVU116
 569 0024 F8E7     		b	.L32
 570              	.L34:
 205:../../../core/platform/octa/src/octa.c ****             break;
 571              		.loc 1 205 13 view .LVU117
 572 0026 FFF7FEFF 		bl	P3_SPI_Init
 573              	.LVL18:
 206:../../../core/platform/octa/src/octa.c ****         default:
 574              		.loc 1 206 13 view .LVU118
 575              		.loc 1 210 1 is_stmt 0 view .LVU119
 576 002a F5E7     		b	.L32
 577              		.cfi_endproc
 578              	.LFE141:
 580              		.section	.rodata.platform_getHeader.str1.4,"aMS",%progbits,1
 581              		.align	2
 582              	.LC0:
 583 0000 496E7661 		.ascii	"Invalid connector\015\012\000"
 583      6C696420 
 583      636F6E6E 
 583      6563746F 
 583      720D0A00 
 584              		.section	.text.platform_getHeader,"ax",%progbits
 585              		.align	1
 586              		.global	platform_getHeader
ARM GAS  C:\Users\tijsv\AppData\Local\Temp\cckp8poJ.s 			page 15


 587              		.syntax unified
 588              		.thumb
 589              		.thumb_func
 590              		.fpu fpv4-sp-d16
 592              	platform_getHeader:
 593              	.LVL19:
 594              	.LFB142:
 211:../../../core/platform/octa/src/octa.c **** 
 212:../../../core/platform/octa/src/octa.c **** struct OCTA_header platform_getHeader(uint8_t connector)
 213:../../../core/platform/octa/src/octa.c **** {
 595              		.loc 1 213 1 is_stmt 1 view -0
 596              		.cfi_startproc
 597              		@ args = 0, pretend = 0, frame = 48
 598              		@ frame_needed = 0, uses_anonymous_args = 0
 599              		.loc 1 213 1 is_stmt 0 view .LVU121
 600 0000 70B5     		push	{r4, r5, r6, lr}
 601              	.LCFI19:
 602              		.cfi_def_cfa_offset 16
 603              		.cfi_offset 4, -16
 604              		.cfi_offset 5, -12
 605              		.cfi_offset 6, -8
 606              		.cfi_offset 14, -4
 607 0002 8CB0     		sub	sp, sp, #48
 608              	.LCFI20:
 609              		.cfi_def_cfa_offset 64
 610 0004 0446     		mov	r4, r0
 214:../../../core/platform/octa/src/octa.c ****     switch (connector)
 611              		.loc 1 214 5 is_stmt 1 view .LVU122
 612 0006 0229     		cmp	r1, #2
 613 0008 24D0     		beq	.L38
 614 000a 0329     		cmp	r1, #3
 615 000c 30D0     		beq	.L39
 616 000e 0129     		cmp	r1, #1
 617 0010 10D0     		beq	.L43
 618              	.LBB2:
 215:../../../core/platform/octa/src/octa.c ****     {
 216:../../../core/platform/octa/src/octa.c ****     case 1:
 217:../../../core/platform/octa/src/octa.c ****         P1_header.active = 1;
 218:../../../core/platform/octa/src/octa.c ****         return P1_header;
 219:../../../core/platform/octa/src/octa.c ****     case 2:
 220:../../../core/platform/octa/src/octa.c ****         P2_header.active = 1;
 221:../../../core/platform/octa/src/octa.c ****         return P2_header;
 222:../../../core/platform/octa/src/octa.c ****     case 3:
 223:../../../core/platform/octa/src/octa.c ****         P3_header.active = 1;
 224:../../../core/platform/octa/src/octa.c ****         return P3_header;
 225:../../../core/platform/octa/src/octa.c ****     default:
 226:../../../core/platform/octa/src/octa.c ****         //invalid connector
 227:../../../core/platform/octa/src/octa.c ****         printERR("Invalid connector\r\n");
 619              		.loc 1 227 9 view .LVU123
 620 0012 1E48     		ldr	r0, .L44
 621              	.LVL20:
 622              		.loc 1 227 9 is_stmt 0 view .LVU124
 623 0014 FFF7FEFF 		bl	printERR
 624              	.LVL21:
 228:../../../core/platform/octa/src/octa.c ****         struct OCTA_header invalid; 
 625              		.loc 1 228 9 is_stmt 1 view .LVU125
 229:../../../core/platform/octa/src/octa.c ****         invalid.active = 0;
ARM GAS  C:\Users\tijsv\AppData\Local\Temp\cckp8poJ.s 			page 16


 626              		.loc 1 229 9 view .LVU126
 627              		.loc 1 229 24 is_stmt 0 view .LVU127
 628 0018 0023     		movs	r3, #0
 629 001a 8DF82C30 		strb	r3, [sp, #44]
 230:../../../core/platform/octa/src/octa.c ****         return invalid;
 630              		.loc 1 230 9 is_stmt 1 view .LVU128
 631              		.loc 1 230 16 is_stmt 0 view .LVU129
 632 001e 2546     		mov	r5, r4
 633 0020 01AE     		add	r6, sp, #4
 634 0022 0FCE     		ldmia	r6!, {r0, r1, r2, r3}
 635 0024 0FC5     		stmia	r5!, {r0, r1, r2, r3}
 636 0026 0FCE     		ldmia	r6!, {r0, r1, r2, r3}
 637 0028 0FC5     		stmia	r5!, {r0, r1, r2, r3}
 638 002a 96E80700 		ldm	r6, {r0, r1, r2}
 639 002e 85E80700 		stm	r5, {r0, r1, r2}
 640 0032 0CE0     		b	.L37
 641              	.LVL22:
 642              	.L43:
 217:../../../core/platform/octa/src/octa.c ****         return P1_header;
 643              		.loc 1 217 9 is_stmt 1 view .LVU130
 217:../../../core/platform/octa/src/octa.c ****         return P1_header;
 644              		.loc 1 217 26 is_stmt 0 view .LVU131
 645 0034 164D     		ldr	r5, .L44+4
 646 0036 0123     		movs	r3, #1
 647 0038 85F82830 		strb	r3, [r5, #40]
 218:../../../core/platform/octa/src/octa.c ****     case 2:
 648              		.loc 1 218 9 is_stmt 1 view .LVU132
 218:../../../core/platform/octa/src/octa.c ****     case 2:
 649              		.loc 1 218 16 is_stmt 0 view .LVU133
 650 003c 0646     		mov	r6, r0
 651 003e 0FCD     		ldmia	r5!, {r0, r1, r2, r3}
 652              	.LVL23:
 218:../../../core/platform/octa/src/octa.c ****     case 2:
 653              		.loc 1 218 16 view .LVU134
 654 0040 0FC6     		stmia	r6!, {r0, r1, r2, r3}
 655 0042 0FCD     		ldmia	r5!, {r0, r1, r2, r3}
 656 0044 0FC6     		stmia	r6!, {r0, r1, r2, r3}
 657 0046 95E80700 		ldm	r5, {r0, r1, r2}
 658 004a 86E80700 		stm	r6, {r0, r1, r2}
 659              	.L37:
 218:../../../core/platform/octa/src/octa.c ****     case 2:
 660              		.loc 1 218 16 view .LVU135
 661              	.LBE2:
 231:../../../core/platform/octa/src/octa.c ****     }
 232:../../../core/platform/octa/src/octa.c **** }
 662              		.loc 1 232 1 view .LVU136
 663 004e 2046     		mov	r0, r4
 664 0050 0CB0     		add	sp, sp, #48
 665              	.LCFI21:
 666              		.cfi_remember_state
 667              		.cfi_def_cfa_offset 16
 668              		@ sp needed
 669 0052 70BD     		pop	{r4, r5, r6, pc}
 670              	.LVL24:
 671              	.L38:
 672              	.LCFI22:
 673              		.cfi_restore_state
ARM GAS  C:\Users\tijsv\AppData\Local\Temp\cckp8poJ.s 			page 17


 674              	.LBB3:
 220:../../../core/platform/octa/src/octa.c ****         return P2_header;
 675              		.loc 1 220 9 is_stmt 1 view .LVU137
 220:../../../core/platform/octa/src/octa.c ****         return P2_header;
 676              		.loc 1 220 26 is_stmt 0 view .LVU138
 677 0054 0F4D     		ldr	r5, .L44+8
 678 0056 0123     		movs	r3, #1
 679 0058 85F82830 		strb	r3, [r5, #40]
 221:../../../core/platform/octa/src/octa.c ****     case 3:
 680              		.loc 1 221 9 is_stmt 1 view .LVU139
 221:../../../core/platform/octa/src/octa.c ****     case 3:
 681              		.loc 1 221 16 is_stmt 0 view .LVU140
 682 005c 0646     		mov	r6, r0
 683 005e 0FCD     		ldmia	r5!, {r0, r1, r2, r3}
 684              	.LVL25:
 221:../../../core/platform/octa/src/octa.c ****     case 3:
 685              		.loc 1 221 16 view .LVU141
 686 0060 0FC6     		stmia	r6!, {r0, r1, r2, r3}
 687 0062 0FCD     		ldmia	r5!, {r0, r1, r2, r3}
 688 0064 0FC6     		stmia	r6!, {r0, r1, r2, r3}
 689 0066 95E80700 		ldm	r5, {r0, r1, r2}
 690 006a 86E80700 		stm	r6, {r0, r1, r2}
 691 006e EEE7     		b	.L37
 692              	.LVL26:
 693              	.L39:
 223:../../../core/platform/octa/src/octa.c ****         return P3_header;
 694              		.loc 1 223 9 is_stmt 1 view .LVU142
 223:../../../core/platform/octa/src/octa.c ****         return P3_header;
 695              		.loc 1 223 26 is_stmt 0 view .LVU143
 696 0070 094D     		ldr	r5, .L44+12
 697 0072 0123     		movs	r3, #1
 698 0074 85F82830 		strb	r3, [r5, #40]
 224:../../../core/platform/octa/src/octa.c ****     default:
 699              		.loc 1 224 9 is_stmt 1 view .LVU144
 224:../../../core/platform/octa/src/octa.c ****     default:
 700              		.loc 1 224 16 is_stmt 0 view .LVU145
 701 0078 0646     		mov	r6, r0
 702 007a 0FCD     		ldmia	r5!, {r0, r1, r2, r3}
 703              	.LVL27:
 224:../../../core/platform/octa/src/octa.c ****     default:
 704              		.loc 1 224 16 view .LVU146
 705 007c 0FC6     		stmia	r6!, {r0, r1, r2, r3}
 706 007e 0FCD     		ldmia	r5!, {r0, r1, r2, r3}
 707 0080 0FC6     		stmia	r6!, {r0, r1, r2, r3}
 708 0082 95E80700 		ldm	r5, {r0, r1, r2}
 709 0086 86E80700 		stm	r6, {r0, r1, r2}
 710 008a E0E7     		b	.L37
 711              	.L45:
 712              		.align	2
 713              	.L44:
 714 008c 00000000 		.word	.LC0
 715 0090 00000000 		.word	P1_header
 716 0094 00000000 		.word	P2_header
 717 0098 00000000 		.word	P3_header
 718              	.LBE3:
 719              		.cfi_endproc
 720              	.LFE142:
ARM GAS  C:\Users\tijsv\AppData\Local\Temp\cckp8poJ.s 			page 18


 722              		.global	__aeabi_uldivmod
 723              		.section	.rodata.ullx.str1.4,"aMS",%progbits,1
 724              		.align	2
 725              	.LC1:
 726 0000 30313233 		.ascii	"0123456789\000"
 726      34353637 
 726      383900
 727              		.section	.text.ullx,"ax",%progbits
 728              		.align	1
 729              		.global	ullx
 730              		.syntax unified
 731              		.thumb
 732              		.thumb_func
 733              		.fpu fpv4-sp-d16
 735              	ullx:
 736              	.LVL28:
 737              	.LFB143:
 233:../../../core/platform/octa/src/octa.c **** 
 234:../../../core/platform/octa/src/octa.c **** char* ullx(uint64_t val)
 235:../../../core/platform/octa/src/octa.c **** {
 738              		.loc 1 235 1 is_stmt 1 view -0
 739              		.cfi_startproc
 740              		@ args = 0, pretend = 0, frame = 0
 741              		@ frame_needed = 0, uses_anonymous_args = 0
 742              		.loc 1 235 1 is_stmt 0 view .LVU148
 743 0000 2DE9F843 		push	{r3, r4, r5, r6, r7, r8, r9, lr}
 744              	.LCFI23:
 745              		.cfi_def_cfa_offset 32
 746              		.cfi_offset 3, -32
 747              		.cfi_offset 4, -28
 748              		.cfi_offset 5, -24
 749              		.cfi_offset 6, -20
 750              		.cfi_offset 7, -16
 751              		.cfi_offset 8, -12
 752              		.cfi_offset 9, -8
 753              		.cfi_offset 14, -4
 754 0004 0546     		mov	r5, r0
 755 0006 0C46     		mov	r4, r1
 236:../../../core/platform/octa/src/octa.c ****     static char buf[34] = { [0 ... 33] = 0 };
 756              		.loc 1 236 5 is_stmt 1 view .LVU149
 237:../../../core/platform/octa/src/octa.c ****     char* out = &buf[33];
 757              		.loc 1 237 5 view .LVU150
 758              	.LVL29:
 238:../../../core/platform/octa/src/octa.c ****     uint64_t hval = val;
 759              		.loc 1 238 5 view .LVU151
 239:../../../core/platform/octa/src/octa.c ****     unsigned int hbase = 10;
 760              		.loc 1 239 5 view .LVU152
 237:../../../core/platform/octa/src/octa.c ****     char* out = &buf[33];
 761              		.loc 1 237 11 is_stmt 0 view .LVU153
 762 0008 DFF85080 		ldr	r8, .L49+4
 763              	.LVL30:
 764              	.L47:
 240:../../../core/platform/octa/src/octa.c **** 
 241:../../../core/platform/octa/src/octa.c ****     do {
 765              		.loc 1 241 5 is_stmt 1 discriminator 1 view .LVU154
 242:../../../core/platform/octa/src/octa.c ****         *out = "0123456789"[hval % hbase];
 766              		.loc 1 242 9 discriminator 1 view .LVU155
ARM GAS  C:\Users\tijsv\AppData\Local\Temp\cckp8poJ.s 			page 19


 767              		.loc 1 242 34 is_stmt 0 discriminator 1 view .LVU156
 768 000c 0A22     		movs	r2, #10
 769 000e 0023     		movs	r3, #0
 770 0010 2846     		mov	r0, r5
 771 0012 2146     		mov	r1, r4
 772 0014 FFF7FEFF 		bl	__aeabi_uldivmod
 773              	.LVL31:
 774              		.loc 1 242 28 discriminator 1 view .LVU157
 775 0018 0F4B     		ldr	r3, .L49
 776 001a 1344     		add	r3, r3, r2
 777 001c 1B78     		ldrb	r3, [r3]	@ zero_extendqisi2
 778              		.loc 1 242 14 discriminator 1 view .LVU158
 779 001e 88F80030 		strb	r3, [r8]
 243:../../../core/platform/octa/src/octa.c ****         --out;
 780              		.loc 1 243 9 is_stmt 1 discriminator 1 view .LVU159
 781 0022 C146     		mov	r9, r8
 782 0024 08F1FF38 		add	r8, r8, #-1
 783              	.LVL32:
 244:../../../core/platform/octa/src/octa.c ****         hval /= hbase;
 784              		.loc 1 244 9 discriminator 1 view .LVU160
 785 0028 2E46     		mov	r6, r5
 786 002a 2746     		mov	r7, r4
 787              		.loc 1 244 14 is_stmt 0 discriminator 1 view .LVU161
 788 002c 0A22     		movs	r2, #10
 789 002e 0023     		movs	r3, #0
 790 0030 2846     		mov	r0, r5
 791 0032 2146     		mov	r1, r4
 792 0034 FFF7FEFF 		bl	__aeabi_uldivmod
 793              	.LVL33:
 794 0038 0546     		mov	r5, r0
 795              	.LVL34:
 796              		.loc 1 244 14 discriminator 1 view .LVU162
 797 003a 0C46     		mov	r4, r1
 798              	.LVL35:
 245:../../../core/platform/octa/src/octa.c ****     } while(hval);
 799              		.loc 1 245 12 is_stmt 1 discriminator 1 view .LVU163
 800              		.loc 1 245 5 is_stmt 0 discriminator 1 view .LVU164
 801 003c 002F     		cmp	r7, #0
 802 003e 08BF     		it	eq
 803 0040 0A2E     		cmpeq	r6, #10
 804 0042 E3D2     		bcs	.L47
 246:../../../core/platform/octa/src/octa.c ****     
 247:../../../core/platform/octa/src/octa.c ****     *out-- = ' ', *out = ' ';
 805              		.loc 1 247 5 is_stmt 1 view .LVU165
 806              	.LVL36:
 807              		.loc 1 247 12 is_stmt 0 view .LVU166
 808 0044 2023     		movs	r3, #32
 809 0046 88F80030 		strb	r3, [r8]
 810              		.loc 1 247 24 view .LVU167
 811 004a 08F8013C 		strb	r3, [r8, #-1]
 248:../../../core/platform/octa/src/octa.c **** 
 249:../../../core/platform/octa/src/octa.c ****     return out;
 812              		.loc 1 249 5 is_stmt 1 view .LVU168
 250:../../../core/platform/octa/src/octa.c **** }
 813              		.loc 1 250 1 is_stmt 0 view .LVU169
 814 004e A9F10200 		sub	r0, r9, #2
 815              	.LVL37:
ARM GAS  C:\Users\tijsv\AppData\Local\Temp\cckp8poJ.s 			page 20


 816              		.loc 1 250 1 view .LVU170
 817 0052 BDE8F883 		pop	{r3, r4, r5, r6, r7, r8, r9, pc}
 818              	.LVL38:
 819              	.L50:
 820              		.loc 1 250 1 view .LVU171
 821 0056 00BF     		.align	2
 822              	.L49:
 823 0058 00000000 		.word	.LC1
 824 005c 21000000 		.word	.LANCHOR0+33
 825              		.cfi_endproc
 826              	.LFE143:
 828              		.section	.rodata.printWelcome.str1.4,"aMS",%progbits,1
 829              		.align	2
 830              	.LC2:
 831 0000 0D0A2A2A 		.ascii	"\015\012*******************************************"
 831      2A2A2A2A 
 831      2A2A2A2A 
 831      2A2A2A2A 
 831      2A2A2A2A 
 832 002d 2A2A2A2A 		.ascii	"********\015\000"
 832      2A2A2A2A 
 832      0D00
 833 0037 00       		.align	2
 834              	.LC3:
 835 0038 302E312E 		.ascii	"0.1.0\000"
 835      3000
 836 003e 0000     		.align	2
 837              	.LC4:
 838 0040 74656D70 		.ascii	"temperature-humidity-example\000"
 838      65726174 
 838      7572652D 
 838      68756D69 
 838      64697479 
 839 005d 000000   		.align	2
 840              	.LC5:
 841 0060 4170706C 		.ascii	"Application: %s v%s\015\012\000"
 841      69636174 
 841      696F6E3A 
 841      20257320 
 841      7625730D 
 842 0076 0000     		.align	2
 843              	.LC6:
 844 0078 25642E25 		.ascii	"%d.%d.%d\000"
 844      642E2564 
 844      00
 845 0081 000000   		.align	2
 846              	.LC7:
 847 0084 302E352E 		.ascii	"0.5.8\000"
 847      3800
 848 008a 0000     		.align	2
 849              	.LC8:
 850 008c 53746163 		.ascii	"Stack version: %s\015\012\000"
 850      6B207665 
 850      7273696F 
 850      6E3A2025 
 850      730D0A00 
 851              		.align	2
ARM GAS  C:\Users\tijsv\AppData\Local\Temp\cckp8poJ.s 			page 21


 852              	.LC9:
 853 00a0 506C6174 		.ascii	"Platform: octa + nucleo\015\000"
 853      666F726D 
 853      3A206F63 
 853      7461202B 
 853      206E7563 
 854 00b9 000000   		.align	2
 855              	.LC10:
 856 00bc 53657474 		.ascii	"Settings: \000"
 856      696E6773 
 856      3A2000
 857 00c7 00       		.align	2
 858              	.LC11:
 859 00c8 73636865 		.ascii	"scheduler\000"
 859      64756C65 
 859      7200
 860 00d2 0000     		.align	2
 861              	.LC12:
 862 00d4 2C206C6F 		.ascii	", lowpower mode %d\000"
 862      77706F77 
 862      6572206D 
 862      6F646520 
 862      256400
 863 00e7 00       		.align	2
 864              	.LC13:
 865 00e8 0D00     		.ascii	"\015\000"
 866 00ea 0000     		.align	2
 867              	.LC14:
 868 00ec 6F637461 		.ascii	"octa uid (u64 dec):%s \015\012\000"
 868      20756964 
 868      20287536 
 868      34206465 
 868      63293A25 
 869 0105 000000   		.align	2
 870              	.LC15:
 871 0108 6F637461 		.ascii	"octa uid (u64 le hex): \000"
 871      20756964 
 871      20287536 
 871      34206C65 
 871      20686578 
 872              		.align	2
 873              	.LC16:
 874 0120 25303278 		.ascii	"%02x\000"
 874      00
 875 0125 000000   		.align	2
 876              	.LC17:
 877 0128 0D0A0D00 		.ascii	"\015\012\015\000"
 878              		.align	2
 879              	.LC18:
 880 012c 0D0A2A2A 		.ascii	"\015\012*******************************************"
 880      2A2A2A2A 
 880      2A2A2A2A 
 880      2A2A2A2A 
 880      2A2A2A2A 
 881 0159 2A2A2A2A 		.ascii	"********\015\012\015\000"
 881      2A2A2A2A 
 881      0D0A0D00 
ARM GAS  C:\Users\tijsv\AppData\Local\Temp\cckp8poJ.s 			page 22


 882              		.section	.text.printWelcome,"ax",%progbits
 883              		.align	1
 884              		.weak	printWelcome
 885              		.syntax unified
 886              		.thumb
 887              		.thumb_func
 888              		.fpu fpv4-sp-d16
 890              	printWelcome:
 891              	.LFB144:
 251:../../../core/platform/octa/src/octa.c **** 
 252:../../../core/platform/octa/src/octa.c **** __weak void printWelcome(void)
 253:../../../core/platform/octa/src/octa.c **** {
 892              		.loc 1 253 1 is_stmt 1 view -0
 893              		.cfi_startproc
 894              		@ args = 0, pretend = 0, frame = 8
 895              		@ frame_needed = 0, uses_anonymous_args = 0
 896 0000 30B5     		push	{r4, r5, lr}
 897              	.LCFI24:
 898              		.cfi_def_cfa_offset 12
 899              		.cfi_offset 4, -12
 900              		.cfi_offset 5, -8
 901              		.cfi_offset 14, -4
 902 0002 85B0     		sub	sp, sp, #20
 903              	.LCFI25:
 904              		.cfi_def_cfa_offset 32
 254:../../../core/platform/octa/src/octa.c ****     printf("\r\n***************************************************\r\n");
 905              		.loc 1 254 5 view .LVU173
 906 0004 4A48     		ldr	r0, .L56
 907 0006 FFF7FEFF 		bl	puts
 908              	.LVL39:
 255:../../../core/platform/octa/src/octa.c ****     //APP SETTINGS
 256:../../../core/platform/octa/src/octa.c ****     #ifdef APPLICATION_NAME && APPLICATION_VERSION
 257:../../../core/platform/octa/src/octa.c ****         printf("Application: %s v%s\r\n", STR(APPLICATION_NAME),STR(APPLICATION_VERSION)); 
 909              		.loc 1 257 9 view .LVU174
 910 000a 4A4C     		ldr	r4, .L56+4
 911 000c 2246     		mov	r2, r4
 912 000e 4A49     		ldr	r1, .L56+8
 913 0010 4A48     		ldr	r0, .L56+12
 914 0012 FFF7FEFF 		bl	printf
 915              	.LVL40:
 258:../../../core/platform/octa/src/octa.c ****         sscanf(STR(APPLICATION_VERSION), "%d.%d.%d", &appversion_major, &appversion_minor, &appvers
 916              		.loc 1 258 9 view .LVU175
 917 0016 4A4D     		ldr	r5, .L56+16
 918 0018 4A4B     		ldr	r3, .L56+20
 919 001a 0093     		str	r3, [sp]
 920 001c 4A4B     		ldr	r3, .L56+24
 921 001e 4B4A     		ldr	r2, .L56+28
 922 0020 2946     		mov	r1, r5
 923 0022 2046     		mov	r0, r4
 924 0024 FFF7FEFF 		bl	sscanf
 925              	.LVL41:
 259:../../../core/platform/octa/src/octa.c ****     #else
 260:../../../core/platform/octa/src/octa.c ****         printf("unknown application name & version\r\n");
 261:../../../core/platform/octa/src/octa.c ****     #endif
 262:../../../core/platform/octa/src/octa.c ****     #ifdef STACK_VERSION
 263:../../../core/platform/octa/src/octa.c ****         printf("Stack version: %s\r\n", STR(STACK_VERSION));
 926              		.loc 1 263 9 view .LVU176
ARM GAS  C:\Users\tijsv\AppData\Local\Temp\cckp8poJ.s 			page 23


 927 0028 494C     		ldr	r4, .L56+32
 928 002a 2146     		mov	r1, r4
 929 002c 4948     		ldr	r0, .L56+36
 930 002e FFF7FEFF 		bl	printf
 931              	.LVL42:
 264:../../../core/platform/octa/src/octa.c ****         sscanf(STR(STACK_VERSION), "%d.%d.%d", &stackversion_major, &stackversion_minor, &stackvers
 932              		.loc 1 264 9 view .LVU177
 933 0032 494B     		ldr	r3, .L56+40
 934 0034 0093     		str	r3, [sp]
 935 0036 494B     		ldr	r3, .L56+44
 936 0038 494A     		ldr	r2, .L56+48
 937 003a 2946     		mov	r1, r5
 938 003c 2046     		mov	r0, r4
 939 003e FFF7FEFF 		bl	sscanf
 940              	.LVL43:
 265:../../../core/platform/octa/src/octa.c ****     #else
 266:../../../core/platform/octa/src/octa.c ****         printf("unknown stack version\r\n");
 267:../../../core/platform/octa/src/octa.c ****     #endif
 268:../../../core/platform/octa/src/octa.c ****     #ifdef platform_octa
 269:../../../core/platform/octa/src/octa.c ****         printf("Platform: octa + nucleo\r\n");
 941              		.loc 1 269 9 view .LVU178
 942 0042 4848     		ldr	r0, .L56+52
 943 0044 FFF7FEFF 		bl	puts
 944              	.LVL44:
 270:../../../core/platform/octa/src/octa.c ****     #elif platform_octa_stm
 271:../../../core/platform/octa/src/octa.c ****         printf("Platform: octa_stm\r\n");
 272:../../../core/platform/octa/src/octa.c ****     #endif
 273:../../../core/platform/octa/src/octa.c ****     printf("Settings: ");
 945              		.loc 1 273 5 view .LVU179
 946 0048 4748     		ldr	r0, .L56+56
 947 004a FFF7FEFF 		bl	printf
 948              	.LVL45:
 274:../../../core/platform/octa/src/octa.c ****     #if USE_RTOS_SCHEDULER
 275:../../../core/platform/octa/src/octa.c ****         printf("scheduler");
 949              		.loc 1 275 9 view .LVU180
 950 004e 4748     		ldr	r0, .L56+60
 951 0050 FFF7FEFF 		bl	printf
 952              	.LVL46:
 276:../../../core/platform/octa/src/octa.c ****     #else
 277:../../../core/platform/octa/src/octa.c ****         printf("noscheduler");
 278:../../../core/platform/octa/src/octa.c ****     #endif
 279:../../../core/platform/octa/src/octa.c ****     #if USE_BOOTLOADER
 280:../../../core/platform/octa/src/octa.c ****         printf(", bootlader");
 281:../../../core/platform/octa/src/octa.c ****     #endif
 282:../../../core/platform/octa/src/octa.c ****     #if DEBUG
 283:../../../core/platform/octa/src/octa.c ****         printf(", debug");
 284:../../../core/platform/octa/src/octa.c ****     #endif
 285:../../../core/platform/octa/src/octa.c ****     #ifdef LOW_POWER
 286:../../../core/platform/octa/src/octa.c ****         printf(", lowpower mode %d", LOW_POWER);
 953              		.loc 1 286 9 view .LVU181
 954 0054 0021     		movs	r1, #0
 955 0056 4648     		ldr	r0, .L56+64
 956 0058 FFF7FEFF 		bl	printf
 957              	.LVL47:
 287:../../../core/platform/octa/src/octa.c ****     #endif
 288:../../../core/platform/octa/src/octa.c ****     #if Disable_STEPUP
 289:../../../core/platform/octa/src/octa.c ****         printf(", 5V-stepup");
ARM GAS  C:\Users\tijsv\AppData\Local\Temp\cckp8poJ.s 			page 24


 290:../../../core/platform/octa/src/octa.c ****     #endif
 291:../../../core/platform/octa/src/octa.c ****     #if USE_FTDI_LOGGING
 292:../../../core/platform/octa/src/octa.c ****         printf(", ftdi-logging");
 293:../../../core/platform/octa/src/octa.c ****     #endif
 294:../../../core/platform/octa/src/octa.c ****     #if PRINT_FLOATS
 295:../../../core/platform/octa/src/octa.c ****         printf(", print-floats");
 296:../../../core/platform/octa/src/octa.c ****     #endif
 297:../../../core/platform/octa/src/octa.c ****     printf("\r\n");
 958              		.loc 1 297 5 view .LVU182
 959 005c 4548     		ldr	r0, .L56+68
 960 005e FFF7FEFF 		bl	puts
 961              	.LVL48:
 298:../../../core/platform/octa/src/octa.c **** 
 299:../../../core/platform/octa/src/octa.c ****     //OCTA UID
 300:../../../core/platform/octa/src/octa.c ****     char UIDString[sizeof(short_UID)];
 962              		.loc 1 300 5 view .LVU183
 301:../../../core/platform/octa/src/octa.c ****     memcpy(UIDString, &short_UID, sizeof(short_UID));
 963              		.loc 1 301 5 view .LVU184
 964 0062 454B     		ldr	r3, .L56+72
 965 0064 02AC     		add	r4, sp, #8
 966 0066 93E80300 		ldm	r3, {r0, r1}
 967 006a 84E80300 		stm	r4, {r0, r1}
 302:../../../core/platform/octa/src/octa.c ****     printf("octa uid (u64 dec):%s \r\n", ullx(short_UID));
 968              		.loc 1 302 5 view .LVU185
 969 006e D3E90001 		ldrd	r0, [r3]
 970 0072 FFF7FEFF 		bl	ullx
 971              	.LVL49:
 972 0076 0146     		mov	r1, r0
 973 0078 4048     		ldr	r0, .L56+76
 974 007a FFF7FEFF 		bl	printf
 975              	.LVL50:
 303:../../../core/platform/octa/src/octa.c ****     printf("octa uid (u64 le hex): ");
 976              		.loc 1 303 5 view .LVU186
 977 007e 4048     		ldr	r0, .L56+80
 978 0080 FFF7FEFF 		bl	printf
 979              	.LVL51:
 304:../../../core/platform/octa/src/octa.c ****     for (const char* p = UIDString; *p; ++p)
 980              		.loc 1 304 5 view .LVU187
 981              	.LBB4:
 982              		.loc 1 304 10 view .LVU188
 983              	.L52:
 984              		.loc 1 304 37 discriminator 1 view .LVU189
 985 0084 2178     		ldrb	r1, [r4]	@ zero_extendqisi2
 986              		.loc 1 304 5 is_stmt 0 discriminator 1 view .LVU190
 987 0086 21B1     		cbz	r1, .L55
 305:../../../core/platform/octa/src/octa.c ****         {
 306:../../../core/platform/octa/src/octa.c ****             printf("%02x", *p);
 988              		.loc 1 306 13 is_stmt 1 discriminator 3 view .LVU191
 989 0088 3E48     		ldr	r0, .L56+84
 990 008a FFF7FEFF 		bl	printf
 991              	.LVL52:
 304:../../../core/platform/octa/src/octa.c ****     for (const char* p = UIDString; *p; ++p)
 992              		.loc 1 304 41 discriminator 3 view .LVU192
 993 008e 0134     		adds	r4, r4, #1
 994              	.LVL53:
 304:../../../core/platform/octa/src/octa.c ****     for (const char* p = UIDString; *p; ++p)
 995              		.loc 1 304 41 is_stmt 0 discriminator 3 view .LVU193
ARM GAS  C:\Users\tijsv\AppData\Local\Temp\cckp8poJ.s 			page 25


 996 0090 F8E7     		b	.L52
 997              	.L55:
 304:../../../core/platform/octa/src/octa.c ****     for (const char* p = UIDString; *p; ++p)
 998              		.loc 1 304 41 discriminator 3 view .LVU194
 999              	.LBE4:
 307:../../../core/platform/octa/src/octa.c ****         }
 308:../../../core/platform/octa/src/octa.c **** 
 309:../../../core/platform/octa/src/octa.c ****     //SHIELDS
 310:../../../core/platform/octa/src/octa.c ****     printf("\r\n\r\n");
 1000              		.loc 1 310 5 is_stmt 1 view .LVU195
 1001 0092 3D48     		ldr	r0, .L56+88
 1002 0094 FFF7FEFF 		bl	puts
 1003              	.LVL54:
 311:../../../core/platform/octa/src/octa.c ****     #ifdef FIREFLY_CONNECTOR
 312:../../../core/platform/octa/src/octa.c ****         printf("*   GPS-Firefly at connector P%d, v%s\r\n", FIREFLY_CONNECTOR, STR(FIREFLY_VERSION)
 313:../../../core/platform/octa/src/octa.c ****     #endif
 314:../../../core/platform/octa/src/octa.c ****     #ifdef MURATA_ONLYLORAWAN
 315:../../../core/platform/octa/src/octa.c ****         printf("*   Murata LoRaWAN at connector P%d using %s keys, v%s\r\n", MURATA_CONNECTOR, STR(
 316:../../../core/platform/octa/src/octa.c ****     #endif
 317:../../../core/platform/octa/src/octa.c ****     #ifdef MURATA_DUALSTACK
 318:../../../core/platform/octa/src/octa.c ****         printf("*   Murata Dualstack at connector P%d using %s LoRaWAN keys, v%s\r\n", MURATA_CONNE
 319:../../../core/platform/octa/src/octa.c ****     #endif
 320:../../../core/platform/octa/src/octa.c ****     #ifdef NB_IOT_CHIP_SARAN
 321:../../../core/platform/octa/src/octa.c ****         #ifdef NB_IOT_CONNECTOR
 322:../../../core/platform/octa/src/octa.c ****             printf("*   SARAN NB-IoT at connector P%d using provider %s, v%s\r\n", NB_IOT_CONNECTOR
 323:../../../core/platform/octa/src/octa.c ****             #ifdef SARAN21X_Params_Exists
 324:../../../core/platform/octa/src/octa.c ****                 printf("        -SARAN21X_Params file found\r\n");
 325:../../../core/platform/octa/src/octa.c ****             #else
 326:../../../core/platform/octa/src/octa.c ****                 printf("        -SARAN21X_Params file not found, using example params file\r\n");
 327:../../../core/platform/octa/src/octa.c ****             #endif
 328:../../../core/platform/octa/src/octa.c ****         #endif
 329:../../../core/platform/octa/src/octa.c ****     #endif
 330:../../../core/platform/octa/src/octa.c ****     #ifdef NB_IOT_CHIP_NORDIC
 331:../../../core/platform/octa/src/octa.c ****         #ifdef NB_IOT_CONNECTOR
 332:../../../core/platform/octa/src/octa.c ****             printf("*   Nordic NB-IoT at connector P%d using automatic provider, v%s\r\n", NB_IOT_C
 333:../../../core/platform/octa/src/octa.c ****         #else
 334:../../../core/platform/octa/src/octa.c ****             printf("*   Nordic NB-IoT (onboard) using using automatic provider %s, v%s\r\n", STR(NB
 335:../../../core/platform/octa/src/octa.c ****         #endif
 336:../../../core/platform/octa/src/octa.c ****         #ifdef NORDIC9160_Params_Exists
 337:../../../core/platform/octa/src/octa.c ****             printf("        -NORDIC9160_Params file found\r\n");
 338:../../../core/platform/octa/src/octa.c ****         #else
 339:../../../core/platform/octa/src/octa.c ****             printf("        -NORDIC9160_Params file not found, using example params file\r\n");
 340:../../../core/platform/octa/src/octa.c ****         #endif
 341:../../../core/platform/octa/src/octa.c ****     #endif
 342:../../../core/platform/octa/src/octa.c ****     #ifdef NOVA_PM_CONNECTOR
 343:../../../core/platform/octa/src/octa.c ****         printf("*   Nova Particle Sensor at connector P%d, v%s\r\n", NOVA_PM_CONNECTOR, STR(NOVA_PM
 344:../../../core/platform/octa/src/octa.c ****     #endif        
 345:../../../core/platform/octa/src/octa.c ****     #ifdef ROD_CONNECTOR
 346:../../../core/platform/octa/src/octa.c ****         printf("*   ROD at connector P%d, v%s\r\n", ROD_CONNECTOR, STR(ROD_VERSION));
 347:../../../core/platform/octa/src/octa.c ****     #endif
 348:../../../core/platform/octa/src/octa.c ****     #ifdef SIGFOX_CONNECTOR
 349:../../../core/platform/octa/src/octa.c ****         printf("*   SigFox at connector P%d, v%s\r\n", SIGFOX_CONNECTOR, STR(SIGFOX_VERSION));
 350:../../../core/platform/octa/src/octa.c ****     #endif
 351:../../../core/platform/octa/src/octa.c ****     printf("\r\n***************************************************\r\n\r\n");
 1004              		.loc 1 351 5 view .LVU196
 1005 0098 3C48     		ldr	r0, .L56+92
 1006 009a FFF7FEFF 		bl	puts
ARM GAS  C:\Users\tijsv\AppData\Local\Temp\cckp8poJ.s 			page 26


 1007              	.LVL55:
 352:../../../core/platform/octa/src/octa.c **** 
 353:../../../core/platform/octa/src/octa.c ****     #if DEBUG && USE_RTOS_SCHEDULER && PRINT_RTOS_STATS
 354:../../../core/platform/octa/src/octa.c ****         osThreadDef(rtos_stats, RTOS_Print_Stats_Thread, osPriorityNormal, 0, 512);
 355:../../../core/platform/octa/src/octa.c ****         rtosprintHandle = osThreadCreate(osThread(rtos_stats), NULL);
 356:../../../core/platform/octa/src/octa.c ****         GPIO_InitTypeDef GPIO_InitStruct = {0};
 357:../../../core/platform/octa/src/octa.c ****         GPIO_InitStruct.Pin = OCTA_BTN2_Pin;
 358:../../../core/platform/octa/src/octa.c ****         GPIO_InitStruct.Mode = GPIO_MODE_IT_RISING;
 359:../../../core/platform/octa/src/octa.c ****         GPIO_InitStruct.Pull = GPIO_NOPULL;
 360:../../../core/platform/octa/src/octa.c ****         HAL_GPIO_Init(GPIOG, &GPIO_InitStruct);
 361:../../../core/platform/octa/src/octa.c **** 
 362:../../../core/platform/octa/src/octa.c ****         //enable the interrupt
 363:../../../core/platform/octa/src/octa.c ****         HAL_NVIC_SetPriority(EXTI1_IRQn, 8, 0);		
 364:../../../core/platform/octa/src/octa.c ****         HAL_NVIC_EnableIRQ(EXTI1_IRQn);
 365:../../../core/platform/octa/src/octa.c ****         printDBG("***************************************************\r\n");
 366:../../../core/platform/octa/src/octa.c ****         printDBG("DEBUG Enabled, press BTN2 to get RTOS Thread stats\r\n");
 367:../../../core/platform/octa/src/octa.c ****         printDBG("***************************************************\r\n\r\n");
 368:../../../core/platform/octa/src/octa.c ****     #endif
 369:../../../core/platform/octa/src/octa.c ****     
 370:../../../core/platform/octa/src/octa.c ****     HAL_GPIO_TogglePin(OCTA_RLED_GPIO_Port, OCTA_RLED_Pin);
 1008              		.loc 1 370 5 view .LVU197
 1009 009e 3C4C     		ldr	r4, .L56+96
 1010              	.LVL56:
 1011              		.loc 1 370 5 is_stmt 0 view .LVU198
 1012 00a0 4FF48041 		mov	r1, #16384
 1013 00a4 2046     		mov	r0, r4
 1014 00a6 FFF7FEFF 		bl	HAL_GPIO_TogglePin
 1015              	.LVL57:
 371:../../../core/platform/octa/src/octa.c ****     HAL_Delay(200);
 1016              		.loc 1 371 5 is_stmt 1 view .LVU199
 1017 00aa C820     		movs	r0, #200
 1018 00ac FFF7FEFF 		bl	HAL_Delay
 1019              	.LVL58:
 372:../../../core/platform/octa/src/octa.c ****     HAL_GPIO_TogglePin(OCTA_RLED_GPIO_Port, OCTA_RLED_Pin);
 1020              		.loc 1 372 5 view .LVU200
 1021 00b0 4FF48041 		mov	r1, #16384
 1022 00b4 2046     		mov	r0, r4
 1023 00b6 FFF7FEFF 		bl	HAL_GPIO_TogglePin
 1024              	.LVL59:
 373:../../../core/platform/octa/src/octa.c ****     HAL_GPIO_TogglePin(OCTA_GLED_GPIO_Port, OCTA_GLED_Pin);
 1025              		.loc 1 373 5 view .LVU201
 1026 00ba 364D     		ldr	r5, .L56+100
 1027 00bc 0121     		movs	r1, #1
 1028 00be 2846     		mov	r0, r5
 1029 00c0 FFF7FEFF 		bl	HAL_GPIO_TogglePin
 1030              	.LVL60:
 374:../../../core/platform/octa/src/octa.c ****     HAL_Delay(200);
 1031              		.loc 1 374 5 view .LVU202
 1032 00c4 C820     		movs	r0, #200
 1033 00c6 FFF7FEFF 		bl	HAL_Delay
 1034              	.LVL61:
 375:../../../core/platform/octa/src/octa.c ****     HAL_GPIO_TogglePin(OCTA_GLED_GPIO_Port, OCTA_GLED_Pin);
 1035              		.loc 1 375 5 view .LVU203
 1036 00ca 0121     		movs	r1, #1
 1037 00cc 2846     		mov	r0, r5
 1038 00ce FFF7FEFF 		bl	HAL_GPIO_TogglePin
 1039              	.LVL62:
ARM GAS  C:\Users\tijsv\AppData\Local\Temp\cckp8poJ.s 			page 27


 376:../../../core/platform/octa/src/octa.c ****     HAL_GPIO_TogglePin(OCTA_BLED_GPIO_Port, OCTA_BLED_Pin);
 1040              		.loc 1 376 5 view .LVU204
 1041 00d2 4FF40041 		mov	r1, #32768
 1042 00d6 2046     		mov	r0, r4
 1043 00d8 FFF7FEFF 		bl	HAL_GPIO_TogglePin
 1044              	.LVL63:
 377:../../../core/platform/octa/src/octa.c ****     HAL_Delay(200);
 1045              		.loc 1 377 5 view .LVU205
 1046 00dc C820     		movs	r0, #200
 1047 00de FFF7FEFF 		bl	HAL_Delay
 1048              	.LVL64:
 378:../../../core/platform/octa/src/octa.c ****     HAL_GPIO_TogglePin(OCTA_BLED_GPIO_Port, OCTA_BLED_Pin);
 1049              		.loc 1 378 5 view .LVU206
 1050 00e2 4FF40041 		mov	r1, #32768
 1051 00e6 2046     		mov	r0, r4
 1052 00e8 FFF7FEFF 		bl	HAL_GPIO_TogglePin
 1053              	.LVL65:
 379:../../../core/platform/octa/src/octa.c ****     HAL_GPIO_TogglePin(OCTA_RLED_GPIO_Port, OCTA_RLED_Pin);
 1054              		.loc 1 379 5 view .LVU207
 1055 00ec 4FF48041 		mov	r1, #16384
 1056 00f0 2046     		mov	r0, r4
 1057 00f2 FFF7FEFF 		bl	HAL_GPIO_TogglePin
 1058              	.LVL66:
 380:../../../core/platform/octa/src/octa.c ****     HAL_GPIO_TogglePin(OCTA_GLED_GPIO_Port, OCTA_GLED_Pin);
 1059              		.loc 1 380 5 view .LVU208
 1060 00f6 0121     		movs	r1, #1
 1061 00f8 2846     		mov	r0, r5
 1062 00fa FFF7FEFF 		bl	HAL_GPIO_TogglePin
 1063              	.LVL67:
 381:../../../core/platform/octa/src/octa.c ****     HAL_GPIO_TogglePin(OCTA_BLED_GPIO_Port, OCTA_BLED_Pin);
 1064              		.loc 1 381 5 view .LVU209
 1065 00fe 4FF40041 		mov	r1, #32768
 1066 0102 2046     		mov	r0, r4
 1067 0104 FFF7FEFF 		bl	HAL_GPIO_TogglePin
 1068              	.LVL68:
 382:../../../core/platform/octa/src/octa.c ****     HAL_Delay(200);
 1069              		.loc 1 382 5 view .LVU210
 1070 0108 C820     		movs	r0, #200
 1071 010a FFF7FEFF 		bl	HAL_Delay
 1072              	.LVL69:
 383:../../../core/platform/octa/src/octa.c ****     HAL_GPIO_TogglePin(OCTA_RLED_GPIO_Port, OCTA_RLED_Pin);
 1073              		.loc 1 383 5 view .LVU211
 1074 010e 4FF48041 		mov	r1, #16384
 1075 0112 2046     		mov	r0, r4
 1076 0114 FFF7FEFF 		bl	HAL_GPIO_TogglePin
 1077              	.LVL70:
 384:../../../core/platform/octa/src/octa.c ****     HAL_GPIO_TogglePin(OCTA_GLED_GPIO_Port, OCTA_GLED_Pin);
 1078              		.loc 1 384 5 view .LVU212
 1079 0118 0121     		movs	r1, #1
 1080 011a 2846     		mov	r0, r5
 1081 011c FFF7FEFF 		bl	HAL_GPIO_TogglePin
 1082              	.LVL71:
 385:../../../core/platform/octa/src/octa.c ****     HAL_GPIO_TogglePin(OCTA_BLED_GPIO_Port, OCTA_BLED_Pin);
 1083              		.loc 1 385 5 view .LVU213
 1084 0120 4FF40041 		mov	r1, #32768
 1085 0124 2046     		mov	r0, r4
 1086 0126 FFF7FEFF 		bl	HAL_GPIO_TogglePin
ARM GAS  C:\Users\tijsv\AppData\Local\Temp\cckp8poJ.s 			page 28


 1087              	.LVL72:
 386:../../../core/platform/octa/src/octa.c **** }
 1088              		.loc 1 386 1 is_stmt 0 view .LVU214
 1089 012a 05B0     		add	sp, sp, #20
 1090              	.LCFI26:
 1091              		.cfi_def_cfa_offset 12
 1092              		@ sp needed
 1093 012c 30BD     		pop	{r4, r5, pc}
 1094              	.L57:
 1095 012e 00BF     		.align	2
 1096              	.L56:
 1097 0130 00000000 		.word	.LC2
 1098 0134 38000000 		.word	.LC3
 1099 0138 40000000 		.word	.LC4
 1100 013c 60000000 		.word	.LC5
 1101 0140 78000000 		.word	.LC6
 1102 0144 00000000 		.word	appversion_patch
 1103 0148 00000000 		.word	appversion_minor
 1104 014c 00000000 		.word	appversion_major
 1105 0150 84000000 		.word	.LC7
 1106 0154 8C000000 		.word	.LC8
 1107 0158 00000000 		.word	stackversion_patch
 1108 015c 00000000 		.word	stackversion_minor
 1109 0160 00000000 		.word	stackversion_major
 1110 0164 A0000000 		.word	.LC9
 1111 0168 BC000000 		.word	.LC10
 1112 016c C8000000 		.word	.LC11
 1113 0170 D4000000 		.word	.LC12
 1114 0174 E8000000 		.word	.LC13
 1115 0178 00000000 		.word	short_UID
 1116 017c EC000000 		.word	.LC14
 1117 0180 08010000 		.word	.LC15
 1118 0184 20010000 		.word	.LC16
 1119 0188 28010000 		.word	.LC17
 1120 018c 2C010000 		.word	.LC18
 1121 0190 000C0048 		.word	1207962624
 1122 0194 00040048 		.word	1207960576
 1123              		.cfi_endproc
 1124              	.LFE144:
 1126              		.section	.rodata.OCTA_Initialize_Common_Peripherals.str1.4,"aMS",%progbits,1
 1127              		.align	2
 1128              	.LC19:
 1129 0000 53746172 		.ascii	"Startup after IWDG timeout\015\012\015\012\000"
 1129      74757020 
 1129      61667465 
 1129      72204957 
 1129      44472074 
 1130 001f 00       		.align	2
 1131              	.LC20:
 1132 0020 53746172 		.ascii	"Startup from power cycle\015\012\015\012\000"
 1132      74757020 
 1132      66726F6D 
 1132      20706F77 
 1132      65722063 
 1133              		.section	.text.OCTA_Initialize_Common_Peripherals,"ax",%progbits
 1134              		.align	1
 1135              		.global	OCTA_Initialize_Common_Peripherals
ARM GAS  C:\Users\tijsv\AppData\Local\Temp\cckp8poJ.s 			page 29


 1136              		.syntax unified
 1137              		.thumb
 1138              		.thumb_func
 1139              		.fpu fpv4-sp-d16
 1141              	OCTA_Initialize_Common_Peripherals:
 1142              	.LFB132:
  19:../../../core/platform/octa/src/octa.c ****     #if USE_BOOTLOADER
 1143              		.loc 1 19 1 is_stmt 1 view -0
 1144              		.cfi_startproc
 1145              		@ args = 0, pretend = 0, frame = 0
 1146              		@ frame_needed = 0, uses_anonymous_args = 0
 1147 0000 08B5     		push	{r3, lr}
 1148              	.LCFI27:
 1149              		.cfi_def_cfa_offset 8
 1150              		.cfi_offset 3, -8
 1151              		.cfi_offset 14, -4
  24:../../../core/platform/octa/src/octa.c ****     SystemClock_Config();
 1152              		.loc 1 24 5 view .LVU216
 1153 0002 FFF7FEFF 		bl	HAL_Init
 1154              	.LVL73:
  25:../../../core/platform/octa/src/octa.c **** 
 1155              		.loc 1 25 5 view .LVU217
 1156 0006 FFF7FEFF 		bl	SystemClock_Config
 1157              	.LVL74:
  27:../../../core/platform/octa/src/octa.c ****     OCTA_IWDG_Init();
 1158              		.loc 1 27 5 view .LVU218
 1159 000a FFF7FEFF 		bl	OCTA_GPIO_Init
 1160              	.LVL75:
  28:../../../core/platform/octa/src/octa.c ****     FLASH_SPI_Init();
 1161              		.loc 1 28 5 view .LVU219
 1162 000e FFF7FEFF 		bl	OCTA_IWDG_Init
 1163              	.LVL76:
  29:../../../core/platform/octa/src/octa.c ****     common_I2C_Init();
 1164              		.loc 1 29 5 view .LVU220
 1165 0012 FFF7FEFF 		bl	FLASH_SPI_Init
 1166              	.LVL77:
  30:../../../core/platform/octa/src/octa.c ****     RTC_Init();
 1167              		.loc 1 30 5 view .LVU221
 1168 0016 FFF7FEFF 		bl	common_I2C_Init
 1169              	.LVL78:
  31:../../../core/platform/octa/src/octa.c ****     USB_UART_Init(115200);
 1170              		.loc 1 31 5 view .LVU222
 1171 001a FFF7FEFF 		bl	RTC_Init
 1172              	.LVL79:
  32:../../../core/platform/octa/src/octa.c ****     #if USE_FTDI_LOGGING
 1173              		.loc 1 32 5 view .LVU223
 1174 001e 4FF4E130 		mov	r0, #115200
 1175 0022 FFF7FEFF 		bl	USB_UART_Init
 1176              	.LVL80:
  44:../../../core/platform/octa/src/octa.c ****     octa_uid.u64 = short_UID;
 1177              		.loc 1 44 5 view .LVU224
  44:../../../core/platform/octa/src/octa.c ****     octa_uid.u64 = short_UID;
 1178              		.loc 1 44 17 is_stmt 0 view .LVU225
 1179 0026 FFF7FEFF 		bl	get_UID
 1180              	.LVL81:
  44:../../../core/platform/octa/src/octa.c ****     octa_uid.u64 = short_UID;
 1181              		.loc 1 44 15 view .LVU226
ARM GAS  C:\Users\tijsv\AppData\Local\Temp\cckp8poJ.s 			page 30


 1182 002a 154B     		ldr	r3, .L62
 1183 002c 1860     		str	r0, [r3]
 1184 002e 5960     		str	r1, [r3, #4]
  45:../../../core/platform/octa/src/octa.c **** 
 1185              		.loc 1 45 5 is_stmt 1 view .LVU227
  45:../../../core/platform/octa/src/octa.c **** 
 1186              		.loc 1 45 18 is_stmt 0 view .LVU228
 1187 0030 144B     		ldr	r3, .L62+4
 1188 0032 1860     		str	r0, [r3]
 1189 0034 5960     		str	r1, [r3, #4]
  48:../../../core/platform/octa/src/octa.c **** 
 1190              		.loc 1 48 5 is_stmt 1 view .LVU229
 1191 0036 FFF7FEFF 		bl	printWelcome
 1192              	.LVL82:
  50:../../../core/platform/octa/src/octa.c ****     hard_reset = 0;
 1193              		.loc 1 50 5 view .LVU230
  50:../../../core/platform/octa/src/octa.c ****     hard_reset = 0;
 1194              		.loc 1 50 14 is_stmt 0 view .LVU231
 1195 003a 0023     		movs	r3, #0
 1196 003c 124A     		ldr	r2, .L62+8
 1197 003e 1370     		strb	r3, [r2]
  51:../../../core/platform/octa/src/octa.c ****     if(__HAL_RCC_GET_FLAG(RCC_FLAG_IWDGRST)) 
 1198              		.loc 1 51 5 is_stmt 1 view .LVU232
  51:../../../core/platform/octa/src/octa.c ****     if(__HAL_RCC_GET_FLAG(RCC_FLAG_IWDGRST)) 
 1199              		.loc 1 51 16 is_stmt 0 view .LVU233
 1200 0040 124A     		ldr	r2, .L62+12
 1201 0042 1370     		strb	r3, [r2]
  52:../../../core/platform/octa/src/octa.c ****     {
 1202              		.loc 1 52 5 is_stmt 1 view .LVU234
  52:../../../core/platform/octa/src/octa.c ****     {
 1203              		.loc 1 52 8 is_stmt 0 view .LVU235
 1204 0044 03F18043 		add	r3, r3, #1073741824
 1205 0048 03F50433 		add	r3, r3, #135168
 1206 004c D3F89430 		ldr	r3, [r3, #148]
  52:../../../core/platform/octa/src/octa.c ****     {
 1207              		.loc 1 52 7 view .LVU236
 1208 0050 13F0005F 		tst	r3, #536870912
 1209 0054 0DD0     		beq	.L59
  54:../../../core/platform/octa/src/octa.c ****         printINF("Startup after IWDG timeout\r\n\r\n");
 1210              		.loc 1 54 9 is_stmt 1 view .LVU237
 1211 0056 0E4A     		ldr	r2, .L62+16
 1212 0058 D2F89430 		ldr	r3, [r2, #148]
 1213 005c 43F40003 		orr	r3, r3, #8388608
 1214 0060 C2F89430 		str	r3, [r2, #148]
  55:../../../core/platform/octa/src/octa.c ****         wd_reset = 1;
 1215              		.loc 1 55 9 view .LVU238
 1216 0064 0B48     		ldr	r0, .L62+20
 1217 0066 FFF7FEFF 		bl	printINF
 1218              	.LVL83:
  56:../../../core/platform/octa/src/octa.c ****     }
 1219              		.loc 1 56 9 view .LVU239
  56:../../../core/platform/octa/src/octa.c ****     }
 1220              		.loc 1 56 18 is_stmt 0 view .LVU240
 1221 006a 074B     		ldr	r3, .L62+8
 1222 006c 0122     		movs	r2, #1
 1223 006e 1A70     		strb	r2, [r3]
 1224              	.L58:
ARM GAS  C:\Users\tijsv\AppData\Local\Temp\cckp8poJ.s 			page 31


  63:../../../core/platform/octa/src/octa.c **** 
 1225              		.loc 1 63 1 view .LVU241
 1226 0070 08BD     		pop	{r3, pc}
 1227              	.L59:
  60:../../../core/platform/octa/src/octa.c ****         hard_reset = 1;
 1228              		.loc 1 60 9 is_stmt 1 view .LVU242
 1229 0072 0948     		ldr	r0, .L62+24
 1230 0074 FFF7FEFF 		bl	printINF
 1231              	.LVL84:
  61:../../../core/platform/octa/src/octa.c ****     }
 1232              		.loc 1 61 9 view .LVU243
  61:../../../core/platform/octa/src/octa.c ****     }
 1233              		.loc 1 61 20 is_stmt 0 view .LVU244
 1234 0078 044B     		ldr	r3, .L62+12
 1235 007a 0122     		movs	r2, #1
 1236 007c 1A70     		strb	r2, [r3]
  63:../../../core/platform/octa/src/octa.c **** 
 1237              		.loc 1 63 1 view .LVU245
 1238 007e F7E7     		b	.L58
 1239              	.L63:
 1240              		.align	2
 1241              	.L62:
 1242 0080 00000000 		.word	short_UID
 1243 0084 00000000 		.word	octa_uid
 1244 0088 00000000 		.word	wd_reset
 1245 008c 00000000 		.word	hard_reset
 1246 0090 00100240 		.word	1073876992
 1247 0094 00000000 		.word	.LC19
 1248 0098 20000000 		.word	.LC20
 1249              		.cfi_endproc
 1250              	.LFE132:
 1252              		.section	.text.Initialize_Platform,"ax",%progbits
 1253              		.align	1
 1254              		.global	Initialize_Platform
 1255              		.syntax unified
 1256              		.thumb
 1257              		.thumb_func
 1258              		.fpu fpv4-sp-d16
 1260              	Initialize_Platform:
 1261              	.LFB131:
   7:../../../core/platform/octa/src/octa.c ****     //GPIO, IWDG, USB_UART(Logging)
 1262              		.loc 1 7 1 is_stmt 1 view -0
 1263              		.cfi_startproc
 1264              		@ args = 0, pretend = 0, frame = 0
 1265              		@ frame_needed = 0, uses_anonymous_args = 0
 1266 0000 08B5     		push	{r3, lr}
 1267              	.LCFI28:
 1268              		.cfi_def_cfa_offset 8
 1269              		.cfi_offset 3, -8
 1270              		.cfi_offset 14, -4
   9:../../../core/platform/octa/src/octa.c ****     //P1 UART, I2C, SPI & GPIO handles
 1271              		.loc 1 9 5 view .LVU247
 1272 0002 FFF7FEFF 		bl	OCTA_Initialize_Common_Peripherals
 1273              	.LVL85:
  11:../../../core/platform/octa/src/octa.c ****     //P2 UART, I2C, SPI & GPIO handles
 1274              		.loc 1 11 5 view .LVU248
 1275 0006 FFF7FEFF 		bl	OCTA_Initialize_P1_Peripherals
ARM GAS  C:\Users\tijsv\AppData\Local\Temp\cckp8poJ.s 			page 32


 1276              	.LVL86:
  13:../../../core/platform/octa/src/octa.c ****     //P3 UART, I2C, SPI & GPIO handles
 1277              		.loc 1 13 5 view .LVU249
 1278 000a FFF7FEFF 		bl	OCTA_Initialize_P2_Peripherals
 1279              	.LVL87:
  15:../../../core/platform/octa/src/octa.c **** }
 1280              		.loc 1 15 5 view .LVU250
 1281 000e FFF7FEFF 		bl	OCTA_Initialize_P3_Peripherals
 1282              	.LVL88:
  16:../../../core/platform/octa/src/octa.c **** 
 1283              		.loc 1 16 1 is_stmt 0 view .LVU251
 1284 0012 08BD     		pop	{r3, pc}
 1285              		.cfi_endproc
 1286              	.LFE131:
 1288              		.section	.text.vApplicationIdleHook,"ax",%progbits
 1289              		.align	1
 1290              		.global	vApplicationIdleHook
 1291              		.syntax unified
 1292              		.thumb
 1293              		.thumb_func
 1294              		.fpu fpv4-sp-d16
 1296              	vApplicationIdleHook:
 1297              	.LFB145:
 387:../../../core/platform/octa/src/octa.c **** 
 388:../../../core/platform/octa/src/octa.c **** void vApplicationIdleHook(void){
 1298              		.loc 1 388 32 is_stmt 1 view -0
 1299              		.cfi_startproc
 1300              		@ args = 0, pretend = 0, frame = 0
 1301              		@ frame_needed = 0, uses_anonymous_args = 0
 1302              		@ link register save eliminated.
 389:../../../core/platform/octa/src/octa.c ****   #if LOW_POWER==1
 390:../../../core/platform/octa/src/octa.c ****     HAL_PWR_EnterSLEEPMode(PWR_MAINREGULATOR_ON, PWR_SLEEPENTRY_WFE);
 391:../../../core/platform/octa/src/octa.c ****   #endif
 392:../../../core/platform/octa/src/octa.c **** }
 1303              		.loc 1 392 1 view .LVU253
 1304 0000 7047     		bx	lr
 1305              		.cfi_endproc
 1306              	.LFE145:
 1308              		.section	.text.DeInitialize_Platform,"ax",%progbits
 1309              		.align	1
 1310              		.global	DeInitialize_Platform
 1311              		.syntax unified
 1312              		.thumb
 1313              		.thumb_func
 1314              		.fpu fpv4-sp-d16
 1316              	DeInitialize_Platform:
 1317              	.LFB146:
 393:../../../core/platform/octa/src/octa.c **** 
 394:../../../core/platform/octa/src/octa.c **** void DeInitialize_Platform(void)
 395:../../../core/platform/octa/src/octa.c **** {
 1318              		.loc 1 395 1 view -0
 1319              		.cfi_startproc
 1320              		@ args = 0, pretend = 0, frame = 0
 1321              		@ frame_needed = 0, uses_anonymous_args = 0
 1322 0000 08B5     		push	{r3, lr}
 1323              	.LCFI29:
 1324              		.cfi_def_cfa_offset 8
ARM GAS  C:\Users\tijsv\AppData\Local\Temp\cckp8poJ.s 			page 33


 1325              		.cfi_offset 3, -8
 1326              		.cfi_offset 14, -4
 396:../../../core/platform/octa/src/octa.c ****     OCTA_DeInitialize_Common_Peripherals();
 1327              		.loc 1 396 5 view .LVU255
 1328 0002 FFF7FEFF 		bl	OCTA_DeInitialize_Common_Peripherals
 1329              	.LVL89:
 397:../../../core/platform/octa/src/octa.c **** 
 398:../../../core/platform/octa/src/octa.c ****     //app specific deinit
 399:../../../core/platform/octa/src/octa.c ****     if(DeInit_Application_Function)
 1330              		.loc 1 399 5 view .LVU256
 1331              		.loc 1 399 8 is_stmt 0 view .LVU257
 1332 0006 024B     		ldr	r3, .L70
 1333 0008 1B68     		ldr	r3, [r3]
 1334              		.loc 1 399 7 view .LVU258
 1335 000a 03B1     		cbz	r3, .L67
 400:../../../core/platform/octa/src/octa.c ****     {
 401:../../../core/platform/octa/src/octa.c ****         DeInit_Application_Function();
 1336              		.loc 1 401 9 is_stmt 1 view .LVU259
 1337 000c 9847     		blx	r3
 1338              	.LVL90:
 1339              	.L67:
 402:../../../core/platform/octa/src/octa.c ****     }
 403:../../../core/platform/octa/src/octa.c **** }
 1340              		.loc 1 403 1 is_stmt 0 view .LVU260
 1341 000e 08BD     		pop	{r3, pc}
 1342              	.L71:
 1343              		.align	2
 1344              	.L70:
 1345 0010 00000000 		.word	.LANCHOR1
 1346              		.cfi_endproc
 1347              	.LFE146:
 1349              		.section	.text.ReInitialize_Platform,"ax",%progbits
 1350              		.align	1
 1351              		.global	ReInitialize_Platform
 1352              		.syntax unified
 1353              		.thumb
 1354              		.thumb_func
 1355              		.fpu fpv4-sp-d16
 1357              	ReInitialize_Platform:
 1358              	.LFB147:
 404:../../../core/platform/octa/src/octa.c **** 
 405:../../../core/platform/octa/src/octa.c **** void ReInitialize_Platform(void)
 406:../../../core/platform/octa/src/octa.c **** {
 1359              		.loc 1 406 1 is_stmt 1 view -0
 1360              		.cfi_startproc
 1361              		@ args = 0, pretend = 0, frame = 0
 1362              		@ frame_needed = 0, uses_anonymous_args = 0
 1363 0000 08B5     		push	{r3, lr}
 1364              	.LCFI30:
 1365              		.cfi_def_cfa_offset 8
 1366              		.cfi_offset 3, -8
 1367              		.cfi_offset 14, -4
 407:../../../core/platform/octa/src/octa.c ****     OCTA_ReInitialize_Common_Peripherals();
 1368              		.loc 1 407 5 view .LVU262
 1369 0002 FFF7FEFF 		bl	OCTA_ReInitialize_Common_Peripherals
 1370              	.LVL91:
 408:../../../core/platform/octa/src/octa.c ****     
ARM GAS  C:\Users\tijsv\AppData\Local\Temp\cckp8poJ.s 			page 34


 409:../../../core/platform/octa/src/octa.c ****     //app specific reinit
 410:../../../core/platform/octa/src/octa.c ****     if(ReInit_Application_Function)
 1371              		.loc 1 410 5 view .LVU263
 1372              		.loc 1 410 8 is_stmt 0 view .LVU264
 1373 0006 024B     		ldr	r3, .L75
 1374 0008 1B68     		ldr	r3, [r3]
 1375              		.loc 1 410 7 view .LVU265
 1376 000a 03B1     		cbz	r3, .L72
 411:../../../core/platform/octa/src/octa.c ****     {
 412:../../../core/platform/octa/src/octa.c ****         ReInit_Application_Function();
 1377              		.loc 1 412 9 is_stmt 1 view .LVU266
 1378 000c 9847     		blx	r3
 1379              	.LVL92:
 1380              	.L72:
 413:../../../core/platform/octa/src/octa.c ****     }
 414:../../../core/platform/octa/src/octa.c **** }
 1381              		.loc 1 414 1 is_stmt 0 view .LVU267
 1382 000e 08BD     		pop	{r3, pc}
 1383              	.L76:
 1384              		.align	2
 1385              	.L75:
 1386 0010 00000000 		.word	.LANCHOR2
 1387              		.cfi_endproc
 1388              	.LFE147:
 1390              		.section	.text.set_Application_DeInit_Function,"ax",%progbits
 1391              		.align	1
 1392              		.global	set_Application_DeInit_Function
 1393              		.syntax unified
 1394              		.thumb
 1395              		.thumb_func
 1396              		.fpu fpv4-sp-d16
 1398              	set_Application_DeInit_Function:
 1399              	.LVL93:
 1400              	.LFB148:
 415:../../../core/platform/octa/src/octa.c **** 
 416:../../../core/platform/octa/src/octa.c **** void set_Application_DeInit_Function(void (*func))
 417:../../../core/platform/octa/src/octa.c **** {
 1401              		.loc 1 417 1 is_stmt 1 view -0
 1402              		.cfi_startproc
 1403              		@ args = 0, pretend = 0, frame = 0
 1404              		@ frame_needed = 0, uses_anonymous_args = 0
 1405              		@ link register save eliminated.
 418:../../../core/platform/octa/src/octa.c ****     DeInit_Application_Function = func;
 1406              		.loc 1 418 5 view .LVU269
 1407              		.loc 1 418 33 is_stmt 0 view .LVU270
 1408 0000 014B     		ldr	r3, .L78
 1409 0002 1860     		str	r0, [r3]
 419:../../../core/platform/octa/src/octa.c **** }
 1410              		.loc 1 419 1 view .LVU271
 1411 0004 7047     		bx	lr
 1412              	.L79:
 1413 0006 00BF     		.align	2
 1414              	.L78:
 1415 0008 00000000 		.word	.LANCHOR1
 1416              		.cfi_endproc
 1417              	.LFE148:
 1419              		.section	.text.set_Application_ReInit_Function,"ax",%progbits
ARM GAS  C:\Users\tijsv\AppData\Local\Temp\cckp8poJ.s 			page 35


 1420              		.align	1
 1421              		.global	set_Application_ReInit_Function
 1422              		.syntax unified
 1423              		.thumb
 1424              		.thumb_func
 1425              		.fpu fpv4-sp-d16
 1427              	set_Application_ReInit_Function:
 1428              	.LVL94:
 1429              	.LFB149:
 420:../../../core/platform/octa/src/octa.c **** void set_Application_ReInit_Function(void (*func))
 421:../../../core/platform/octa/src/octa.c **** {
 1430              		.loc 1 421 1 is_stmt 1 view -0
 1431              		.cfi_startproc
 1432              		@ args = 0, pretend = 0, frame = 0
 1433              		@ frame_needed = 0, uses_anonymous_args = 0
 1434              		@ link register save eliminated.
 422:../../../core/platform/octa/src/octa.c ****     ReInit_Application_Function = func;
 1435              		.loc 1 422 5 view .LVU273
 1436              		.loc 1 422 33 is_stmt 0 view .LVU274
 1437 0000 014B     		ldr	r3, .L81
 1438 0002 1860     		str	r0, [r3]
 423:../../../core/platform/octa/src/octa.c **** }...
 1439              		.loc 1 423 1 view .LVU275
 1440 0004 7047     		bx	lr
 1441              	.L82:
 1442 0006 00BF     		.align	2
 1443              	.L81:
 1444 0008 00000000 		.word	.LANCHOR2
 1445              		.cfi_endproc
 1446              	.LFE149:
 1448              		.comm	P3_header,44,4
 1449              		.comm	P2_header,44,4
 1450              		.comm	P1_header,44,4
 1451              		.comm	stackversion_patch,1,1
 1452              		.comm	stackversion_minor,1,1
 1453              		.comm	stackversion_major,1,1
 1454              		.comm	appversion_patch,1,1
 1455              		.comm	appversion_minor,1,1
 1456              		.comm	appversion_major,1,1
 1457              		.comm	short_UID,8,8
 1458              		.comm	hard_reset,1,1
 1459              		.comm	wd_reset,1,1
 1460              		.comm	octa_uid,8,8
 1461              		.comm	float_union,4,4
 1462              		.comm	uint16LittleEndian,2,4
 1463              		.comm	int16LittleEndian,2,4
 1464              		.comm	uint32LittleEndian,4,4
 1465              		.comm	int32LittleEndian,4,4
 1466              		.comm	rtosprintHandle,4,4
 1467              		.comm	hrtc,36,4
 1468              		.comm	FLASH_SPI,100,4
 1469              		.comm	P3_SPI,100,4
 1470              		.comm	P2_SPI,100,4
 1471              		.comm	P1_SPI,100,4
 1472              		.comm	P3_I2C,76,4
 1473              		.comm	P2_I2C,76,4
 1474              		.comm	P1_I2C,76,4
ARM GAS  C:\Users\tijsv\AppData\Local\Temp\cckp8poJ.s 			page 36


 1475              		.comm	common_I2C,76,4
 1476              		.comm	P3_UART,120,4
 1477              		.comm	P2_UART,120,4
 1478              		.comm	P1_UART,120,4
 1479              		.comm	FTDI_UART,120,4
 1480              		.comm	BLE_UART,120,4
 1481              		.comm	USB_UART,120,4
 1482              		.comm	hiwdg,16,4
 1483              		.comm	P3_DIO6,8,4
 1484              		.comm	P3_DIO5,8,4
 1485              		.comm	P3_DIO4,8,4
 1486              		.comm	P3_DIO3,8,4
 1487              		.comm	P3_DIO2,8,4
 1488              		.comm	P3_DIO1,8,4
 1489              		.comm	P2_DIO6,8,4
 1490              		.comm	P2_DIO5,8,4
 1491              		.comm	P2_DIO4,8,4
 1492              		.comm	P2_DIO3,8,4
 1493              		.comm	P2_DIO2,8,4
 1494              		.comm	P2_DIO1,8,4
 1495              		.comm	P1_DIO6,8,4
 1496              		.comm	P1_DIO5,8,4
 1497              		.comm	P1_DIO4,8,4
 1498              		.comm	P1_DIO3,8,4
 1499              		.comm	P1_DIO2,8,4
 1500              		.comm	P1_DIO1,8,4
 1501              		.comm	htim6,64,4
 1502              		.comm	htim1,64,4
 1503              		.section	.bss.DeInit_Application_Function,"aw",%nobits
 1504              		.align	2
 1505              		.set	.LANCHOR1,. + 0
 1508              	DeInit_Application_Function:
 1509 0000 00000000 		.space	4
 1510              		.section	.bss.ReInit_Application_Function,"aw",%nobits
 1511              		.align	2
 1512              		.set	.LANCHOR2,. + 0
 1515              	ReInit_Application_Function:
 1516 0000 00000000 		.space	4
 1517              		.section	.bss.buf.11706,"aw",%nobits
 1518              		.align	2
 1519              		.set	.LANCHOR0,. + 0
 1522              	buf.11706:
 1523 0000 00000000 		.space	34
 1523      00000000 
 1523      00000000 
 1523      00000000 
 1523      00000000 
 1524              		.weak	SystemClock_Config
 1525              		.text
 1526              	.Letext0:
 1527              		.file 2 "c:\\program files (x86)\\gnu tools arm embedded\\9 2019-q4-major\\arm-none-eabi\\include\
 1528              		.file 3 "c:\\program files (x86)\\gnu tools arm embedded\\9 2019-q4-major\\arm-none-eabi\\include\
 1529              		.file 4 "../../../core/ST/CMSIS/Include/core_cm4.h"
 1530              		.file 5 "../../../core/ST/CMSIS/Device/ST/STM32L4xx/Include/system_stm32l4xx.h"
 1531              		.file 6 "../../../core/ST/CMSIS/Device/ST/STM32L4xx/Include/stm32l496xx.h"
 1532              		.file 7 "../../../core/ST/STM32L4xx_HAL_Driver/Inc/stm32l4xx_hal_def.h"
 1533              		.file 8 "../../../core/ST/STM32L4xx_HAL_Driver/Inc/stm32l4xx_hal_dma.h"
ARM GAS  C:\Users\tijsv\AppData\Local\Temp\cckp8poJ.s 			page 37


 1534              		.file 9 "../../../core/ST/STM32L4xx_HAL_Driver/Inc/stm32l4xx_hal_i2c.h"
 1535              		.file 10 "../../../core/ST/STM32L4xx_HAL_Driver/Inc/stm32l4xx_hal_iwdg.h"
 1536              		.file 11 "../../../core/ST/STM32L4xx_HAL_Driver/Inc/stm32l4xx_hal_rtc.h"
 1537              		.file 12 "../../../core/ST/STM32L4xx_HAL_Driver/Inc/stm32l4xx_hal_spi.h"
 1538              		.file 13 "../../../core/ST/STM32L4xx_HAL_Driver/Inc/stm32l4xx_hal_tim.h"
 1539              		.file 14 "../../../core/ST/STM32L4xx_HAL_Driver/Inc/stm32l4xx_hal_uart.h"
 1540              		.file 15 "../../../core/ST/STM32L4xx_HAL_Driver/Inc/stm32l4xx_hal.h"
 1541              		.file 16 "../../../core/ST/Middlewares/Third_Party/FreeRTOS/Source/include/task.h"
 1542              		.file 17 "../../../core/ST/Middlewares/Third_Party/FreeRTOS/Source/CMSIS_RTOS/cmsis_os.h"
 1543              		.file 18 "../../../core/platform/octa/inc/sysclock.h"
 1544              		.file 19 "../../../core/platform/octa/inc/gpio.h"
 1545              		.file 20 "../../../core/platform/octa/inc/iwdg.h"
 1546              		.file 21 "../../../core/platform/octa/inc/uart.h"
 1547              		.file 22 "../../../core/platform/octa/inc/i2c.h"
 1548              		.file 23 "../../../core/platform/octa/inc/spi.h"
 1549              		.file 24 "../../../core/platform/octa/inc/rtc.h"
 1550              		.file 25 "../../../core/platform/octa/inc/rtosincludes.h"
 1551              		.file 26 "c:\\program files (x86)\\gnu tools arm embedded\\9 2019-q4-major\\arm-none-eabi\\include
 1552              		.file 27 "c:\\program files (x86)\\gnu tools arm embedded\\9 2019-q4-major\\arm-none-eabi\\include
 1553              		.file 28 "c:\\program files (x86)\\gnu tools arm embedded\\9 2019-q4-major\\lib\\gcc\\arm-none-eab
 1554              		.file 29 "c:\\program files (x86)\\gnu tools arm embedded\\9 2019-q4-major\\arm-none-eabi\\include
 1555              		.file 30 "../../../core/platform/common/inc/datatypes.h"
 1556              		.file 31 "../../../core/platform/octa/inc/platform.h"
 1557              		.file 32 "c:\\program files (x86)\\gnu tools arm embedded\\9 2019-q4-major\\arm-none-eabi\\include
 1558              		.file 33 "../../../core/ST/STM32L4xx_HAL_Driver/Inc/stm32l4xx_hal_gpio.h"
 1559              		.file 34 "../../../core/platform/common/inc/print.h"
 1560              		.file 35 "<built-in>"
ARM GAS  C:\Users\tijsv\AppData\Local\Temp\cckp8poJ.s 			page 38

