ARM GAS  C:\Users\tijsv\AppData\Local\Temp\ccDyLCdQ.s 			page 1


   1              		.cpu cortex-m4
   2              		.eabi_attribute 27, 1
   3              		.eabi_attribute 28, 1
   4              		.eabi_attribute 20, 1
   5              		.eabi_attribute 21, 1
   6              		.eabi_attribute 23, 3
   7              		.eabi_attribute 24, 1
   8              		.eabi_attribute 25, 1
   9              		.eabi_attribute 26, 1
  10              		.eabi_attribute 30, 1
  11              		.eabi_attribute 34, 1
  12              		.eabi_attribute 18, 4
  13              		.file	"octa-flash.c"
  14              		.text
  15              	.Ltext0:
  16              		.cfi_sections	.debug_frame
  17              		.section	.text.OCTA_FLASH_Enable,"ax",%progbits
  18              		.align	1
  19              		.global	OCTA_FLASH_Enable
  20              		.arch armv7e-m
  21              		.syntax unified
  22              		.thumb
  23              		.thumb_func
  24              		.fpu fpv4-sp-d16
  26              	OCTA_FLASH_Enable:
  27              	.LFB147:
  28              		.file 1 "../../../core/drivers/octa-flash/src/octa-flash.c"
   1:../../../core/drivers/octa-flash/src/octa-flash.c **** #include "octa-flash.h"
   2:../../../core/drivers/octa-flash/src/octa-flash.c **** #include "platform.h"
   3:../../../core/drivers/octa-flash/src/octa-flash.c **** 
   4:../../../core/drivers/octa-flash/src/octa-flash.c **** #define SPI_WRDI_CMD 0x04 // Write disable
   5:../../../core/drivers/octa-flash/src/octa-flash.c **** #define SPI_RDSR_CMD 0x05 // Read Status Register
   6:../../../core/drivers/octa-flash/src/octa-flash.c **** #define SPI_RDCR_CMD 0x35 // Read Status Register
   7:../../../core/drivers/octa-flash/src/octa-flash.c **** #define SPI_WREN_CMD 0x06 // Write enable
   8:../../../core/drivers/octa-flash/src/octa-flash.c **** 
   9:../../../core/drivers/octa-flash/src/octa-flash.c **** #define SPI_PP_4B_CMD 0x12   //Page Program (4-byte address). Enables writing
  10:../../../core/drivers/octa-flash/src/octa-flash.c **** #define SPI_READ_4B_CMD 0x13 //Read (4-byte Address)
  11:../../../core/drivers/octa-flash/src/octa-flash.c **** 
  12:../../../core/drivers/octa-flash/src/octa-flash.c **** #define SPI_BE_CMD 0x60 //Bulk erase
  13:../../../core/drivers/octa-flash/src/octa-flash.c **** #define SPI_SE256KB_CMD 0xDC //Sector erase
  14:../../../core/drivers/octa-flash/src/octa-flash.c **** #define SPI_SE4KB_CMD 0x20
  15:../../../core/drivers/octa-flash/src/octa-flash.c **** 
  16:../../../core/drivers/octa-flash/src/octa-flash.c **** #define SPI_EN4B_CMD 0xB7
  17:../../../core/drivers/octa-flash/src/octa-flash.c **** 
  18:../../../core/drivers/octa-flash/src/octa-flash.c **** #define WRITE_IN_PROGRESS_MASK 0x01 //Bit 0 of RDSR is "Write in Progress"
  19:../../../core/drivers/octa-flash/src/octa-flash.c **** 
  20:../../../core/drivers/octa-flash/src/octa-flash.c **** #define SPI_WAIT 10
  21:../../../core/drivers/octa-flash/src/octa-flash.c **** 
  22:../../../core/drivers/octa-flash/src/octa-flash.c **** uint32_t mCurrentReadAddress;
  23:../../../core/drivers/octa-flash/src/octa-flash.c **** uint32_t mCurrentWriteAddress;
  24:../../../core/drivers/octa-flash/src/octa-flash.c **** uint8_t  mMemPage[OCTA_FLASH_PAGE_SIZE];
  25:../../../core/drivers/octa-flash/src/octa-flash.c **** uint16_t mMemPageIndex;
  26:../../../core/drivers/octa-flash/src/octa-flash.c **** uint8_t _initialised;
  27:../../../core/drivers/octa-flash/src/octa-flash.c **** 
  28:../../../core/drivers/octa-flash/src/octa-flash.c **** //One because it's only used to read a register
  29:../../../core/drivers/octa-flash/src/octa-flash.c **** uint8_t rxData[1];
  30:../../../core/drivers/octa-flash/src/octa-flash.c **** //Five, because the max amount of bytes is 5, in send4BCommand
ARM GAS  C:\Users\tijsv\AppData\Local\Temp\ccDyLCdQ.s 			page 2


  31:../../../core/drivers/octa-flash/src/octa-flash.c **** uint8_t txData[5];
  32:../../../core/drivers/octa-flash/src/octa-flash.c **** 
  33:../../../core/drivers/octa-flash/src/octa-flash.c **** SPI_HandleTypeDef *flashSPI;
  34:../../../core/drivers/octa-flash/src/octa-flash.c **** 
  35:../../../core/drivers/octa-flash/src/octa-flash.c **** /**
  36:../../../core/drivers/octa-flash/src/octa-flash.c ****     * \brief   Initializes the OCTA_FLASH driver.
  37:../../../core/drivers/octa-flash/src/octa-flash.c ****     * \returns 0 if init is successful
  38:../../../core/drivers/octa-flash/src/octa-flash.c ****     * \returns E_INIT_FAILED if SPI could not be configured.
  39:../../../core/drivers/octa-flash/src/octa-flash.c ****     */
  40:../../../core/drivers/octa-flash/src/octa-flash.c **** uint8_t OCTA_FLASH_Initialize(SPI_HandleTypeDef *hspi)
  41:../../../core/drivers/octa-flash/src/octa-flash.c **** {
  42:../../../core/drivers/octa-flash/src/octa-flash.c ****     mMemPageIndex = 0;
  43:../../../core/drivers/octa-flash/src/octa-flash.c ****     memset(mMemPage, 0, OCTA_FLASH_PAGE_SIZE);
  44:../../../core/drivers/octa-flash/src/octa-flash.c ****     mCurrentReadAddress = FIRST_FLASH_ADDRESS;
  45:../../../core/drivers/octa-flash/src/octa-flash.c ****     mCurrentWriteAddress = FIRST_FLASH_ADDRESS;
  46:../../../core/drivers/octa-flash/src/octa-flash.c ****     _initialised = 0;
  47:../../../core/drivers/octa-flash/src/octa-flash.c **** 
  48:../../../core/drivers/octa-flash/src/octa-flash.c ****     flashSPI = hspi;
  49:../../../core/drivers/octa-flash/src/octa-flash.c **** 
  50:../../../core/drivers/octa-flash/src/octa-flash.c ****     //set CS pin to High (== disable flash, will be enabled when needed)
  51:../../../core/drivers/octa-flash/src/octa-flash.c ****     OCTA_FLASH_Disable();
  52:../../../core/drivers/octa-flash/src/octa-flash.c ****     
  53:../../../core/drivers/octa-flash/src/octa-flash.c ****     //disable WP and HOLD
  54:../../../core/drivers/octa-flash/src/octa-flash.c ****     HAL_GPIO_WritePin(OCTA_FLASH_WP_Port, OCTA_FLASH_WP_Pin, GPIO_PIN_SET);
  55:../../../core/drivers/octa-flash/src/octa-flash.c ****     HAL_GPIO_WritePin(OCTA_FLASH_HOLD_Port, OCTA_FLASH_HOLD_Pin, GPIO_PIN_SET);
  56:../../../core/drivers/octa-flash/src/octa-flash.c **** 
  57:../../../core/drivers/octa-flash/src/octa-flash.c ****     #ifdef platform_octa_stm
  58:../../../core/drivers/octa-flash/src/octa-flash.c ****         printINF("MX25L512: 512Mb (64MB) Flash, first 4kB sector reserved for configuration\r\n");
  59:../../../core/drivers/octa-flash/src/octa-flash.c ****         printDBG("Entering 4B mode\r\n");
  60:../../../core/drivers/octa-flash/src/octa-flash.c ****         if(OCTA_FLASH_Enter_4B_Mode()!= OCTA_FLASH_OK)
  61:../../../core/drivers/octa-flash/src/octa-flash.c ****             printERR("enter 4B mode NOK\r\n");
  62:../../../core/drivers/octa-flash/src/octa-flash.c ****     #else
  63:../../../core/drivers/octa-flash/src/octa-flash.c ****         printINF("S25FL256: 256Mb (32MB) Flash, first 4kB sector reserved for configuration\r\n");
  64:../../../core/drivers/octa-flash/src/octa-flash.c ****     #endif
  65:../../../core/drivers/octa-flash/src/octa-flash.c ****     #ifdef platform_octa_stm_mini
  66:../../../core/drivers/octa-flash/src/octa-flash.c ****         if(OCTA_FLASH_Enter_4B_Mode()!= OCTA_FLASH_OK)
  67:../../../core/drivers/octa-flash/src/octa-flash.c ****             printERR("enter 4B mode NOK\r\n");
  68:../../../core/drivers/octa-flash/src/octa-flash.c ****     #endif
  69:../../../core/drivers/octa-flash/src/octa-flash.c ****     printINF("Max page number: %d, page size: %d, start adr: %d, last adr: %d, pages/4kbsector: %d\
  70:../../../core/drivers/octa-flash/src/octa-flash.c **** 
  71:../../../core/drivers/octa-flash/src/octa-flash.c ****     _initialised = 1;
  72:../../../core/drivers/octa-flash/src/octa-flash.c **** 
  73:../../../core/drivers/octa-flash/src/octa-flash.c ****     return _initialised;
  74:../../../core/drivers/octa-flash/src/octa-flash.c **** }
  75:../../../core/drivers/octa-flash/src/octa-flash.c **** 
  76:../../../core/drivers/octa-flash/src/octa-flash.c **** void OCTA_FLASH_ReInitialize(void)
  77:../../../core/drivers/octa-flash/src/octa-flash.c **** {    
  78:../../../core/drivers/octa-flash/src/octa-flash.c ****     //set CS pin to High (== disable flash, will be enabled when needed)
  79:../../../core/drivers/octa-flash/src/octa-flash.c ****     OCTA_FLASH_Disable();
  80:../../../core/drivers/octa-flash/src/octa-flash.c **** 
  81:../../../core/drivers/octa-flash/src/octa-flash.c ****     //disable WP and HOLD
  82:../../../core/drivers/octa-flash/src/octa-flash.c ****     HAL_GPIO_WritePin(OCTA_FLASH_WP_Port, OCTA_FLASH_WP_Pin, GPIO_PIN_SET);
  83:../../../core/drivers/octa-flash/src/octa-flash.c ****     HAL_GPIO_WritePin(OCTA_FLASH_HOLD_Port, OCTA_FLASH_HOLD_Pin, GPIO_PIN_SET);
  84:../../../core/drivers/octa-flash/src/octa-flash.c **** 
  85:../../../core/drivers/octa-flash/src/octa-flash.c ****     #ifdef platform_octa_stm
  86:../../../core/drivers/octa-flash/src/octa-flash.c ****         printDBG("Entering 4B mode\r\n");
  87:../../../core/drivers/octa-flash/src/octa-flash.c ****         if(OCTA_FLASH_Enter_4B_Mode()!= OCTA_FLASH_OK)
ARM GAS  C:\Users\tijsv\AppData\Local\Temp\ccDyLCdQ.s 			page 3


  88:../../../core/drivers/octa-flash/src/octa-flash.c ****             printERR("enter 4B mode NOK\r\n");
  89:../../../core/drivers/octa-flash/src/octa-flash.c ****     #endif
  90:../../../core/drivers/octa-flash/src/octa-flash.c **** }
  91:../../../core/drivers/octa-flash/src/octa-flash.c **** 
  92:../../../core/drivers/octa-flash/src/octa-flash.c **** void OCTA_FLASH_Enter_4B_Mode(void)
  93:../../../core/drivers/octa-flash/src/octa-flash.c **** {
  94:../../../core/drivers/octa-flash/src/octa-flash.c ****     HAL_Delay(SPI_WAIT);
  95:../../../core/drivers/octa-flash/src/octa-flash.c **** 
  96:../../../core/drivers/octa-flash/src/octa-flash.c ****     if (OCTA_FLASH_isWriteInProgress())
  97:../../../core/drivers/octa-flash/src/octa-flash.c ****     {
  98:../../../core/drivers/octa-flash/src/octa-flash.c ****         return E_WRITE_IN_PROGRESS;        
  99:../../../core/drivers/octa-flash/src/octa-flash.c ****     }
 100:../../../core/drivers/octa-flash/src/octa-flash.c **** 
 101:../../../core/drivers/octa-flash/src/octa-flash.c ****     //Enable 4B mode
 102:../../../core/drivers/octa-flash/src/octa-flash.c ****     if (OCTA_FLASH_sendCommand(SPI_EN4B_CMD) == E_SPI_ERROR)
 103:../../../core/drivers/octa-flash/src/octa-flash.c ****     {
 104:../../../core/drivers/octa-flash/src/octa-flash.c ****         return E_SPI_ERROR;
 105:../../../core/drivers/octa-flash/src/octa-flash.c ****     }
 106:../../../core/drivers/octa-flash/src/octa-flash.c **** 
 107:../../../core/drivers/octa-flash/src/octa-flash.c ****     return OCTA_FLASH_OK;
 108:../../../core/drivers/octa-flash/src/octa-flash.c **** 
 109:../../../core/drivers/octa-flash/src/octa-flash.c **** }
 110:../../../core/drivers/octa-flash/src/octa-flash.c **** 
 111:../../../core/drivers/octa-flash/src/octa-flash.c **** /**
 112:../../../core/drivers/octa-flash/src/octa-flash.c ****     * \brief    Sets the read and write address to the start of this page. The max value is defined
 113:../../../core/drivers/octa-flash/src/octa-flash.c ****     * \param    aPageNr      The 256 byte page you want to start reading or writing from.
 114:../../../core/drivers/octa-flash/src/octa-flash.c ****     * \returns  0 if successful
 115:../../../core/drivers/octa-flash/src/octa-flash.c ****     * \returns  E_WRITE_IN_PROGRESS if the flash is performing a write action.
 116:../../../core/drivers/octa-flash/src/octa-flash.c ****     * \returns  E_INVALID_PAGE_NR if aPageNr is invalid.
 117:../../../core/drivers/octa-flash/src/octa-flash.c ****     */
 118:../../../core/drivers/octa-flash/src/octa-flash.c **** int OCTA_FLASH_open(const uint32_t aPageNr)
 119:../../../core/drivers/octa-flash/src/octa-flash.c **** {
 120:../../../core/drivers/octa-flash/src/octa-flash.c ****     HAL_Delay(SPI_WAIT);
 121:../../../core/drivers/octa-flash/src/octa-flash.c **** 
 122:../../../core/drivers/octa-flash/src/octa-flash.c ****     if (OCTA_FLASH_isWriteInProgress())
 123:../../../core/drivers/octa-flash/src/octa-flash.c ****     {
 124:../../../core/drivers/octa-flash/src/octa-flash.c ****         return E_WRITE_IN_PROGRESS;
 125:../../../core/drivers/octa-flash/src/octa-flash.c ****     }
 126:../../../core/drivers/octa-flash/src/octa-flash.c **** 
 127:../../../core/drivers/octa-flash/src/octa-flash.c ****     if (aPageNr > MAX_PAGE_NUMBER)
 128:../../../core/drivers/octa-flash/src/octa-flash.c ****     {
 129:../../../core/drivers/octa-flash/src/octa-flash.c ****         return E_INVALID_PAGE_NR;
 130:../../../core/drivers/octa-flash/src/octa-flash.c ****     }
 131:../../../core/drivers/octa-flash/src/octa-flash.c **** 
 132:../../../core/drivers/octa-flash/src/octa-flash.c ****     uint32_t newAddress = FIRST_FLASH_ADDRESS + aPageNr * (OCTA_FLASH_PAGE_SIZE);
 133:../../../core/drivers/octa-flash/src/octa-flash.c ****     mCurrentReadAddress = newAddress;
 134:../../../core/drivers/octa-flash/src/octa-flash.c ****     mCurrentWriteAddress = newAddress;
 135:../../../core/drivers/octa-flash/src/octa-flash.c **** 
 136:../../../core/drivers/octa-flash/src/octa-flash.c ****     return 0;
 137:../../../core/drivers/octa-flash/src/octa-flash.c **** }
 138:../../../core/drivers/octa-flash/src/octa-flash.c **** 
 139:../../../core/drivers/octa-flash/src/octa-flash.c **** /**
 140:../../../core/drivers/octa-flash/src/octa-flash.c ****     * \brief    Sets the read and write address to the start of this page. The max value is defined
 141:../../../core/drivers/octa-flash/src/octa-flash.c ****     * \param    aPageNr      The 256 byte page you want to start reading or writing from.
 142:../../../core/drivers/octa-flash/src/octa-flash.c ****     * \returns  0 if successful
 143:../../../core/drivers/octa-flash/src/octa-flash.c ****     * \returns  E_WRITE_IN_PROGRESS if the flash is performing a write action.
 144:../../../core/drivers/octa-flash/src/octa-flash.c ****     * \returns  E_INVALID_PAGE_NR if aPageNr is invalid.
ARM GAS  C:\Users\tijsv\AppData\Local\Temp\ccDyLCdQ.s 			page 4


 145:../../../core/drivers/octa-flash/src/octa-flash.c ****     */
 146:../../../core/drivers/octa-flash/src/octa-flash.c **** int OCTA_FLASH_openConfigSector(void)
 147:../../../core/drivers/octa-flash/src/octa-flash.c **** {
 148:../../../core/drivers/octa-flash/src/octa-flash.c ****     HAL_Delay(SPI_WAIT);
 149:../../../core/drivers/octa-flash/src/octa-flash.c **** 
 150:../../../core/drivers/octa-flash/src/octa-flash.c ****     if (OCTA_FLASH_isWriteInProgress())
 151:../../../core/drivers/octa-flash/src/octa-flash.c ****     {
 152:../../../core/drivers/octa-flash/src/octa-flash.c ****         return E_WRITE_IN_PROGRESS;
 153:../../../core/drivers/octa-flash/src/octa-flash.c ****     }
 154:../../../core/drivers/octa-flash/src/octa-flash.c **** 
 155:../../../core/drivers/octa-flash/src/octa-flash.c ****     uint32_t newAddress = 0;
 156:../../../core/drivers/octa-flash/src/octa-flash.c ****     mCurrentReadAddress = newAddress;
 157:../../../core/drivers/octa-flash/src/octa-flash.c ****     mCurrentWriteAddress = newAddress;
 158:../../../core/drivers/octa-flash/src/octa-flash.c **** 
 159:../../../core/drivers/octa-flash/src/octa-flash.c ****     return 0;
 160:../../../core/drivers/octa-flash/src/octa-flash.c **** }
 161:../../../core/drivers/octa-flash/src/octa-flash.c **** 
 162:../../../core/drivers/octa-flash/src/octa-flash.c **** /**
 163:../../../core/drivers/octa-flash/src/octa-flash.c ****     * \brief    Reads the given number of bytes from flash.
 164:../../../core/drivers/octa-flash/src/octa-flash.c ****     * \param    apData     Pointer to the uint8_t array to fill.
 165:../../../core/drivers/octa-flash/src/octa-flash.c ****     * \param    aSize      The number of bytes to be read.
 166:../../../core/drivers/octa-flash/src/octa-flash.c ****     * \returns  the number of bytes read if successful
 167:../../../core/drivers/octa-flash/src/octa-flash.c ****     * \returns  E_WRITE_IN_PROGRESS if the flash is performing a write action.
 168:../../../core/drivers/octa-flash/src/octa-flash.c ****     * \returns  E_SPI_ERROR if something went wrong during SPI communication.
 169:../../../core/drivers/octa-flash/src/octa-flash.c ****     */
 170:../../../core/drivers/octa-flash/src/octa-flash.c **** int OCTA_FLASH_read(uint8_t *apData, const uint32_t aSize)
 171:../../../core/drivers/octa-flash/src/octa-flash.c **** {
 172:../../../core/drivers/octa-flash/src/octa-flash.c **** 
 173:../../../core/drivers/octa-flash/src/octa-flash.c ****     HAL_Delay(SPI_WAIT);
 174:../../../core/drivers/octa-flash/src/octa-flash.c **** 
 175:../../../core/drivers/octa-flash/src/octa-flash.c ****     if (OCTA_FLASH_isWriteInProgress())
 176:../../../core/drivers/octa-flash/src/octa-flash.c ****     {
 177:../../../core/drivers/octa-flash/src/octa-flash.c ****         return E_WRITE_IN_PROGRESS;
 178:../../../core/drivers/octa-flash/src/octa-flash.c ****     }
 179:../../../core/drivers/octa-flash/src/octa-flash.c **** 
 180:../../../core/drivers/octa-flash/src/octa-flash.c ****     //Starting the read.
 181:../../../core/drivers/octa-flash/src/octa-flash.c ****     int status = 0;
 182:../../../core/drivers/octa-flash/src/octa-flash.c ****     status = OCTA_FLASH_send4BCommand(SPI_READ_4B_CMD, mCurrentReadAddress);
 183:../../../core/drivers/octa-flash/src/octa-flash.c ****     if (status!=0)
 184:../../../core/drivers/octa-flash/src/octa-flash.c ****     {
 185:../../../core/drivers/octa-flash/src/octa-flash.c ****         printDBG("\r\n FLASH read error: %d\r\n", status);
 186:../../../core/drivers/octa-flash/src/octa-flash.c ****         return status;
 187:../../../core/drivers/octa-flash/src/octa-flash.c ****     }
 188:../../../core/drivers/octa-flash/src/octa-flash.c **** 
 189:../../../core/drivers/octa-flash/src/octa-flash.c ****     HAL_SPI_Receive(flashSPI, apData, (uint16_t)aSize, HAL_MAX_DELAY);
 190:../../../core/drivers/octa-flash/src/octa-flash.c **** 
 191:../../../core/drivers/octa-flash/src/octa-flash.c ****     OCTA_FLASH_Disable();
 192:../../../core/drivers/octa-flash/src/octa-flash.c ****     __HAL_SPI_DISABLE(flashSPI);
 193:../../../core/drivers/octa-flash/src/octa-flash.c **** 
 194:../../../core/drivers/octa-flash/src/octa-flash.c ****     return aSize;
 195:../../../core/drivers/octa-flash/src/octa-flash.c **** }
 196:../../../core/drivers/octa-flash/src/octa-flash.c **** 
 197:../../../core/drivers/octa-flash/src/octa-flash.c **** /**
 198:../../../core/drivers/octa-flash/src/octa-flash.c ****     * \brief    Buffers the given array. Once 256 bytes are cached, the data is flushed to flash.
 199:../../../core/drivers/octa-flash/src/octa-flash.c ****     * \param    apData     Pointer to the uint8_t array with data to write.
 200:../../../core/drivers/octa-flash/src/octa-flash.c ****     * \param    aSize      The number of bytes to be written.
 201:../../../core/drivers/octa-flash/src/octa-flash.c ****     * \returns  The number of written bytes.
ARM GAS  C:\Users\tijsv\AppData\Local\Temp\ccDyLCdQ.s 			page 5


 202:../../../core/drivers/octa-flash/src/octa-flash.c ****     * \returns  E_WRITE_IN_PROGRESS if the flash is performing a write action.
 203:../../../core/drivers/octa-flash/src/octa-flash.c ****     * \returns  E_SPI_ERROR if something went wrong during SPI communication.
 204:../../../core/drivers/octa-flash/src/octa-flash.c ****     * \returns  E_LAST_PAGE_WRITTEN if the last block was written and no more data can be buffered.
 205:../../../core/drivers/octa-flash/src/octa-flash.c ****     */
 206:../../../core/drivers/octa-flash/src/octa-flash.c **** int OCTA_FLASH_write(const uint8_t *apData, const uint32_t aSize)
 207:../../../core/drivers/octa-flash/src/octa-flash.c **** {
 208:../../../core/drivers/octa-flash/src/octa-flash.c ****     HAL_Delay(SPI_WAIT);
 209:../../../core/drivers/octa-flash/src/octa-flash.c **** 
 210:../../../core/drivers/octa-flash/src/octa-flash.c ****     if (OCTA_FLASH_isWriteInProgress())
 211:../../../core/drivers/octa-flash/src/octa-flash.c ****     {
 212:../../../core/drivers/octa-flash/src/octa-flash.c ****         return E_WRITE_IN_PROGRESS;
 213:../../../core/drivers/octa-flash/src/octa-flash.c ****     }
 214:../../../core/drivers/octa-flash/src/octa-flash.c **** 
 215:../../../core/drivers/octa-flash/src/octa-flash.c ****     if (mCurrentWriteAddress > LAST_FLASH_ADDRESS)
 216:../../../core/drivers/octa-flash/src/octa-flash.c ****     {
 217:../../../core/drivers/octa-flash/src/octa-flash.c ****         return E_LAST_PAGE_WRITTEN;
 218:../../../core/drivers/octa-flash/src/octa-flash.c ****     }
 219:../../../core/drivers/octa-flash/src/octa-flash.c **** 
 220:../../../core/drivers/octa-flash/src/octa-flash.c ****     uint32_t bytesLeftToWrite = aSize;
 221:../../../core/drivers/octa-flash/src/octa-flash.c **** 
 222:../../../core/drivers/octa-flash/src/octa-flash.c ****     while (mMemPageIndex + bytesLeftToWrite >= OCTA_FLASH_PAGE_SIZE)
 223:../../../core/drivers/octa-flash/src/octa-flash.c ****     {
 224:../../../core/drivers/octa-flash/src/octa-flash.c **** 
 225:../../../core/drivers/octa-flash/src/octa-flash.c ****         //The number of bytes we will add to mMemBlock in this loop
 226:../../../core/drivers/octa-flash/src/octa-flash.c ****         uint32_t bytesToWrite = OCTA_FLASH_PAGE_SIZE - mMemPageIndex;
 227:../../../core/drivers/octa-flash/src/octa-flash.c **** 
 228:../../../core/drivers/octa-flash/src/octa-flash.c ****         //Filling the remainder of the buffer
 229:../../../core/drivers/octa-flash/src/octa-flash.c ****         memcpy(&mMemPage[mMemPageIndex], apData, OCTA_FLASH_PAGE_SIZE);
 230:../../../core/drivers/octa-flash/src/octa-flash.c **** 
 231:../../../core/drivers/octa-flash/src/octa-flash.c ****         int flushedBytes = OCTA_FLASH_flush();
 232:../../../core/drivers/octa-flash/src/octa-flash.c **** 
 233:../../../core/drivers/octa-flash/src/octa-flash.c ****         //And writing the block of FLASH_BLOCK_SIZE bytes. This also clears mMemBlock and mMemBlock
 234:../../../core/drivers/octa-flash/src/octa-flash.c ****         if (flushedBytes < 0)
 235:../../../core/drivers/octa-flash/src/octa-flash.c ****         {
 236:../../../core/drivers/octa-flash/src/octa-flash.c ****             //Flush failed
 237:../../../core/drivers/octa-flash/src/octa-flash.c ****             printDBG("Flush failed\r\n");
 238:../../../core/drivers/octa-flash/src/octa-flash.c ****             return flushedBytes;
 239:../../../core/drivers/octa-flash/src/octa-flash.c ****         }
 240:../../../core/drivers/octa-flash/src/octa-flash.c **** 
 241:../../../core/drivers/octa-flash/src/octa-flash.c ****         //Moving the pointer
 242:../../../core/drivers/octa-flash/src/octa-flash.c ****         apData += bytesToWrite;
 243:../../../core/drivers/octa-flash/src/octa-flash.c ****         bytesLeftToWrite -= bytesToWrite;
 244:../../../core/drivers/octa-flash/src/octa-flash.c ****     }
 245:../../../core/drivers/octa-flash/src/octa-flash.c **** 
 246:../../../core/drivers/octa-flash/src/octa-flash.c ****     if (mCurrentWriteAddress > LAST_FLASH_ADDRESS)
 247:../../../core/drivers/octa-flash/src/octa-flash.c ****     {
 248:../../../core/drivers/octa-flash/src/octa-flash.c ****         //Flash is full, no more buffering.
 249:../../../core/drivers/octa-flash/src/octa-flash.c ****         return E_LAST_PAGE_WRITTEN;
 250:../../../core/drivers/octa-flash/src/octa-flash.c ****     }
 251:../../../core/drivers/octa-flash/src/octa-flash.c ****     else if (bytesLeftToWrite > 0)
 252:../../../core/drivers/octa-flash/src/octa-flash.c ****     {
 253:../../../core/drivers/octa-flash/src/octa-flash.c ****         //We still have some bytes left to cache.
 254:../../../core/drivers/octa-flash/src/octa-flash.c ****         memcpy(&mMemPage[mMemPageIndex], apData, bytesLeftToWrite);
 255:../../../core/drivers/octa-flash/src/octa-flash.c ****         bytesLeftToWrite = 0;
 256:../../../core/drivers/octa-flash/src/octa-flash.c ****     }
 257:../../../core/drivers/octa-flash/src/octa-flash.c **** 
 258:../../../core/drivers/octa-flash/src/octa-flash.c ****     return (aSize-bytesLeftToWrite);
ARM GAS  C:\Users\tijsv\AppData\Local\Temp\ccDyLCdQ.s 			page 6


 259:../../../core/drivers/octa-flash/src/octa-flash.c **** }
 260:../../../core/drivers/octa-flash/src/octa-flash.c **** 
 261:../../../core/drivers/octa-flash/src/octa-flash.c **** /**
 262:../../../core/drivers/octa-flash/src/octa-flash.c ****     * \brief    Returns the state of the write in process status bit.
 263:../../../core/drivers/octa-flash/src/octa-flash.c ****     * \returns  true is the flash is performing a write action.
 264:../../../core/drivers/octa-flash/src/octa-flash.c ****     */
 265:../../../core/drivers/octa-flash/src/octa-flash.c **** uint8_t OCTA_FLASH_isWriteInProgress(void)
 266:../../../core/drivers/octa-flash/src/octa-flash.c **** {
 267:../../../core/drivers/octa-flash/src/octa-flash.c ****     HAL_Delay(SPI_WAIT);
 268:../../../core/drivers/octa-flash/src/octa-flash.c ****     uint8_t status = 0;
 269:../../../core/drivers/octa-flash/src/octa-flash.c ****     if (OCTA_FLASH_readReg(SPI_RDSR_CMD, &status) == 0)
 270:../../../core/drivers/octa-flash/src/octa-flash.c ****     {
 271:../../../core/drivers/octa-flash/src/octa-flash.c ****         return (uint8_t)(status & WRITE_IN_PROGRESS_MASK);
 272:../../../core/drivers/octa-flash/src/octa-flash.c ****     }
 273:../../../core/drivers/octa-flash/src/octa-flash.c **** 
 274:../../../core/drivers/octa-flash/src/octa-flash.c ****     return 0;
 275:../../../core/drivers/octa-flash/src/octa-flash.c **** }
 276:../../../core/drivers/octa-flash/src/octa-flash.c **** 
 277:../../../core/drivers/octa-flash/src/octa-flash.c **** /**
 278:../../../core/drivers/octa-flash/src/octa-flash.c ****     * \brief    Erases the entire flash.
 279:../../../core/drivers/octa-flash/src/octa-flash.c ****                 This method is a write action. Poll with isWriteInProgress()
 280:../../../core/drivers/octa-flash/src/octa-flash.c ****     * \returns  0 if successful
 281:../../../core/drivers/octa-flash/src/octa-flash.c ****     * \returns  E_WRITE_IN_PROGRESS if the flash is performing a write action.
 282:../../../core/drivers/octa-flash/src/octa-flash.c ****     * \returns  E_SPI_ERROR if something went wrong during SPI communication.
 283:../../../core/drivers/octa-flash/src/octa-flash.c ****     */
 284:../../../core/drivers/octa-flash/src/octa-flash.c **** int OCTA_FLASH_eraseFullFlash(void)
 285:../../../core/drivers/octa-flash/src/octa-flash.c **** {
 286:../../../core/drivers/octa-flash/src/octa-flash.c **** 
 287:../../../core/drivers/octa-flash/src/octa-flash.c ****     HAL_Delay(SPI_WAIT);
 288:../../../core/drivers/octa-flash/src/octa-flash.c **** 
 289:../../../core/drivers/octa-flash/src/octa-flash.c ****     if (OCTA_FLASH_isWriteInProgress())
 290:../../../core/drivers/octa-flash/src/octa-flash.c ****     {
 291:../../../core/drivers/octa-flash/src/octa-flash.c ****         return E_WRITE_IN_PROGRESS;        
 292:../../../core/drivers/octa-flash/src/octa-flash.c ****     }
 293:../../../core/drivers/octa-flash/src/octa-flash.c **** 
 294:../../../core/drivers/octa-flash/src/octa-flash.c ****     //Setting write enable
 295:../../../core/drivers/octa-flash/src/octa-flash.c ****     if (OCTA_FLASH_sendCommand(SPI_WREN_CMD) == E_SPI_ERROR)
 296:../../../core/drivers/octa-flash/src/octa-flash.c ****     {
 297:../../../core/drivers/octa-flash/src/octa-flash.c ****         return E_SPI_ERROR;
 298:../../../core/drivers/octa-flash/src/octa-flash.c ****     }
 299:../../../core/drivers/octa-flash/src/octa-flash.c **** 
 300:../../../core/drivers/octa-flash/src/octa-flash.c ****     //The actual bulk erase
 301:../../../core/drivers/octa-flash/src/octa-flash.c ****     if (OCTA_FLASH_sendCommand(SPI_BE_CMD) == E_SPI_ERROR)
 302:../../../core/drivers/octa-flash/src/octa-flash.c ****     {
 303:../../../core/drivers/octa-flash/src/octa-flash.c ****         return E_SPI_ERROR;
 304:../../../core/drivers/octa-flash/src/octa-flash.c ****     }
 305:../../../core/drivers/octa-flash/src/octa-flash.c **** 
 306:../../../core/drivers/octa-flash/src/octa-flash.c ****     //And disabling write again.
 307:../../../core/drivers/octa-flash/src/octa-flash.c ****     if (OCTA_FLASH_sendCommand(SPI_WRDI_CMD) == E_SPI_ERROR)
 308:../../../core/drivers/octa-flash/src/octa-flash.c ****     {
 309:../../../core/drivers/octa-flash/src/octa-flash.c ****         return E_SPI_ERROR;
 310:../../../core/drivers/octa-flash/src/octa-flash.c ****     }
 311:../../../core/drivers/octa-flash/src/octa-flash.c **** 
 312:../../../core/drivers/octa-flash/src/octa-flash.c ****     return 0;
 313:../../../core/drivers/octa-flash/src/octa-flash.c **** }
 314:../../../core/drivers/octa-flash/src/octa-flash.c **** 
 315:../../../core/drivers/octa-flash/src/octa-flash.c **** /**
ARM GAS  C:\Users\tijsv\AppData\Local\Temp\ccDyLCdQ.s 			page 7


 316:../../../core/drivers/octa-flash/src/octa-flash.c ****     * \brief    Erases 256kb of data, starting from the given block.
 317:../../../core/drivers/octa-flash/src/octa-flash.c ****                 This method is a write action. Poll with isWriteInProgress()
 318:../../../core/drivers/octa-flash/src/octa-flash.c ****     * \param    aPageNr   The block you want to start erasing from.
 319:../../../core/drivers/octa-flash/src/octa-flash.c ****     * \returns  0 if successful
 320:../../../core/drivers/octa-flash/src/octa-flash.c ****     * \returns  E_WRITE_IN_PROGRESS if the flash is performing a write action.
 321:../../../core/drivers/octa-flash/src/octa-flash.c ****     * \returns  E_INVALID_PAGE_NR if aPageNr is invalid.
 322:../../../core/drivers/octa-flash/src/octa-flash.c ****     * \returns  E_SPI_ERROR if something went wrong during SPI communication.
 323:../../../core/drivers/octa-flash/src/octa-flash.c ****     */
 324:../../../core/drivers/octa-flash/src/octa-flash.c **** int OCTA_FLASH_erase265KBSectorFromPage(const uint32_t aPageNr)
 325:../../../core/drivers/octa-flash/src/octa-flash.c **** {
 326:../../../core/drivers/octa-flash/src/octa-flash.c **** 
 327:../../../core/drivers/octa-flash/src/octa-flash.c ****     HAL_Delay(SPI_WAIT);
 328:../../../core/drivers/octa-flash/src/octa-flash.c **** 
 329:../../../core/drivers/octa-flash/src/octa-flash.c ****     if (OCTA_FLASH_isWriteInProgress())
 330:../../../core/drivers/octa-flash/src/octa-flash.c ****     {
 331:../../../core/drivers/octa-flash/src/octa-flash.c ****         return E_WRITE_IN_PROGRESS;
 332:../../../core/drivers/octa-flash/src/octa-flash.c ****     }
 333:../../../core/drivers/octa-flash/src/octa-flash.c **** 
 334:../../../core/drivers/octa-flash/src/octa-flash.c ****     if (aPageNr > MAX_PAGE_NUMBER)
 335:../../../core/drivers/octa-flash/src/octa-flash.c ****     {
 336:../../../core/drivers/octa-flash/src/octa-flash.c ****         return E_INVALID_PAGE_NR;
 337:../../../core/drivers/octa-flash/src/octa-flash.c ****     }
 338:../../../core/drivers/octa-flash/src/octa-flash.c **** 
 339:../../../core/drivers/octa-flash/src/octa-flash.c ****     //Setting write enable
 340:../../../core/drivers/octa-flash/src/octa-flash.c ****     if (OCTA_FLASH_sendCommand(SPI_WREN_CMD) == E_SPI_ERROR)
 341:../../../core/drivers/octa-flash/src/octa-flash.c ****     {
 342:../../../core/drivers/octa-flash/src/octa-flash.c ****         return E_SPI_ERROR;
 343:../../../core/drivers/octa-flash/src/octa-flash.c ****     }
 344:../../../core/drivers/octa-flash/src/octa-flash.c **** 
 345:../../../core/drivers/octa-flash/src/octa-flash.c ****     //The actual sector erase
 346:../../../core/drivers/octa-flash/src/octa-flash.c ****     if (OCTA_FLASH_send4BCommand(SPI_SE256KB_CMD, (FIRST_FLASH_ADDRESS + aPageNr * (OCTA_FLASH_PAGE
 347:../../../core/drivers/octa-flash/src/octa-flash.c ****     {
 348:../../../core/drivers/octa-flash/src/octa-flash.c ****         return E_SPI_ERROR;
 349:../../../core/drivers/octa-flash/src/octa-flash.c ****     }
 350:../../../core/drivers/octa-flash/src/octa-flash.c **** 
 351:../../../core/drivers/octa-flash/src/octa-flash.c ****     __HAL_SPI_DISABLE(flashSPI);
 352:../../../core/drivers/octa-flash/src/octa-flash.c ****     OCTA_FLASH_Disable();
 353:../../../core/drivers/octa-flash/src/octa-flash.c **** 
 354:../../../core/drivers/octa-flash/src/octa-flash.c ****     //Disabling write.
 355:../../../core/drivers/octa-flash/src/octa-flash.c ****     if (OCTA_FLASH_sendCommand(SPI_WRDI_CMD) == E_SPI_ERROR)
 356:../../../core/drivers/octa-flash/src/octa-flash.c ****     {
 357:../../../core/drivers/octa-flash/src/octa-flash.c ****         return E_SPI_ERROR;
 358:../../../core/drivers/octa-flash/src/octa-flash.c ****     }
 359:../../../core/drivers/octa-flash/src/octa-flash.c **** 
 360:../../../core/drivers/octa-flash/src/octa-flash.c ****     return 0;
 361:../../../core/drivers/octa-flash/src/octa-flash.c **** }
 362:../../../core/drivers/octa-flash/src/octa-flash.c **** 
 363:../../../core/drivers/octa-flash/src/octa-flash.c **** /**
 364:../../../core/drivers/octa-flash/src/octa-flash.c ****     * \brief    Erases 4kb of data, starting from the given block.
 365:../../../core/drivers/octa-flash/src/octa-flash.c ****                 This method is a write action. Poll with isWriteInProgress()
 366:../../../core/drivers/octa-flash/src/octa-flash.c ****     * \param    aPageNr   The block you want to start erasing from.
 367:../../../core/drivers/octa-flash/src/octa-flash.c ****     * \returns  0 if successful
 368:../../../core/drivers/octa-flash/src/octa-flash.c ****     * \returns  E_WRITE_IN_PROGRESS if the flash is performing a write action.
 369:../../../core/drivers/octa-flash/src/octa-flash.c ****     * \returns  E_INVALID_PAGE_NR if aPageNr is invalid.
 370:../../../core/drivers/octa-flash/src/octa-flash.c ****     * \returns  E_SPI_ERROR if something went wrong during SPI communication.
 371:../../../core/drivers/octa-flash/src/octa-flash.c ****     */
 372:../../../core/drivers/octa-flash/src/octa-flash.c **** int OCTA_FLASH_erase4KBSectorFromPage(const uint32_t aPageNr)
ARM GAS  C:\Users\tijsv\AppData\Local\Temp\ccDyLCdQ.s 			page 8


 373:../../../core/drivers/octa-flash/src/octa-flash.c **** {
 374:../../../core/drivers/octa-flash/src/octa-flash.c **** 
 375:../../../core/drivers/octa-flash/src/octa-flash.c ****     HAL_Delay(SPI_WAIT);
 376:../../../core/drivers/octa-flash/src/octa-flash.c **** 
 377:../../../core/drivers/octa-flash/src/octa-flash.c ****     if (OCTA_FLASH_isWriteInProgress())
 378:../../../core/drivers/octa-flash/src/octa-flash.c ****     {
 379:../../../core/drivers/octa-flash/src/octa-flash.c ****         return E_WRITE_IN_PROGRESS;
 380:../../../core/drivers/octa-flash/src/octa-flash.c ****     }
 381:../../../core/drivers/octa-flash/src/octa-flash.c **** 
 382:../../../core/drivers/octa-flash/src/octa-flash.c ****     if (aPageNr > MAX_PAGE_NUMBER)
 383:../../../core/drivers/octa-flash/src/octa-flash.c ****     {
 384:../../../core/drivers/octa-flash/src/octa-flash.c ****         return E_INVALID_PAGE_NR;
 385:../../../core/drivers/octa-flash/src/octa-flash.c ****     }
 386:../../../core/drivers/octa-flash/src/octa-flash.c **** 
 387:../../../core/drivers/octa-flash/src/octa-flash.c ****     //Setting write enable
 388:../../../core/drivers/octa-flash/src/octa-flash.c ****     if (OCTA_FLASH_sendCommand(SPI_WREN_CMD) == E_SPI_ERROR)
 389:../../../core/drivers/octa-flash/src/octa-flash.c ****     {
 390:../../../core/drivers/octa-flash/src/octa-flash.c ****         return E_SPI_ERROR;
 391:../../../core/drivers/octa-flash/src/octa-flash.c ****     }
 392:../../../core/drivers/octa-flash/src/octa-flash.c **** 
 393:../../../core/drivers/octa-flash/src/octa-flash.c ****     //The actual sector erase
 394:../../../core/drivers/octa-flash/src/octa-flash.c ****     if (OCTA_FLASH_send4BCommand(SPI_SE4KB_CMD, (FIRST_FLASH_ADDRESS + aPageNr * (OCTA_FLASH_PAGE_S
 395:../../../core/drivers/octa-flash/src/octa-flash.c ****     {
 396:../../../core/drivers/octa-flash/src/octa-flash.c ****         return E_SPI_ERROR;
 397:../../../core/drivers/octa-flash/src/octa-flash.c ****     }
 398:../../../core/drivers/octa-flash/src/octa-flash.c **** 
 399:../../../core/drivers/octa-flash/src/octa-flash.c ****     __HAL_SPI_DISABLE(flashSPI);
 400:../../../core/drivers/octa-flash/src/octa-flash.c ****     OCTA_FLASH_Disable();
 401:../../../core/drivers/octa-flash/src/octa-flash.c **** 
 402:../../../core/drivers/octa-flash/src/octa-flash.c ****     //Disabling write.
 403:../../../core/drivers/octa-flash/src/octa-flash.c ****     if (OCTA_FLASH_sendCommand(SPI_WRDI_CMD) == E_SPI_ERROR)
 404:../../../core/drivers/octa-flash/src/octa-flash.c ****     {
 405:../../../core/drivers/octa-flash/src/octa-flash.c ****         return E_SPI_ERROR;
 406:../../../core/drivers/octa-flash/src/octa-flash.c ****     }
 407:../../../core/drivers/octa-flash/src/octa-flash.c **** 
 408:../../../core/drivers/octa-flash/src/octa-flash.c ****     return 0;
 409:../../../core/drivers/octa-flash/src/octa-flash.c **** }
 410:../../../core/drivers/octa-flash/src/octa-flash.c **** 
 411:../../../core/drivers/octa-flash/src/octa-flash.c **** /**
 412:../../../core/drivers/octa-flash/src/octa-flash.c ****     * \brief    Erases 4kb of data, starting from the given block.
 413:../../../core/drivers/octa-flash/src/octa-flash.c ****                 This method is a write action. Poll with isWriteInProgress()
 414:../../../core/drivers/octa-flash/src/octa-flash.c ****     * \param    aPageNr   The block you want to start erasing from.
 415:../../../core/drivers/octa-flash/src/octa-flash.c ****     * \returns  0 if successful
 416:../../../core/drivers/octa-flash/src/octa-flash.c ****     * \returns  E_WRITE_IN_PROGRESS if the flash is performing a write action.
 417:../../../core/drivers/octa-flash/src/octa-flash.c ****     * \returns  E_INVALID_PAGE_NR if aPageNr is invalid.
 418:../../../core/drivers/octa-flash/src/octa-flash.c ****     * \returns  E_SPI_ERROR if something went wrong during SPI communication.
 419:../../../core/drivers/octa-flash/src/octa-flash.c ****     */
 420:../../../core/drivers/octa-flash/src/octa-flash.c **** int OCTA_FLASH_eraseConfigSector()
 421:../../../core/drivers/octa-flash/src/octa-flash.c **** {
 422:../../../core/drivers/octa-flash/src/octa-flash.c **** 
 423:../../../core/drivers/octa-flash/src/octa-flash.c ****     HAL_Delay(SPI_WAIT);
 424:../../../core/drivers/octa-flash/src/octa-flash.c **** 
 425:../../../core/drivers/octa-flash/src/octa-flash.c ****     if (OCTA_FLASH_isWriteInProgress())
 426:../../../core/drivers/octa-flash/src/octa-flash.c ****     {
 427:../../../core/drivers/octa-flash/src/octa-flash.c ****         return E_WRITE_IN_PROGRESS;
 428:../../../core/drivers/octa-flash/src/octa-flash.c ****     }
 429:../../../core/drivers/octa-flash/src/octa-flash.c **** 
ARM GAS  C:\Users\tijsv\AppData\Local\Temp\ccDyLCdQ.s 			page 9


 430:../../../core/drivers/octa-flash/src/octa-flash.c ****     //Setting write enable
 431:../../../core/drivers/octa-flash/src/octa-flash.c ****     if (OCTA_FLASH_sendCommand(SPI_WREN_CMD) == E_SPI_ERROR)
 432:../../../core/drivers/octa-flash/src/octa-flash.c ****     {
 433:../../../core/drivers/octa-flash/src/octa-flash.c ****         return E_SPI_ERROR;
 434:../../../core/drivers/octa-flash/src/octa-flash.c ****     }
 435:../../../core/drivers/octa-flash/src/octa-flash.c **** 
 436:../../../core/drivers/octa-flash/src/octa-flash.c ****     //The actual sector erase
 437:../../../core/drivers/octa-flash/src/octa-flash.c ****     if (OCTA_FLASH_send4BCommand(SPI_SE4KB_CMD, 0) == E_SPI_ERROR)
 438:../../../core/drivers/octa-flash/src/octa-flash.c ****     {
 439:../../../core/drivers/octa-flash/src/octa-flash.c ****         return E_SPI_ERROR;
 440:../../../core/drivers/octa-flash/src/octa-flash.c ****     }
 441:../../../core/drivers/octa-flash/src/octa-flash.c **** 
 442:../../../core/drivers/octa-flash/src/octa-flash.c ****     __HAL_SPI_DISABLE(flashSPI);
 443:../../../core/drivers/octa-flash/src/octa-flash.c ****     OCTA_FLASH_Disable();
 444:../../../core/drivers/octa-flash/src/octa-flash.c **** 
 445:../../../core/drivers/octa-flash/src/octa-flash.c ****     //Disabling write.
 446:../../../core/drivers/octa-flash/src/octa-flash.c ****     if (OCTA_FLASH_sendCommand(SPI_WRDI_CMD) == E_SPI_ERROR)
 447:../../../core/drivers/octa-flash/src/octa-flash.c ****     {
 448:../../../core/drivers/octa-flash/src/octa-flash.c ****         return E_SPI_ERROR;
 449:../../../core/drivers/octa-flash/src/octa-flash.c ****     }
 450:../../../core/drivers/octa-flash/src/octa-flash.c **** 
 451:../../../core/drivers/octa-flash/src/octa-flash.c ****     return 0;
 452:../../../core/drivers/octa-flash/src/octa-flash.c **** }
 453:../../../core/drivers/octa-flash/src/octa-flash.c **** 
 454:../../../core/drivers/octa-flash/src/octa-flash.c **** /**
 455:../../../core/drivers/octa-flash/src/octa-flash.c ****     * \brief    Reads the value of a register.
 456:../../../core/drivers/octa-flash/src/octa-flash.c ****     * \param    aReg      The register ytou want to read
 457:../../../core/drivers/octa-flash/src/octa-flash.c ****     * \param    aData     Pointer to the data location.
 458:../../../core/drivers/octa-flash/src/octa-flash.c ****     * \returns  0 if successful
 459:../../../core/drivers/octa-flash/src/octa-flash.c ****     * \returns E_SPI_ERROR if something went wrong during SPI communication.
 460:../../../core/drivers/octa-flash/src/octa-flash.c ****     */
 461:../../../core/drivers/octa-flash/src/octa-flash.c **** int OCTA_FLASH_readReg(uint8_t aReg, uint8_t *aData)
 462:../../../core/drivers/octa-flash/src/octa-flash.c **** {
 463:../../../core/drivers/octa-flash/src/octa-flash.c ****     txData[0] = aReg;
 464:../../../core/drivers/octa-flash/src/octa-flash.c ****     *aData = 0x00;
 465:../../../core/drivers/octa-flash/src/octa-flash.c **** 
 466:../../../core/drivers/octa-flash/src/octa-flash.c ****     OCTA_FLASH_Enable();
 467:../../../core/drivers/octa-flash/src/octa-flash.c ****     __HAL_SPI_ENABLE(flashSPI);
 468:../../../core/drivers/octa-flash/src/octa-flash.c **** 
 469:../../../core/drivers/octa-flash/src/octa-flash.c ****     HAL_SPI_Transmit(flashSPI, (uint8_t *)txData, 1, HAL_MAX_DELAY);
 470:../../../core/drivers/octa-flash/src/octa-flash.c **** 
 471:../../../core/drivers/octa-flash/src/octa-flash.c ****     HAL_SPI_Receive(flashSPI, (uint8_t *)rxData, 1, HAL_MAX_DELAY);
 472:../../../core/drivers/octa-flash/src/octa-flash.c **** 
 473:../../../core/drivers/octa-flash/src/octa-flash.c ****     __HAL_SPI_DISABLE(flashSPI);
 474:../../../core/drivers/octa-flash/src/octa-flash.c ****     OCTA_FLASH_Disable();
 475:../../../core/drivers/octa-flash/src/octa-flash.c **** 
 476:../../../core/drivers/octa-flash/src/octa-flash.c ****     *aData = rxData[0];
 477:../../../core/drivers/octa-flash/src/octa-flash.c **** 
 478:../../../core/drivers/octa-flash/src/octa-flash.c ****     return 0;
 479:../../../core/drivers/octa-flash/src/octa-flash.c **** }
 480:../../../core/drivers/octa-flash/src/octa-flash.c **** 
 481:../../../core/drivers/octa-flash/src/octa-flash.c **** /**
 482:../../../core/drivers/octa-flash/src/octa-flash.c ****     * \brief   Flushes the internal buffer and writes it to flash.
 483:../../../core/drivers/octa-flash/src/octa-flash.c ****        This method should only be called when mMemBlock is full.
 484:../../../core/drivers/octa-flash/src/octa-flash.c ****     * \returns 0 if successful
 485:../../../core/drivers/octa-flash/src/octa-flash.c ****     * \returns  E_WRITE_IN_PROGRESS if the flash is performing a write action.
 486:../../../core/drivers/octa-flash/src/octa-flash.c ****     * \returns  E_SPI_ERROR if something went wrong during SPI communication.
ARM GAS  C:\Users\tijsv\AppData\Local\Temp\ccDyLCdQ.s 			page 10


 487:../../../core/drivers/octa-flash/src/octa-flash.c ****     */
 488:../../../core/drivers/octa-flash/src/octa-flash.c **** int OCTA_FLASH_flush(void)
 489:../../../core/drivers/octa-flash/src/octa-flash.c **** {
 490:../../../core/drivers/octa-flash/src/octa-flash.c ****     if (OCTA_FLASH_isWriteInProgress())
 491:../../../core/drivers/octa-flash/src/octa-flash.c ****     {
 492:../../../core/drivers/octa-flash/src/octa-flash.c ****         return E_WRITE_IN_PROGRESS;
 493:../../../core/drivers/octa-flash/src/octa-flash.c ****     }
 494:../../../core/drivers/octa-flash/src/octa-flash.c **** 
 495:../../../core/drivers/octa-flash/src/octa-flash.c ****     //Setting write enable
 496:../../../core/drivers/octa-flash/src/octa-flash.c ****     if (OCTA_FLASH_sendCommand(SPI_WREN_CMD) == E_SPI_ERROR)
 497:../../../core/drivers/octa-flash/src/octa-flash.c ****     {
 498:../../../core/drivers/octa-flash/src/octa-flash.c ****         return E_SPI_ERROR;
 499:../../../core/drivers/octa-flash/src/octa-flash.c ****     }
 500:../../../core/drivers/octa-flash/src/octa-flash.c **** 
 501:../../../core/drivers/octa-flash/src/octa-flash.c ****     // write command and address adress
 502:../../../core/drivers/octa-flash/src/octa-flash.c ****     if (OCTA_FLASH_send4BCommand(SPI_PP_4B_CMD, mCurrentWriteAddress) == E_SPI_ERROR)
 503:../../../core/drivers/octa-flash/src/octa-flash.c ****     {
 504:../../../core/drivers/octa-flash/src/octa-flash.c ****         return E_SPI_ERROR;
 505:../../../core/drivers/octa-flash/src/octa-flash.c ****     }
 506:../../../core/drivers/octa-flash/src/octa-flash.c **** 
 507:../../../core/drivers/octa-flash/src/octa-flash.c ****     if(HAL_SPI_Transmit(flashSPI, (uint8_t *)mMemPage, OCTA_FLASH_PAGE_SIZE, HAL_MAX_DELAY) != HAL_
 508:../../../core/drivers/octa-flash/src/octa-flash.c ****     {
 509:../../../core/drivers/octa-flash/src/octa-flash.c ****         return E_SPI_ERROR;
 510:../../../core/drivers/octa-flash/src/octa-flash.c ****     }
 511:../../../core/drivers/octa-flash/src/octa-flash.c **** 
 512:../../../core/drivers/octa-flash/src/octa-flash.c ****     __HAL_SPI_DISABLE(flashSPI);
 513:../../../core/drivers/octa-flash/src/octa-flash.c ****     OCTA_FLASH_Disable();
 514:../../../core/drivers/octa-flash/src/octa-flash.c **** 
 515:../../../core/drivers/octa-flash/src/octa-flash.c ****     //Setting write disable
 516:../../../core/drivers/octa-flash/src/octa-flash.c ****     if (OCTA_FLASH_sendCommand(SPI_WRDI_CMD) == E_SPI_ERROR)
 517:../../../core/drivers/octa-flash/src/octa-flash.c ****     {
 518:../../../core/drivers/octa-flash/src/octa-flash.c ****         return E_SPI_ERROR;
 519:../../../core/drivers/octa-flash/src/octa-flash.c ****     }
 520:../../../core/drivers/octa-flash/src/octa-flash.c **** 
 521:../../../core/drivers/octa-flash/src/octa-flash.c ****     //It's possible that we pass LAST_FLASH_ADDRESS here, but the write method checks for that.
 522:../../../core/drivers/octa-flash/src/octa-flash.c ****     mCurrentWriteAddress += OCTA_FLASH_PAGE_SIZE;
 523:../../../core/drivers/octa-flash/src/octa-flash.c **** 
 524:../../../core/drivers/octa-flash/src/octa-flash.c ****     // Clearing mMemBlock and mMemBlockIndex
 525:../../../core/drivers/octa-flash/src/octa-flash.c ****     memset(mMemPage, 0, OCTA_FLASH_PAGE_SIZE);
 526:../../../core/drivers/octa-flash/src/octa-flash.c ****     mMemPageIndex = 0;
 527:../../../core/drivers/octa-flash/src/octa-flash.c **** 
 528:../../../core/drivers/octa-flash/src/octa-flash.c ****     return 0;
 529:../../../core/drivers/octa-flash/src/octa-flash.c **** }
 530:../../../core/drivers/octa-flash/src/octa-flash.c **** 
 531:../../../core/drivers/octa-flash/src/octa-flash.c **** /**
 532:../../../core/drivers/octa-flash/src/octa-flash.c ****     * \brief    Sends a single command to the flash
 533:../../../core/drivers/octa-flash/src/octa-flash.c ****     * \param    command The command to be sent.
 534:../../../core/drivers/octa-flash/src/octa-flash.c ****     * \returns  0 if successful
 535:../../../core/drivers/octa-flash/src/octa-flash.c ****     * \returns  E_WRITE_IN_PROGRESS if the flash is performing a write action.
 536:../../../core/drivers/octa-flash/src/octa-flash.c ****     * \returns  E_SPI_ERROR if something went wrong during SPI communication.
 537:../../../core/drivers/octa-flash/src/octa-flash.c ****     */
 538:../../../core/drivers/octa-flash/src/octa-flash.c **** int OCTA_FLASH_sendCommand(const uint8_t command)
 539:../../../core/drivers/octa-flash/src/octa-flash.c **** {
 540:../../../core/drivers/octa-flash/src/octa-flash.c **** 
 541:../../../core/drivers/octa-flash/src/octa-flash.c ****     if (OCTA_FLASH_isWriteInProgress())
 542:../../../core/drivers/octa-flash/src/octa-flash.c ****     {
 543:../../../core/drivers/octa-flash/src/octa-flash.c ****         return E_WRITE_IN_PROGRESS;
ARM GAS  C:\Users\tijsv\AppData\Local\Temp\ccDyLCdQ.s 			page 11


 544:../../../core/drivers/octa-flash/src/octa-flash.c ****     }
 545:../../../core/drivers/octa-flash/src/octa-flash.c **** 
 546:../../../core/drivers/octa-flash/src/octa-flash.c ****     txData[0] = command;
 547:../../../core/drivers/octa-flash/src/octa-flash.c **** 
 548:../../../core/drivers/octa-flash/src/octa-flash.c ****     OCTA_FLASH_Enable();
 549:../../../core/drivers/octa-flash/src/octa-flash.c ****     __HAL_SPI_ENABLE(flashSPI);
 550:../../../core/drivers/octa-flash/src/octa-flash.c **** 
 551:../../../core/drivers/octa-flash/src/octa-flash.c ****     if(HAL_SPI_Transmit(flashSPI, (uint8_t *)txData, 1, HAL_MAX_DELAY)!= HAL_OK)
 552:../../../core/drivers/octa-flash/src/octa-flash.c ****     {
 553:../../../core/drivers/octa-flash/src/octa-flash.c ****         return E_SPI_ERROR;
 554:../../../core/drivers/octa-flash/src/octa-flash.c ****     }
 555:../../../core/drivers/octa-flash/src/octa-flash.c **** 
 556:../../../core/drivers/octa-flash/src/octa-flash.c ****     __HAL_SPI_DISABLE(flashSPI);
 557:../../../core/drivers/octa-flash/src/octa-flash.c ****     OCTA_FLASH_Disable();
 558:../../../core/drivers/octa-flash/src/octa-flash.c **** 
 559:../../../core/drivers/octa-flash/src/octa-flash.c ****     return 0;
 560:../../../core/drivers/octa-flash/src/octa-flash.c **** }
 561:../../../core/drivers/octa-flash/src/octa-flash.c **** 
 562:../../../core/drivers/octa-flash/src/octa-flash.c **** /**
 563:../../../core/drivers/octa-flash/src/octa-flash.c ****     * \brief    Sends a 4 byte address command
 564:../../../core/drivers/octa-flash/src/octa-flash.c ****     * \param    command   The command to be sent.
 565:../../../core/drivers/octa-flash/src/octa-flash.c ****     * \param    address  The 4 byte address
 566:../../../core/drivers/octa-flash/src/octa-flash.c ****     * \returns  0 if successful
 567:../../../core/drivers/octa-flash/src/octa-flash.c ****     * \returns  E_WRITE_IN_PROGRESS if the flash is performing a write action.
 568:../../../core/drivers/octa-flash/src/octa-flash.c ****     * \returns  E_SPI_ERROR if something went wrong during SPI communication.
 569:../../../core/drivers/octa-flash/src/octa-flash.c ****     */
 570:../../../core/drivers/octa-flash/src/octa-flash.c **** int OCTA_FLASH_send4BCommand(const uint8_t command, const uint32_t address)
 571:../../../core/drivers/octa-flash/src/octa-flash.c **** {
 572:../../../core/drivers/octa-flash/src/octa-flash.c **** 
 573:../../../core/drivers/octa-flash/src/octa-flash.c ****     if (OCTA_FLASH_isWriteInProgress())
 574:../../../core/drivers/octa-flash/src/octa-flash.c ****     {
 575:../../../core/drivers/octa-flash/src/octa-flash.c ****         return E_WRITE_IN_PROGRESS;
 576:../../../core/drivers/octa-flash/src/octa-flash.c ****     }
 577:../../../core/drivers/octa-flash/src/octa-flash.c **** 
 578:../../../core/drivers/octa-flash/src/octa-flash.c ****     uint8_t index = 0;
 579:../../../core/drivers/octa-flash/src/octa-flash.c ****     txData[index++] = command;
 580:../../../core/drivers/octa-flash/src/octa-flash.c **** 
 581:../../../core/drivers/octa-flash/src/octa-flash.c ****     //Writing 4 byte address.
 582:../../../core/drivers/octa-flash/src/octa-flash.c ****     txData[index++] = (uint8_t)((address >> 24) & 0x000000FF);
 583:../../../core/drivers/octa-flash/src/octa-flash.c ****     txData[index++] = (uint8_t)((address >> 16) & 0x000000FF);
 584:../../../core/drivers/octa-flash/src/octa-flash.c ****     txData[index++] = (uint8_t)((address >> 8) & 0x000000FF);
 585:../../../core/drivers/octa-flash/src/octa-flash.c ****     txData[index++] = (uint8_t)(address & 0x000000FF);
 586:../../../core/drivers/octa-flash/src/octa-flash.c **** 
 587:../../../core/drivers/octa-flash/src/octa-flash.c ****     //We have to enable SPI here, because isWriteInProgress disables it.
 588:../../../core/drivers/octa-flash/src/octa-flash.c ****     //We don't disable it here, because CS has to stay high after this command.
 589:../../../core/drivers/octa-flash/src/octa-flash.c ****     OCTA_FLASH_Enable();
 590:../../../core/drivers/octa-flash/src/octa-flash.c ****     __HAL_SPI_ENABLE(flashSPI);
 591:../../../core/drivers/octa-flash/src/octa-flash.c **** 
 592:../../../core/drivers/octa-flash/src/octa-flash.c ****     //send the command over SPI
 593:../../../core/drivers/octa-flash/src/octa-flash.c ****     if(HAL_SPI_Transmit(flashSPI, (uint8_t *)txData, index, HAL_MAX_DELAY)!=HAL_OK)
 594:../../../core/drivers/octa-flash/src/octa-flash.c ****     {
 595:../../../core/drivers/octa-flash/src/octa-flash.c ****         return E_SPI_ERROR;
 596:../../../core/drivers/octa-flash/src/octa-flash.c ****     }
 597:../../../core/drivers/octa-flash/src/octa-flash.c **** 
 598:../../../core/drivers/octa-flash/src/octa-flash.c ****     return OCTA_FLASH_OK;
 599:../../../core/drivers/octa-flash/src/octa-flash.c **** }
 600:../../../core/drivers/octa-flash/src/octa-flash.c **** 
ARM GAS  C:\Users\tijsv\AppData\Local\Temp\ccDyLCdQ.s 			page 12


 601:../../../core/drivers/octa-flash/src/octa-flash.c **** /* Manually toggle enable pin, due to it not being a default SPI pin */
 602:../../../core/drivers/octa-flash/src/octa-flash.c **** void OCTA_FLASH_Enable(void)
 603:../../../core/drivers/octa-flash/src/octa-flash.c **** {
  29              		.loc 1 603 1 view -0
  30              		.cfi_startproc
  31              		@ args = 0, pretend = 0, frame = 0
  32              		@ frame_needed = 0, uses_anonymous_args = 0
  33 0000 08B5     		push	{r3, lr}
  34              	.LCFI0:
  35              		.cfi_def_cfa_offset 8
  36              		.cfi_offset 3, -8
  37              		.cfi_offset 14, -4
 604:../../../core/drivers/octa-flash/src/octa-flash.c ****     //set CS pin to low
 605:../../../core/drivers/octa-flash/src/octa-flash.c ****     HAL_GPIO_WritePin(OCTA_FLASH_CS_Port, OCTA_FLASH_CS_Pin, GPIO_PIN_RESET);
  38              		.loc 1 605 5 view .LVU1
  39 0002 0022     		movs	r2, #0
  40 0004 4FF40051 		mov	r1, #8192
  41 0008 0148     		ldr	r0, .L3
  42 000a FFF7FEFF 		bl	HAL_GPIO_WritePin
  43              	.LVL0:
 606:../../../core/drivers/octa-flash/src/octa-flash.c **** }
  44              		.loc 1 606 1 is_stmt 0 view .LVU2
  45 000e 08BD     		pop	{r3, pc}
  46              	.L4:
  47              		.align	2
  48              	.L3:
  49 0010 00140048 		.word	1207964672
  50              		.cfi_endproc
  51              	.LFE147:
  53              		.section	.text.OCTA_FLASH_Disable,"ax",%progbits
  54              		.align	1
  55              		.global	OCTA_FLASH_Disable
  56              		.syntax unified
  57              		.thumb
  58              		.thumb_func
  59              		.fpu fpv4-sp-d16
  61              	OCTA_FLASH_Disable:
  62              	.LFB148:
 607:../../../core/drivers/octa-flash/src/octa-flash.c **** 
 608:../../../core/drivers/octa-flash/src/octa-flash.c **** /* Manually toggle enable pin, due to it not being a default SPI pin */
 609:../../../core/drivers/octa-flash/src/octa-flash.c **** void OCTA_FLASH_Disable(void)
 610:../../../core/drivers/octa-flash/src/octa-flash.c **** {
  63              		.loc 1 610 1 is_stmt 1 view -0
  64              		.cfi_startproc
  65              		@ args = 0, pretend = 0, frame = 0
  66              		@ frame_needed = 0, uses_anonymous_args = 0
  67 0000 08B5     		push	{r3, lr}
  68              	.LCFI1:
  69              		.cfi_def_cfa_offset 8
  70              		.cfi_offset 3, -8
  71              		.cfi_offset 14, -4
 611:../../../core/drivers/octa-flash/src/octa-flash.c ****     //set CS pin to high
 612:../../../core/drivers/octa-flash/src/octa-flash.c ****     HAL_GPIO_WritePin(OCTA_FLASH_CS_Port, OCTA_FLASH_CS_Pin, GPIO_PIN_SET);
  72              		.loc 1 612 5 view .LVU4
  73 0002 0122     		movs	r2, #1
  74 0004 4FF40051 		mov	r1, #8192
  75 0008 0148     		ldr	r0, .L7
ARM GAS  C:\Users\tijsv\AppData\Local\Temp\ccDyLCdQ.s 			page 13


  76 000a FFF7FEFF 		bl	HAL_GPIO_WritePin
  77              	.LVL1:
 613:../../../core/drivers/octa-flash/src/octa-flash.c **** }
  78              		.loc 1 613 1 is_stmt 0 view .LVU5
  79 000e 08BD     		pop	{r3, pc}
  80              	.L8:
  81              		.align	2
  82              	.L7:
  83 0010 00140048 		.word	1207964672
  84              		.cfi_endproc
  85              	.LFE148:
  87              		.section	.rodata.OCTA_FLASH_Initialize.str1.4,"aMS",%progbits,1
  88              		.align	2
  89              	.LC0:
  90 0000 53323546 		.ascii	"S25FL256: 256Mb (32MB) Flash, first 4kB sector rese"
  90      4C323536 
  90      3A203235 
  90      364D6220 
  90      2833324D 
  91 0033 72766564 		.ascii	"rved for configuration\015\012\000"
  91      20666F72 
  91      20636F6E 
  91      66696775 
  91      72617469 
  92              		.align	2
  93              	.LC1:
  94 004c 4D617820 		.ascii	"Max page number: %d, page size: %d, start adr: %d, "
  94      70616765 
  94      206E756D 
  94      6265723A 
  94      2025642C 
  95 007f 6C617374 		.ascii	"last adr: %d, pages/4kbsector: %d\015\012\000"
  95      20616472 
  95      3A202564 
  95      2C207061 
  95      6765732F 
  96              		.section	.text.OCTA_FLASH_Initialize,"ax",%progbits
  97              		.align	1
  98              		.global	OCTA_FLASH_Initialize
  99              		.syntax unified
 100              		.thumb
 101              		.thumb_func
 102              		.fpu fpv4-sp-d16
 104              	OCTA_FLASH_Initialize:
 105              	.LVL2:
 106              	.LFB131:
  41:../../../core/drivers/octa-flash/src/octa-flash.c ****     mMemPageIndex = 0;
 107              		.loc 1 41 1 is_stmt 1 view -0
 108              		.cfi_startproc
 109              		@ args = 0, pretend = 0, frame = 0
 110              		@ frame_needed = 0, uses_anonymous_args = 0
  41:../../../core/drivers/octa-flash/src/octa-flash.c ****     mMemPageIndex = 0;
 111              		.loc 1 41 1 is_stmt 0 view .LVU7
 112 0000 2DE9F041 		push	{r4, r5, r6, r7, r8, lr}
 113              	.LCFI2:
 114              		.cfi_def_cfa_offset 24
 115              		.cfi_offset 4, -24
ARM GAS  C:\Users\tijsv\AppData\Local\Temp\ccDyLCdQ.s 			page 14


 116              		.cfi_offset 5, -20
 117              		.cfi_offset 6, -16
 118              		.cfi_offset 7, -12
 119              		.cfi_offset 8, -8
 120              		.cfi_offset 14, -4
 121 0004 82B0     		sub	sp, sp, #8
 122              	.LCFI3:
 123              		.cfi_def_cfa_offset 32
 124 0006 0546     		mov	r5, r0
  42:../../../core/drivers/octa-flash/src/octa-flash.c ****     memset(mMemPage, 0, OCTA_FLASH_PAGE_SIZE);
 125              		.loc 1 42 5 is_stmt 1 view .LVU8
  42:../../../core/drivers/octa-flash/src/octa-flash.c ****     memset(mMemPage, 0, OCTA_FLASH_PAGE_SIZE);
 126              		.loc 1 42 19 is_stmt 0 view .LVU9
 127 0008 0026     		movs	r6, #0
 128 000a 194B     		ldr	r3, .L11
 129 000c 1E80     		strh	r6, [r3]	@ movhi
  43:../../../core/drivers/octa-flash/src/octa-flash.c ****     mCurrentReadAddress = FIRST_FLASH_ADDRESS;
 130              		.loc 1 43 5 is_stmt 1 view .LVU10
 131 000e 4FF48078 		mov	r8, #256
 132 0012 4246     		mov	r2, r8
 133 0014 3146     		mov	r1, r6
 134 0016 1748     		ldr	r0, .L11+4
 135              	.LVL3:
  43:../../../core/drivers/octa-flash/src/octa-flash.c ****     mCurrentReadAddress = FIRST_FLASH_ADDRESS;
 136              		.loc 1 43 5 is_stmt 0 view .LVU11
 137 0018 FFF7FEFF 		bl	memset
 138              	.LVL4:
  44:../../../core/drivers/octa-flash/src/octa-flash.c ****     mCurrentWriteAddress = FIRST_FLASH_ADDRESS;
 139              		.loc 1 44 5 is_stmt 1 view .LVU12
  44:../../../core/drivers/octa-flash/src/octa-flash.c ****     mCurrentWriteAddress = FIRST_FLASH_ADDRESS;
 140              		.loc 1 44 25 is_stmt 0 view .LVU13
 141 001c 4FF48054 		mov	r4, #4096
 142 0020 154B     		ldr	r3, .L11+8
 143 0022 1C60     		str	r4, [r3]
  45:../../../core/drivers/octa-flash/src/octa-flash.c ****     _initialised = 0;
 144              		.loc 1 45 5 is_stmt 1 view .LVU14
  45:../../../core/drivers/octa-flash/src/octa-flash.c ****     _initialised = 0;
 145              		.loc 1 45 26 is_stmt 0 view .LVU15
 146 0024 154B     		ldr	r3, .L11+12
 147 0026 1C60     		str	r4, [r3]
  46:../../../core/drivers/octa-flash/src/octa-flash.c **** 
 148              		.loc 1 46 5 is_stmt 1 view .LVU16
  46:../../../core/drivers/octa-flash/src/octa-flash.c **** 
 149              		.loc 1 46 18 is_stmt 0 view .LVU17
 150 0028 154F     		ldr	r7, .L11+16
 151 002a 3E70     		strb	r6, [r7]
  48:../../../core/drivers/octa-flash/src/octa-flash.c **** 
 152              		.loc 1 48 5 is_stmt 1 view .LVU18
  48:../../../core/drivers/octa-flash/src/octa-flash.c **** 
 153              		.loc 1 48 14 is_stmt 0 view .LVU19
 154 002c 154B     		ldr	r3, .L11+20
 155 002e 1D60     		str	r5, [r3]
  51:../../../core/drivers/octa-flash/src/octa-flash.c ****     
 156              		.loc 1 51 5 is_stmt 1 view .LVU20
 157 0030 FFF7FEFF 		bl	OCTA_FLASH_Disable
 158              	.LVL5:
  54:../../../core/drivers/octa-flash/src/octa-flash.c ****     HAL_GPIO_WritePin(OCTA_FLASH_HOLD_Port, OCTA_FLASH_HOLD_Pin, GPIO_PIN_SET);
ARM GAS  C:\Users\tijsv\AppData\Local\Temp\ccDyLCdQ.s 			page 15


 159              		.loc 1 54 5 view .LVU21
 160 0034 144D     		ldr	r5, .L11+24
 161              	.LVL6:
  54:../../../core/drivers/octa-flash/src/octa-flash.c ****     HAL_GPIO_WritePin(OCTA_FLASH_HOLD_Port, OCTA_FLASH_HOLD_Pin, GPIO_PIN_SET);
 162              		.loc 1 54 5 is_stmt 0 view .LVU22
 163 0036 0122     		movs	r2, #1
 164 0038 4FF40061 		mov	r1, #2048
 165 003c 2846     		mov	r0, r5
 166 003e FFF7FEFF 		bl	HAL_GPIO_WritePin
 167              	.LVL7:
  55:../../../core/drivers/octa-flash/src/octa-flash.c **** 
 168              		.loc 1 55 5 is_stmt 1 view .LVU23
 169 0042 0122     		movs	r2, #1
 170 0044 1146     		mov	r1, r2
 171 0046 2846     		mov	r0, r5
 172 0048 FFF7FEFF 		bl	HAL_GPIO_WritePin
 173              	.LVL8:
  63:../../../core/drivers/octa-flash/src/octa-flash.c ****     #endif
 174              		.loc 1 63 9 view .LVU24
 175 004c 0F48     		ldr	r0, .L11+28
 176 004e FFF7FEFF 		bl	printINF
 177              	.LVL9:
  69:../../../core/drivers/octa-flash/src/octa-flash.c **** 
 178              		.loc 1 69 5 view .LVU25
 179 0052 1023     		movs	r3, #16
 180 0054 0193     		str	r3, [sp, #4]
 181 0056 0E4B     		ldr	r3, .L11+32
 182 0058 0093     		str	r3, [sp]
 183 005a 2346     		mov	r3, r4
 184 005c 4246     		mov	r2, r8
 185 005e 0D49     		ldr	r1, .L11+36
 186 0060 0D48     		ldr	r0, .L11+40
 187 0062 FFF7FEFF 		bl	printINF
 188              	.LVL10:
  71:../../../core/drivers/octa-flash/src/octa-flash.c **** 
 189              		.loc 1 71 5 view .LVU26
  71:../../../core/drivers/octa-flash/src/octa-flash.c **** 
 190              		.loc 1 71 18 is_stmt 0 view .LVU27
 191 0066 0120     		movs	r0, #1
 192 0068 3870     		strb	r0, [r7]
  73:../../../core/drivers/octa-flash/src/octa-flash.c **** }
 193              		.loc 1 73 5 is_stmt 1 view .LVU28
  74:../../../core/drivers/octa-flash/src/octa-flash.c **** 
 194              		.loc 1 74 1 is_stmt 0 view .LVU29
 195 006a 02B0     		add	sp, sp, #8
 196              	.LCFI4:
 197              		.cfi_def_cfa_offset 24
 198              		@ sp needed
 199 006c BDE8F081 		pop	{r4, r5, r6, r7, r8, pc}
 200              	.L12:
 201              		.align	2
 202              	.L11:
 203 0070 00000000 		.word	mMemPageIndex
 204 0074 00000000 		.word	mMemPage
 205 0078 00000000 		.word	mCurrentReadAddress
 206 007c 00000000 		.word	mCurrentWriteAddress
 207 0080 00000000 		.word	_initialised
ARM GAS  C:\Users\tijsv\AppData\Local\Temp\ccDyLCdQ.s 			page 16


 208 0084 00000000 		.word	flashSPI
 209 0088 00100048 		.word	1207963648
 210 008c 00000000 		.word	.LC0
 211 0090 0048E801 		.word	32000000
 212 0094 37E80100 		.word	124983
 213 0098 4C000000 		.word	.LC1
 214              		.cfi_endproc
 215              	.LFE131:
 217              		.section	.text.OCTA_FLASH_ReInitialize,"ax",%progbits
 218              		.align	1
 219              		.global	OCTA_FLASH_ReInitialize
 220              		.syntax unified
 221              		.thumb
 222              		.thumb_func
 223              		.fpu fpv4-sp-d16
 225              	OCTA_FLASH_ReInitialize:
 226              	.LFB132:
  77:../../../core/drivers/octa-flash/src/octa-flash.c ****     //set CS pin to High (== disable flash, will be enabled when needed)
 227              		.loc 1 77 1 is_stmt 1 view -0
 228              		.cfi_startproc
 229              		@ args = 0, pretend = 0, frame = 0
 230              		@ frame_needed = 0, uses_anonymous_args = 0
 231 0000 10B5     		push	{r4, lr}
 232              	.LCFI5:
 233              		.cfi_def_cfa_offset 8
 234              		.cfi_offset 4, -8
 235              		.cfi_offset 14, -4
  79:../../../core/drivers/octa-flash/src/octa-flash.c **** 
 236              		.loc 1 79 5 view .LVU31
 237 0002 FFF7FEFF 		bl	OCTA_FLASH_Disable
 238              	.LVL11:
  82:../../../core/drivers/octa-flash/src/octa-flash.c ****     HAL_GPIO_WritePin(OCTA_FLASH_HOLD_Port, OCTA_FLASH_HOLD_Pin, GPIO_PIN_SET);
 239              		.loc 1 82 5 view .LVU32
 240 0006 064C     		ldr	r4, .L15
 241 0008 0122     		movs	r2, #1
 242 000a 4FF40061 		mov	r1, #2048
 243 000e 2046     		mov	r0, r4
 244 0010 FFF7FEFF 		bl	HAL_GPIO_WritePin
 245              	.LVL12:
  83:../../../core/drivers/octa-flash/src/octa-flash.c **** 
 246              		.loc 1 83 5 view .LVU33
 247 0014 0122     		movs	r2, #1
 248 0016 1146     		mov	r1, r2
 249 0018 2046     		mov	r0, r4
 250 001a FFF7FEFF 		bl	HAL_GPIO_WritePin
 251              	.LVL13:
  90:../../../core/drivers/octa-flash/src/octa-flash.c **** 
 252              		.loc 1 90 1 is_stmt 0 view .LVU34
 253 001e 10BD     		pop	{r4, pc}
 254              	.L16:
 255              		.align	2
 256              	.L15:
 257 0020 00100048 		.word	1207963648
 258              		.cfi_endproc
 259              	.LFE132:
 261              		.section	.text.OCTA_FLASH_readReg,"ax",%progbits
 262              		.align	1
ARM GAS  C:\Users\tijsv\AppData\Local\Temp\ccDyLCdQ.s 			page 17


 263              		.global	OCTA_FLASH_readReg
 264              		.syntax unified
 265              		.thumb
 266              		.thumb_func
 267              		.fpu fpv4-sp-d16
 269              	OCTA_FLASH_readReg:
 270              	.LVL14:
 271              	.LFB143:
 462:../../../core/drivers/octa-flash/src/octa-flash.c ****     txData[0] = aReg;
 272              		.loc 1 462 1 is_stmt 1 view -0
 273              		.cfi_startproc
 274              		@ args = 0, pretend = 0, frame = 0
 275              		@ frame_needed = 0, uses_anonymous_args = 0
 462:../../../core/drivers/octa-flash/src/octa-flash.c ****     txData[0] = aReg;
 276              		.loc 1 462 1 is_stmt 0 view .LVU36
 277 0000 F8B5     		push	{r3, r4, r5, r6, r7, lr}
 278              	.LCFI6:
 279              		.cfi_def_cfa_offset 24
 280              		.cfi_offset 3, -24
 281              		.cfi_offset 4, -20
 282              		.cfi_offset 5, -16
 283              		.cfi_offset 6, -12
 284              		.cfi_offset 7, -8
 285              		.cfi_offset 14, -4
 286 0002 0C46     		mov	r4, r1
 463:../../../core/drivers/octa-flash/src/octa-flash.c ****     *aData = 0x00;
 287              		.loc 1 463 5 is_stmt 1 view .LVU37
 463:../../../core/drivers/octa-flash/src/octa-flash.c ****     *aData = 0x00;
 288              		.loc 1 463 15 is_stmt 0 view .LVU38
 289 0004 134F     		ldr	r7, .L19
 290 0006 3870     		strb	r0, [r7]
 464:../../../core/drivers/octa-flash/src/octa-flash.c **** 
 291              		.loc 1 464 5 is_stmt 1 view .LVU39
 464:../../../core/drivers/octa-flash/src/octa-flash.c **** 
 292              		.loc 1 464 12 is_stmt 0 view .LVU40
 293 0008 0026     		movs	r6, #0
 294 000a 0E70     		strb	r6, [r1]
 466:../../../core/drivers/octa-flash/src/octa-flash.c ****     __HAL_SPI_ENABLE(flashSPI);
 295              		.loc 1 466 5 is_stmt 1 view .LVU41
 296 000c FFF7FEFF 		bl	OCTA_FLASH_Enable
 297              	.LVL15:
 467:../../../core/drivers/octa-flash/src/octa-flash.c **** 
 298              		.loc 1 467 5 view .LVU42
 299 0010 114D     		ldr	r5, .L19+4
 300 0012 2B68     		ldr	r3, [r5]
 301 0014 1A68     		ldr	r2, [r3]
 302 0016 1368     		ldr	r3, [r2]
 303 0018 43F04003 		orr	r3, r3, #64
 304 001c 1360     		str	r3, [r2]
 469:../../../core/drivers/octa-flash/src/octa-flash.c **** 
 305              		.loc 1 469 5 view .LVU43
 306 001e 4FF0FF33 		mov	r3, #-1
 307 0022 0122     		movs	r2, #1
 308 0024 3946     		mov	r1, r7
 309 0026 2868     		ldr	r0, [r5]
 310 0028 FFF7FEFF 		bl	HAL_SPI_Transmit
 311              	.LVL16:
ARM GAS  C:\Users\tijsv\AppData\Local\Temp\ccDyLCdQ.s 			page 18


 471:../../../core/drivers/octa-flash/src/octa-flash.c **** 
 312              		.loc 1 471 5 view .LVU44
 313 002c 0B4F     		ldr	r7, .L19+8
 314 002e 4FF0FF33 		mov	r3, #-1
 315 0032 0122     		movs	r2, #1
 316 0034 3946     		mov	r1, r7
 317 0036 2868     		ldr	r0, [r5]
 318 0038 FFF7FEFF 		bl	HAL_SPI_Receive
 319              	.LVL17:
 473:../../../core/drivers/octa-flash/src/octa-flash.c ****     OCTA_FLASH_Disable();
 320              		.loc 1 473 5 view .LVU45
 321 003c 2B68     		ldr	r3, [r5]
 322 003e 1A68     		ldr	r2, [r3]
 323 0040 1368     		ldr	r3, [r2]
 324 0042 23F04003 		bic	r3, r3, #64
 325 0046 1360     		str	r3, [r2]
 474:../../../core/drivers/octa-flash/src/octa-flash.c **** 
 326              		.loc 1 474 5 view .LVU46
 327 0048 FFF7FEFF 		bl	OCTA_FLASH_Disable
 328              	.LVL18:
 476:../../../core/drivers/octa-flash/src/octa-flash.c **** 
 329              		.loc 1 476 5 view .LVU47
 476:../../../core/drivers/octa-flash/src/octa-flash.c **** 
 330              		.loc 1 476 20 is_stmt 0 view .LVU48
 331 004c 3B78     		ldrb	r3, [r7]	@ zero_extendqisi2
 476:../../../core/drivers/octa-flash/src/octa-flash.c **** 
 332              		.loc 1 476 12 view .LVU49
 333 004e 2370     		strb	r3, [r4]
 478:../../../core/drivers/octa-flash/src/octa-flash.c **** }
 334              		.loc 1 478 5 is_stmt 1 view .LVU50
 479:../../../core/drivers/octa-flash/src/octa-flash.c **** 
 335              		.loc 1 479 1 is_stmt 0 view .LVU51
 336 0050 3046     		mov	r0, r6
 337 0052 F8BD     		pop	{r3, r4, r5, r6, r7, pc}
 338              	.LVL19:
 339              	.L20:
 479:../../../core/drivers/octa-flash/src/octa-flash.c **** 
 340              		.loc 1 479 1 view .LVU52
 341              		.align	2
 342              	.L19:
 343 0054 00000000 		.word	txData
 344 0058 00000000 		.word	flashSPI
 345 005c 00000000 		.word	rxData
 346              		.cfi_endproc
 347              	.LFE143:
 349              		.section	.text.OCTA_FLASH_isWriteInProgress,"ax",%progbits
 350              		.align	1
 351              		.global	OCTA_FLASH_isWriteInProgress
 352              		.syntax unified
 353              		.thumb
 354              		.thumb_func
 355              		.fpu fpv4-sp-d16
 357              	OCTA_FLASH_isWriteInProgress:
 358              	.LFB138:
 266:../../../core/drivers/octa-flash/src/octa-flash.c ****     HAL_Delay(SPI_WAIT);
 359              		.loc 1 266 1 is_stmt 1 view -0
 360              		.cfi_startproc
ARM GAS  C:\Users\tijsv\AppData\Local\Temp\ccDyLCdQ.s 			page 19


 361              		@ args = 0, pretend = 0, frame = 8
 362              		@ frame_needed = 0, uses_anonymous_args = 0
 363 0000 00B5     		push	{lr}
 364              	.LCFI7:
 365              		.cfi_def_cfa_offset 4
 366              		.cfi_offset 14, -4
 367 0002 83B0     		sub	sp, sp, #12
 368              	.LCFI8:
 369              		.cfi_def_cfa_offset 16
 267:../../../core/drivers/octa-flash/src/octa-flash.c ****     uint8_t status = 0;
 370              		.loc 1 267 5 view .LVU54
 371 0004 0A20     		movs	r0, #10
 372 0006 FFF7FEFF 		bl	HAL_Delay
 373              	.LVL20:
 268:../../../core/drivers/octa-flash/src/octa-flash.c ****     if (OCTA_FLASH_readReg(SPI_RDSR_CMD, &status) == 0)
 374              		.loc 1 268 5 view .LVU55
 268:../../../core/drivers/octa-flash/src/octa-flash.c ****     if (OCTA_FLASH_readReg(SPI_RDSR_CMD, &status) == 0)
 375              		.loc 1 268 13 is_stmt 0 view .LVU56
 376 000a 0023     		movs	r3, #0
 377 000c 8DF80730 		strb	r3, [sp, #7]
 269:../../../core/drivers/octa-flash/src/octa-flash.c ****     {
 378              		.loc 1 269 5 is_stmt 1 view .LVU57
 269:../../../core/drivers/octa-flash/src/octa-flash.c ****     {
 379              		.loc 1 269 9 is_stmt 0 view .LVU58
 380 0010 0DF10701 		add	r1, sp, #7
 381 0014 0520     		movs	r0, #5
 382 0016 FFF7FEFF 		bl	OCTA_FLASH_readReg
 383              	.LVL21:
 269:../../../core/drivers/octa-flash/src/octa-flash.c ****     {
 384              		.loc 1 269 8 view .LVU59
 385 001a 18B1     		cbz	r0, .L25
 274:../../../core/drivers/octa-flash/src/octa-flash.c **** }
 386              		.loc 1 274 12 view .LVU60
 387 001c 0020     		movs	r0, #0
 388              	.L22:
 275:../../../core/drivers/octa-flash/src/octa-flash.c **** 
 389              		.loc 1 275 1 view .LVU61
 390 001e 03B0     		add	sp, sp, #12
 391              	.LCFI9:
 392              		.cfi_remember_state
 393              		.cfi_def_cfa_offset 4
 394              		@ sp needed
 395 0020 5DF804FB 		ldr	pc, [sp], #4
 396              	.L25:
 397              	.LCFI10:
 398              		.cfi_restore_state
 271:../../../core/drivers/octa-flash/src/octa-flash.c ****     }
 399              		.loc 1 271 9 is_stmt 1 view .LVU62
 271:../../../core/drivers/octa-flash/src/octa-flash.c ****     }
 400              		.loc 1 271 16 is_stmt 0 view .LVU63
 401 0024 9DF80700 		ldrb	r0, [sp, #7]	@ zero_extendqisi2
 402 0028 00F00100 		and	r0, r0, #1
 403 002c F7E7     		b	.L22
 404              		.cfi_endproc
 405              	.LFE138:
 407              		.section	.text.OCTA_FLASH_open,"ax",%progbits
 408              		.align	1
ARM GAS  C:\Users\tijsv\AppData\Local\Temp\ccDyLCdQ.s 			page 20


 409              		.global	OCTA_FLASH_open
 410              		.syntax unified
 411              		.thumb
 412              		.thumb_func
 413              		.fpu fpv4-sp-d16
 415              	OCTA_FLASH_open:
 416              	.LVL22:
 417              	.LFB134:
 119:../../../core/drivers/octa-flash/src/octa-flash.c ****     HAL_Delay(SPI_WAIT);
 418              		.loc 1 119 1 is_stmt 1 view -0
 419              		.cfi_startproc
 420              		@ args = 0, pretend = 0, frame = 0
 421              		@ frame_needed = 0, uses_anonymous_args = 0
 119:../../../core/drivers/octa-flash/src/octa-flash.c ****     HAL_Delay(SPI_WAIT);
 422              		.loc 1 119 1 is_stmt 0 view .LVU65
 423 0000 10B5     		push	{r4, lr}
 424              	.LCFI11:
 425              		.cfi_def_cfa_offset 8
 426              		.cfi_offset 4, -8
 427              		.cfi_offset 14, -4
 428 0002 0446     		mov	r4, r0
 120:../../../core/drivers/octa-flash/src/octa-flash.c **** 
 429              		.loc 1 120 5 is_stmt 1 view .LVU66
 430 0004 0A20     		movs	r0, #10
 431              	.LVL23:
 120:../../../core/drivers/octa-flash/src/octa-flash.c **** 
 432              		.loc 1 120 5 is_stmt 0 view .LVU67
 433 0006 FFF7FEFF 		bl	HAL_Delay
 434              	.LVL24:
 122:../../../core/drivers/octa-flash/src/octa-flash.c ****     {
 435              		.loc 1 122 5 is_stmt 1 view .LVU68
 122:../../../core/drivers/octa-flash/src/octa-flash.c ****     {
 436              		.loc 1 122 9 is_stmt 0 view .LVU69
 437 000a FFF7FEFF 		bl	OCTA_FLASH_isWriteInProgress
 438              	.LVL25:
 122:../../../core/drivers/octa-flash/src/octa-flash.c ****     {
 439              		.loc 1 122 8 view .LVU70
 440 000e 48B9     		cbnz	r0, .L28
 127:../../../core/drivers/octa-flash/src/octa-flash.c ****     {
 441              		.loc 1 127 5 is_stmt 1 view .LVU71
 127:../../../core/drivers/octa-flash/src/octa-flash.c ****     {
 442              		.loc 1 127 8 is_stmt 0 view .LVU72
 443 0010 074B     		ldr	r3, .L31
 444 0012 9C42     		cmp	r4, r3
 445 0014 09D8     		bhi	.L29
 132:../../../core/drivers/octa-flash/src/octa-flash.c ****     mCurrentReadAddress = newAddress;
 446              		.loc 1 132 5 is_stmt 1 view .LVU73
 132:../../../core/drivers/octa-flash/src/octa-flash.c ****     mCurrentReadAddress = newAddress;
 447              		.loc 1 132 47 is_stmt 0 view .LVU74
 448 0016 1034     		adds	r4, r4, #16
 449              	.LVL26:
 132:../../../core/drivers/octa-flash/src/octa-flash.c ****     mCurrentReadAddress = newAddress;
 450              		.loc 1 132 14 view .LVU75
 451 0018 2402     		lsls	r4, r4, #8
 452              	.LVL27:
 133:../../../core/drivers/octa-flash/src/octa-flash.c ****     mCurrentWriteAddress = newAddress;
 453              		.loc 1 133 5 is_stmt 1 view .LVU76
ARM GAS  C:\Users\tijsv\AppData\Local\Temp\ccDyLCdQ.s 			page 21


 133:../../../core/drivers/octa-flash/src/octa-flash.c ****     mCurrentWriteAddress = newAddress;
 454              		.loc 1 133 25 is_stmt 0 view .LVU77
 455 001a 064B     		ldr	r3, .L31+4
 456 001c 1C60     		str	r4, [r3]
 134:../../../core/drivers/octa-flash/src/octa-flash.c **** 
 457              		.loc 1 134 5 is_stmt 1 view .LVU78
 134:../../../core/drivers/octa-flash/src/octa-flash.c **** 
 458              		.loc 1 134 26 is_stmt 0 view .LVU79
 459 001e 064B     		ldr	r3, .L31+8
 460 0020 1C60     		str	r4, [r3]
 136:../../../core/drivers/octa-flash/src/octa-flash.c **** }
 461              		.loc 1 136 5 is_stmt 1 view .LVU80
 462              	.LVL28:
 463              	.L26:
 137:../../../core/drivers/octa-flash/src/octa-flash.c **** 
 464              		.loc 1 137 1 is_stmt 0 view .LVU81
 465 0022 10BD     		pop	{r4, pc}
 466              	.LVL29:
 467              	.L28:
 124:../../../core/drivers/octa-flash/src/octa-flash.c ****     }
 468              		.loc 1 124 16 view .LVU82
 469 0024 6FF00100 		mvn	r0, #1
 470 0028 FBE7     		b	.L26
 471              	.L29:
 129:../../../core/drivers/octa-flash/src/octa-flash.c ****     }
 472              		.loc 1 129 16 view .LVU83
 473 002a 6FF00300 		mvn	r0, #3
 474 002e F8E7     		b	.L26
 475              	.L32:
 476              		.align	2
 477              	.L31:
 478 0030 37E80100 		.word	124983
 479 0034 00000000 		.word	mCurrentReadAddress
 480 0038 00000000 		.word	mCurrentWriteAddress
 481              		.cfi_endproc
 482              	.LFE134:
 484              		.section	.text.OCTA_FLASH_openConfigSector,"ax",%progbits
 485              		.align	1
 486              		.global	OCTA_FLASH_openConfigSector
 487              		.syntax unified
 488              		.thumb
 489              		.thumb_func
 490              		.fpu fpv4-sp-d16
 492              	OCTA_FLASH_openConfigSector:
 493              	.LFB135:
 147:../../../core/drivers/octa-flash/src/octa-flash.c ****     HAL_Delay(SPI_WAIT);
 494              		.loc 1 147 1 is_stmt 1 view -0
 495              		.cfi_startproc
 496              		@ args = 0, pretend = 0, frame = 0
 497              		@ frame_needed = 0, uses_anonymous_args = 0
 498 0000 08B5     		push	{r3, lr}
 499              	.LCFI12:
 500              		.cfi_def_cfa_offset 8
 501              		.cfi_offset 3, -8
 502              		.cfi_offset 14, -4
 148:../../../core/drivers/octa-flash/src/octa-flash.c **** 
 503              		.loc 1 148 5 view .LVU85
ARM GAS  C:\Users\tijsv\AppData\Local\Temp\ccDyLCdQ.s 			page 22


 504 0002 0A20     		movs	r0, #10
 505 0004 FFF7FEFF 		bl	HAL_Delay
 506              	.LVL30:
 150:../../../core/drivers/octa-flash/src/octa-flash.c ****     {
 507              		.loc 1 150 5 view .LVU86
 150:../../../core/drivers/octa-flash/src/octa-flash.c ****     {
 508              		.loc 1 150 9 is_stmt 0 view .LVU87
 509 0008 FFF7FEFF 		bl	OCTA_FLASH_isWriteInProgress
 510              	.LVL31:
 150:../../../core/drivers/octa-flash/src/octa-flash.c ****     {
 511              		.loc 1 150 8 view .LVU88
 512 000c 20B9     		cbnz	r0, .L35
 155:../../../core/drivers/octa-flash/src/octa-flash.c ****     mCurrentReadAddress = newAddress;
 513              		.loc 1 155 5 is_stmt 1 view .LVU89
 514              	.LVL32:
 156:../../../core/drivers/octa-flash/src/octa-flash.c ****     mCurrentWriteAddress = newAddress;
 515              		.loc 1 156 5 view .LVU90
 156:../../../core/drivers/octa-flash/src/octa-flash.c ****     mCurrentWriteAddress = newAddress;
 516              		.loc 1 156 25 is_stmt 0 view .LVU91
 517 000e 044B     		ldr	r3, .L37
 518 0010 1860     		str	r0, [r3]
 157:../../../core/drivers/octa-flash/src/octa-flash.c **** 
 519              		.loc 1 157 5 is_stmt 1 view .LVU92
 157:../../../core/drivers/octa-flash/src/octa-flash.c **** 
 520              		.loc 1 157 26 is_stmt 0 view .LVU93
 521 0012 044B     		ldr	r3, .L37+4
 522 0014 1860     		str	r0, [r3]
 159:../../../core/drivers/octa-flash/src/octa-flash.c **** }
 523              		.loc 1 159 5 is_stmt 1 view .LVU94
 524              	.LVL33:
 525              	.L33:
 160:../../../core/drivers/octa-flash/src/octa-flash.c **** 
 526              		.loc 1 160 1 is_stmt 0 view .LVU95
 527 0016 08BD     		pop	{r3, pc}
 528              	.L35:
 152:../../../core/drivers/octa-flash/src/octa-flash.c ****     }
 529              		.loc 1 152 16 view .LVU96
 530 0018 6FF00100 		mvn	r0, #1
 531 001c FBE7     		b	.L33
 532              	.L38:
 533 001e 00BF     		.align	2
 534              	.L37:
 535 0020 00000000 		.word	mCurrentReadAddress
 536 0024 00000000 		.word	mCurrentWriteAddress
 537              		.cfi_endproc
 538              	.LFE135:
 540              		.section	.text.OCTA_FLASH_send4BCommand,"ax",%progbits
 541              		.align	1
 542              		.global	OCTA_FLASH_send4BCommand
 543              		.syntax unified
 544              		.thumb
 545              		.thumb_func
 546              		.fpu fpv4-sp-d16
 548              	OCTA_FLASH_send4BCommand:
 549              	.LVL34:
 550              	.LFB146:
 571:../../../core/drivers/octa-flash/src/octa-flash.c **** 
ARM GAS  C:\Users\tijsv\AppData\Local\Temp\ccDyLCdQ.s 			page 23


 551              		.loc 1 571 1 is_stmt 1 view -0
 552              		.cfi_startproc
 553              		@ args = 0, pretend = 0, frame = 0
 554              		@ frame_needed = 0, uses_anonymous_args = 0
 571:../../../core/drivers/octa-flash/src/octa-flash.c **** 
 555              		.loc 1 571 1 is_stmt 0 view .LVU98
 556 0000 70B5     		push	{r4, r5, r6, lr}
 557              	.LCFI13:
 558              		.cfi_def_cfa_offset 16
 559              		.cfi_offset 4, -16
 560              		.cfi_offset 5, -12
 561              		.cfi_offset 6, -8
 562              		.cfi_offset 14, -4
 563 0002 0646     		mov	r6, r0
 564 0004 0C46     		mov	r4, r1
 573:../../../core/drivers/octa-flash/src/octa-flash.c ****     {
 565              		.loc 1 573 5 is_stmt 1 view .LVU99
 573:../../../core/drivers/octa-flash/src/octa-flash.c ****     {
 566              		.loc 1 573 9 is_stmt 0 view .LVU100
 567 0006 FFF7FEFF 		bl	OCTA_FLASH_isWriteInProgress
 568              	.LVL35:
 573:../../../core/drivers/octa-flash/src/octa-flash.c ****     {
 569              		.loc 1 573 8 view .LVU101
 570 000a E0B9     		cbnz	r0, .L41
 578:../../../core/drivers/octa-flash/src/octa-flash.c ****     txData[index++] = command;
 571              		.loc 1 578 5 is_stmt 1 view .LVU102
 572              	.LVL36:
 579:../../../core/drivers/octa-flash/src/octa-flash.c **** 
 573              		.loc 1 579 5 view .LVU103
 579:../../../core/drivers/octa-flash/src/octa-flash.c **** 
 574              		.loc 1 579 21 is_stmt 0 view .LVU104
 575 000c 114D     		ldr	r5, .L44
 576 000e 2E70     		strb	r6, [r5]
 582:../../../core/drivers/octa-flash/src/octa-flash.c ****     txData[index++] = (uint8_t)((address >> 16) & 0x000000FF);
 577              		.loc 1 582 5 is_stmt 1 view .LVU105
 578              	.LVL37:
 582:../../../core/drivers/octa-flash/src/octa-flash.c ****     txData[index++] = (uint8_t)((address >> 16) & 0x000000FF);
 579              		.loc 1 582 23 is_stmt 0 view .LVU106
 580 0010 230E     		lsrs	r3, r4, #24
 582:../../../core/drivers/octa-flash/src/octa-flash.c ****     txData[index++] = (uint8_t)((address >> 16) & 0x000000FF);
 581              		.loc 1 582 21 view .LVU107
 582 0012 6B70     		strb	r3, [r5, #1]
 583:../../../core/drivers/octa-flash/src/octa-flash.c ****     txData[index++] = (uint8_t)((address >> 8) & 0x000000FF);
 583              		.loc 1 583 5 is_stmt 1 view .LVU108
 584              	.LVL38:
 583:../../../core/drivers/octa-flash/src/octa-flash.c ****     txData[index++] = (uint8_t)((address >> 8) & 0x000000FF);
 585              		.loc 1 583 23 is_stmt 0 view .LVU109
 586 0014 C4F30743 		ubfx	r3, r4, #16, #8
 583:../../../core/drivers/octa-flash/src/octa-flash.c ****     txData[index++] = (uint8_t)((address >> 8) & 0x000000FF);
 587              		.loc 1 583 21 view .LVU110
 588 0018 AB70     		strb	r3, [r5, #2]
 584:../../../core/drivers/octa-flash/src/octa-flash.c ****     txData[index++] = (uint8_t)(address & 0x000000FF);
 589              		.loc 1 584 5 is_stmt 1 view .LVU111
 590              	.LVL39:
 584:../../../core/drivers/octa-flash/src/octa-flash.c ****     txData[index++] = (uint8_t)(address & 0x000000FF);
 591              		.loc 1 584 23 is_stmt 0 view .LVU112
 592 001a C4F30723 		ubfx	r3, r4, #8, #8
ARM GAS  C:\Users\tijsv\AppData\Local\Temp\ccDyLCdQ.s 			page 24


 584:../../../core/drivers/octa-flash/src/octa-flash.c ****     txData[index++] = (uint8_t)(address & 0x000000FF);
 593              		.loc 1 584 21 view .LVU113
 594 001e EB70     		strb	r3, [r5, #3]
 585:../../../core/drivers/octa-flash/src/octa-flash.c **** 
 595              		.loc 1 585 5 is_stmt 1 view .LVU114
 596              	.LVL40:
 585:../../../core/drivers/octa-flash/src/octa-flash.c **** 
 597              		.loc 1 585 21 is_stmt 0 view .LVU115
 598 0020 2C71     		strb	r4, [r5, #4]
 589:../../../core/drivers/octa-flash/src/octa-flash.c ****     __HAL_SPI_ENABLE(flashSPI);
 599              		.loc 1 589 5 is_stmt 1 view .LVU116
 600 0022 FFF7FEFF 		bl	OCTA_FLASH_Enable
 601              	.LVL41:
 590:../../../core/drivers/octa-flash/src/octa-flash.c **** 
 602              		.loc 1 590 5 view .LVU117
 603 0026 0C48     		ldr	r0, .L44+4
 604 0028 0368     		ldr	r3, [r0]
 605 002a 1A68     		ldr	r2, [r3]
 606 002c 1368     		ldr	r3, [r2]
 607 002e 43F04003 		orr	r3, r3, #64
 608 0032 1360     		str	r3, [r2]
 593:../../../core/drivers/octa-flash/src/octa-flash.c ****     {
 609              		.loc 1 593 5 view .LVU118
 593:../../../core/drivers/octa-flash/src/octa-flash.c ****     {
 610              		.loc 1 593 8 is_stmt 0 view .LVU119
 611 0034 4FF0FF33 		mov	r3, #-1
 612 0038 0522     		movs	r2, #5
 613 003a 2946     		mov	r1, r5
 614 003c 0068     		ldr	r0, [r0]
 615 003e FFF7FEFF 		bl	HAL_SPI_Transmit
 616              	.LVL42:
 593:../../../core/drivers/octa-flash/src/octa-flash.c ****     {
 617              		.loc 1 593 7 view .LVU120
 618 0042 18B9     		cbnz	r0, .L42
 619              	.LVL43:
 620              	.L39:
 599:../../../core/drivers/octa-flash/src/octa-flash.c **** 
 621              		.loc 1 599 1 view .LVU121
 622 0044 70BD     		pop	{r4, r5, r6, pc}
 623              	.LVL44:
 624              	.L41:
 575:../../../core/drivers/octa-flash/src/octa-flash.c ****     }
 625              		.loc 1 575 16 view .LVU122
 626 0046 6FF00100 		mvn	r0, #1
 627 004a FBE7     		b	.L39
 628              	.LVL45:
 629              	.L42:
 595:../../../core/drivers/octa-flash/src/octa-flash.c ****     }
 630              		.loc 1 595 16 view .LVU123
 631 004c 6FF00200 		mvn	r0, #2
 632 0050 F8E7     		b	.L39
 633              	.L45:
 634 0052 00BF     		.align	2
 635              	.L44:
 636 0054 00000000 		.word	txData
 637 0058 00000000 		.word	flashSPI
 638              		.cfi_endproc
ARM GAS  C:\Users\tijsv\AppData\Local\Temp\ccDyLCdQ.s 			page 25


 639              	.LFE146:
 641              		.section	.rodata.OCTA_FLASH_read.str1.4,"aMS",%progbits,1
 642              		.align	2
 643              	.LC2:
 644 0000 0D0A2046 		.ascii	"\015\012 FLASH read error: %d\015\012\000"
 644      4C415348 
 644      20726561 
 644      64206572 
 644      726F723A 
 645              		.section	.text.OCTA_FLASH_read,"ax",%progbits
 646              		.align	1
 647              		.global	OCTA_FLASH_read
 648              		.syntax unified
 649              		.thumb
 650              		.thumb_func
 651              		.fpu fpv4-sp-d16
 653              	OCTA_FLASH_read:
 654              	.LVL46:
 655              	.LFB136:
 171:../../../core/drivers/octa-flash/src/octa-flash.c **** 
 656              		.loc 1 171 1 is_stmt 1 view -0
 657              		.cfi_startproc
 658              		@ args = 0, pretend = 0, frame = 0
 659              		@ frame_needed = 0, uses_anonymous_args = 0
 171:../../../core/drivers/octa-flash/src/octa-flash.c **** 
 660              		.loc 1 171 1 is_stmt 0 view .LVU125
 661 0000 70B5     		push	{r4, r5, r6, lr}
 662              	.LCFI14:
 663              		.cfi_def_cfa_offset 16
 664              		.cfi_offset 4, -16
 665              		.cfi_offset 5, -12
 666              		.cfi_offset 6, -8
 667              		.cfi_offset 14, -4
 668 0002 0546     		mov	r5, r0
 669 0004 0C46     		mov	r4, r1
 173:../../../core/drivers/octa-flash/src/octa-flash.c **** 
 670              		.loc 1 173 5 is_stmt 1 view .LVU126
 671 0006 0A20     		movs	r0, #10
 672              	.LVL47:
 173:../../../core/drivers/octa-flash/src/octa-flash.c **** 
 673              		.loc 1 173 5 is_stmt 0 view .LVU127
 674 0008 FFF7FEFF 		bl	HAL_Delay
 675              	.LVL48:
 175:../../../core/drivers/octa-flash/src/octa-flash.c ****     {
 676              		.loc 1 175 5 is_stmt 1 view .LVU128
 175:../../../core/drivers/octa-flash/src/octa-flash.c ****     {
 677              		.loc 1 175 9 is_stmt 0 view .LVU129
 678 000c FFF7FEFF 		bl	OCTA_FLASH_isWriteInProgress
 679              	.LVL49:
 175:../../../core/drivers/octa-flash/src/octa-flash.c ****     {
 680              		.loc 1 175 8 view .LVU130
 681 0010 F0B9     		cbnz	r0, .L49
 181:../../../core/drivers/octa-flash/src/octa-flash.c ****     status = OCTA_FLASH_send4BCommand(SPI_READ_4B_CMD, mCurrentReadAddress);
 682              		.loc 1 181 5 is_stmt 1 view .LVU131
 683              	.LVL50:
 182:../../../core/drivers/octa-flash/src/octa-flash.c ****     if (status!=0)
 684              		.loc 1 182 5 view .LVU132
ARM GAS  C:\Users\tijsv\AppData\Local\Temp\ccDyLCdQ.s 			page 26


 182:../../../core/drivers/octa-flash/src/octa-flash.c ****     if (status!=0)
 685              		.loc 1 182 14 is_stmt 0 view .LVU133
 686 0012 114B     		ldr	r3, .L52
 687 0014 1968     		ldr	r1, [r3]
 688 0016 1320     		movs	r0, #19
 689 0018 FFF7FEFF 		bl	OCTA_FLASH_send4BCommand
 690              	.LVL51:
 183:../../../core/drivers/octa-flash/src/octa-flash.c ****     {
 691              		.loc 1 183 5 is_stmt 1 view .LVU134
 183:../../../core/drivers/octa-flash/src/octa-flash.c ****     {
 692              		.loc 1 183 8 is_stmt 0 view .LVU135
 693 001c 0646     		mov	r6, r0
 694 001e 90B9     		cbnz	r0, .L51
 189:../../../core/drivers/octa-flash/src/octa-flash.c **** 
 695              		.loc 1 189 5 is_stmt 1 view .LVU136
 696 0020 0E4E     		ldr	r6, .L52+4
 697 0022 4FF0FF33 		mov	r3, #-1
 698 0026 A2B2     		uxth	r2, r4
 699 0028 2946     		mov	r1, r5
 700 002a 3068     		ldr	r0, [r6]
 701              	.LVL52:
 189:../../../core/drivers/octa-flash/src/octa-flash.c **** 
 702              		.loc 1 189 5 is_stmt 0 view .LVU137
 703 002c FFF7FEFF 		bl	HAL_SPI_Receive
 704              	.LVL53:
 191:../../../core/drivers/octa-flash/src/octa-flash.c ****     __HAL_SPI_DISABLE(flashSPI);
 705              		.loc 1 191 5 is_stmt 1 view .LVU138
 706 0030 FFF7FEFF 		bl	OCTA_FLASH_Disable
 707              	.LVL54:
 192:../../../core/drivers/octa-flash/src/octa-flash.c **** 
 708              		.loc 1 192 5 view .LVU139
 709 0034 3368     		ldr	r3, [r6]
 710 0036 1A68     		ldr	r2, [r3]
 711 0038 1368     		ldr	r3, [r2]
 712 003a 23F04003 		bic	r3, r3, #64
 713 003e 1360     		str	r3, [r2]
 194:../../../core/drivers/octa-flash/src/octa-flash.c **** }
 714              		.loc 1 194 5 view .LVU140
 194:../../../core/drivers/octa-flash/src/octa-flash.c **** }
 715              		.loc 1 194 12 is_stmt 0 view .LVU141
 716 0040 2646     		mov	r6, r4
 717              	.L46:
 195:../../../core/drivers/octa-flash/src/octa-flash.c **** 
 718              		.loc 1 195 1 view .LVU142
 719 0042 3046     		mov	r0, r6
 720 0044 70BD     		pop	{r4, r5, r6, pc}
 721              	.LVL55:
 722              	.L51:
 185:../../../core/drivers/octa-flash/src/octa-flash.c ****         return status;
 723              		.loc 1 185 9 is_stmt 1 view .LVU143
 724 0046 0146     		mov	r1, r0
 725 0048 0548     		ldr	r0, .L52+8
 726              	.LVL56:
 185:../../../core/drivers/octa-flash/src/octa-flash.c ****         return status;
 727              		.loc 1 185 9 is_stmt 0 view .LVU144
 728 004a FFF7FEFF 		bl	printDBG
 729              	.LVL57:
ARM GAS  C:\Users\tijsv\AppData\Local\Temp\ccDyLCdQ.s 			page 27


 186:../../../core/drivers/octa-flash/src/octa-flash.c ****     }
 730              		.loc 1 186 9 is_stmt 1 view .LVU145
 186:../../../core/drivers/octa-flash/src/octa-flash.c ****     }
 731              		.loc 1 186 16 is_stmt 0 view .LVU146
 732 004e F8E7     		b	.L46
 733              	.LVL58:
 734              	.L49:
 177:../../../core/drivers/octa-flash/src/octa-flash.c ****     }
 735              		.loc 1 177 16 view .LVU147
 736 0050 6FF00106 		mvn	r6, #1
 737 0054 F5E7     		b	.L46
 738              	.L53:
 739 0056 00BF     		.align	2
 740              	.L52:
 741 0058 00000000 		.word	mCurrentReadAddress
 742 005c 00000000 		.word	flashSPI
 743 0060 00000000 		.word	.LC2
 744              		.cfi_endproc
 745              	.LFE136:
 747              		.section	.text.OCTA_FLASH_sendCommand,"ax",%progbits
 748              		.align	1
 749              		.global	OCTA_FLASH_sendCommand
 750              		.syntax unified
 751              		.thumb
 752              		.thumb_func
 753              		.fpu fpv4-sp-d16
 755              	OCTA_FLASH_sendCommand:
 756              	.LVL59:
 757              	.LFB145:
 539:../../../core/drivers/octa-flash/src/octa-flash.c **** 
 758              		.loc 1 539 1 is_stmt 1 view -0
 759              		.cfi_startproc
 760              		@ args = 0, pretend = 0, frame = 0
 761              		@ frame_needed = 0, uses_anonymous_args = 0
 539:../../../core/drivers/octa-flash/src/octa-flash.c **** 
 762              		.loc 1 539 1 is_stmt 0 view .LVU149
 763 0000 38B5     		push	{r3, r4, r5, lr}
 764              	.LCFI15:
 765              		.cfi_def_cfa_offset 16
 766              		.cfi_offset 3, -16
 767              		.cfi_offset 4, -12
 768              		.cfi_offset 5, -8
 769              		.cfi_offset 14, -4
 770 0002 0446     		mov	r4, r0
 541:../../../core/drivers/octa-flash/src/octa-flash.c ****     {
 771              		.loc 1 541 5 is_stmt 1 view .LVU150
 541:../../../core/drivers/octa-flash/src/octa-flash.c ****     {
 772              		.loc 1 541 9 is_stmt 0 view .LVU151
 773 0004 FFF7FEFF 		bl	OCTA_FLASH_isWriteInProgress
 774              	.LVL60:
 541:../../../core/drivers/octa-flash/src/octa-flash.c ****     {
 775              		.loc 1 541 8 view .LVU152
 776 0008 E8B9     		cbnz	r0, .L56
 546:../../../core/drivers/octa-flash/src/octa-flash.c **** 
 777              		.loc 1 546 5 is_stmt 1 view .LVU153
 546:../../../core/drivers/octa-flash/src/octa-flash.c **** 
 778              		.loc 1 546 15 is_stmt 0 view .LVU154
ARM GAS  C:\Users\tijsv\AppData\Local\Temp\ccDyLCdQ.s 			page 28


 779 000a 124D     		ldr	r5, .L59
 780 000c 2C70     		strb	r4, [r5]
 548:../../../core/drivers/octa-flash/src/octa-flash.c ****     __HAL_SPI_ENABLE(flashSPI);
 781              		.loc 1 548 5 is_stmt 1 view .LVU155
 782 000e FFF7FEFF 		bl	OCTA_FLASH_Enable
 783              	.LVL61:
 549:../../../core/drivers/octa-flash/src/octa-flash.c **** 
 784              		.loc 1 549 5 view .LVU156
 785 0012 1148     		ldr	r0, .L59+4
 786 0014 0368     		ldr	r3, [r0]
 787 0016 1A68     		ldr	r2, [r3]
 788 0018 1368     		ldr	r3, [r2]
 789 001a 43F04003 		orr	r3, r3, #64
 790 001e 1360     		str	r3, [r2]
 551:../../../core/drivers/octa-flash/src/octa-flash.c ****     {
 791              		.loc 1 551 5 view .LVU157
 551:../../../core/drivers/octa-flash/src/octa-flash.c ****     {
 792              		.loc 1 551 8 is_stmt 0 view .LVU158
 793 0020 4FF0FF33 		mov	r3, #-1
 794 0024 0122     		movs	r2, #1
 795 0026 2946     		mov	r1, r5
 796 0028 0068     		ldr	r0, [r0]
 797 002a FFF7FEFF 		bl	HAL_SPI_Transmit
 798              	.LVL62:
 551:../../../core/drivers/octa-flash/src/octa-flash.c ****     {
 799              		.loc 1 551 7 view .LVU159
 800 002e 68B9     		cbnz	r0, .L57
 556:../../../core/drivers/octa-flash/src/octa-flash.c ****     OCTA_FLASH_Disable();
 801              		.loc 1 556 5 is_stmt 1 view .LVU160
 802 0030 094B     		ldr	r3, .L59+4
 803 0032 1B68     		ldr	r3, [r3]
 804 0034 1A68     		ldr	r2, [r3]
 805 0036 1368     		ldr	r3, [r2]
 806 0038 23F04003 		bic	r3, r3, #64
 807 003c 1360     		str	r3, [r2]
 557:../../../core/drivers/octa-flash/src/octa-flash.c **** 
 808              		.loc 1 557 5 view .LVU161
 809 003e FFF7FEFF 		bl	OCTA_FLASH_Disable
 810              	.LVL63:
 559:../../../core/drivers/octa-flash/src/octa-flash.c **** }
 811              		.loc 1 559 5 view .LVU162
 559:../../../core/drivers/octa-flash/src/octa-flash.c **** }
 812              		.loc 1 559 12 is_stmt 0 view .LVU163
 813 0042 0020     		movs	r0, #0
 814              	.L54:
 560:../../../core/drivers/octa-flash/src/octa-flash.c **** 
 815              		.loc 1 560 1 view .LVU164
 816 0044 38BD     		pop	{r3, r4, r5, pc}
 817              	.L56:
 543:../../../core/drivers/octa-flash/src/octa-flash.c ****     }
 818              		.loc 1 543 16 view .LVU165
 819 0046 6FF00100 		mvn	r0, #1
 820 004a FBE7     		b	.L54
 821              	.L57:
 553:../../../core/drivers/octa-flash/src/octa-flash.c ****     }
 822              		.loc 1 553 16 view .LVU166
 823 004c 6FF00200 		mvn	r0, #2
ARM GAS  C:\Users\tijsv\AppData\Local\Temp\ccDyLCdQ.s 			page 29


 824 0050 F8E7     		b	.L54
 825              	.L60:
 826 0052 00BF     		.align	2
 827              	.L59:
 828 0054 00000000 		.word	txData
 829 0058 00000000 		.word	flashSPI
 830              		.cfi_endproc
 831              	.LFE145:
 833              		.section	.text.OCTA_FLASH_Enter_4B_Mode,"ax",%progbits
 834              		.align	1
 835              		.global	OCTA_FLASH_Enter_4B_Mode
 836              		.syntax unified
 837              		.thumb
 838              		.thumb_func
 839              		.fpu fpv4-sp-d16
 841              	OCTA_FLASH_Enter_4B_Mode:
 842              	.LFB133:
  93:../../../core/drivers/octa-flash/src/octa-flash.c ****     HAL_Delay(SPI_WAIT);
 843              		.loc 1 93 1 is_stmt 1 view -0
 844              		.cfi_startproc
 845              		@ args = 0, pretend = 0, frame = 0
 846              		@ frame_needed = 0, uses_anonymous_args = 0
 847 0000 08B5     		push	{r3, lr}
 848              	.LCFI16:
 849              		.cfi_def_cfa_offset 8
 850              		.cfi_offset 3, -8
 851              		.cfi_offset 14, -4
  94:../../../core/drivers/octa-flash/src/octa-flash.c **** 
 852              		.loc 1 94 5 view .LVU168
 853 0002 0A20     		movs	r0, #10
 854 0004 FFF7FEFF 		bl	HAL_Delay
 855              	.LVL64:
  96:../../../core/drivers/octa-flash/src/octa-flash.c ****     {
 856              		.loc 1 96 5 view .LVU169
  96:../../../core/drivers/octa-flash/src/octa-flash.c ****     {
 857              		.loc 1 96 9 is_stmt 0 view .LVU170
 858 0008 FFF7FEFF 		bl	OCTA_FLASH_isWriteInProgress
 859              	.LVL65:
  96:../../../core/drivers/octa-flash/src/octa-flash.c ****     {
 860              		.loc 1 96 8 view .LVU171
 861 000c 00B1     		cbz	r0, .L64
 862              	.L61:
 109:../../../core/drivers/octa-flash/src/octa-flash.c **** 
 863              		.loc 1 109 1 view .LVU172
 864 000e 08BD     		pop	{r3, pc}
 865              	.L64:
 102:../../../core/drivers/octa-flash/src/octa-flash.c ****     {
 866              		.loc 1 102 5 is_stmt 1 view .LVU173
 102:../../../core/drivers/octa-flash/src/octa-flash.c ****     {
 867              		.loc 1 102 9 is_stmt 0 view .LVU174
 868 0010 B720     		movs	r0, #183
 869 0012 FFF7FEFF 		bl	OCTA_FLASH_sendCommand
 870              	.LVL66:
 871 0016 FAE7     		b	.L61
 872              		.cfi_endproc
 873              	.LFE133:
 875              		.section	.text.OCTA_FLASH_eraseFullFlash,"ax",%progbits
ARM GAS  C:\Users\tijsv\AppData\Local\Temp\ccDyLCdQ.s 			page 30


 876              		.align	1
 877              		.global	OCTA_FLASH_eraseFullFlash
 878              		.syntax unified
 879              		.thumb
 880              		.thumb_func
 881              		.fpu fpv4-sp-d16
 883              	OCTA_FLASH_eraseFullFlash:
 884              	.LFB139:
 285:../../../core/drivers/octa-flash/src/octa-flash.c **** 
 885              		.loc 1 285 1 is_stmt 1 view -0
 886              		.cfi_startproc
 887              		@ args = 0, pretend = 0, frame = 0
 888              		@ frame_needed = 0, uses_anonymous_args = 0
 889 0000 08B5     		push	{r3, lr}
 890              	.LCFI17:
 891              		.cfi_def_cfa_offset 8
 892              		.cfi_offset 3, -8
 893              		.cfi_offset 14, -4
 287:../../../core/drivers/octa-flash/src/octa-flash.c **** 
 894              		.loc 1 287 5 view .LVU176
 895 0002 0A20     		movs	r0, #10
 896 0004 FFF7FEFF 		bl	HAL_Delay
 897              	.LVL67:
 289:../../../core/drivers/octa-flash/src/octa-flash.c ****     {
 898              		.loc 1 289 5 view .LVU177
 289:../../../core/drivers/octa-flash/src/octa-flash.c ****     {
 899              		.loc 1 289 9 is_stmt 0 view .LVU178
 900 0008 FFF7FEFF 		bl	OCTA_FLASH_isWriteInProgress
 901              	.LVL68:
 289:../../../core/drivers/octa-flash/src/octa-flash.c ****     {
 902              		.loc 1 289 8 view .LVU179
 903 000c 98B9     		cbnz	r0, .L67
 295:../../../core/drivers/octa-flash/src/octa-flash.c ****     {
 904              		.loc 1 295 5 is_stmt 1 view .LVU180
 295:../../../core/drivers/octa-flash/src/octa-flash.c ****     {
 905              		.loc 1 295 9 is_stmt 0 view .LVU181
 906 000e 0620     		movs	r0, #6
 907 0010 FFF7FEFF 		bl	OCTA_FLASH_sendCommand
 908              	.LVL69:
 295:../../../core/drivers/octa-flash/src/octa-flash.c ****     {
 909              		.loc 1 295 8 view .LVU182
 910 0014 10F1030F 		cmn	r0, #3
 911 0018 0CD0     		beq	.L65
 301:../../../core/drivers/octa-flash/src/octa-flash.c ****     {
 912              		.loc 1 301 5 is_stmt 1 view .LVU183
 301:../../../core/drivers/octa-flash/src/octa-flash.c ****     {
 913              		.loc 1 301 9 is_stmt 0 view .LVU184
 914 001a 6020     		movs	r0, #96
 915 001c FFF7FEFF 		bl	OCTA_FLASH_sendCommand
 916              	.LVL70:
 301:../../../core/drivers/octa-flash/src/octa-flash.c ****     {
 917              		.loc 1 301 8 view .LVU185
 918 0020 10F1030F 		cmn	r0, #3
 919 0024 06D0     		beq	.L65
 307:../../../core/drivers/octa-flash/src/octa-flash.c ****     {
 920              		.loc 1 307 5 is_stmt 1 view .LVU186
 307:../../../core/drivers/octa-flash/src/octa-flash.c ****     {
ARM GAS  C:\Users\tijsv\AppData\Local\Temp\ccDyLCdQ.s 			page 31


 921              		.loc 1 307 9 is_stmt 0 view .LVU187
 922 0026 0420     		movs	r0, #4
 923 0028 FFF7FEFF 		bl	OCTA_FLASH_sendCommand
 924              	.LVL71:
 307:../../../core/drivers/octa-flash/src/octa-flash.c ****     {
 925              		.loc 1 307 8 view .LVU188
 926 002c 10F1030F 		cmn	r0, #3
 927 0030 00D0     		beq	.L65
 312:../../../core/drivers/octa-flash/src/octa-flash.c **** }
 928              		.loc 1 312 12 view .LVU189
 929 0032 0020     		movs	r0, #0
 930              	.L65:
 313:../../../core/drivers/octa-flash/src/octa-flash.c **** 
 931              		.loc 1 313 1 view .LVU190
 932 0034 08BD     		pop	{r3, pc}
 933              	.L67:
 291:../../../core/drivers/octa-flash/src/octa-flash.c ****     }
 934              		.loc 1 291 16 view .LVU191
 935 0036 6FF00100 		mvn	r0, #1
 936 003a FBE7     		b	.L65
 937              		.cfi_endproc
 938              	.LFE139:
 940              		.section	.text.OCTA_FLASH_erase265KBSectorFromPage,"ax",%progbits
 941              		.align	1
 942              		.global	OCTA_FLASH_erase265KBSectorFromPage
 943              		.syntax unified
 944              		.thumb
 945              		.thumb_func
 946              		.fpu fpv4-sp-d16
 948              	OCTA_FLASH_erase265KBSectorFromPage:
 949              	.LVL72:
 950              	.LFB140:
 325:../../../core/drivers/octa-flash/src/octa-flash.c **** 
 951              		.loc 1 325 1 is_stmt 1 view -0
 952              		.cfi_startproc
 953              		@ args = 0, pretend = 0, frame = 0
 954              		@ frame_needed = 0, uses_anonymous_args = 0
 325:../../../core/drivers/octa-flash/src/octa-flash.c **** 
 955              		.loc 1 325 1 is_stmt 0 view .LVU193
 956 0000 10B5     		push	{r4, lr}
 957              	.LCFI18:
 958              		.cfi_def_cfa_offset 8
 959              		.cfi_offset 4, -8
 960              		.cfi_offset 14, -4
 961 0002 0446     		mov	r4, r0
 327:../../../core/drivers/octa-flash/src/octa-flash.c **** 
 962              		.loc 1 327 5 is_stmt 1 view .LVU194
 963 0004 0A20     		movs	r0, #10
 964              	.LVL73:
 327:../../../core/drivers/octa-flash/src/octa-flash.c **** 
 965              		.loc 1 327 5 is_stmt 0 view .LVU195
 966 0006 FFF7FEFF 		bl	HAL_Delay
 967              	.LVL74:
 329:../../../core/drivers/octa-flash/src/octa-flash.c ****     {
 968              		.loc 1 329 5 is_stmt 1 view .LVU196
 329:../../../core/drivers/octa-flash/src/octa-flash.c ****     {
 969              		.loc 1 329 9 is_stmt 0 view .LVU197
ARM GAS  C:\Users\tijsv\AppData\Local\Temp\ccDyLCdQ.s 			page 32


 970 000a FFF7FEFF 		bl	OCTA_FLASH_isWriteInProgress
 971              	.LVL75:
 329:../../../core/drivers/octa-flash/src/octa-flash.c ****     {
 972              		.loc 1 329 8 view .LVU198
 973 000e 10BB     		cbnz	r0, .L71
 334:../../../core/drivers/octa-flash/src/octa-flash.c ****     {
 974              		.loc 1 334 5 is_stmt 1 view .LVU199
 334:../../../core/drivers/octa-flash/src/octa-flash.c ****     {
 975              		.loc 1 334 8 is_stmt 0 view .LVU200
 976 0010 144B     		ldr	r3, .L74
 977 0012 9C42     		cmp	r4, r3
 978 0014 22D8     		bhi	.L72
 340:../../../core/drivers/octa-flash/src/octa-flash.c ****     {
 979              		.loc 1 340 5 is_stmt 1 view .LVU201
 340:../../../core/drivers/octa-flash/src/octa-flash.c ****     {
 980              		.loc 1 340 9 is_stmt 0 view .LVU202
 981 0016 0620     		movs	r0, #6
 982 0018 FFF7FEFF 		bl	OCTA_FLASH_sendCommand
 983              	.LVL76:
 340:../../../core/drivers/octa-flash/src/octa-flash.c ****     {
 984              		.loc 1 340 8 view .LVU203
 985 001c 10F1030F 		cmn	r0, #3
 986 0020 18D0     		beq	.L69
 346:../../../core/drivers/octa-flash/src/octa-flash.c ****     {
 987              		.loc 1 346 5 is_stmt 1 view .LVU204
 346:../../../core/drivers/octa-flash/src/octa-flash.c ****     {
 988              		.loc 1 346 72 is_stmt 0 view .LVU205
 989 0022 04F11001 		add	r1, r4, #16
 346:../../../core/drivers/octa-flash/src/octa-flash.c ****     {
 990              		.loc 1 346 9 view .LVU206
 991 0026 0902     		lsls	r1, r1, #8
 992 0028 DC20     		movs	r0, #220
 993 002a FFF7FEFF 		bl	OCTA_FLASH_send4BCommand
 994              	.LVL77:
 346:../../../core/drivers/octa-flash/src/octa-flash.c ****     {
 995              		.loc 1 346 8 view .LVU207
 996 002e 10F1030F 		cmn	r0, #3
 997 0032 0FD0     		beq	.L69
 351:../../../core/drivers/octa-flash/src/octa-flash.c ****     OCTA_FLASH_Disable();
 998              		.loc 1 351 5 is_stmt 1 view .LVU208
 999 0034 0C4B     		ldr	r3, .L74+4
 1000 0036 1B68     		ldr	r3, [r3]
 1001 0038 1A68     		ldr	r2, [r3]
 1002 003a 1368     		ldr	r3, [r2]
 1003 003c 23F04003 		bic	r3, r3, #64
 1004 0040 1360     		str	r3, [r2]
 352:../../../core/drivers/octa-flash/src/octa-flash.c **** 
 1005              		.loc 1 352 5 view .LVU209
 1006 0042 FFF7FEFF 		bl	OCTA_FLASH_Disable
 1007              	.LVL78:
 355:../../../core/drivers/octa-flash/src/octa-flash.c ****     {
 1008              		.loc 1 355 5 view .LVU210
 355:../../../core/drivers/octa-flash/src/octa-flash.c ****     {
 1009              		.loc 1 355 9 is_stmt 0 view .LVU211
 1010 0046 0420     		movs	r0, #4
 1011 0048 FFF7FEFF 		bl	OCTA_FLASH_sendCommand
 1012              	.LVL79:
ARM GAS  C:\Users\tijsv\AppData\Local\Temp\ccDyLCdQ.s 			page 33


 355:../../../core/drivers/octa-flash/src/octa-flash.c ****     {
 1013              		.loc 1 355 8 view .LVU212
 1014 004c 10F1030F 		cmn	r0, #3
 1015 0050 00D0     		beq	.L69
 360:../../../core/drivers/octa-flash/src/octa-flash.c **** }
 1016              		.loc 1 360 12 view .LVU213
 1017 0052 0020     		movs	r0, #0
 1018              	.L69:
 361:../../../core/drivers/octa-flash/src/octa-flash.c **** 
 1019              		.loc 1 361 1 view .LVU214
 1020 0054 10BD     		pop	{r4, pc}
 1021              	.LVL80:
 1022              	.L71:
 331:../../../core/drivers/octa-flash/src/octa-flash.c ****     }
 1023              		.loc 1 331 16 view .LVU215
 1024 0056 6FF00100 		mvn	r0, #1
 1025 005a FBE7     		b	.L69
 1026              	.L72:
 336:../../../core/drivers/octa-flash/src/octa-flash.c ****     }
 1027              		.loc 1 336 16 view .LVU216
 1028 005c 6FF00300 		mvn	r0, #3
 1029 0060 F8E7     		b	.L69
 1030              	.L75:
 1031 0062 00BF     		.align	2
 1032              	.L74:
 1033 0064 37E80100 		.word	124983
 1034 0068 00000000 		.word	flashSPI
 1035              		.cfi_endproc
 1036              	.LFE140:
 1038              		.section	.text.OCTA_FLASH_erase4KBSectorFromPage,"ax",%progbits
 1039              		.align	1
 1040              		.global	OCTA_FLASH_erase4KBSectorFromPage
 1041              		.syntax unified
 1042              		.thumb
 1043              		.thumb_func
 1044              		.fpu fpv4-sp-d16
 1046              	OCTA_FLASH_erase4KBSectorFromPage:
 1047              	.LVL81:
 1048              	.LFB141:
 373:../../../core/drivers/octa-flash/src/octa-flash.c **** 
 1049              		.loc 1 373 1 is_stmt 1 view -0
 1050              		.cfi_startproc
 1051              		@ args = 0, pretend = 0, frame = 0
 1052              		@ frame_needed = 0, uses_anonymous_args = 0
 373:../../../core/drivers/octa-flash/src/octa-flash.c **** 
 1053              		.loc 1 373 1 is_stmt 0 view .LVU218
 1054 0000 10B5     		push	{r4, lr}
 1055              	.LCFI19:
 1056              		.cfi_def_cfa_offset 8
 1057              		.cfi_offset 4, -8
 1058              		.cfi_offset 14, -4
 1059 0002 0446     		mov	r4, r0
 375:../../../core/drivers/octa-flash/src/octa-flash.c **** 
 1060              		.loc 1 375 5 is_stmt 1 view .LVU219
 1061 0004 0A20     		movs	r0, #10
 1062              	.LVL82:
 375:../../../core/drivers/octa-flash/src/octa-flash.c **** 
ARM GAS  C:\Users\tijsv\AppData\Local\Temp\ccDyLCdQ.s 			page 34


 1063              		.loc 1 375 5 is_stmt 0 view .LVU220
 1064 0006 FFF7FEFF 		bl	HAL_Delay
 1065              	.LVL83:
 377:../../../core/drivers/octa-flash/src/octa-flash.c ****     {
 1066              		.loc 1 377 5 is_stmt 1 view .LVU221
 377:../../../core/drivers/octa-flash/src/octa-flash.c ****     {
 1067              		.loc 1 377 9 is_stmt 0 view .LVU222
 1068 000a FFF7FEFF 		bl	OCTA_FLASH_isWriteInProgress
 1069              	.LVL84:
 377:../../../core/drivers/octa-flash/src/octa-flash.c ****     {
 1070              		.loc 1 377 8 view .LVU223
 1071 000e 10BB     		cbnz	r0, .L78
 382:../../../core/drivers/octa-flash/src/octa-flash.c ****     {
 1072              		.loc 1 382 5 is_stmt 1 view .LVU224
 382:../../../core/drivers/octa-flash/src/octa-flash.c ****     {
 1073              		.loc 1 382 8 is_stmt 0 view .LVU225
 1074 0010 144B     		ldr	r3, .L81
 1075 0012 9C42     		cmp	r4, r3
 1076 0014 22D8     		bhi	.L79
 388:../../../core/drivers/octa-flash/src/octa-flash.c ****     {
 1077              		.loc 1 388 5 is_stmt 1 view .LVU226
 388:../../../core/drivers/octa-flash/src/octa-flash.c ****     {
 1078              		.loc 1 388 9 is_stmt 0 view .LVU227
 1079 0016 0620     		movs	r0, #6
 1080 0018 FFF7FEFF 		bl	OCTA_FLASH_sendCommand
 1081              	.LVL85:
 388:../../../core/drivers/octa-flash/src/octa-flash.c ****     {
 1082              		.loc 1 388 8 view .LVU228
 1083 001c 10F1030F 		cmn	r0, #3
 1084 0020 18D0     		beq	.L76
 394:../../../core/drivers/octa-flash/src/octa-flash.c ****     {
 1085              		.loc 1 394 5 is_stmt 1 view .LVU229
 394:../../../core/drivers/octa-flash/src/octa-flash.c ****     {
 1086              		.loc 1 394 70 is_stmt 0 view .LVU230
 1087 0022 04F11001 		add	r1, r4, #16
 394:../../../core/drivers/octa-flash/src/octa-flash.c ****     {
 1088              		.loc 1 394 9 view .LVU231
 1089 0026 0902     		lsls	r1, r1, #8
 1090 0028 2020     		movs	r0, #32
 1091 002a FFF7FEFF 		bl	OCTA_FLASH_send4BCommand
 1092              	.LVL86:
 394:../../../core/drivers/octa-flash/src/octa-flash.c ****     {
 1093              		.loc 1 394 8 view .LVU232
 1094 002e 10F1030F 		cmn	r0, #3
 1095 0032 0FD0     		beq	.L76
 399:../../../core/drivers/octa-flash/src/octa-flash.c ****     OCTA_FLASH_Disable();
 1096              		.loc 1 399 5 is_stmt 1 view .LVU233
 1097 0034 0C4B     		ldr	r3, .L81+4
 1098 0036 1B68     		ldr	r3, [r3]
 1099 0038 1A68     		ldr	r2, [r3]
 1100 003a 1368     		ldr	r3, [r2]
 1101 003c 23F04003 		bic	r3, r3, #64
 1102 0040 1360     		str	r3, [r2]
 400:../../../core/drivers/octa-flash/src/octa-flash.c **** 
 1103              		.loc 1 400 5 view .LVU234
 1104 0042 FFF7FEFF 		bl	OCTA_FLASH_Disable
 1105              	.LVL87:
ARM GAS  C:\Users\tijsv\AppData\Local\Temp\ccDyLCdQ.s 			page 35


 403:../../../core/drivers/octa-flash/src/octa-flash.c ****     {
 1106              		.loc 1 403 5 view .LVU235
 403:../../../core/drivers/octa-flash/src/octa-flash.c ****     {
 1107              		.loc 1 403 9 is_stmt 0 view .LVU236
 1108 0046 0420     		movs	r0, #4
 1109 0048 FFF7FEFF 		bl	OCTA_FLASH_sendCommand
 1110              	.LVL88:
 403:../../../core/drivers/octa-flash/src/octa-flash.c ****     {
 1111              		.loc 1 403 8 view .LVU237
 1112 004c 10F1030F 		cmn	r0, #3
 1113 0050 00D0     		beq	.L76
 408:../../../core/drivers/octa-flash/src/octa-flash.c **** }
 1114              		.loc 1 408 12 view .LVU238
 1115 0052 0020     		movs	r0, #0
 1116              	.L76:
 409:../../../core/drivers/octa-flash/src/octa-flash.c **** 
 1117              		.loc 1 409 1 view .LVU239
 1118 0054 10BD     		pop	{r4, pc}
 1119              	.LVL89:
 1120              	.L78:
 379:../../../core/drivers/octa-flash/src/octa-flash.c ****     }
 1121              		.loc 1 379 16 view .LVU240
 1122 0056 6FF00100 		mvn	r0, #1
 1123 005a FBE7     		b	.L76
 1124              	.L79:
 384:../../../core/drivers/octa-flash/src/octa-flash.c ****     }
 1125              		.loc 1 384 16 view .LVU241
 1126 005c 6FF00300 		mvn	r0, #3
 1127 0060 F8E7     		b	.L76
 1128              	.L82:
 1129 0062 00BF     		.align	2
 1130              	.L81:
 1131 0064 37E80100 		.word	124983
 1132 0068 00000000 		.word	flashSPI
 1133              		.cfi_endproc
 1134              	.LFE141:
 1136              		.section	.text.OCTA_FLASH_eraseConfigSector,"ax",%progbits
 1137              		.align	1
 1138              		.global	OCTA_FLASH_eraseConfigSector
 1139              		.syntax unified
 1140              		.thumb
 1141              		.thumb_func
 1142              		.fpu fpv4-sp-d16
 1144              	OCTA_FLASH_eraseConfigSector:
 1145              	.LFB142:
 421:../../../core/drivers/octa-flash/src/octa-flash.c **** 
 1146              		.loc 1 421 1 is_stmt 1 view -0
 1147              		.cfi_startproc
 1148              		@ args = 0, pretend = 0, frame = 0
 1149              		@ frame_needed = 0, uses_anonymous_args = 0
 1150 0000 08B5     		push	{r3, lr}
 1151              	.LCFI20:
 1152              		.cfi_def_cfa_offset 8
 1153              		.cfi_offset 3, -8
 1154              		.cfi_offset 14, -4
 423:../../../core/drivers/octa-flash/src/octa-flash.c **** 
 1155              		.loc 1 423 5 view .LVU243
ARM GAS  C:\Users\tijsv\AppData\Local\Temp\ccDyLCdQ.s 			page 36


 1156 0002 0A20     		movs	r0, #10
 1157 0004 FFF7FEFF 		bl	HAL_Delay
 1158              	.LVL90:
 425:../../../core/drivers/octa-flash/src/octa-flash.c ****     {
 1159              		.loc 1 425 5 view .LVU244
 425:../../../core/drivers/octa-flash/src/octa-flash.c ****     {
 1160              		.loc 1 425 9 is_stmt 0 view .LVU245
 1161 0008 FFF7FEFF 		bl	OCTA_FLASH_isWriteInProgress
 1162              	.LVL91:
 425:../../../core/drivers/octa-flash/src/octa-flash.c ****     {
 1163              		.loc 1 425 8 view .LVU246
 1164 000c E8B9     		cbnz	r0, .L85
 431:../../../core/drivers/octa-flash/src/octa-flash.c ****     {
 1165              		.loc 1 431 5 is_stmt 1 view .LVU247
 431:../../../core/drivers/octa-flash/src/octa-flash.c ****     {
 1166              		.loc 1 431 9 is_stmt 0 view .LVU248
 1167 000e 0620     		movs	r0, #6
 1168 0010 FFF7FEFF 		bl	OCTA_FLASH_sendCommand
 1169              	.LVL92:
 431:../../../core/drivers/octa-flash/src/octa-flash.c ****     {
 1170              		.loc 1 431 8 view .LVU249
 1171 0014 10F1030F 		cmn	r0, #3
 1172 0018 16D0     		beq	.L83
 437:../../../core/drivers/octa-flash/src/octa-flash.c ****     {
 1173              		.loc 1 437 5 is_stmt 1 view .LVU250
 437:../../../core/drivers/octa-flash/src/octa-flash.c ****     {
 1174              		.loc 1 437 9 is_stmt 0 view .LVU251
 1175 001a 0021     		movs	r1, #0
 1176 001c 2020     		movs	r0, #32
 1177 001e FFF7FEFF 		bl	OCTA_FLASH_send4BCommand
 1178              	.LVL93:
 437:../../../core/drivers/octa-flash/src/octa-flash.c ****     {
 1179              		.loc 1 437 8 view .LVU252
 1180 0022 10F1030F 		cmn	r0, #3
 1181 0026 0FD0     		beq	.L83
 442:../../../core/drivers/octa-flash/src/octa-flash.c ****     OCTA_FLASH_Disable();
 1182              		.loc 1 442 5 is_stmt 1 view .LVU253
 1183 0028 094B     		ldr	r3, .L87
 1184 002a 1B68     		ldr	r3, [r3]
 1185 002c 1A68     		ldr	r2, [r3]
 1186 002e 1368     		ldr	r3, [r2]
 1187 0030 23F04003 		bic	r3, r3, #64
 1188 0034 1360     		str	r3, [r2]
 443:../../../core/drivers/octa-flash/src/octa-flash.c **** 
 1189              		.loc 1 443 5 view .LVU254
 1190 0036 FFF7FEFF 		bl	OCTA_FLASH_Disable
 1191              	.LVL94:
 446:../../../core/drivers/octa-flash/src/octa-flash.c ****     {
 1192              		.loc 1 446 5 view .LVU255
 446:../../../core/drivers/octa-flash/src/octa-flash.c ****     {
 1193              		.loc 1 446 9 is_stmt 0 view .LVU256
 1194 003a 0420     		movs	r0, #4
 1195 003c FFF7FEFF 		bl	OCTA_FLASH_sendCommand
 1196              	.LVL95:
 446:../../../core/drivers/octa-flash/src/octa-flash.c ****     {
 1197              		.loc 1 446 8 view .LVU257
 1198 0040 10F1030F 		cmn	r0, #3
ARM GAS  C:\Users\tijsv\AppData\Local\Temp\ccDyLCdQ.s 			page 37


 1199 0044 00D0     		beq	.L83
 451:../../../core/drivers/octa-flash/src/octa-flash.c **** }
 1200              		.loc 1 451 12 view .LVU258
 1201 0046 0020     		movs	r0, #0
 1202              	.L83:
 452:../../../core/drivers/octa-flash/src/octa-flash.c **** 
 1203              		.loc 1 452 1 view .LVU259
 1204 0048 08BD     		pop	{r3, pc}
 1205              	.L85:
 427:../../../core/drivers/octa-flash/src/octa-flash.c ****     }
 1206              		.loc 1 427 16 view .LVU260
 1207 004a 6FF00100 		mvn	r0, #1
 1208 004e FBE7     		b	.L83
 1209              	.L88:
 1210              		.align	2
 1211              	.L87:
 1212 0050 00000000 		.word	flashSPI
 1213              		.cfi_endproc
 1214              	.LFE142:
 1216              		.section	.text.OCTA_FLASH_flush,"ax",%progbits
 1217              		.align	1
 1218              		.global	OCTA_FLASH_flush
 1219              		.syntax unified
 1220              		.thumb
 1221              		.thumb_func
 1222              		.fpu fpv4-sp-d16
 1224              	OCTA_FLASH_flush:
 1225              	.LFB144:
 489:../../../core/drivers/octa-flash/src/octa-flash.c ****     if (OCTA_FLASH_isWriteInProgress())
 1226              		.loc 1 489 1 is_stmt 1 view -0
 1227              		.cfi_startproc
 1228              		@ args = 0, pretend = 0, frame = 0
 1229              		@ frame_needed = 0, uses_anonymous_args = 0
 1230 0000 08B5     		push	{r3, lr}
 1231              	.LCFI21:
 1232              		.cfi_def_cfa_offset 8
 1233              		.cfi_offset 3, -8
 1234              		.cfi_offset 14, -4
 490:../../../core/drivers/octa-flash/src/octa-flash.c ****     {
 1235              		.loc 1 490 5 view .LVU262
 490:../../../core/drivers/octa-flash/src/octa-flash.c ****     {
 1236              		.loc 1 490 9 is_stmt 0 view .LVU263
 1237 0002 FFF7FEFF 		bl	OCTA_FLASH_isWriteInProgress
 1238              	.LVL96:
 490:../../../core/drivers/octa-flash/src/octa-flash.c ****     {
 1239              		.loc 1 490 8 view .LVU264
 1240 0006 0028     		cmp	r0, #0
 1241 0008 35D1     		bne	.L91
 496:../../../core/drivers/octa-flash/src/octa-flash.c ****     {
 1242              		.loc 1 496 5 is_stmt 1 view .LVU265
 496:../../../core/drivers/octa-flash/src/octa-flash.c ****     {
 1243              		.loc 1 496 9 is_stmt 0 view .LVU266
 1244 000a 0620     		movs	r0, #6
 1245 000c FFF7FEFF 		bl	OCTA_FLASH_sendCommand
 1246              	.LVL97:
 496:../../../core/drivers/octa-flash/src/octa-flash.c ****     {
 1247              		.loc 1 496 8 view .LVU267
ARM GAS  C:\Users\tijsv\AppData\Local\Temp\ccDyLCdQ.s 			page 38


 1248 0010 10F1030F 		cmn	r0, #3
 1249 0014 2ED0     		beq	.L89
 502:../../../core/drivers/octa-flash/src/octa-flash.c ****     {
 1250              		.loc 1 502 5 is_stmt 1 view .LVU268
 502:../../../core/drivers/octa-flash/src/octa-flash.c ****     {
 1251              		.loc 1 502 9 is_stmt 0 view .LVU269
 1252 0016 1B4B     		ldr	r3, .L94
 1253 0018 1968     		ldr	r1, [r3]
 1254 001a 1220     		movs	r0, #18
 1255 001c FFF7FEFF 		bl	OCTA_FLASH_send4BCommand
 1256              	.LVL98:
 502:../../../core/drivers/octa-flash/src/octa-flash.c ****     {
 1257              		.loc 1 502 8 view .LVU270
 1258 0020 10F1030F 		cmn	r0, #3
 1259 0024 26D0     		beq	.L89
 507:../../../core/drivers/octa-flash/src/octa-flash.c ****     {
 1260              		.loc 1 507 5 is_stmt 1 view .LVU271
 507:../../../core/drivers/octa-flash/src/octa-flash.c ****     {
 1261              		.loc 1 507 8 is_stmt 0 view .LVU272
 1262 0026 4FF0FF33 		mov	r3, #-1
 1263 002a 4FF48072 		mov	r2, #256
 1264 002e 1649     		ldr	r1, .L94+4
 1265 0030 1648     		ldr	r0, .L94+8
 1266 0032 0068     		ldr	r0, [r0]
 1267 0034 FFF7FEFF 		bl	HAL_SPI_Transmit
 1268              	.LVL99:
 507:../../../core/drivers/octa-flash/src/octa-flash.c ****     {
 1269              		.loc 1 507 7 view .LVU273
 1270 0038 00BB     		cbnz	r0, .L92
 512:../../../core/drivers/octa-flash/src/octa-flash.c ****     OCTA_FLASH_Disable();
 1271              		.loc 1 512 5 is_stmt 1 view .LVU274
 1272 003a 144B     		ldr	r3, .L94+8
 1273 003c 1B68     		ldr	r3, [r3]
 1274 003e 1A68     		ldr	r2, [r3]
 1275 0040 1368     		ldr	r3, [r2]
 1276 0042 23F04003 		bic	r3, r3, #64
 1277 0046 1360     		str	r3, [r2]
 513:../../../core/drivers/octa-flash/src/octa-flash.c **** 
 1278              		.loc 1 513 5 view .LVU275
 1279 0048 FFF7FEFF 		bl	OCTA_FLASH_Disable
 1280              	.LVL100:
 516:../../../core/drivers/octa-flash/src/octa-flash.c ****     {
 1281              		.loc 1 516 5 view .LVU276
 516:../../../core/drivers/octa-flash/src/octa-flash.c ****     {
 1282              		.loc 1 516 9 is_stmt 0 view .LVU277
 1283 004c 0420     		movs	r0, #4
 1284 004e FFF7FEFF 		bl	OCTA_FLASH_sendCommand
 1285              	.LVL101:
 516:../../../core/drivers/octa-flash/src/octa-flash.c ****     {
 1286              		.loc 1 516 8 view .LVU278
 1287 0052 10F1030F 		cmn	r0, #3
 1288 0056 0DD0     		beq	.L89
 522:../../../core/drivers/octa-flash/src/octa-flash.c **** 
 1289              		.loc 1 522 5 is_stmt 1 view .LVU279
 522:../../../core/drivers/octa-flash/src/octa-flash.c **** 
 1290              		.loc 1 522 26 is_stmt 0 view .LVU280
 1291 0058 0A4A     		ldr	r2, .L94
ARM GAS  C:\Users\tijsv\AppData\Local\Temp\ccDyLCdQ.s 			page 39


 1292 005a 1368     		ldr	r3, [r2]
 1293 005c 03F58073 		add	r3, r3, #256
 1294 0060 1360     		str	r3, [r2]
 525:../../../core/drivers/octa-flash/src/octa-flash.c ****     mMemPageIndex = 0;
 1295              		.loc 1 525 5 is_stmt 1 view .LVU281
 1296 0062 4FF48072 		mov	r2, #256
 1297 0066 0021     		movs	r1, #0
 1298 0068 0748     		ldr	r0, .L94+4
 1299 006a FFF7FEFF 		bl	memset
 1300              	.LVL102:
 526:../../../core/drivers/octa-flash/src/octa-flash.c **** 
 1301              		.loc 1 526 5 view .LVU282
 526:../../../core/drivers/octa-flash/src/octa-flash.c **** 
 1302              		.loc 1 526 19 is_stmt 0 view .LVU283
 1303 006e 0020     		movs	r0, #0
 1304 0070 074B     		ldr	r3, .L94+12
 1305 0072 1880     		strh	r0, [r3]	@ movhi
 528:../../../core/drivers/octa-flash/src/octa-flash.c **** }
 1306              		.loc 1 528 5 is_stmt 1 view .LVU284
 1307              	.L89:
 529:../../../core/drivers/octa-flash/src/octa-flash.c **** 
 1308              		.loc 1 529 1 is_stmt 0 view .LVU285
 1309 0074 08BD     		pop	{r3, pc}
 1310              	.L91:
 492:../../../core/drivers/octa-flash/src/octa-flash.c ****     }
 1311              		.loc 1 492 16 view .LVU286
 1312 0076 6FF00100 		mvn	r0, #1
 1313 007a FBE7     		b	.L89
 1314              	.L92:
 509:../../../core/drivers/octa-flash/src/octa-flash.c ****     }
 1315              		.loc 1 509 16 view .LVU287
 1316 007c 6FF00200 		mvn	r0, #2
 1317 0080 F8E7     		b	.L89
 1318              	.L95:
 1319 0082 00BF     		.align	2
 1320              	.L94:
 1321 0084 00000000 		.word	mCurrentWriteAddress
 1322 0088 00000000 		.word	mMemPage
 1323 008c 00000000 		.word	flashSPI
 1324 0090 00000000 		.word	mMemPageIndex
 1325              		.cfi_endproc
 1326              	.LFE144:
 1328              		.section	.rodata.OCTA_FLASH_write.str1.4,"aMS",%progbits,1
 1329              		.align	2
 1330              	.LC3:
 1331 0000 466C7573 		.ascii	"Flush failed\015\012\000"
 1331      68206661 
 1331      696C6564 
 1331      0D0A00
 1332              		.section	.text.OCTA_FLASH_write,"ax",%progbits
 1333              		.align	1
 1334              		.global	OCTA_FLASH_write
 1335              		.syntax unified
 1336              		.thumb
 1337              		.thumb_func
 1338              		.fpu fpv4-sp-d16
 1340              	OCTA_FLASH_write:
ARM GAS  C:\Users\tijsv\AppData\Local\Temp\ccDyLCdQ.s 			page 40


 1341              	.LVL103:
 1342              	.LFB137:
 207:../../../core/drivers/octa-flash/src/octa-flash.c ****     HAL_Delay(SPI_WAIT);
 1343              		.loc 1 207 1 is_stmt 1 view -0
 1344              		.cfi_startproc
 1345              		@ args = 0, pretend = 0, frame = 0
 1346              		@ frame_needed = 0, uses_anonymous_args = 0
 207:../../../core/drivers/octa-flash/src/octa-flash.c ****     HAL_Delay(SPI_WAIT);
 1347              		.loc 1 207 1 is_stmt 0 view .LVU289
 1348 0000 2DE9F041 		push	{r4, r5, r6, r7, r8, lr}
 1349              	.LCFI22:
 1350              		.cfi_def_cfa_offset 24
 1351              		.cfi_offset 4, -24
 1352              		.cfi_offset 5, -20
 1353              		.cfi_offset 6, -16
 1354              		.cfi_offset 7, -12
 1355              		.cfi_offset 8, -8
 1356              		.cfi_offset 14, -4
 1357 0004 0546     		mov	r5, r0
 1358 0006 8846     		mov	r8, r1
 208:../../../core/drivers/octa-flash/src/octa-flash.c **** 
 1359              		.loc 1 208 5 is_stmt 1 view .LVU290
 1360 0008 0A20     		movs	r0, #10
 1361              	.LVL104:
 208:../../../core/drivers/octa-flash/src/octa-flash.c **** 
 1362              		.loc 1 208 5 is_stmt 0 view .LVU291
 1363 000a FFF7FEFF 		bl	HAL_Delay
 1364              	.LVL105:
 210:../../../core/drivers/octa-flash/src/octa-flash.c ****     {
 1365              		.loc 1 210 5 is_stmt 1 view .LVU292
 210:../../../core/drivers/octa-flash/src/octa-flash.c ****     {
 1366              		.loc 1 210 9 is_stmt 0 view .LVU293
 1367 000e FFF7FEFF 		bl	OCTA_FLASH_isWriteInProgress
 1368              	.LVL106:
 210:../../../core/drivers/octa-flash/src/octa-flash.c ****     {
 1369              		.loc 1 210 8 view .LVU294
 1370 0012 88BB     		cbnz	r0, .L102
 215:../../../core/drivers/octa-flash/src/octa-flash.c ****     {
 1371              		.loc 1 215 5 is_stmt 1 view .LVU295
 215:../../../core/drivers/octa-flash/src/octa-flash.c ****     {
 1372              		.loc 1 215 30 is_stmt 0 view .LVU296
 1373 0014 1D4B     		ldr	r3, .L109
 1374 0016 1A68     		ldr	r2, [r3]
 215:../../../core/drivers/octa-flash/src/octa-flash.c ****     {
 1375              		.loc 1 215 8 view .LVU297
 1376 0018 1D4B     		ldr	r3, .L109+4
 1377 001a 9A42     		cmp	r2, r3
 1378 001c 2FD8     		bhi	.L103
 220:../../../core/drivers/octa-flash/src/octa-flash.c **** 
 1379              		.loc 1 220 14 view .LVU298
 1380 001e 4646     		mov	r6, r8
 1381              	.L98:
 1382              	.LVL107:
 222:../../../core/drivers/octa-flash/src/octa-flash.c ****     {
 1383              		.loc 1 222 11 is_stmt 1 view .LVU299
 222:../../../core/drivers/octa-flash/src/octa-flash.c ****     {
 1384              		.loc 1 222 26 is_stmt 0 view .LVU300
ARM GAS  C:\Users\tijsv\AppData\Local\Temp\ccDyLCdQ.s 			page 41


 1385 0020 1C4B     		ldr	r3, .L109+8
 1386 0022 1B88     		ldrh	r3, [r3]
 1387 0024 9A19     		adds	r2, r3, r6
 222:../../../core/drivers/octa-flash/src/octa-flash.c ****     {
 1388              		.loc 1 222 11 view .LVU301
 1389 0026 FF2A     		cmp	r2, #255
 1390 0028 13D9     		bls	.L106
 1391              	.LBB2:
 226:../../../core/drivers/octa-flash/src/octa-flash.c **** 
 1392              		.loc 1 226 9 is_stmt 1 view .LVU302
 226:../../../core/drivers/octa-flash/src/octa-flash.c **** 
 1393              		.loc 1 226 54 is_stmt 0 view .LVU303
 1394 002a C3F58077 		rsb	r7, r3, #256
 1395              	.LVL108:
 229:../../../core/drivers/octa-flash/src/octa-flash.c **** 
 1396              		.loc 1 229 9 is_stmt 1 view .LVU304
 1397 002e 4FF48072 		mov	r2, #256
 1398 0032 2946     		mov	r1, r5
 1399 0034 1848     		ldr	r0, .L109+12
 1400 0036 1844     		add	r0, r0, r3
 1401 0038 FFF7FEFF 		bl	memcpy
 1402              	.LVL109:
 231:../../../core/drivers/octa-flash/src/octa-flash.c **** 
 1403              		.loc 1 231 9 view .LVU305
 231:../../../core/drivers/octa-flash/src/octa-flash.c **** 
 1404              		.loc 1 231 28 is_stmt 0 view .LVU306
 1405 003c FFF7FEFF 		bl	OCTA_FLASH_flush
 1406              	.LVL110:
 234:../../../core/drivers/octa-flash/src/octa-flash.c ****         {
 1407              		.loc 1 234 9 is_stmt 1 view .LVU307
 234:../../../core/drivers/octa-flash/src/octa-flash.c ****         {
 1408              		.loc 1 234 12 is_stmt 0 view .LVU308
 1409 0040 041E     		subs	r4, r0, #0
 1410 0042 02DB     		blt	.L107
 242:../../../core/drivers/octa-flash/src/octa-flash.c ****         bytesLeftToWrite -= bytesToWrite;
 1411              		.loc 1 242 9 is_stmt 1 view .LVU309
 242:../../../core/drivers/octa-flash/src/octa-flash.c ****         bytesLeftToWrite -= bytesToWrite;
 1412              		.loc 1 242 16 is_stmt 0 view .LVU310
 1413 0044 3D44     		add	r5, r5, r7
 1414              	.LVL111:
 243:../../../core/drivers/octa-flash/src/octa-flash.c ****     }
 1415              		.loc 1 243 9 is_stmt 1 view .LVU311
 243:../../../core/drivers/octa-flash/src/octa-flash.c ****     }
 1416              		.loc 1 243 26 is_stmt 0 view .LVU312
 1417 0046 F61B     		subs	r6, r6, r7
 1418              	.LVL112:
 243:../../../core/drivers/octa-flash/src/octa-flash.c ****     }
 1419              		.loc 1 243 26 view .LVU313
 1420 0048 EAE7     		b	.L98
 1421              	.L107:
 237:../../../core/drivers/octa-flash/src/octa-flash.c ****             return flushedBytes;
 1422              		.loc 1 237 13 is_stmt 1 view .LVU314
 1423 004a 1448     		ldr	r0, .L109+16
 1424              	.LVL113:
 237:../../../core/drivers/octa-flash/src/octa-flash.c ****             return flushedBytes;
 1425              		.loc 1 237 13 is_stmt 0 view .LVU315
 1426 004c FFF7FEFF 		bl	printDBG
ARM GAS  C:\Users\tijsv\AppData\Local\Temp\ccDyLCdQ.s 			page 42


 1427              	.LVL114:
 238:../../../core/drivers/octa-flash/src/octa-flash.c ****         }
 1428              		.loc 1 238 13 is_stmt 1 view .LVU316
 238:../../../core/drivers/octa-flash/src/octa-flash.c ****         }
 1429              		.loc 1 238 20 is_stmt 0 view .LVU317
 1430 0050 07E0     		b	.L96
 1431              	.LVL115:
 1432              	.L106:
 238:../../../core/drivers/octa-flash/src/octa-flash.c ****         }
 1433              		.loc 1 238 20 view .LVU318
 1434              	.LBE2:
 246:../../../core/drivers/octa-flash/src/octa-flash.c ****     {
 1435              		.loc 1 246 5 is_stmt 1 view .LVU319
 246:../../../core/drivers/octa-flash/src/octa-flash.c ****     {
 1436              		.loc 1 246 30 is_stmt 0 view .LVU320
 1437 0052 0E4A     		ldr	r2, .L109
 1438 0054 1168     		ldr	r1, [r2]
 246:../../../core/drivers/octa-flash/src/octa-flash.c ****     {
 1439              		.loc 1 246 8 view .LVU321
 1440 0056 0E4A     		ldr	r2, .L109+4
 1441 0058 9142     		cmp	r1, r2
 1442 005a 13D8     		bhi	.L104
 251:../../../core/drivers/octa-flash/src/octa-flash.c ****     {
 1443              		.loc 1 251 10 is_stmt 1 view .LVU322
 251:../../../core/drivers/octa-flash/src/octa-flash.c ****     {
 1444              		.loc 1 251 13 is_stmt 0 view .LVU323
 1445 005c 26B9     		cbnz	r6, .L108
 1446              	.LVL116:
 1447              	.L101:
 258:../../../core/drivers/octa-flash/src/octa-flash.c **** }
 1448              		.loc 1 258 5 is_stmt 1 view .LVU324
 258:../../../core/drivers/octa-flash/src/octa-flash.c **** }
 1449              		.loc 1 258 18 is_stmt 0 view .LVU325
 1450 005e A8EB0604 		sub	r4, r8, r6
 1451              	.LVL117:
 1452              	.L96:
 259:../../../core/drivers/octa-flash/src/octa-flash.c **** 
 1453              		.loc 1 259 1 view .LVU326
 1454 0062 2046     		mov	r0, r4
 1455 0064 BDE8F081 		pop	{r4, r5, r6, r7, r8, pc}
 1456              	.LVL118:
 1457              	.L108:
 254:../../../core/drivers/octa-flash/src/octa-flash.c ****         bytesLeftToWrite = 0;
 1458              		.loc 1 254 9 is_stmt 1 view .LVU327
 1459 0068 3246     		mov	r2, r6
 1460 006a 2946     		mov	r1, r5
 1461 006c 0A48     		ldr	r0, .L109+12
 1462 006e 1844     		add	r0, r0, r3
 1463 0070 FFF7FEFF 		bl	memcpy
 1464              	.LVL119:
 255:../../../core/drivers/octa-flash/src/octa-flash.c ****     }
 1465              		.loc 1 255 9 view .LVU328
 255:../../../core/drivers/octa-flash/src/octa-flash.c ****     }
 1466              		.loc 1 255 26 is_stmt 0 view .LVU329
 1467 0074 0026     		movs	r6, #0
 1468 0076 F2E7     		b	.L101
 1469              	.LVL120:
ARM GAS  C:\Users\tijsv\AppData\Local\Temp\ccDyLCdQ.s 			page 43


 1470              	.L102:
 212:../../../core/drivers/octa-flash/src/octa-flash.c ****     }
 1471              		.loc 1 212 16 view .LVU330
 1472 0078 6FF00104 		mvn	r4, #1
 1473 007c F1E7     		b	.L96
 1474              	.L103:
 217:../../../core/drivers/octa-flash/src/octa-flash.c ****     }
 1475              		.loc 1 217 16 view .LVU331
 1476 007e 6FF00404 		mvn	r4, #4
 1477 0082 EEE7     		b	.L96
 1478              	.LVL121:
 1479              	.L104:
 249:../../../core/drivers/octa-flash/src/octa-flash.c ****     }
 1480              		.loc 1 249 16 view .LVU332
 1481 0084 6FF00404 		mvn	r4, #4
 1482 0088 EBE7     		b	.L96
 1483              	.L110:
 1484 008a 00BF     		.align	2
 1485              	.L109:
 1486 008c 00000000 		.word	mCurrentWriteAddress
 1487 0090 0048E801 		.word	32000000
 1488 0094 00000000 		.word	mMemPageIndex
 1489 0098 00000000 		.word	mMemPage
 1490 009c 00000000 		.word	.LC3
 1491              		.cfi_endproc
 1492              	.LFE137:
 1494              		.section	.rodata.OCTA_FLASH_TestRW.str1.4,"aMS",%progbits,1
 1495              		.align	2
 1496              	.LC4:
 1497 0000 50616765 		.ascii	"Page0 after: \015\012\000"
 1497      30206166 
 1497      7465723A 
 1497      200D0A00 
 1498              		.align	2
 1499              	.LC5:
 1500 0010 50616765 		.ascii	"Page0 NO MATCH\015\012\000"
 1500      30204E4F 
 1500      204D4154 
 1500      43480D0A 
 1500      00
 1501 0021 000000   		.align	2
 1502              	.LC6:
 1503 0024 50616765 		.ascii	"Page1 after: \015\012\000"
 1503      31206166 
 1503      7465723A 
 1503      200D0A00 
 1504              		.align	2
 1505              	.LC7:
 1506 0034 50616765 		.ascii	"Page1 NO MATCH\015\012\000"
 1506      31204E4F 
 1506      204D4154 
 1506      43480D0A 
 1506      00
 1507 0045 000000   		.align	2
 1508              	.LC8:
 1509 0048 50616765 		.ascii	"Page2 after: \015\012\000"
 1509      32206166 
ARM GAS  C:\Users\tijsv\AppData\Local\Temp\ccDyLCdQ.s 			page 44


 1509      7465723A 
 1509      200D0A00 
 1510              		.align	2
 1511              	.LC9:
 1512 0058 50616765 		.ascii	"Page2 NO MATCH\015\012\000"
 1512      32204E4F 
 1512      204D4154 
 1512      43480D0A 
 1512      00
 1513              		.section	.text.OCTA_FLASH_TestRW,"ax",%progbits
 1514              		.align	1
 1515              		.global	OCTA_FLASH_TestRW
 1516              		.syntax unified
 1517              		.thumb
 1518              		.thumb_func
 1519              		.fpu fpv4-sp-d16
 1521              	OCTA_FLASH_TestRW:
 1522              	.LFB149:
 614:../../../core/drivers/octa-flash/src/octa-flash.c **** 
 615:../../../core/drivers/octa-flash/src/octa-flash.c **** /*  READ WRITE TEST 
 616:../../../core/drivers/octa-flash/src/octa-flash.c **** *   writes 1 block en reads it
 617:../../../core/drivers/octa-flash/src/octa-flash.c **** *   returns 1 if equal (success), 0 if not equal (fail)
 618:../../../core/drivers/octa-flash/src/octa-flash.c **** */
 619:../../../core/drivers/octa-flash/src/octa-flash.c **** uint8_t OCTA_FLASH_TestRW(void)
 620:../../../core/drivers/octa-flash/src/octa-flash.c **** {
 1523              		.loc 1 620 1 is_stmt 1 view -0
 1524              		.cfi_startproc
 1525              		@ args = 0, pretend = 0, frame = 0
 1526              		@ frame_needed = 0, uses_anonymous_args = 0
 1527 0000 F8B5     		push	{r3, r4, r5, r6, r7, lr}
 1528              	.LCFI23:
 1529              		.cfi_def_cfa_offset 24
 1530              		.cfi_offset 3, -24
 1531              		.cfi_offset 4, -20
 1532              		.cfi_offset 5, -16
 1533              		.cfi_offset 6, -12
 1534              		.cfi_offset 7, -8
 1535              		.cfi_offset 14, -4
 621:../../../core/drivers/octa-flash/src/octa-flash.c ****     //test flash RW
 622:../../../core/drivers/octa-flash/src/octa-flash.c ****     #define SIZE 256
 623:../../../core/drivers/octa-flash/src/octa-flash.c ****     
 624:../../../core/drivers/octa-flash/src/octa-flash.c ****     static uint8_t tx[SIZE] = {0};
 1536              		.loc 1 624 5 view .LVU334
 625:../../../core/drivers/octa-flash/src/octa-flash.c ****     static uint8_t rx[SIZE] = {0};
 1537              		.loc 1 625 5 view .LVU335
 626:../../../core/drivers/octa-flash/src/octa-flash.c ****     uint16_t i = 0;
 1538              		.loc 1 626 5 view .LVU336
 1539              	.LVL122:
 627:../../../core/drivers/octa-flash/src/octa-flash.c **** 
 628:../../../core/drivers/octa-flash/src/octa-flash.c ****     uint8_t page0 = 1;
 1540              		.loc 1 628 5 view .LVU337
 629:../../../core/drivers/octa-flash/src/octa-flash.c ****     uint8_t page1 = 1;
 1541              		.loc 1 629 5 view .LVU338
 630:../../../core/drivers/octa-flash/src/octa-flash.c ****     uint8_t page2 = 1;
 1542              		.loc 1 630 5 view .LVU339
 631:../../../core/drivers/octa-flash/src/octa-flash.c **** 
 632:../../../core/drivers/octa-flash/src/octa-flash.c ****     OCTA_FLASH_open(0);
ARM GAS  C:\Users\tijsv\AppData\Local\Temp\ccDyLCdQ.s 			page 45


 1543              		.loc 1 632 5 view .LVU340
 1544 0002 0020     		movs	r0, #0
 1545 0004 FFF7FEFF 		bl	OCTA_FLASH_open
 1546              	.LVL123:
 633:../../../core/drivers/octa-flash/src/octa-flash.c ****     #if DEBUG
 634:../../../core/drivers/octa-flash/src/octa-flash.c ****         OCTA_FLASH_read(rx,SIZE);
 635:../../../core/drivers/octa-flash/src/octa-flash.c ****         printDBG("Page0 before: \r\n");
 636:../../../core/drivers/octa-flash/src/octa-flash.c ****         for(i = 0; i<256; i++)
 637:../../../core/drivers/octa-flash/src/octa-flash.c ****         {   
 638:../../../core/drivers/octa-flash/src/octa-flash.c ****             printf("%d ", rx[i]);
 639:../../../core/drivers/octa-flash/src/octa-flash.c ****         }        
 640:../../../core/drivers/octa-flash/src/octa-flash.c ****         printf("\r\n"); 
 641:../../../core/drivers/octa-flash/src/octa-flash.c ****     #endif
 642:../../../core/drivers/octa-flash/src/octa-flash.c ****     
 643:../../../core/drivers/octa-flash/src/octa-flash.c ****     memset(tx, 0, SIZE);
 1547              		.loc 1 643 5 view .LVU341
 1548 0008 4E4C     		ldr	r4, .L139
 1549 000a 4FF48075 		mov	r5, #256
 1550 000e 2A46     		mov	r2, r5
 1551 0010 0021     		movs	r1, #0
 1552 0012 2046     		mov	r0, r4
 1553 0014 FFF7FEFF 		bl	memset
 1554              	.LVL124:
 644:../../../core/drivers/octa-flash/src/octa-flash.c ****     #if DEBUG
 645:../../../core/drivers/octa-flash/src/octa-flash.c ****         printDBG("tx: \r\n");
 646:../../../core/drivers/octa-flash/src/octa-flash.c ****         for(i = 0; i<SIZE; i++)
 647:../../../core/drivers/octa-flash/src/octa-flash.c ****             printf("%d ", tx[i]);
 648:../../../core/drivers/octa-flash/src/octa-flash.c ****         printf("\r\n");
 649:../../../core/drivers/octa-flash/src/octa-flash.c ****     #endif
 650:../../../core/drivers/octa-flash/src/octa-flash.c **** 
 651:../../../core/drivers/octa-flash/src/octa-flash.c ****     OCTA_FLASH_write(tx, SIZE);
 1555              		.loc 1 651 5 view .LVU342
 1556 0018 2946     		mov	r1, r5
 1557 001a 2046     		mov	r0, r4
 1558 001c FFF7FEFF 		bl	OCTA_FLASH_write
 1559              	.LVL125:
 652:../../../core/drivers/octa-flash/src/octa-flash.c ****     while(OCTA_FLASH_isWriteInProgress())
 1560              		.loc 1 652 5 view .LVU343
 1561              	.L112:
 1562              		.loc 1 652 10 view .LVU344
 1563              		.loc 1 652 11 is_stmt 0 view .LVU345
 1564 0020 FFF7FEFF 		bl	OCTA_FLASH_isWriteInProgress
 1565              	.LVL126:
 1566              		.loc 1 652 10 view .LVU346
 1567 0024 0646     		mov	r6, r0
 1568 0026 18B1     		cbz	r0, .L132
 653:../../../core/drivers/octa-flash/src/octa-flash.c ****         HAL_Delay(SPI_WAIT);
 1569              		.loc 1 653 9 is_stmt 1 view .LVU347
 1570 0028 0A20     		movs	r0, #10
 1571 002a FFF7FEFF 		bl	HAL_Delay
 1572              	.LVL127:
 1573 002e F7E7     		b	.L112
 1574              	.L132:
 654:../../../core/drivers/octa-flash/src/octa-flash.c **** 
 655:../../../core/drivers/octa-flash/src/octa-flash.c ****     OCTA_FLASH_read(rx,SIZE);
 1575              		.loc 1 655 5 view .LVU348
 1576 0030 4FF48071 		mov	r1, #256
ARM GAS  C:\Users\tijsv\AppData\Local\Temp\ccDyLCdQ.s 			page 46


 1577 0034 4448     		ldr	r0, .L139+4
 1578 0036 FFF7FEFF 		bl	OCTA_FLASH_read
 1579              	.LVL128:
 656:../../../core/drivers/octa-flash/src/octa-flash.c ****     printDBG("Page0 after: \r\n");
 1580              		.loc 1 656 5 view .LVU349
 1581 003a 4448     		ldr	r0, .L139+8
 1582 003c FFF7FEFF 		bl	printDBG
 1583              	.LVL129:
 657:../../../core/drivers/octa-flash/src/octa-flash.c ****     for(i = 0; i<SIZE; i++)
 1584              		.loc 1 657 5 view .LVU350
 628:../../../core/drivers/octa-flash/src/octa-flash.c ****     uint8_t page1 = 1;
 1585              		.loc 1 628 13 is_stmt 0 view .LVU351
 1586 0040 0125     		movs	r5, #1
 1587              		.loc 1 657 11 view .LVU352
 1588 0042 0024     		movs	r4, #0
 1589              		.loc 1 657 5 view .LVU353
 1590 0044 05E0     		b	.L114
 1591              	.LVL130:
 1592              	.L134:
 658:../../../core/drivers/octa-flash/src/octa-flash.c ****     {
 659:../../../core/drivers/octa-flash/src/octa-flash.c ****         #if DEBUG
 660:../../../core/drivers/octa-flash/src/octa-flash.c ****             printf("%d ", rx[i]); 
 661:../../../core/drivers/octa-flash/src/octa-flash.c ****         #endif
 662:../../../core/drivers/octa-flash/src/octa-flash.c ****         if(rx[i] != tx[i])
 663:../../../core/drivers/octa-flash/src/octa-flash.c ****         {
 664:../../../core/drivers/octa-flash/src/octa-flash.c ****             page0 = 0;
 1593              		.loc 1 664 13 is_stmt 1 view .LVU354
 665:../../../core/drivers/octa-flash/src/octa-flash.c ****             printERR("Page0 NO MATCH\r\n");
 1594              		.loc 1 665 13 view .LVU355
 1595 0046 4248     		ldr	r0, .L139+12
 1596 0048 FFF7FEFF 		bl	printERR
 1597              	.LVL131:
 664:../../../core/drivers/octa-flash/src/octa-flash.c ****             printERR("Page0 NO MATCH\r\n");
 1598              		.loc 1 664 19 is_stmt 0 view .LVU356
 1599 004c 3546     		mov	r5, r6
 1600              	.LVL132:
 1601              	.L115:
 657:../../../core/drivers/octa-flash/src/octa-flash.c ****     {
 1602              		.loc 1 657 24 is_stmt 1 discriminator 2 view .LVU357
 657:../../../core/drivers/octa-flash/src/octa-flash.c ****     {
 1603              		.loc 1 657 25 is_stmt 0 discriminator 2 view .LVU358
 1604 004e 0134     		adds	r4, r4, #1
 1605              	.LVL133:
 657:../../../core/drivers/octa-flash/src/octa-flash.c ****     {
 1606              		.loc 1 657 25 discriminator 2 view .LVU359
 1607 0050 A4B2     		uxth	r4, r4
 1608              	.LVL134:
 1609              	.L114:
 657:../../../core/drivers/octa-flash/src/octa-flash.c ****     {
 1610              		.loc 1 657 16 is_stmt 1 discriminator 1 view .LVU360
 657:../../../core/drivers/octa-flash/src/octa-flash.c ****     {
 1611              		.loc 1 657 5 is_stmt 0 discriminator 1 view .LVU361
 1612 0052 FF2C     		cmp	r4, #255
 1613 0054 06D8     		bhi	.L133
 662:../../../core/drivers/octa-flash/src/octa-flash.c ****         {
 1614              		.loc 1 662 9 is_stmt 1 view .LVU362
 662:../../../core/drivers/octa-flash/src/octa-flash.c ****         {
ARM GAS  C:\Users\tijsv\AppData\Local\Temp\ccDyLCdQ.s 			page 47


 1615              		.loc 1 662 14 is_stmt 0 view .LVU363
 1616 0056 3C4B     		ldr	r3, .L139+4
 1617 0058 1A5D     		ldrb	r2, [r3, r4]	@ zero_extendqisi2
 662:../../../core/drivers/octa-flash/src/octa-flash.c ****         {
 1618              		.loc 1 662 23 view .LVU364
 1619 005a 3A4B     		ldr	r3, .L139
 1620 005c 1B5D     		ldrb	r3, [r3, r4]	@ zero_extendqisi2
 662:../../../core/drivers/octa-flash/src/octa-flash.c ****         {
 1621              		.loc 1 662 11 view .LVU365
 1622 005e 9A42     		cmp	r2, r3
 1623 0060 F5D0     		beq	.L115
 1624 0062 F0E7     		b	.L134
 1625              	.L133:
 666:../../../core/drivers/octa-flash/src/octa-flash.c ****         }
 667:../../../core/drivers/octa-flash/src/octa-flash.c ****             
 668:../../../core/drivers/octa-flash/src/octa-flash.c ****     }
 669:../../../core/drivers/octa-flash/src/octa-flash.c ****     #if DEBUG
 670:../../../core/drivers/octa-flash/src/octa-flash.c ****         printf("\r\n"); 
 671:../../../core/drivers/octa-flash/src/octa-flash.c ****     #endif
 672:../../../core/drivers/octa-flash/src/octa-flash.c ****     
 673:../../../core/drivers/octa-flash/src/octa-flash.c ****     OCTA_FLASH_open(1);
 1626              		.loc 1 673 5 is_stmt 1 view .LVU366
 1627 0064 0120     		movs	r0, #1
 1628 0066 FFF7FEFF 		bl	OCTA_FLASH_open
 1629              	.LVL135:
 674:../../../core/drivers/octa-flash/src/octa-flash.c ****     #if DEBUG
 675:../../../core/drivers/octa-flash/src/octa-flash.c ****         OCTA_FLASH_read(rx,SIZE);
 676:../../../core/drivers/octa-flash/src/octa-flash.c ****         printDBG("Page1 before: \r\n");
 677:../../../core/drivers/octa-flash/src/octa-flash.c ****         for(i = 0; i<256; i++)
 678:../../../core/drivers/octa-flash/src/octa-flash.c ****             printf("%d ", rx[i]); 
 679:../../../core/drivers/octa-flash/src/octa-flash.c ****         printf("\r\n");
 680:../../../core/drivers/octa-flash/src/octa-flash.c ****     #endif 
 681:../../../core/drivers/octa-flash/src/octa-flash.c **** 
 682:../../../core/drivers/octa-flash/src/octa-flash.c ****     memset(tx, 1, SIZE);
 1630              		.loc 1 682 5 view .LVU367
 1631 006a 364C     		ldr	r4, .L139
 1632              	.LVL136:
 1633              		.loc 1 682 5 is_stmt 0 view .LVU368
 1634 006c 4FF48072 		mov	r2, #256
 1635 0070 0121     		movs	r1, #1
 1636 0072 2046     		mov	r0, r4
 1637 0074 FFF7FEFF 		bl	memset
 1638              	.LVL137:
 683:../../../core/drivers/octa-flash/src/octa-flash.c ****     #if DEBUG
 684:../../../core/drivers/octa-flash/src/octa-flash.c ****         printDBG("tx: \r\n");
 685:../../../core/drivers/octa-flash/src/octa-flash.c ****         for(i = 0; i<SIZE; i++)
 686:../../../core/drivers/octa-flash/src/octa-flash.c ****             printf("%d ", tx[i]);
 687:../../../core/drivers/octa-flash/src/octa-flash.c ****         printf("\r\n");
 688:../../../core/drivers/octa-flash/src/octa-flash.c ****     #endif
 689:../../../core/drivers/octa-flash/src/octa-flash.c **** 
 690:../../../core/drivers/octa-flash/src/octa-flash.c ****     OCTA_FLASH_write(tx, SIZE);
 1639              		.loc 1 690 5 is_stmt 1 view .LVU369
 1640 0078 4FF48071 		mov	r1, #256
 1641 007c 2046     		mov	r0, r4
 1642 007e FFF7FEFF 		bl	OCTA_FLASH_write
 1643              	.LVL138:
 691:../../../core/drivers/octa-flash/src/octa-flash.c ****     while(OCTA_FLASH_isWriteInProgress())
ARM GAS  C:\Users\tijsv\AppData\Local\Temp\ccDyLCdQ.s 			page 48


 1644              		.loc 1 691 5 view .LVU370
 1645              		.loc 1 691 10 is_stmt 0 view .LVU371
 1646 0082 02E0     		b	.L117
 1647              	.L118:
 692:../../../core/drivers/octa-flash/src/octa-flash.c ****         HAL_Delay(SPI_WAIT);
 1648              		.loc 1 692 9 is_stmt 1 view .LVU372
 1649 0084 0A20     		movs	r0, #10
 1650 0086 FFF7FEFF 		bl	HAL_Delay
 1651              	.LVL139:
 1652              	.L117:
 691:../../../core/drivers/octa-flash/src/octa-flash.c ****     while(OCTA_FLASH_isWriteInProgress())
 1653              		.loc 1 691 10 view .LVU373
 691:../../../core/drivers/octa-flash/src/octa-flash.c ****     while(OCTA_FLASH_isWriteInProgress())
 1654              		.loc 1 691 11 is_stmt 0 view .LVU374
 1655 008a FFF7FEFF 		bl	OCTA_FLASH_isWriteInProgress
 1656              	.LVL140:
 691:../../../core/drivers/octa-flash/src/octa-flash.c ****     while(OCTA_FLASH_isWriteInProgress())
 1657              		.loc 1 691 10 view .LVU375
 1658 008e 0746     		mov	r7, r0
 1659 0090 0028     		cmp	r0, #0
 1660 0092 F7D1     		bne	.L118
 693:../../../core/drivers/octa-flash/src/octa-flash.c **** 
 694:../../../core/drivers/octa-flash/src/octa-flash.c ****     OCTA_FLASH_read(rx,SIZE);
 1661              		.loc 1 694 5 is_stmt 1 view .LVU376
 1662 0094 4FF48071 		mov	r1, #256
 1663 0098 2B48     		ldr	r0, .L139+4
 1664 009a FFF7FEFF 		bl	OCTA_FLASH_read
 1665              	.LVL141:
 695:../../../core/drivers/octa-flash/src/octa-flash.c ****     printDBG("Page1 after: \r\n");
 1666              		.loc 1 695 5 view .LVU377
 1667 009e 2D48     		ldr	r0, .L139+16
 1668 00a0 FFF7FEFF 		bl	printDBG
 1669              	.LVL142:
 696:../../../core/drivers/octa-flash/src/octa-flash.c ****     for(i = 0; i<256; i++)
 1670              		.loc 1 696 5 view .LVU378
 629:../../../core/drivers/octa-flash/src/octa-flash.c ****     uint8_t page2 = 1;
 1671              		.loc 1 629 13 is_stmt 0 view .LVU379
 1672 00a4 0126     		movs	r6, #1
 1673              		.loc 1 696 11 view .LVU380
 1674 00a6 0024     		movs	r4, #0
 1675              		.loc 1 696 5 view .LVU381
 1676 00a8 05E0     		b	.L119
 1677              	.LVL143:
 1678              	.L136:
 697:../../../core/drivers/octa-flash/src/octa-flash.c ****     {
 698:../../../core/drivers/octa-flash/src/octa-flash.c ****         #if DEBUG
 699:../../../core/drivers/octa-flash/src/octa-flash.c ****             printf("%d ", rx[i]);
 700:../../../core/drivers/octa-flash/src/octa-flash.c ****         #endif
 701:../../../core/drivers/octa-flash/src/octa-flash.c ****         if(rx[i] != tx[i])
 702:../../../core/drivers/octa-flash/src/octa-flash.c ****         {
 703:../../../core/drivers/octa-flash/src/octa-flash.c ****             page1 = 0;
 1679              		.loc 1 703 13 is_stmt 1 view .LVU382
 704:../../../core/drivers/octa-flash/src/octa-flash.c ****             printERR("Page1 NO MATCH\r\n");
 1680              		.loc 1 704 13 view .LVU383
 1681 00aa 2B48     		ldr	r0, .L139+20
 1682 00ac FFF7FEFF 		bl	printERR
 1683              	.LVL144:
ARM GAS  C:\Users\tijsv\AppData\Local\Temp\ccDyLCdQ.s 			page 49


 703:../../../core/drivers/octa-flash/src/octa-flash.c ****             printERR("Page1 NO MATCH\r\n");
 1684              		.loc 1 703 19 is_stmt 0 view .LVU384
 1685 00b0 3E46     		mov	r6, r7
 1686              	.LVL145:
 1687              	.L120:
 696:../../../core/drivers/octa-flash/src/octa-flash.c ****     {
 1688              		.loc 1 696 23 is_stmt 1 discriminator 2 view .LVU385
 696:../../../core/drivers/octa-flash/src/octa-flash.c ****     {
 1689              		.loc 1 696 24 is_stmt 0 discriminator 2 view .LVU386
 1690 00b2 0134     		adds	r4, r4, #1
 1691              	.LVL146:
 696:../../../core/drivers/octa-flash/src/octa-flash.c ****     {
 1692              		.loc 1 696 24 discriminator 2 view .LVU387
 1693 00b4 A4B2     		uxth	r4, r4
 1694              	.LVL147:
 1695              	.L119:
 696:../../../core/drivers/octa-flash/src/octa-flash.c ****     {
 1696              		.loc 1 696 16 is_stmt 1 discriminator 1 view .LVU388
 696:../../../core/drivers/octa-flash/src/octa-flash.c ****     {
 1697              		.loc 1 696 5 is_stmt 0 discriminator 1 view .LVU389
 1698 00b6 FF2C     		cmp	r4, #255
 1699 00b8 06D8     		bhi	.L135
 701:../../../core/drivers/octa-flash/src/octa-flash.c ****         {
 1700              		.loc 1 701 9 is_stmt 1 view .LVU390
 701:../../../core/drivers/octa-flash/src/octa-flash.c ****         {
 1701              		.loc 1 701 14 is_stmt 0 view .LVU391
 1702 00ba 234B     		ldr	r3, .L139+4
 1703 00bc 1A5D     		ldrb	r2, [r3, r4]	@ zero_extendqisi2
 701:../../../core/drivers/octa-flash/src/octa-flash.c ****         {
 1704              		.loc 1 701 23 view .LVU392
 1705 00be 214B     		ldr	r3, .L139
 1706 00c0 1B5D     		ldrb	r3, [r3, r4]	@ zero_extendqisi2
 701:../../../core/drivers/octa-flash/src/octa-flash.c ****         {
 1707              		.loc 1 701 11 view .LVU393
 1708 00c2 9A42     		cmp	r2, r3
 1709 00c4 F5D0     		beq	.L120
 1710 00c6 F0E7     		b	.L136
 1711              	.L135:
 705:../../../core/drivers/octa-flash/src/octa-flash.c ****         }
 706:../../../core/drivers/octa-flash/src/octa-flash.c ****     }
 707:../../../core/drivers/octa-flash/src/octa-flash.c ****     #if DEBUG
 708:../../../core/drivers/octa-flash/src/octa-flash.c ****         printf("\r\n"); 
 709:../../../core/drivers/octa-flash/src/octa-flash.c ****     #endif
 710:../../../core/drivers/octa-flash/src/octa-flash.c **** 
 711:../../../core/drivers/octa-flash/src/octa-flash.c ****     OCTA_FLASH_open(2);
 1712              		.loc 1 711 5 is_stmt 1 view .LVU394
 1713 00c8 0220     		movs	r0, #2
 1714 00ca FFF7FEFF 		bl	OCTA_FLASH_open
 1715              	.LVL148:
 712:../../../core/drivers/octa-flash/src/octa-flash.c ****     #if DEBUG
 713:../../../core/drivers/octa-flash/src/octa-flash.c ****         OCTA_FLASH_read(rx,SIZE);
 714:../../../core/drivers/octa-flash/src/octa-flash.c ****         printDBG("Page1 before: \r\n");
 715:../../../core/drivers/octa-flash/src/octa-flash.c ****         for(i = 0; i<256; i++)
 716:../../../core/drivers/octa-flash/src/octa-flash.c ****             printf("%d ", rx[i]); 
 717:../../../core/drivers/octa-flash/src/octa-flash.c ****         printf("\r\n");
 718:../../../core/drivers/octa-flash/src/octa-flash.c ****     #endif 
 719:../../../core/drivers/octa-flash/src/octa-flash.c **** 
ARM GAS  C:\Users\tijsv\AppData\Local\Temp\ccDyLCdQ.s 			page 50


 720:../../../core/drivers/octa-flash/src/octa-flash.c ****     memset(tx, 2, SIZE);
 1716              		.loc 1 720 5 view .LVU395
 1717 00ce 1D4C     		ldr	r4, .L139
 1718              	.LVL149:
 1719              		.loc 1 720 5 is_stmt 0 view .LVU396
 1720 00d0 4FF48072 		mov	r2, #256
 1721 00d4 0221     		movs	r1, #2
 1722 00d6 2046     		mov	r0, r4
 1723 00d8 FFF7FEFF 		bl	memset
 1724              	.LVL150:
 721:../../../core/drivers/octa-flash/src/octa-flash.c ****     #if DEBUG
 722:../../../core/drivers/octa-flash/src/octa-flash.c ****         printDBG("tx: \r\n");
 723:../../../core/drivers/octa-flash/src/octa-flash.c ****         for(i = 0; i<SIZE; i++)
 724:../../../core/drivers/octa-flash/src/octa-flash.c ****             printf("%d ", tx[i]);
 725:../../../core/drivers/octa-flash/src/octa-flash.c ****         printf("\r\n");
 726:../../../core/drivers/octa-flash/src/octa-flash.c ****     #endif
 727:../../../core/drivers/octa-flash/src/octa-flash.c **** 
 728:../../../core/drivers/octa-flash/src/octa-flash.c ****     OCTA_FLASH_write(tx, SIZE);
 1725              		.loc 1 728 5 is_stmt 1 view .LVU397
 1726 00dc 4FF48071 		mov	r1, #256
 1727 00e0 2046     		mov	r0, r4
 1728 00e2 FFF7FEFF 		bl	OCTA_FLASH_write
 1729              	.LVL151:
 729:../../../core/drivers/octa-flash/src/octa-flash.c ****     while(OCTA_FLASH_isWriteInProgress())
 1730              		.loc 1 729 5 view .LVU398
 1731              		.loc 1 729 10 is_stmt 0 view .LVU399
 1732 00e6 02E0     		b	.L122
 1733              	.L123:
 730:../../../core/drivers/octa-flash/src/octa-flash.c ****         HAL_Delay(SPI_WAIT);
 1734              		.loc 1 730 9 is_stmt 1 view .LVU400
 1735 00e8 0A20     		movs	r0, #10
 1736 00ea FFF7FEFF 		bl	HAL_Delay
 1737              	.LVL152:
 1738              	.L122:
 729:../../../core/drivers/octa-flash/src/octa-flash.c ****     while(OCTA_FLASH_isWriteInProgress())
 1739              		.loc 1 729 10 view .LVU401
 729:../../../core/drivers/octa-flash/src/octa-flash.c ****     while(OCTA_FLASH_isWriteInProgress())
 1740              		.loc 1 729 11 is_stmt 0 view .LVU402
 1741 00ee FFF7FEFF 		bl	OCTA_FLASH_isWriteInProgress
 1742              	.LVL153:
 729:../../../core/drivers/octa-flash/src/octa-flash.c ****     while(OCTA_FLASH_isWriteInProgress())
 1743              		.loc 1 729 10 view .LVU403
 1744 00f2 0746     		mov	r7, r0
 1745 00f4 0028     		cmp	r0, #0
 1746 00f6 F7D1     		bne	.L123
 731:../../../core/drivers/octa-flash/src/octa-flash.c **** 
 732:../../../core/drivers/octa-flash/src/octa-flash.c ****     OCTA_FLASH_read(rx,SIZE);
 1747              		.loc 1 732 5 is_stmt 1 view .LVU404
 1748 00f8 4FF48071 		mov	r1, #256
 1749 00fc 1248     		ldr	r0, .L139+4
 1750 00fe FFF7FEFF 		bl	OCTA_FLASH_read
 1751              	.LVL154:
 733:../../../core/drivers/octa-flash/src/octa-flash.c ****     printDBG("Page2 after: \r\n");
 1752              		.loc 1 733 5 view .LVU405
 1753 0102 1648     		ldr	r0, .L139+24
 1754 0104 FFF7FEFF 		bl	printDBG
 1755              	.LVL155:
ARM GAS  C:\Users\tijsv\AppData\Local\Temp\ccDyLCdQ.s 			page 51


 734:../../../core/drivers/octa-flash/src/octa-flash.c ****     for(i = 0; i<256; i++)
 1756              		.loc 1 734 5 view .LVU406
 630:../../../core/drivers/octa-flash/src/octa-flash.c **** 
 1757              		.loc 1 630 13 is_stmt 0 view .LVU407
 1758 0108 0121     		movs	r1, #1
 1759              		.loc 1 734 11 view .LVU408
 1760 010a 0024     		movs	r4, #0
 1761              		.loc 1 734 5 view .LVU409
 1762 010c 05E0     		b	.L124
 1763              	.LVL156:
 1764              	.L138:
 735:../../../core/drivers/octa-flash/src/octa-flash.c ****     {
 736:../../../core/drivers/octa-flash/src/octa-flash.c ****         #if DEBUG
 737:../../../core/drivers/octa-flash/src/octa-flash.c ****             printf("%d ", rx[i]);
 738:../../../core/drivers/octa-flash/src/octa-flash.c ****         #endif
 739:../../../core/drivers/octa-flash/src/octa-flash.c ****         if(rx[i] != tx[i])
 740:../../../core/drivers/octa-flash/src/octa-flash.c ****         {
 741:../../../core/drivers/octa-flash/src/octa-flash.c ****             page2 = 0;
 1765              		.loc 1 741 13 is_stmt 1 view .LVU410
 742:../../../core/drivers/octa-flash/src/octa-flash.c ****             printERR("Page2 NO MATCH\r\n");
 1766              		.loc 1 742 13 view .LVU411
 1767 010e 1448     		ldr	r0, .L139+28
 1768 0110 FFF7FEFF 		bl	printERR
 1769              	.LVL157:
 741:../../../core/drivers/octa-flash/src/octa-flash.c ****             printERR("Page2 NO MATCH\r\n");
 1770              		.loc 1 741 19 is_stmt 0 view .LVU412
 1771 0114 3946     		mov	r1, r7
 1772              	.LVL158:
 1773              	.L125:
 734:../../../core/drivers/octa-flash/src/octa-flash.c ****     {
 1774              		.loc 1 734 23 is_stmt 1 discriminator 2 view .LVU413
 734:../../../core/drivers/octa-flash/src/octa-flash.c ****     {
 1775              		.loc 1 734 24 is_stmt 0 discriminator 2 view .LVU414
 1776 0116 0134     		adds	r4, r4, #1
 1777              	.LVL159:
 734:../../../core/drivers/octa-flash/src/octa-flash.c ****     {
 1778              		.loc 1 734 24 discriminator 2 view .LVU415
 1779 0118 A4B2     		uxth	r4, r4
 1780              	.LVL160:
 1781              	.L124:
 734:../../../core/drivers/octa-flash/src/octa-flash.c ****     {
 1782              		.loc 1 734 16 is_stmt 1 discriminator 1 view .LVU416
 734:../../../core/drivers/octa-flash/src/octa-flash.c ****     {
 1783              		.loc 1 734 5 is_stmt 0 discriminator 1 view .LVU417
 1784 011a FF2C     		cmp	r4, #255
 1785 011c 06D8     		bhi	.L137
 739:../../../core/drivers/octa-flash/src/octa-flash.c ****         {
 1786              		.loc 1 739 9 is_stmt 1 view .LVU418
 739:../../../core/drivers/octa-flash/src/octa-flash.c ****         {
 1787              		.loc 1 739 14 is_stmt 0 view .LVU419
 1788 011e 0A4B     		ldr	r3, .L139+4
 1789 0120 1A5D     		ldrb	r2, [r3, r4]	@ zero_extendqisi2
 739:../../../core/drivers/octa-flash/src/octa-flash.c ****         {
 1790              		.loc 1 739 23 view .LVU420
 1791 0122 084B     		ldr	r3, .L139
 1792 0124 1B5D     		ldrb	r3, [r3, r4]	@ zero_extendqisi2
 739:../../../core/drivers/octa-flash/src/octa-flash.c ****         {
ARM GAS  C:\Users\tijsv\AppData\Local\Temp\ccDyLCdQ.s 			page 52


 1793              		.loc 1 739 11 view .LVU421
 1794 0126 9A42     		cmp	r2, r3
 1795 0128 F5D0     		beq	.L125
 1796 012a F0E7     		b	.L138
 1797              	.L137:
 743:../../../core/drivers/octa-flash/src/octa-flash.c ****         }
 744:../../../core/drivers/octa-flash/src/octa-flash.c ****     }
 745:../../../core/drivers/octa-flash/src/octa-flash.c ****     #if DEBUG
 746:../../../core/drivers/octa-flash/src/octa-flash.c ****         printf("\r\n"); 
 747:../../../core/drivers/octa-flash/src/octa-flash.c ****     #endif
 748:../../../core/drivers/octa-flash/src/octa-flash.c **** 
 749:../../../core/drivers/octa-flash/src/octa-flash.c ****     return (page0 && page1 && page2);
 1798              		.loc 1 749 5 is_stmt 1 view .LVU422
 1799              		.loc 1 749 28 is_stmt 0 view .LVU423
 1800 012c 1DB1     		cbz	r5, .L128
 1801              		.loc 1 749 19 discriminator 1 view .LVU424
 1802 012e 26B1     		cbz	r6, .L129
 1803              		.loc 1 749 28 discriminator 3 view .LVU425
 1804 0130 29B9     		cbnz	r1, .L130
 1805              		.loc 1 749 28 view .LVU426
 1806 0132 0020     		movs	r0, #0
 1807 0134 00E0     		b	.L127
 1808              	.L128:
 1809 0136 0020     		movs	r0, #0
 1810              	.L127:
 750:../../../core/drivers/octa-flash/src/octa-flash.c **** }...
 1811              		.loc 1 750 1 discriminator 8 view .LVU427
 1812 0138 F8BD     		pop	{r3, r4, r5, r6, r7, pc}
 1813              	.LVL161:
 1814              	.L129:
 749:../../../core/drivers/octa-flash/src/octa-flash.c ****     return (page0 && page1 && page2);
 1815              		.loc 1 749 28 view .LVU428
 1816 013a 0020     		movs	r0, #0
 1817 013c FCE7     		b	.L127
 1818              	.L130:
 1819 013e 0120     		movs	r0, #1
 1820 0140 FAE7     		b	.L127
 1821              	.L140:
 1822 0142 00BF     		.align	2
 1823              	.L139:
 1824 0144 00000000 		.word	.LANCHOR0
 1825 0148 00000000 		.word	.LANCHOR1
 1826 014c 00000000 		.word	.LC4
 1827 0150 10000000 		.word	.LC5
 1828 0154 24000000 		.word	.LC6
 1829 0158 34000000 		.word	.LC7
 1830 015c 48000000 		.word	.LC8
 1831 0160 58000000 		.word	.LC9
 1832              		.cfi_endproc
 1833              	.LFE149:
 1835              		.comm	flashSPI,4,4
 1836              		.comm	txData,5,4
 1837              		.comm	rxData,1,4
 1838              		.comm	_initialised,1,1
 1839              		.comm	mMemPageIndex,2,2
 1840              		.comm	mMemPage,256,4
 1841              		.comm	mCurrentWriteAddress,4,4
ARM GAS  C:\Users\tijsv\AppData\Local\Temp\ccDyLCdQ.s 			page 53


 1842              		.comm	mCurrentReadAddress,4,4
 1843              		.comm	P3_header,44,4
 1844              		.comm	P2_header,44,4
 1845              		.comm	P1_header,44,4
 1846              		.comm	stackversion_patch,1,1
 1847              		.comm	stackversion_minor,1,1
 1848              		.comm	stackversion_major,1,1
 1849              		.comm	appversion_patch,1,1
 1850              		.comm	appversion_minor,1,1
 1851              		.comm	appversion_major,1,1
 1852              		.comm	short_UID,8,8
 1853              		.comm	hard_reset,1,1
 1854              		.comm	wd_reset,1,1
 1855              		.comm	octa_uid,8,8
 1856              		.comm	float_union,4,4
 1857              		.comm	uint16LittleEndian,2,4
 1858              		.comm	int16LittleEndian,2,4
 1859              		.comm	uint32LittleEndian,4,4
 1860              		.comm	int32LittleEndian,4,4
 1861              		.comm	rtosprintHandle,4,4
 1862              		.comm	hrtc,36,4
 1863              		.comm	FLASH_SPI,100,4
 1864              		.comm	P3_SPI,100,4
 1865              		.comm	P2_SPI,100,4
 1866              		.comm	P1_SPI,100,4
 1867              		.comm	P3_I2C,76,4
 1868              		.comm	P2_I2C,76,4
 1869              		.comm	P1_I2C,76,4
 1870              		.comm	common_I2C,76,4
 1871              		.comm	P3_UART,120,4
 1872              		.comm	P2_UART,120,4
 1873              		.comm	P1_UART,120,4
 1874              		.comm	FTDI_UART,120,4
 1875              		.comm	BLE_UART,120,4
 1876              		.comm	USB_UART,120,4
 1877              		.comm	hiwdg,16,4
 1878              		.comm	P3_DIO6,8,4
 1879              		.comm	P3_DIO5,8,4
 1880              		.comm	P3_DIO4,8,4
 1881              		.comm	P3_DIO3,8,4
 1882              		.comm	P3_DIO2,8,4
 1883              		.comm	P3_DIO1,8,4
 1884              		.comm	P2_DIO6,8,4
 1885              		.comm	P2_DIO5,8,4
 1886              		.comm	P2_DIO4,8,4
 1887              		.comm	P2_DIO3,8,4
 1888              		.comm	P2_DIO2,8,4
 1889              		.comm	P2_DIO1,8,4
 1890              		.comm	P1_DIO6,8,4
 1891              		.comm	P1_DIO5,8,4
 1892              		.comm	P1_DIO4,8,4
 1893              		.comm	P1_DIO3,8,4
 1894              		.comm	P1_DIO2,8,4
 1895              		.comm	P1_DIO1,8,4
 1896              		.comm	htim6,64,4
 1897              		.comm	htim1,64,4
 1898              		.section	.bss.rx.11763,"aw",%nobits
ARM GAS  C:\Users\tijsv\AppData\Local\Temp\ccDyLCdQ.s 			page 54


 1899              		.align	2
 1900              		.set	.LANCHOR1,. + 0
 1903              	rx.11763:
 1904 0000 00000000 		.space	256
 1904      00000000 
 1904      00000000 
 1904      00000000 
 1904      00000000 
 1905              		.section	.bss.tx.11762,"aw",%nobits
 1906              		.align	2
 1907              		.set	.LANCHOR0,. + 0
 1910              	tx.11762:
 1911 0000 00000000 		.space	256
 1911      00000000 
 1911      00000000 
 1911      00000000 
 1911      00000000 
 1912              		.text
 1913              	.Letext0:
 1914              		.file 2 "c:\\program files (x86)\\gnu tools arm embedded\\9 2019-q4-major\\arm-none-eabi\\include\
 1915              		.file 3 "c:\\program files (x86)\\gnu tools arm embedded\\9 2019-q4-major\\arm-none-eabi\\include\
 1916              		.file 4 "../../../core/ST/CMSIS/Include/core_cm4.h"
 1917              		.file 5 "../../../core/ST/CMSIS/Device/ST/STM32L4xx/Include/system_stm32l4xx.h"
 1918              		.file 6 "../../../core/ST/CMSIS/Device/ST/STM32L4xx/Include/stm32l496xx.h"
 1919              		.file 7 "../../../core/ST/STM32L4xx_HAL_Driver/Inc/stm32l4xx_hal_def.h"
 1920              		.file 8 "../../../core/ST/STM32L4xx_HAL_Driver/Inc/stm32l4xx_hal_gpio.h"
 1921              		.file 9 "../../../core/ST/STM32L4xx_HAL_Driver/Inc/stm32l4xx_hal_dma.h"
 1922              		.file 10 "../../../core/ST/STM32L4xx_HAL_Driver/Inc/stm32l4xx_hal_i2c.h"
 1923              		.file 11 "../../../core/ST/STM32L4xx_HAL_Driver/Inc/stm32l4xx_hal_iwdg.h"
 1924              		.file 12 "../../../core/ST/STM32L4xx_HAL_Driver/Inc/stm32l4xx_hal_rtc.h"
 1925              		.file 13 "../../../core/ST/STM32L4xx_HAL_Driver/Inc/stm32l4xx_hal_spi.h"
 1926              		.file 14 "../../../core/ST/STM32L4xx_HAL_Driver/Inc/stm32l4xx_hal_tim.h"
 1927              		.file 15 "../../../core/ST/STM32L4xx_HAL_Driver/Inc/stm32l4xx_hal_uart.h"
 1928              		.file 16 "../../../core/ST/STM32L4xx_HAL_Driver/Inc/stm32l4xx_hal.h"
 1929              		.file 17 "../../../core/ST/Middlewares/Third_Party/FreeRTOS/Source/include/task.h"
 1930              		.file 18 "../../../core/ST/Middlewares/Third_Party/FreeRTOS/Source/CMSIS_RTOS/cmsis_os.h"
 1931              		.file 19 "../../../core/platform/octa/inc/sysclock.h"
 1932              		.file 20 "../../../core/platform/octa/inc/gpio.h"
 1933              		.file 21 "../../../core/platform/octa/inc/iwdg.h"
 1934              		.file 22 "../../../core/platform/octa/inc/uart.h"
 1935              		.file 23 "../../../core/platform/octa/inc/i2c.h"
 1936              		.file 24 "../../../core/platform/octa/inc/spi.h"
 1937              		.file 25 "../../../core/platform/octa/inc/rtc.h"
 1938              		.file 26 "../../../core/platform/octa/inc/rtosincludes.h"
 1939              		.file 27 "c:\\program files (x86)\\gnu tools arm embedded\\9 2019-q4-major\\arm-none-eabi\\include
 1940              		.file 28 "c:\\program files (x86)\\gnu tools arm embedded\\9 2019-q4-major\\arm-none-eabi\\include
 1941              		.file 29 "c:\\program files (x86)\\gnu tools arm embedded\\9 2019-q4-major\\lib\\gcc\\arm-none-eab
 1942              		.file 30 "c:\\program files (x86)\\gnu tools arm embedded\\9 2019-q4-major\\arm-none-eabi\\include
 1943              		.file 31 "../../../core/platform/common/inc/datatypes.h"
 1944              		.file 32 "../../../core/platform/octa/inc/platform.h"
 1945              		.file 33 "../../../core/platform/common/inc/print.h"
 1946              		.file 34 "c:\\program files (x86)\\gnu tools arm embedded\\9 2019-q4-major\\arm-none-eabi\\include
 1947              		.file 35 "<built-in>"
ARM GAS  C:\Users\tijsv\AppData\Local\Temp\ccDyLCdQ.s 			page 55

