ARM GAS  C:\Users\tijsv\AppData\Local\Temp\ccGv3cXK.s 			page 1


   1              		.cpu cortex-m4
   2              		.eabi_attribute 27, 1
   3              		.eabi_attribute 28, 1
   4              		.eabi_attribute 20, 1
   5              		.eabi_attribute 21, 1
   6              		.eabi_attribute 23, 3
   7              		.eabi_attribute 24, 1
   8              		.eabi_attribute 25, 1
   9              		.eabi_attribute 26, 1
  10              		.eabi_attribute 30, 1
  11              		.eabi_attribute 34, 1
  12              		.eabi_attribute 18, 4
  13              		.file	"temperature-humidity.c"
  14              		.section	.rodata.str1.4,"aMS",%progbits,1
  15              		.align	2
  16              	.LC0:
  17 0000 64656661 		.ascii	"defaultTask\000"
  17      756C7454 
  17      61736B00 
  18              		.text
  19              	.Ltext0:
  20              		.cfi_sections	.debug_frame
  21              		.section	.text.StartDefaultTask,"ax",%progbits
  22              		.align	1
  23              		.global	StartDefaultTask
  24              		.arch armv7e-m
  25              		.syntax unified
  26              		.thumb
  27              		.thumb_func
  28              		.fpu fpv4-sp-d16
  30              	StartDefaultTask:
  31              	.LFB134:
  32              		.file 1 "../../../applications/examples/temperature-humidity-example/src/temperature-humidity.c"
   1:../../../applications/examples/temperature-humidity-example/src/temperature-humidity.c **** #include "temperature-humidity.h"
   2:../../../applications/examples/temperature-humidity-example/src/temperature-humidity.c **** #include "sht31.h"
   3:../../../applications/examples/temperature-humidity-example/src/temperature-humidity.c **** 
   4:../../../applications/examples/temperature-humidity-example/src/temperature-humidity.c **** #define temp_hum_timer    3
   5:../../../applications/examples/temperature-humidity-example/src/temperature-humidity.c **** 
   6:../../../applications/examples/temperature-humidity-example/src/temperature-humidity.c **** osTimerId temp_hum_timer_id;
   7:../../../applications/examples/temperature-humidity-example/src/temperature-humidity.c **** float SHTData[2];
   8:../../../applications/examples/temperature-humidity-example/src/temperature-humidity.c **** 
   9:../../../applications/examples/temperature-humidity-example/src/temperature-humidity.c **** int main(void)
  10:../../../applications/examples/temperature-humidity-example/src/temperature-humidity.c **** {
  11:../../../applications/examples/temperature-humidity-example/src/temperature-humidity.c ****   Initialize_Platform();
  12:../../../applications/examples/temperature-humidity-example/src/temperature-humidity.c ****   
  13:../../../applications/examples/temperature-humidity-example/src/temperature-humidity.c ****   //SHT
  14:../../../applications/examples/temperature-humidity-example/src/temperature-humidity.c ****   setI2CInterface_SHT31(&common_I2C);
  15:../../../applications/examples/temperature-humidity-example/src/temperature-humidity.c ****   SHT31_begin();
  16:../../../applications/examples/temperature-humidity-example/src/temperature-humidity.c **** 
  17:../../../applications/examples/temperature-humidity-example/src/temperature-humidity.c ****   osThreadDef(defaultTask, StartDefaultTask, osPriorityLow, 0, 128);
  18:../../../applications/examples/temperature-humidity-example/src/temperature-humidity.c ****   defaultTaskHandle = osThreadCreate(osThread(defaultTask), NULL);
  19:../../../applications/examples/temperature-humidity-example/src/temperature-humidity.c **** 
  20:../../../applications/examples/temperature-humidity-example/src/temperature-humidity.c ****   //feed IWDG every 5 seconds
  21:../../../applications/examples/temperature-humidity-example/src/temperature-humidity.c ****   IWDG_feed(NULL);
  22:../../../applications/examples/temperature-humidity-example/src/temperature-humidity.c ****   osTimerDef(iwdgTim, IWDG_feed);
  23:../../../applications/examples/temperature-humidity-example/src/temperature-humidity.c ****   iwdgTimId = osTimerCreate(osTimer(iwdgTim), osTimerPeriodic, NULL);
  24:../../../applications/examples/temperature-humidity-example/src/temperature-humidity.c ****   osTimerStart(iwdgTimId, 5 * 1000);
ARM GAS  C:\Users\tijsv\AppData\Local\Temp\ccGv3cXK.s 			page 2


  25:../../../applications/examples/temperature-humidity-example/src/temperature-humidity.c **** 
  26:../../../applications/examples/temperature-humidity-example/src/temperature-humidity.c ****   osTimerDef(temp_hum_Tim, temp_hum_measurement);
  27:../../../applications/examples/temperature-humidity-example/src/temperature-humidity.c ****   temp_hum_timer_id = osTimerCreate(osTimer(temp_hum_Tim), osTimerPeriodic, NULL);
  28:../../../applications/examples/temperature-humidity-example/src/temperature-humidity.c ****   osTimerStart(temp_hum_timer_id, temp_hum_timer * 1000);
  29:../../../applications/examples/temperature-humidity-example/src/temperature-humidity.c **** 
  30:../../../applications/examples/temperature-humidity-example/src/temperature-humidity.c ****   osKernelStart();
  31:../../../applications/examples/temperature-humidity-example/src/temperature-humidity.c **** 
  32:../../../applications/examples/temperature-humidity-example/src/temperature-humidity.c ****   while (1)
  33:../../../applications/examples/temperature-humidity-example/src/temperature-humidity.c ****   {
  34:../../../applications/examples/temperature-humidity-example/src/temperature-humidity.c ****   }
  35:../../../applications/examples/temperature-humidity-example/src/temperature-humidity.c **** }
  36:../../../applications/examples/temperature-humidity-example/src/temperature-humidity.c **** 
  37:../../../applications/examples/temperature-humidity-example/src/temperature-humidity.c **** void temp_hum_measurement(void)
  38:../../../applications/examples/temperature-humidity-example/src/temperature-humidity.c **** {
  39:../../../applications/examples/temperature-humidity-example/src/temperature-humidity.c ****   SHT31_get_temp_hum(SHTData);
  40:../../../applications/examples/temperature-humidity-example/src/temperature-humidity.c ****   print_temp_hum();
  41:../../../applications/examples/temperature-humidity-example/src/temperature-humidity.c **** }
  42:../../../applications/examples/temperature-humidity-example/src/temperature-humidity.c **** 
  43:../../../applications/examples/temperature-humidity-example/src/temperature-humidity.c **** void print_temp_hum(void)
  44:../../../applications/examples/temperature-humidity-example/src/temperature-humidity.c **** {
  45:../../../applications/examples/temperature-humidity-example/src/temperature-humidity.c ****   printINF("Temperature: %.2f degC \r\n", SHTData[0]);
  46:../../../applications/examples/temperature-humidity-example/src/temperature-humidity.c ****   printINF("Humidity: %.2f %% \r\n", SHTData[1]);
  47:../../../applications/examples/temperature-humidity-example/src/temperature-humidity.c **** }
  48:../../../applications/examples/temperature-humidity-example/src/temperature-humidity.c **** 
  49:../../../applications/examples/temperature-humidity-example/src/temperature-humidity.c **** void StartDefaultTask(void const *argument)
  50:../../../applications/examples/temperature-humidity-example/src/temperature-humidity.c **** {
  33              		.loc 1 50 1 view -0
  34              		.cfi_startproc
  35              		@ Volatile: function does not return.
  36              		@ args = 0, pretend = 0, frame = 0
  37              		@ frame_needed = 0, uses_anonymous_args = 0
  38              	.LVL0:
  39              		.loc 1 50 1 is_stmt 0 view .LVU1
  40 0000 08B5     		push	{r3, lr}
  41              	.LCFI0:
  42              		.cfi_def_cfa_offset 8
  43              		.cfi_offset 3, -8
  44              		.cfi_offset 14, -4
  45              	.LVL1:
  46              	.L2:
  51:../../../applications/examples/temperature-humidity-example/src/temperature-humidity.c ****   for (;;)
  47              		.loc 1 51 3 is_stmt 1 discriminator 1 view .LVU2
  52:../../../applications/examples/temperature-humidity-example/src/temperature-humidity.c ****   {
  53:../../../applications/examples/temperature-humidity-example/src/temperature-humidity.c ****     osDelay(1);
  48              		.loc 1 53 5 discriminator 1 view .LVU3
  49 0002 0120     		movs	r0, #1
  50 0004 FFF7FEFF 		bl	osDelay
  51              	.LVL2:
  51:../../../applications/examples/temperature-humidity-example/src/temperature-humidity.c ****   for (;;)
  52              		.loc 1 51 9 discriminator 1 view .LVU4
  53 0008 FBE7     		b	.L2
  54              		.cfi_endproc
  55              	.LFE134:
  57              		.section	.text.main,"ax",%progbits
  58              		.align	1
  59              		.global	main
  60              		.syntax unified
ARM GAS  C:\Users\tijsv\AppData\Local\Temp\ccGv3cXK.s 			page 3


  61              		.thumb
  62              		.thumb_func
  63              		.fpu fpv4-sp-d16
  65              	main:
  66              	.LFB131:
  10:../../../applications/examples/temperature-humidity-example/src/temperature-humidity.c ****   Initialize_Platform();
  67              		.loc 1 10 1 view -0
  68              		.cfi_startproc
  69              		@ Volatile: function does not return.
  70              		@ args = 0, pretend = 0, frame = 32
  71              		@ frame_needed = 0, uses_anonymous_args = 0
  72 0000 00B5     		push	{lr}
  73              	.LCFI1:
  74              		.cfi_def_cfa_offset 4
  75              		.cfi_offset 14, -4
  76 0002 89B0     		sub	sp, sp, #36
  77              	.LCFI2:
  78              		.cfi_def_cfa_offset 40
  11:../../../applications/examples/temperature-humidity-example/src/temperature-humidity.c ****   
  79              		.loc 1 11 3 view .LVU6
  80 0004 FFF7FEFF 		bl	Initialize_Platform
  81              	.LVL3:
  14:../../../applications/examples/temperature-humidity-example/src/temperature-humidity.c ****   SHT31_begin();
  82              		.loc 1 14 3 view .LVU7
  83 0008 1848     		ldr	r0, .L7
  84 000a FFF7FEFF 		bl	setI2CInterface_SHT31
  85              	.LVL4:
  15:../../../applications/examples/temperature-humidity-example/src/temperature-humidity.c **** 
  86              		.loc 1 15 3 view .LVU8
  87 000e FFF7FEFF 		bl	SHT31_begin
  88              	.LVL5:
  17:../../../applications/examples/temperature-humidity-example/src/temperature-humidity.c ****   defaultTaskHandle = osThreadCreate(osThread(defaultTask), NULL);
  89              		.loc 1 17 3 view .LVU9
  90 0012 03AC     		add	r4, sp, #12
  91 0014 164D     		ldr	r5, .L7+4
  92 0016 0FCD     		ldmia	r5!, {r0, r1, r2, r3}
  93 0018 0FC4     		stmia	r4!, {r0, r1, r2, r3}
  94 001a 2B68     		ldr	r3, [r5]
  95 001c 2360     		str	r3, [r4]
  18:../../../applications/examples/temperature-humidity-example/src/temperature-humidity.c **** 
  96              		.loc 1 18 3 view .LVU10
  18:../../../applications/examples/temperature-humidity-example/src/temperature-humidity.c **** 
  97              		.loc 1 18 23 is_stmt 0 view .LVU11
  98 001e 0021     		movs	r1, #0
  99 0020 03A8     		add	r0, sp, #12
 100 0022 FFF7FEFF 		bl	osThreadCreate
 101              	.LVL6:
  18:../../../applications/examples/temperature-humidity-example/src/temperature-humidity.c **** 
 102              		.loc 1 18 21 view .LVU12
 103 0026 134B     		ldr	r3, .L7+8
 104 0028 1860     		str	r0, [r3]
  21:../../../applications/examples/temperature-humidity-example/src/temperature-humidity.c ****   osTimerDef(iwdgTim, IWDG_feed);
 105              		.loc 1 21 3 is_stmt 1 view .LVU13
 106 002a 0020     		movs	r0, #0
 107 002c FFF7FEFF 		bl	IWDG_feed
 108              	.LVL7:
  22:../../../applications/examples/temperature-humidity-example/src/temperature-humidity.c ****   iwdgTimId = osTimerCreate(osTimer(iwdgTim), osTimerPeriodic, NULL);
ARM GAS  C:\Users\tijsv\AppData\Local\Temp\ccGv3cXK.s 			page 4


 109              		.loc 1 22 3 view .LVU14
 110 0030 114B     		ldr	r3, .L7+12
 111 0032 0293     		str	r3, [sp, #8]
  23:../../../applications/examples/temperature-humidity-example/src/temperature-humidity.c ****   osTimerStart(iwdgTimId, 5 * 1000);
 112              		.loc 1 23 3 view .LVU15
  23:../../../applications/examples/temperature-humidity-example/src/temperature-humidity.c ****   osTimerStart(iwdgTimId, 5 * 1000);
 113              		.loc 1 23 15 is_stmt 0 view .LVU16
 114 0034 0022     		movs	r2, #0
 115 0036 0121     		movs	r1, #1
 116 0038 02A8     		add	r0, sp, #8
 117 003a FFF7FEFF 		bl	osTimerCreate
 118              	.LVL8:
  23:../../../applications/examples/temperature-humidity-example/src/temperature-humidity.c ****   osTimerStart(iwdgTimId, 5 * 1000);
 119              		.loc 1 23 13 view .LVU17
 120 003e 0F4B     		ldr	r3, .L7+16
 121 0040 1860     		str	r0, [r3]
  24:../../../applications/examples/temperature-humidity-example/src/temperature-humidity.c **** 
 122              		.loc 1 24 3 is_stmt 1 view .LVU18
 123 0042 41F28831 		movw	r1, #5000
 124 0046 FFF7FEFF 		bl	osTimerStart
 125              	.LVL9:
  26:../../../applications/examples/temperature-humidity-example/src/temperature-humidity.c ****   temp_hum_timer_id = osTimerCreate(osTimer(temp_hum_Tim), osTimerPeriodic, NULL);
 126              		.loc 1 26 3 view .LVU19
 127 004a 0D4B     		ldr	r3, .L7+20
 128 004c 0193     		str	r3, [sp, #4]
  27:../../../applications/examples/temperature-humidity-example/src/temperature-humidity.c ****   osTimerStart(temp_hum_timer_id, temp_hum_timer * 1000);
 129              		.loc 1 27 3 view .LVU20
  27:../../../applications/examples/temperature-humidity-example/src/temperature-humidity.c ****   osTimerStart(temp_hum_timer_id, temp_hum_timer * 1000);
 130              		.loc 1 27 23 is_stmt 0 view .LVU21
 131 004e 0022     		movs	r2, #0
 132 0050 0121     		movs	r1, #1
 133 0052 01A8     		add	r0, sp, #4
 134 0054 FFF7FEFF 		bl	osTimerCreate
 135              	.LVL10:
  27:../../../applications/examples/temperature-humidity-example/src/temperature-humidity.c ****   osTimerStart(temp_hum_timer_id, temp_hum_timer * 1000);
 136              		.loc 1 27 21 view .LVU22
 137 0058 0A4B     		ldr	r3, .L7+24
 138 005a 1860     		str	r0, [r3]
  28:../../../applications/examples/temperature-humidity-example/src/temperature-humidity.c **** 
 139              		.loc 1 28 3 is_stmt 1 view .LVU23
 140 005c 40F6B831 		movw	r1, #3000
 141 0060 FFF7FEFF 		bl	osTimerStart
 142              	.LVL11:
  30:../../../applications/examples/temperature-humidity-example/src/temperature-humidity.c **** 
 143              		.loc 1 30 3 view .LVU24
 144 0064 FFF7FEFF 		bl	osKernelStart
 145              	.LVL12:
 146              	.L5:
  32:../../../applications/examples/temperature-humidity-example/src/temperature-humidity.c ****   {
 147              		.loc 1 32 3 discriminator 1 view .LVU25
  34:../../../applications/examples/temperature-humidity-example/src/temperature-humidity.c **** }
 148              		.loc 1 34 3 discriminator 1 view .LVU26
  32:../../../applications/examples/temperature-humidity-example/src/temperature-humidity.c ****   {
 149              		.loc 1 32 9 discriminator 1 view .LVU27
 150 0068 FEE7     		b	.L5
 151              	.L8:
 152 006a 00BF     		.align	2
ARM GAS  C:\Users\tijsv\AppData\Local\Temp\ccGv3cXK.s 			page 5


 153              	.L7:
 154 006c 00000000 		.word	common_I2C
 155 0070 00000000 		.word	.LANCHOR0
 156 0074 00000000 		.word	defaultTaskHandle
 157 0078 00000000 		.word	IWDG_feed
 158 007c 00000000 		.word	iwdgTimId
 159 0080 00000000 		.word	temp_hum_measurement
 160 0084 00000000 		.word	temp_hum_timer_id
 161              		.cfi_endproc
 162              	.LFE131:
 164              		.global	__aeabi_f2d
 165              		.section	.rodata.print_temp_hum.str1.4,"aMS",%progbits,1
 166              		.align	2
 167              	.LC3:
 168 0000 54656D70 		.ascii	"Temperature: %.2f degC \015\012\000"
 168      65726174 
 168      7572653A 
 168      20252E32 
 168      66206465 
 169 001a 0000     		.align	2
 170              	.LC4:
 171 001c 48756D69 		.ascii	"Humidity: %.2f %% \015\012\000"
 171      64697479 
 171      3A20252E 
 171      32662025 
 171      25200D0A 
 172              		.section	.text.print_temp_hum,"ax",%progbits
 173              		.align	1
 174              		.global	print_temp_hum
 175              		.syntax unified
 176              		.thumb
 177              		.thumb_func
 178              		.fpu fpv4-sp-d16
 180              	print_temp_hum:
 181              	.LFB133:
  44:../../../applications/examples/temperature-humidity-example/src/temperature-humidity.c ****   printINF("Temperature: %.2f degC \r\n", SHTData[0]);
 182              		.loc 1 44 1 view -0
 183              		.cfi_startproc
 184              		@ args = 0, pretend = 0, frame = 0
 185              		@ frame_needed = 0, uses_anonymous_args = 0
 186 0000 10B5     		push	{r4, lr}
 187              	.LCFI3:
 188              		.cfi_def_cfa_offset 8
 189              		.cfi_offset 4, -8
 190              		.cfi_offset 14, -4
  45:../../../applications/examples/temperature-humidity-example/src/temperature-humidity.c ****   printINF("Humidity: %.2f %% \r\n", SHTData[1]);
 191              		.loc 1 45 3 view .LVU29
  45:../../../applications/examples/temperature-humidity-example/src/temperature-humidity.c ****   printINF("Humidity: %.2f %% \r\n", SHTData[1]);
 192              		.loc 1 45 50 is_stmt 0 view .LVU30
 193 0002 094C     		ldr	r4, .L11
  45:../../../applications/examples/temperature-humidity-example/src/temperature-humidity.c ****   printINF("Humidity: %.2f %% \r\n", SHTData[1]);
 194              		.loc 1 45 3 view .LVU31
 195 0004 2068     		ldr	r0, [r4]	@ float
 196 0006 FFF7FEFF 		bl	__aeabi_f2d
 197              	.LVL13:
 198 000a 0246     		mov	r2, r0
 199 000c 0B46     		mov	r3, r1
ARM GAS  C:\Users\tijsv\AppData\Local\Temp\ccGv3cXK.s 			page 6


 200 000e 0748     		ldr	r0, .L11+4
 201 0010 FFF7FEFF 		bl	printINF
 202              	.LVL14:
  46:../../../applications/examples/temperature-humidity-example/src/temperature-humidity.c **** }
 203              		.loc 1 46 3 is_stmt 1 view .LVU32
 204 0014 6068     		ldr	r0, [r4, #4]	@ float
 205 0016 FFF7FEFF 		bl	__aeabi_f2d
 206              	.LVL15:
 207 001a 0246     		mov	r2, r0
 208 001c 0B46     		mov	r3, r1
 209 001e 0448     		ldr	r0, .L11+8
 210 0020 FFF7FEFF 		bl	printINF
 211              	.LVL16:
  47:../../../applications/examples/temperature-humidity-example/src/temperature-humidity.c **** 
 212              		.loc 1 47 1 is_stmt 0 view .LVU33
 213 0024 10BD     		pop	{r4, pc}
 214              	.L12:
 215 0026 00BF     		.align	2
 216              	.L11:
 217 0028 00000000 		.word	SHTData
 218 002c 00000000 		.word	.LC3
 219 0030 1C000000 		.word	.LC4
 220              		.cfi_endproc
 221              	.LFE133:
 223              		.section	.text.temp_hum_measurement,"ax",%progbits
 224              		.align	1
 225              		.global	temp_hum_measurement
 226              		.syntax unified
 227              		.thumb
 228              		.thumb_func
 229              		.fpu fpv4-sp-d16
 231              	temp_hum_measurement:
 232              	.LFB132:
  38:../../../applications/examples/temperature-humidity-example/src/temperature-humidity.c ****   SHT31_get_temp_hum(SHTData);
 233              		.loc 1 38 1 is_stmt 1 view -0
 234              		.cfi_startproc
 235              		@ args = 0, pretend = 0, frame = 0
 236              		@ frame_needed = 0, uses_anonymous_args = 0
 237 0000 08B5     		push	{r3, lr}
 238              	.LCFI4:
 239              		.cfi_def_cfa_offset 8
 240              		.cfi_offset 3, -8
 241              		.cfi_offset 14, -4
  39:../../../applications/examples/temperature-humidity-example/src/temperature-humidity.c ****   print_temp_hum();
 242              		.loc 1 39 3 view .LVU35
 243 0002 0348     		ldr	r0, .L15
 244 0004 FFF7FEFF 		bl	SHT31_get_temp_hum
 245              	.LVL17:
  40:../../../applications/examples/temperature-humidity-example/src/temperature-humidity.c **** }
 246              		.loc 1 40 3 view .LVU36
 247 0008 FFF7FEFF 		bl	print_temp_hum
 248              	.LVL18:
  41:../../../applications/examples/temperature-humidity-example/src/temperature-humidity.c **** 
 249              		.loc 1 41 1 is_stmt 0 view .LVU37
 250 000c 08BD     		pop	{r3, pc}
 251              	.L16:
 252 000e 00BF     		.align	2
ARM GAS  C:\Users\tijsv\AppData\Local\Temp\ccGv3cXK.s 			page 7


 253              	.L15:
 254 0010 00000000 		.word	SHTData
 255              		.cfi_endproc
 256              	.LFE132:
 258              		.comm	SHTData,8,4
 259              		.comm	temp_hum_timer_id,4,4
 260              		.comm	temp,4,4
 261              		.comm	humidity,4,4
 262              		.comm	_i2caddr,1,1
 263              		.comm	SHThi2cLib,4,4
 264              		.comm	iwdgTimId,4,4
 265              		.comm	defaultTaskHandle,4,4
 266              		.comm	P3_header,44,4
 267              		.comm	P2_header,44,4
 268              		.comm	P1_header,44,4
 269              		.comm	stackversion_patch,1,1
 270              		.comm	stackversion_minor,1,1
 271              		.comm	stackversion_major,1,1
 272              		.comm	appversion_patch,1,1
 273              		.comm	appversion_minor,1,1
 274              		.comm	appversion_major,1,1
 275              		.comm	short_UID,8,8
 276              		.comm	hard_reset,1,1
 277              		.comm	wd_reset,1,1
 278              		.comm	octa_uid,8,8
 279              		.comm	float_union,4,4
 280              		.comm	uint16LittleEndian,2,4
 281              		.comm	int16LittleEndian,2,4
 282              		.comm	uint32LittleEndian,4,4
 283              		.comm	int32LittleEndian,4,4
 284              		.comm	rtosprintHandle,4,4
 285              		.comm	hrtc,36,4
 286              		.comm	FLASH_SPI,100,4
 287              		.comm	P3_SPI,100,4
 288              		.comm	P2_SPI,100,4
 289              		.comm	P1_SPI,100,4
 290              		.comm	P3_I2C,76,4
 291              		.comm	P2_I2C,76,4
 292              		.comm	P1_I2C,76,4
 293              		.comm	common_I2C,76,4
 294              		.comm	P3_UART,120,4
 295              		.comm	P2_UART,120,4
 296              		.comm	P1_UART,120,4
 297              		.comm	FTDI_UART,120,4
 298              		.comm	BLE_UART,120,4
 299              		.comm	USB_UART,120,4
 300              		.comm	hiwdg,16,4
 301              		.comm	P3_DIO6,8,4
 302              		.comm	P3_DIO5,8,4
 303              		.comm	P3_DIO4,8,4
 304              		.comm	P3_DIO3,8,4
 305              		.comm	P3_DIO2,8,4
 306              		.comm	P3_DIO1,8,4
 307              		.comm	P2_DIO6,8,4
 308              		.comm	P2_DIO5,8,4
 309              		.comm	P2_DIO4,8,4
 310              		.comm	P2_DIO3,8,4
ARM GAS  C:\Users\tijsv\AppData\Local\Temp\ccGv3cXK.s 			page 8


 311              		.comm	P2_DIO2,8,4
 312              		.comm	P2_DIO1,8,4
 313              		.comm	P1_DIO6,8,4
 314              		.comm	P1_DIO5,8,4
 315              		.comm	P1_DIO4,8,4
 316              		.comm	P1_DIO3,8,4
 317              		.comm	P1_DIO2,8,4
 318              		.comm	P1_DIO1,8,4
 319              		.comm	htim6,64,4
 320              		.comm	htim1,64,4
 321              		.section	.rodata
 322              		.align	2
 323              		.set	.LANCHOR0,. + 0
 324              	.LC2:
 325 0000 00000000 		.word	.LC0
 326 0004 00000000 		.word	StartDefaultTask
 327 0008 FEFF     		.short	-2
 328 000a 0000     		.space	2
 329 000c 00000000 		.word	0
 330 0010 80000000 		.word	128
 331              		.text
 332              	.Letext0:
 333              		.file 2 "c:\\program files (x86)\\gnu tools arm embedded\\9 2019-q4-major\\arm-none-eabi\\include\
 334              		.file 3 "c:\\program files (x86)\\gnu tools arm embedded\\9 2019-q4-major\\arm-none-eabi\\include\
 335              		.file 4 "../../../core/ST/CMSIS/Include/core_cm4.h"
 336              		.file 5 "../../../core/ST/CMSIS/Device/ST/STM32L4xx/Include/system_stm32l4xx.h"
 337              		.file 6 "../../../core/ST/CMSIS/Device/ST/STM32L4xx/Include/stm32l496xx.h"
 338              		.file 7 "../../../core/ST/STM32L4xx_HAL_Driver/Inc/stm32l4xx_hal_def.h"
 339              		.file 8 "../../../core/ST/STM32L4xx_HAL_Driver/Inc/stm32l4xx_hal_dma.h"
 340              		.file 9 "../../../core/ST/STM32L4xx_HAL_Driver/Inc/stm32l4xx_hal_i2c.h"
 341              		.file 10 "../../../core/ST/STM32L4xx_HAL_Driver/Inc/stm32l4xx_hal_iwdg.h"
 342              		.file 11 "../../../core/ST/STM32L4xx_HAL_Driver/Inc/stm32l4xx_hal_rtc.h"
 343              		.file 12 "../../../core/ST/STM32L4xx_HAL_Driver/Inc/stm32l4xx_hal_spi.h"
 344              		.file 13 "../../../core/ST/STM32L4xx_HAL_Driver/Inc/stm32l4xx_hal_tim.h"
 345              		.file 14 "../../../core/ST/STM32L4xx_HAL_Driver/Inc/stm32l4xx_hal_uart.h"
 346              		.file 15 "../../../core/ST/STM32L4xx_HAL_Driver/Inc/stm32l4xx_hal.h"
 347              		.file 16 "../../../core/ST/Middlewares/Third_Party/FreeRTOS/Source/include/task.h"
 348              		.file 17 "../../../core/ST/Middlewares/Third_Party/FreeRTOS/Source/include/timers.h"
 349              		.file 18 "../../../core/ST/Middlewares/Third_Party/FreeRTOS/Source/CMSIS_RTOS/cmsis_os.h"
 350              		.file 19 "../../../core/platform/octa/inc/sysclock.h"
 351              		.file 20 "../../../core/platform/octa/inc/gpio.h"
 352              		.file 21 "../../../core/platform/octa/inc/iwdg.h"
 353              		.file 22 "../../../core/platform/octa/inc/uart.h"
 354              		.file 23 "../../../core/platform/octa/inc/i2c.h"
 355              		.file 24 "../../../core/platform/octa/inc/spi.h"
 356              		.file 25 "../../../core/platform/octa/inc/rtc.h"
 357              		.file 26 "../../../core/platform/octa/inc/rtosincludes.h"
 358              		.file 27 "c:\\program files (x86)\\gnu tools arm embedded\\9 2019-q4-major\\arm-none-eabi\\include
 359              		.file 28 "c:\\program files (x86)\\gnu tools arm embedded\\9 2019-q4-major\\arm-none-eabi\\include
 360              		.file 29 "c:\\program files (x86)\\gnu tools arm embedded\\9 2019-q4-major\\lib\\gcc\\arm-none-eab
 361              		.file 30 "c:\\program files (x86)\\gnu tools arm embedded\\9 2019-q4-major\\arm-none-eabi\\include
 362              		.file 31 "../../../core/platform/common/inc/datatypes.h"
 363              		.file 32 "../../../core/platform/octa/inc/platform.h"
 364              		.file 33 "../../../applications/examples/temperature-humidity-example/inc/temperature-humidity.h"
 365              		.file 34 "../../../core/drivers/SHT31/inc/sht31.h"
 366              		.file 35 "../../../core/platform/common/inc/print.h"
ARM GAS  C:\Users\tijsv\AppData\Local\Temp\ccGv3cXK.s 			page 9

