ARM GAS  C:\Users\tijsv\AppData\Local\Temp\ccU0OIRr.s 			page 1


   1              		.cpu cortex-m4
   2              		.eabi_attribute 27, 1
   3              		.eabi_attribute 28, 1
   4              		.eabi_attribute 20, 1
   5              		.eabi_attribute 21, 1
   6              		.eabi_attribute 23, 3
   7              		.eabi_attribute 24, 1
   8              		.eabi_attribute 25, 1
   9              		.eabi_attribute 26, 1
  10              		.eabi_attribute 30, 1
  11              		.eabi_attribute 34, 1
  12              		.eabi_attribute 18, 4
  13              		.file	"TCS3472.c"
  14              		.text
  15              	.Ltext0:
  16              		.cfi_sections	.debug_frame
  17              		.section	.text.WRITE_REGISTER_TC3472,"ax",%progbits
  18              		.align	1
  19              		.global	WRITE_REGISTER_TC3472
  20              		.arch armv7e-m
  21              		.syntax unified
  22              		.thumb
  23              		.thumb_func
  24              		.fpu fpv4-sp-d16
  26              	WRITE_REGISTER_TC3472:
  27              	.LVL0:
  28              	.LFB132:
  29              		.file 1 "../../../core/drivers/TCS3472/src/TCS3472.c"
   1:../../../core/drivers/TCS3472/src/TCS3472.c **** /*
   2:../../../core/drivers/TCS3472/src/TCS3472.c ****  * TCS3472.c
   3:../../../core/drivers/TCS3472/src/TCS3472.c ****  *
   4:../../../core/drivers/TCS3472/src/TCS3472.c ****  *  Created on: 1 Mar 2018
   5:../../../core/drivers/TCS3472/src/TCS3472.c ****  *    
   6:../../../core/drivers/TCS3472/src/TCS3472.c ****  */
   7:../../../core/drivers/TCS3472/src/TCS3472.c **** #include "TCS3472.h"
   8:../../../core/drivers/TCS3472/src/TCS3472.c **** #include "platform.h"
   9:../../../core/drivers/TCS3472/src/TCS3472.c **** #define SLAVE_ADDRESS           0x29
  10:../../../core/drivers/TCS3472/src/TCS3472.c **** 
  11:../../../core/drivers/TCS3472/src/TCS3472.c **** #define ENABLE                 0x00
  12:../../../core/drivers/TCS3472/src/TCS3472.c **** #define ATIME                   0x01
  13:../../../core/drivers/TCS3472/src/TCS3472.c **** #define WTIME                   0x03
  14:../../../core/drivers/TCS3472/src/TCS3472.c **** #define AILTL                   0x04
  15:../../../core/drivers/TCS3472/src/TCS3472.c **** #define AIHTL                   0x06
  16:../../../core/drivers/TCS3472/src/TCS3472.c **** #define PERS                    0x0C
  17:../../../core/drivers/TCS3472/src/TCS3472.c **** #define CONFIG                  0x0D
  18:../../../core/drivers/TCS3472/src/TCS3472.c **** #define CONTROL                 0x0F
  19:../../../core/drivers/TCS3472/src/TCS3472.c **** #define ID                      0x12
  20:../../../core/drivers/TCS3472/src/TCS3472.c **** #define STATUS                  0x13
  21:../../../core/drivers/TCS3472/src/TCS3472.c **** #define CDATA                   0x14
  22:../../../core/drivers/TCS3472/src/TCS3472.c **** #define RDATA                   0x16
  23:../../../core/drivers/TCS3472/src/TCS3472.c **** #define GDATA                   0x18
  24:../../../core/drivers/TCS3472/src/TCS3472.c **** #define BDATA                   0x1A
  25:../../../core/drivers/TCS3472/src/TCS3472.c **** 
  26:../../../core/drivers/TCS3472/src/TCS3472.c **** void TC3472_init(I2C_HandleTypeDef *hi2c)
  27:../../../core/drivers/TCS3472/src/TCS3472.c **** {
  28:../../../core/drivers/TCS3472/src/TCS3472.c **** 	hi2cLib=hi2c;
  29:../../../core/drivers/TCS3472/src/TCS3472.c ****     enablePowerAndRGBC();
ARM GAS  C:\Users\tijsv\AppData\Local\Temp\ccU0OIRr.s 			page 2


  30:../../../core/drivers/TCS3472/src/TCS3472.c **** 	setIntegrationTime(100);
  31:../../../core/drivers/TCS3472/src/TCS3472.c **** }
  32:../../../core/drivers/TCS3472/src/TCS3472.c **** uint8_t WRITE_REGISTER_TC3472(uint8_t pData[],uint8_t length)
  33:../../../core/drivers/TCS3472/src/TCS3472.c **** {
  30              		.loc 1 33 1 view -0
  31              		.cfi_startproc
  32              		@ args = 0, pretend = 0, frame = 0
  33              		@ frame_needed = 0, uses_anonymous_args = 0
  34              		.loc 1 33 1 is_stmt 0 view .LVU1
  35 0000 00B5     		push	{lr}
  36              	.LCFI0:
  37              		.cfi_def_cfa_offset 4
  38              		.cfi_offset 14, -4
  39 0002 83B0     		sub	sp, sp, #12
  40              	.LCFI1:
  41              		.cfi_def_cfa_offset 16
  42 0004 0246     		mov	r2, r0
  43 0006 0B46     		mov	r3, r1
  34:../../../core/drivers/TCS3472/src/TCS3472.c **** 	uint8_t status=HAL_I2C_Master_Transmit(hi2cLib, SLAVE_ADDRESS<<1, pData,length, HAL_MAX_DELAY);
  44              		.loc 1 34 2 is_stmt 1 view .LVU2
  45              		.loc 1 34 17 is_stmt 0 view .LVU3
  46 0008 4FF0FF31 		mov	r1, #-1
  47              	.LVL1:
  48              		.loc 1 34 17 view .LVU4
  49 000c 0091     		str	r1, [sp]
  50 000e 5221     		movs	r1, #82
  51 0010 0348     		ldr	r0, .L3
  52              	.LVL2:
  53              		.loc 1 34 17 view .LVU5
  54 0012 0068     		ldr	r0, [r0]
  55 0014 FFF7FEFF 		bl	HAL_I2C_Master_Transmit
  56              	.LVL3:
  35:../../../core/drivers/TCS3472/src/TCS3472.c **** 	return status;
  57              		.loc 1 35 2 is_stmt 1 view .LVU6
  36:../../../core/drivers/TCS3472/src/TCS3472.c **** }
  58              		.loc 1 36 1 is_stmt 0 view .LVU7
  59 0018 03B0     		add	sp, sp, #12
  60              	.LCFI2:
  61              		.cfi_def_cfa_offset 4
  62              		@ sp needed
  63 001a 5DF804FB 		ldr	pc, [sp], #4
  64              	.L4:
  65 001e 00BF     		.align	2
  66              	.L3:
  67 0020 00000000 		.word	hi2cLib
  68              		.cfi_endproc
  69              	.LFE132:
  71              		.section	.text.READ_REGISTER_TC3472,"ax",%progbits
  72              		.align	1
  73              		.global	READ_REGISTER_TC3472
  74              		.syntax unified
  75              		.thumb
  76              		.thumb_func
  77              		.fpu fpv4-sp-d16
  79              	READ_REGISTER_TC3472:
  80              	.LVL4:
  81              	.LFB133:
ARM GAS  C:\Users\tijsv\AppData\Local\Temp\ccU0OIRr.s 			page 3


  37:../../../core/drivers/TCS3472/src/TCS3472.c **** uint8_t READ_REGISTER_TC3472(uint8_t buf[],uint8_t reg,uint8_t length)
  38:../../../core/drivers/TCS3472/src/TCS3472.c **** {
  82              		.loc 1 38 1 is_stmt 1 view -0
  83              		.cfi_startproc
  84              		@ args = 0, pretend = 0, frame = 0
  85              		@ frame_needed = 0, uses_anonymous_args = 0
  86              		.loc 1 38 1 is_stmt 0 view .LVU9
  87 0000 00B5     		push	{lr}
  88              	.LCFI3:
  89              		.cfi_def_cfa_offset 4
  90              		.cfi_offset 14, -4
  91 0002 85B0     		sub	sp, sp, #20
  92              	.LCFI4:
  93              		.cfi_def_cfa_offset 24
  39:../../../core/drivers/TCS3472/src/TCS3472.c **** 	uint8_t status = HAL_I2C_Mem_Read(hi2cLib, SLAVE_ADDRESS<<1, reg, I2C_MEMADD_SIZE_8BIT, buf, lengt
  94              		.loc 1 39 2 is_stmt 1 view .LVU10
  95              		.loc 1 39 19 is_stmt 0 view .LVU11
  96 0004 4FF0FF33 		mov	r3, #-1
  97 0008 0293     		str	r3, [sp, #8]
  98 000a 0192     		str	r2, [sp, #4]
  99 000c 0090     		str	r0, [sp]
 100 000e 0123     		movs	r3, #1
 101 0010 0A46     		mov	r2, r1
 102              	.LVL5:
 103              		.loc 1 39 19 view .LVU12
 104 0012 5221     		movs	r1, #82
 105              	.LVL6:
 106              		.loc 1 39 19 view .LVU13
 107 0014 0348     		ldr	r0, .L7
 108              	.LVL7:
 109              		.loc 1 39 19 view .LVU14
 110 0016 0068     		ldr	r0, [r0]
 111 0018 FFF7FEFF 		bl	HAL_I2C_Mem_Read
 112              	.LVL8:
  40:../../../core/drivers/TCS3472/src/TCS3472.c **** 	return status;
 113              		.loc 1 40 2 is_stmt 1 view .LVU15
  41:../../../core/drivers/TCS3472/src/TCS3472.c **** }
 114              		.loc 1 41 1 is_stmt 0 view .LVU16
 115 001c 05B0     		add	sp, sp, #20
 116              	.LCFI5:
 117              		.cfi_def_cfa_offset 4
 118              		@ sp needed
 119 001e 5DF804FB 		ldr	pc, [sp], #4
 120              	.L8:
 121 0022 00BF     		.align	2
 122              	.L7:
 123 0024 00000000 		.word	hi2cLib
 124              		.cfi_endproc
 125              	.LFE133:
 127              		.section	.text.writeSingleRegister,"ax",%progbits
 128              		.align	1
 129              		.global	writeSingleRegister
 130              		.syntax unified
 131              		.thumb
 132              		.thumb_func
 133              		.fpu fpv4-sp-d16
 135              	writeSingleRegister:
ARM GAS  C:\Users\tijsv\AppData\Local\Temp\ccU0OIRr.s 			page 4


 136              	.LVL9:
 137              	.LFB134:
  42:../../../core/drivers/TCS3472/src/TCS3472.c **** 
  43:../../../core/drivers/TCS3472/src/TCS3472.c **** 
  44:../../../core/drivers/TCS3472/src/TCS3472.c **** int writeSingleRegister( uint8_t address, uint8_t data ){
 138              		.loc 1 44 57 is_stmt 1 view -0
 139              		.cfi_startproc
 140              		@ args = 0, pretend = 0, frame = 8
 141              		@ frame_needed = 0, uses_anonymous_args = 0
 142              		.loc 1 44 57 is_stmt 0 view .LVU18
 143 0000 00B5     		push	{lr}
 144              	.LCFI6:
 145              		.cfi_def_cfa_offset 4
 146              		.cfi_offset 14, -4
 147 0002 83B0     		sub	sp, sp, #12
 148              	.LCFI7:
 149              		.cfi_def_cfa_offset 16
  45:../../../core/drivers/TCS3472/src/TCS3472.c ****     uint8_t tx[2] = { address | 160, data }; //0d160 = 0b10100000
 150              		.loc 1 45 5 is_stmt 1 view .LVU19
 151              		.loc 1 45 13 is_stmt 0 view .LVU20
 152 0004 60F05F00 		orn	r0, r0, #95
 153              	.LVL10:
 154              		.loc 1 45 13 view .LVU21
 155 0008 8DF80400 		strb	r0, [sp, #4]
 156 000c 8DF80510 		strb	r1, [sp, #5]
  46:../../../core/drivers/TCS3472/src/TCS3472.c ****     //int ack = i2c.write( SLAVE_ADDRESS << 1, tx, 2 );
  47:../../../core/drivers/TCS3472/src/TCS3472.c ****     int ack=WRITE_REGISTER_TC3472(tx,2);
 157              		.loc 1 47 5 is_stmt 1 view .LVU22
 158              		.loc 1 47 13 is_stmt 0 view .LVU23
 159 0010 0221     		movs	r1, #2
 160              	.LVL11:
 161              		.loc 1 47 13 view .LVU24
 162 0012 01A8     		add	r0, sp, #4
 163 0014 FFF7FEFF 		bl	WRITE_REGISTER_TC3472
 164              	.LVL12:
  48:../../../core/drivers/TCS3472/src/TCS3472.c ****     return ack;
 165              		.loc 1 48 5 is_stmt 1 view .LVU25
  49:../../../core/drivers/TCS3472/src/TCS3472.c **** }
 166              		.loc 1 49 1 is_stmt 0 view .LVU26
 167 0018 03B0     		add	sp, sp, #12
 168              	.LCFI8:
 169              		.cfi_def_cfa_offset 4
 170              		@ sp needed
 171 001a 5DF804FB 		ldr	pc, [sp], #4
 172              		.cfi_endproc
 173              	.LFE134:
 175              		.section	.text.writeMultipleRegisters,"ax",%progbits
 176              		.align	1
 177              		.global	writeMultipleRegisters
 178              		.syntax unified
 179              		.thumb
 180              		.thumb_func
 181              		.fpu fpv4-sp-d16
 183              	writeMultipleRegisters:
 184              	.LVL13:
 185              	.LFB135:
  50:../../../core/drivers/TCS3472/src/TCS3472.c **** 
ARM GAS  C:\Users\tijsv\AppData\Local\Temp\ccU0OIRr.s 			page 5


  51:../../../core/drivers/TCS3472/src/TCS3472.c **** int writeMultipleRegisters( uint8_t address, uint8_t* data, int quantity ){
 186              		.loc 1 51 75 is_stmt 1 view -0
 187              		.cfi_startproc
 188              		@ args = 0, pretend = 0, frame = 0
 189              		@ frame_needed = 1, uses_anonymous_args = 0
 190              		.loc 1 51 75 is_stmt 0 view .LVU28
 191 0000 B0B5     		push	{r4, r5, r7, lr}
 192              	.LCFI9:
 193              		.cfi_def_cfa_offset 16
 194              		.cfi_offset 4, -16
 195              		.cfi_offset 5, -12
 196              		.cfi_offset 7, -8
 197              		.cfi_offset 14, -4
 198 0002 00AF     		add	r7, sp, #0
 199              	.LCFI10:
 200              		.cfi_def_cfa_register 7
  52:../../../core/drivers/TCS3472/src/TCS3472.c ****     uint8_t tx[ quantity + 1 ];
 201              		.loc 1 52 5 is_stmt 1 view .LVU29
 202              	.LVL14:
 203              		.loc 1 52 13 is_stmt 0 view .LVU30
 204 0004 02F10803 		add	r3, r2, #8
 205 0008 23F00703 		bic	r3, r3, #7
 206 000c ADEB030D 		sub	sp, sp, r3
 207 0010 6D46     		mov	r5, sp
 208              	.LVL15:
  53:../../../core/drivers/TCS3472/src/TCS3472.c ****     tx[0] = address | 160;
 209              		.loc 1 53 5 is_stmt 1 view .LVU31
 210              		.loc 1 53 11 is_stmt 0 view .LVU32
 211 0012 60F05F00 		orn	r0, r0, #95
 212              	.LVL16:
 213              		.loc 1 53 11 view .LVU33
 214 0016 8DF80000 		strb	r0, [sp]
  54:../../../core/drivers/TCS3472/src/TCS3472.c ****     for ( int i = 1; i <= quantity; i++ ){
 215              		.loc 1 54 5 is_stmt 1 view .LVU34
 216              	.LBB2:
 217              		.loc 1 54 11 view .LVU35
 218              	.LVL17:
 219              		.loc 1 54 15 is_stmt 0 view .LVU36
 220 001a 0123     		movs	r3, #1
 221              	.LVL18:
 222              	.L12:
 223              		.loc 1 54 22 is_stmt 1 discriminator 1 view .LVU37
 224              		.loc 1 54 5 is_stmt 0 discriminator 1 view .LVU38
 225 001c 9342     		cmp	r3, r2
 226 001e 05DC     		bgt	.L15
  55:../../../core/drivers/TCS3472/src/TCS3472.c ****         tx[ i ] = data[ i - 1 ];
 227              		.loc 1 55 9 is_stmt 1 discriminator 3 view .LVU39
 228              		.loc 1 55 23 is_stmt 0 discriminator 3 view .LVU40
 229 0020 CC18     		adds	r4, r1, r3
 230 0022 14F8014C 		ldrb	r4, [r4, #-1]	@ zero_extendqisi2
 231              		.loc 1 55 17 discriminator 3 view .LVU41
 232 0026 EC54     		strb	r4, [r5, r3]
  54:../../../core/drivers/TCS3472/src/TCS3472.c ****     for ( int i = 1; i <= quantity; i++ ){
 233              		.loc 1 54 37 is_stmt 1 discriminator 3 view .LVU42
  54:../../../core/drivers/TCS3472/src/TCS3472.c ****     for ( int i = 1; i <= quantity; i++ ){
 234              		.loc 1 54 38 is_stmt 0 discriminator 3 view .LVU43
 235 0028 0133     		adds	r3, r3, #1
ARM GAS  C:\Users\tijsv\AppData\Local\Temp\ccU0OIRr.s 			page 6


 236              	.LVL19:
  54:../../../core/drivers/TCS3472/src/TCS3472.c ****     for ( int i = 1; i <= quantity; i++ ){
 237              		.loc 1 54 38 discriminator 3 view .LVU44
 238 002a F7E7     		b	.L12
 239              	.L15:
  54:../../../core/drivers/TCS3472/src/TCS3472.c ****     for ( int i = 1; i <= quantity; i++ ){
 240              		.loc 1 54 38 discriminator 3 view .LVU45
 241              	.LBE2:
  56:../../../core/drivers/TCS3472/src/TCS3472.c ****     }
  57:../../../core/drivers/TCS3472/src/TCS3472.c ****     //int ack = i2c.write( SLAVE_ADDRESS << 1, tx, quantity + 1 );
  58:../../../core/drivers/TCS3472/src/TCS3472.c ****     int ack=WRITE_REGISTER_TC3472(tx,quantity + 1);
 242              		.loc 1 58 5 is_stmt 1 view .LVU46
 243              		.loc 1 58 13 is_stmt 0 view .LVU47
 244 002c 0132     		adds	r2, r2, #1
 245              	.LVL20:
 246              		.loc 1 58 13 view .LVU48
 247 002e D1B2     		uxtb	r1, r2
 248              	.LVL21:
 249              		.loc 1 58 13 view .LVU49
 250 0030 2846     		mov	r0, r5
 251 0032 FFF7FEFF 		bl	WRITE_REGISTER_TC3472
 252              	.LVL22:
  59:../../../core/drivers/TCS3472/src/TCS3472.c ****     return ack;
 253              		.loc 1 59 5 is_stmt 1 view .LVU50
  60:../../../core/drivers/TCS3472/src/TCS3472.c **** }
 254              		.loc 1 60 1 is_stmt 0 view .LVU51
 255 0036 BD46     		mov	sp, r7
 256              	.LCFI11:
 257              		.cfi_def_cfa_register 13
 258              		@ sp needed
 259 0038 B0BD     		pop	{r4, r5, r7, pc}
 260              		.loc 1 60 1 view .LVU52
 261              		.cfi_endproc
 262              	.LFE135:
 264              		.section	.text.readSingleRegister,"ax",%progbits
 265              		.align	1
 266              		.global	readSingleRegister
 267              		.syntax unified
 268              		.thumb
 269              		.thumb_func
 270              		.fpu fpv4-sp-d16
 272              	readSingleRegister:
 273              	.LVL23:
 274              	.LFB136:
  61:../../../core/drivers/TCS3472/src/TCS3472.c **** 
  62:../../../core/drivers/TCS3472/src/TCS3472.c **** uint8_t readSingleRegister( uint8_t address ){
 275              		.loc 1 62 46 is_stmt 1 view -0
 276              		.cfi_startproc
 277              		@ args = 0, pretend = 0, frame = 8
 278              		@ frame_needed = 0, uses_anonymous_args = 0
 279              		.loc 1 62 46 is_stmt 0 view .LVU54
 280 0000 00B5     		push	{lr}
 281              	.LCFI12:
 282              		.cfi_def_cfa_offset 4
 283              		.cfi_offset 14, -4
 284 0002 83B0     		sub	sp, sp, #12
 285              	.LCFI13:
ARM GAS  C:\Users\tijsv\AppData\Local\Temp\ccU0OIRr.s 			page 7


 286              		.cfi_def_cfa_offset 16
  63:../../../core/drivers/TCS3472/src/TCS3472.c ****     //uint8_t output = 255;
  64:../../../core/drivers/TCS3472/src/TCS3472.c ****     uint8_t hwID[1];
 287              		.loc 1 64 5 is_stmt 1 view .LVU55
  65:../../../core/drivers/TCS3472/src/TCS3472.c ****     uint8_t command = address | 160; //0d160 = 0b10100000
 288              		.loc 1 65 5 view .LVU56
 289              	.LVL24:
  66:../../../core/drivers/TCS3472/src/TCS3472.c ****     READ_REGISTER_TC3472(hwID,command,1);
 290              		.loc 1 66 5 view .LVU57
 291 0004 0122     		movs	r2, #1
 292 0006 40F0A001 		orr	r1, r0, #160
 293 000a 01A8     		add	r0, sp, #4
 294              	.LVL25:
 295              		.loc 1 66 5 is_stmt 0 view .LVU58
 296 000c FFF7FEFF 		bl	READ_REGISTER_TC3472
 297              	.LVL26:
  67:../../../core/drivers/TCS3472/src/TCS3472.c ****     //i2c.write( SLAVE_ADDRESS << 1, &command, 1, true );
  68:../../../core/drivers/TCS3472/src/TCS3472.c ****     //i2c.read( SLAVE_ADDRESS << 1, &output, 1 );
  69:../../../core/drivers/TCS3472/src/TCS3472.c ****     return hwID[0];
 298              		.loc 1 69 5 is_stmt 1 view .LVU59
  70:../../../core/drivers/TCS3472/src/TCS3472.c **** }
 299              		.loc 1 70 1 is_stmt 0 view .LVU60
 300 0010 9DF80400 		ldrb	r0, [sp, #4]	@ zero_extendqisi2
 301 0014 03B0     		add	sp, sp, #12
 302              	.LCFI14:
 303              		.cfi_def_cfa_offset 4
 304              		@ sp needed
 305 0016 5DF804FB 		ldr	pc, [sp], #4
 306              		.cfi_endproc
 307              	.LFE136:
 309              		.section	.text.readMultipleRegisters,"ax",%progbits
 310              		.align	1
 311              		.global	readMultipleRegisters
 312              		.syntax unified
 313              		.thumb
 314              		.thumb_func
 315              		.fpu fpv4-sp-d16
 317              	readMultipleRegisters:
 318              	.LVL27:
 319              	.LFB137:
  71:../../../core/drivers/TCS3472/src/TCS3472.c **** 
  72:../../../core/drivers/TCS3472/src/TCS3472.c **** int  readMultipleRegisters( uint8_t address, uint8_t* output, int quantity ){
 320              		.loc 1 72 77 is_stmt 1 view -0
 321              		.cfi_startproc
 322              		@ args = 0, pretend = 0, frame = 0
 323              		@ frame_needed = 0, uses_anonymous_args = 0
 324              		.loc 1 72 77 is_stmt 0 view .LVU62
 325 0000 08B5     		push	{r3, lr}
 326              	.LCFI15:
 327              		.cfi_def_cfa_offset 8
 328              		.cfi_offset 3, -8
 329              		.cfi_offset 14, -4
 330 0002 0B46     		mov	r3, r1
  73:../../../core/drivers/TCS3472/src/TCS3472.c **** 	uint8_t command = address | 160; //0d160 = 0b10100000
 331              		.loc 1 73 2 is_stmt 1 view .LVU63
 332              	.LVL28:
  74:../../../core/drivers/TCS3472/src/TCS3472.c ****     int ack=READ_REGISTER_TC3472(output,command,quantity);
ARM GAS  C:\Users\tijsv\AppData\Local\Temp\ccU0OIRr.s 			page 8


 333              		.loc 1 74 5 view .LVU64
 334              		.loc 1 74 13 is_stmt 0 view .LVU65
 335 0004 D2B2     		uxtb	r2, r2
 336              	.LVL29:
 337              		.loc 1 74 13 view .LVU66
 338 0006 40F0A001 		orr	r1, r0, #160
 339              	.LVL30:
 340              		.loc 1 74 13 view .LVU67
 341 000a 1846     		mov	r0, r3
 342              	.LVL31:
 343              		.loc 1 74 13 view .LVU68
 344 000c FFF7FEFF 		bl	READ_REGISTER_TC3472
 345              	.LVL32:
  75:../../../core/drivers/TCS3472/src/TCS3472.c ****     //i2c.write( SLAVE_ADDRESS << 1, &command, 1, true );
  76:../../../core/drivers/TCS3472/src/TCS3472.c ****     //int ack = i2c.read( SLAVE_ADDRESS << 1, output, quantity );
  77:../../../core/drivers/TCS3472/src/TCS3472.c ****     return ack;
 346              		.loc 1 77 5 is_stmt 1 view .LVU69
  78:../../../core/drivers/TCS3472/src/TCS3472.c **** }
 347              		.loc 1 78 1 is_stmt 0 view .LVU70
 348 0010 08BD     		pop	{r3, pc}
 349              		.cfi_endproc
 350              	.LFE137:
 352              		.section	.text.getAllColors,"ax",%progbits
 353              		.align	1
 354              		.global	getAllColors
 355              		.syntax unified
 356              		.thumb
 357              		.thumb_func
 358              		.fpu fpv4-sp-d16
 360              	getAllColors:
 361              	.LVL33:
 362              	.LFB138:
  79:../../../core/drivers/TCS3472/src/TCS3472.c **** 
  80:../../../core/drivers/TCS3472/src/TCS3472.c **** void  getAllColors( uint16_t* readings ){
 363              		.loc 1 80 41 is_stmt 1 view -0
 364              		.cfi_startproc
 365              		@ args = 0, pretend = 0, frame = 8
 366              		@ frame_needed = 0, uses_anonymous_args = 0
 367              		.loc 1 80 41 is_stmt 0 view .LVU72
 368 0000 10B5     		push	{r4, lr}
 369              	.LCFI16:
 370              		.cfi_def_cfa_offset 8
 371              		.cfi_offset 4, -8
 372              		.cfi_offset 14, -4
 373 0002 82B0     		sub	sp, sp, #8
 374              	.LCFI17:
 375              		.cfi_def_cfa_offset 16
 376 0004 0446     		mov	r4, r0
  81:../../../core/drivers/TCS3472/src/TCS3472.c ****     uint8_t buffer[8] = { 0 };
 377              		.loc 1 81 5 is_stmt 1 view .LVU73
 378              		.loc 1 81 13 is_stmt 0 view .LVU74
 379 0006 0023     		movs	r3, #0
 380 0008 0093     		str	r3, [sp]
 381 000a 0193     		str	r3, [sp, #4]
  82:../../../core/drivers/TCS3472/src/TCS3472.c **** 
  83:../../../core/drivers/TCS3472/src/TCS3472.c ****     readMultipleRegisters( CDATA, buffer, 8 );
 382              		.loc 1 83 5 is_stmt 1 view .LVU75
ARM GAS  C:\Users\tijsv\AppData\Local\Temp\ccU0OIRr.s 			page 9


 383 000c 0822     		movs	r2, #8
 384 000e 6946     		mov	r1, sp
 385 0010 1420     		movs	r0, #20
 386              	.LVL34:
 387              		.loc 1 83 5 is_stmt 0 view .LVU76
 388 0012 FFF7FEFF 		bl	readMultipleRegisters
 389              	.LVL35:
  84:../../../core/drivers/TCS3472/src/TCS3472.c **** 
  85:../../../core/drivers/TCS3472/src/TCS3472.c ****     readings[0] = (uint16_t)buffer[1] << 8 | (uint16_t)buffer[0];
 390              		.loc 1 85 5 is_stmt 1 view .LVU77
 391              		.loc 1 85 35 is_stmt 0 view .LVU78
 392 0016 9DF80120 		ldrb	r2, [sp, #1]	@ zero_extendqisi2
 393              		.loc 1 85 62 view .LVU79
 394 001a 9DF80030 		ldrb	r3, [sp]	@ zero_extendqisi2
 395              		.loc 1 85 44 view .LVU80
 396 001e 43EA0223 		orr	r3, r3, r2, lsl #8
 397              		.loc 1 85 17 view .LVU81
 398 0022 2380     		strh	r3, [r4]	@ movhi
  86:../../../core/drivers/TCS3472/src/TCS3472.c ****     readings[1] = (uint16_t)buffer[3] << 8 | (uint16_t)buffer[2];
 399              		.loc 1 86 5 is_stmt 1 view .LVU82
 400              		.loc 1 86 35 is_stmt 0 view .LVU83
 401 0024 9DF80320 		ldrb	r2, [sp, #3]	@ zero_extendqisi2
 402              		.loc 1 86 62 view .LVU84
 403 0028 9DF80230 		ldrb	r3, [sp, #2]	@ zero_extendqisi2
 404              		.loc 1 86 44 view .LVU85
 405 002c 43EA0223 		orr	r3, r3, r2, lsl #8
 406              		.loc 1 86 17 view .LVU86
 407 0030 6380     		strh	r3, [r4, #2]	@ movhi
  87:../../../core/drivers/TCS3472/src/TCS3472.c ****     readings[2] = (uint16_t)buffer[5] << 8 | (uint16_t)buffer[4];
 408              		.loc 1 87 5 is_stmt 1 view .LVU87
 409              		.loc 1 87 35 is_stmt 0 view .LVU88
 410 0032 9DF80520 		ldrb	r2, [sp, #5]	@ zero_extendqisi2
 411              		.loc 1 87 62 view .LVU89
 412 0036 9DF80430 		ldrb	r3, [sp, #4]	@ zero_extendqisi2
 413              		.loc 1 87 44 view .LVU90
 414 003a 43EA0223 		orr	r3, r3, r2, lsl #8
 415              		.loc 1 87 17 view .LVU91
 416 003e A380     		strh	r3, [r4, #4]	@ movhi
  88:../../../core/drivers/TCS3472/src/TCS3472.c ****     readings[3] = (uint16_t)buffer[7] << 8 | (uint16_t)buffer[6];
 417              		.loc 1 88 5 is_stmt 1 view .LVU92
 418              		.loc 1 88 35 is_stmt 0 view .LVU93
 419 0040 9DF80720 		ldrb	r2, [sp, #7]	@ zero_extendqisi2
 420              		.loc 1 88 62 view .LVU94
 421 0044 9DF80630 		ldrb	r3, [sp, #6]	@ zero_extendqisi2
 422              		.loc 1 88 44 view .LVU95
 423 0048 43EA0223 		orr	r3, r3, r2, lsl #8
 424              		.loc 1 88 17 view .LVU96
 425 004c E380     		strh	r3, [r4, #6]	@ movhi
  89:../../../core/drivers/TCS3472/src/TCS3472.c **** }
 426              		.loc 1 89 1 view .LVU97
 427 004e 02B0     		add	sp, sp, #8
 428              	.LCFI18:
 429              		.cfi_def_cfa_offset 8
 430              		@ sp needed
 431 0050 10BD     		pop	{r4, pc}
 432              		.loc 1 89 1 view .LVU98
 433              		.cfi_endproc
ARM GAS  C:\Users\tijsv\AppData\Local\Temp\ccU0OIRr.s 			page 10


 434              	.LFE138:
 436              		.section	.text.getClearData,"ax",%progbits
 437              		.align	1
 438              		.global	getClearData
 439              		.syntax unified
 440              		.thumb
 441              		.thumb_func
 442              		.fpu fpv4-sp-d16
 444              	getClearData:
 445              	.LFB139:
  90:../../../core/drivers/TCS3472/src/TCS3472.c **** 
  91:../../../core/drivers/TCS3472/src/TCS3472.c **** int  getClearData(){
 446              		.loc 1 91 20 is_stmt 1 view -0
 447              		.cfi_startproc
 448              		@ args = 0, pretend = 0, frame = 8
 449              		@ frame_needed = 0, uses_anonymous_args = 0
 450 0000 00B5     		push	{lr}
 451              	.LCFI19:
 452              		.cfi_def_cfa_offset 4
 453              		.cfi_offset 14, -4
 454 0002 83B0     		sub	sp, sp, #12
 455              	.LCFI20:
 456              		.cfi_def_cfa_offset 16
  92:../../../core/drivers/TCS3472/src/TCS3472.c ****     uint8_t buffer[2] = { 0 };
 457              		.loc 1 92 5 view .LVU100
 458              		.loc 1 92 13 is_stmt 0 view .LVU101
 459 0004 0023     		movs	r3, #0
 460 0006 ADF80430 		strh	r3, [sp, #4]	@ movhi
  93:../../../core/drivers/TCS3472/src/TCS3472.c ****     readMultipleRegisters( CDATA, buffer, 2 );
 461              		.loc 1 93 5 is_stmt 1 view .LVU102
 462 000a 0222     		movs	r2, #2
 463 000c 01A9     		add	r1, sp, #4
 464 000e 1420     		movs	r0, #20
 465 0010 FFF7FEFF 		bl	readMultipleRegisters
 466              	.LVL36:
  94:../../../core/drivers/TCS3472/src/TCS3472.c ****     int reading = (int)buffer[1] << 8 | (int)buffer[0];
 467              		.loc 1 94 5 view .LVU103
 468              		.loc 1 94 30 is_stmt 0 view .LVU104
 469 0014 9DF80500 		ldrb	r0, [sp, #5]	@ zero_extendqisi2
 470              		.loc 1 94 52 view .LVU105
 471 0018 9DF80430 		ldrb	r3, [sp, #4]	@ zero_extendqisi2
 472              	.LVL37:
  95:../../../core/drivers/TCS3472/src/TCS3472.c ****     return reading;
 473              		.loc 1 95 5 is_stmt 1 view .LVU106
  96:../../../core/drivers/TCS3472/src/TCS3472.c **** }
 474              		.loc 1 96 1 is_stmt 0 view .LVU107
 475 001c 43EA0020 		orr	r0, r3, r0, lsl #8
 476              	.LVL38:
 477              		.loc 1 96 1 view .LVU108
 478 0020 03B0     		add	sp, sp, #12
 479              	.LCFI21:
 480              		.cfi_def_cfa_offset 4
 481              		@ sp needed
 482 0022 5DF804FB 		ldr	pc, [sp], #4
 483              		.cfi_endproc
 484              	.LFE139:
 486              		.section	.text.getRedData,"ax",%progbits
ARM GAS  C:\Users\tijsv\AppData\Local\Temp\ccU0OIRr.s 			page 11


 487              		.align	1
 488              		.global	getRedData
 489              		.syntax unified
 490              		.thumb
 491              		.thumb_func
 492              		.fpu fpv4-sp-d16
 494              	getRedData:
 495              	.LFB140:
  97:../../../core/drivers/TCS3472/src/TCS3472.c **** 
  98:../../../core/drivers/TCS3472/src/TCS3472.c **** int  getRedData(){
 496              		.loc 1 98 18 is_stmt 1 view -0
 497              		.cfi_startproc
 498              		@ args = 0, pretend = 0, frame = 8
 499              		@ frame_needed = 0, uses_anonymous_args = 0
 500 0000 00B5     		push	{lr}
 501              	.LCFI22:
 502              		.cfi_def_cfa_offset 4
 503              		.cfi_offset 14, -4
 504 0002 83B0     		sub	sp, sp, #12
 505              	.LCFI23:
 506              		.cfi_def_cfa_offset 16
  99:../../../core/drivers/TCS3472/src/TCS3472.c ****     uint8_t buffer[2] = { 0 };
 507              		.loc 1 99 5 view .LVU110
 508              		.loc 1 99 13 is_stmt 0 view .LVU111
 509 0004 0023     		movs	r3, #0
 510 0006 ADF80430 		strh	r3, [sp, #4]	@ movhi
 100:../../../core/drivers/TCS3472/src/TCS3472.c ****     readMultipleRegisters( RDATA, buffer, 2 );
 511              		.loc 1 100 5 is_stmt 1 view .LVU112
 512 000a 0222     		movs	r2, #2
 513 000c 01A9     		add	r1, sp, #4
 514 000e 1620     		movs	r0, #22
 515 0010 FFF7FEFF 		bl	readMultipleRegisters
 516              	.LVL39:
 101:../../../core/drivers/TCS3472/src/TCS3472.c ****     int reading = (int)buffer[1] << 8 | (int)buffer[0];
 517              		.loc 1 101 5 view .LVU113
 518              		.loc 1 101 30 is_stmt 0 view .LVU114
 519 0014 9DF80500 		ldrb	r0, [sp, #5]	@ zero_extendqisi2
 520              		.loc 1 101 52 view .LVU115
 521 0018 9DF80430 		ldrb	r3, [sp, #4]	@ zero_extendqisi2
 522              	.LVL40:
 102:../../../core/drivers/TCS3472/src/TCS3472.c ****     return reading;
 523              		.loc 1 102 5 is_stmt 1 view .LVU116
 103:../../../core/drivers/TCS3472/src/TCS3472.c **** }
 524              		.loc 1 103 1 is_stmt 0 view .LVU117
 525 001c 43EA0020 		orr	r0, r3, r0, lsl #8
 526              	.LVL41:
 527              		.loc 1 103 1 view .LVU118
 528 0020 03B0     		add	sp, sp, #12
 529              	.LCFI24:
 530              		.cfi_def_cfa_offset 4
 531              		@ sp needed
 532 0022 5DF804FB 		ldr	pc, [sp], #4
 533              		.cfi_endproc
 534              	.LFE140:
 536              		.section	.text.getGreenData,"ax",%progbits
 537              		.align	1
 538              		.global	getGreenData
ARM GAS  C:\Users\tijsv\AppData\Local\Temp\ccU0OIRr.s 			page 12


 539              		.syntax unified
 540              		.thumb
 541              		.thumb_func
 542              		.fpu fpv4-sp-d16
 544              	getGreenData:
 545              	.LFB141:
 104:../../../core/drivers/TCS3472/src/TCS3472.c **** 
 105:../../../core/drivers/TCS3472/src/TCS3472.c **** int  getGreenData(){
 546              		.loc 1 105 20 is_stmt 1 view -0
 547              		.cfi_startproc
 548              		@ args = 0, pretend = 0, frame = 8
 549              		@ frame_needed = 0, uses_anonymous_args = 0
 550 0000 00B5     		push	{lr}
 551              	.LCFI25:
 552              		.cfi_def_cfa_offset 4
 553              		.cfi_offset 14, -4
 554 0002 83B0     		sub	sp, sp, #12
 555              	.LCFI26:
 556              		.cfi_def_cfa_offset 16
 106:../../../core/drivers/TCS3472/src/TCS3472.c ****     uint8_t buffer[2] = { 0 };
 557              		.loc 1 106 5 view .LVU120
 558              		.loc 1 106 13 is_stmt 0 view .LVU121
 559 0004 0023     		movs	r3, #0
 560 0006 ADF80430 		strh	r3, [sp, #4]	@ movhi
 107:../../../core/drivers/TCS3472/src/TCS3472.c ****     readMultipleRegisters( GDATA, buffer, 2 );
 561              		.loc 1 107 5 is_stmt 1 view .LVU122
 562 000a 0222     		movs	r2, #2
 563 000c 01A9     		add	r1, sp, #4
 564 000e 1820     		movs	r0, #24
 565 0010 FFF7FEFF 		bl	readMultipleRegisters
 566              	.LVL42:
 108:../../../core/drivers/TCS3472/src/TCS3472.c ****     int reading = (int)buffer[1] << 8 | (int)buffer[0];
 567              		.loc 1 108 5 view .LVU123
 568              		.loc 1 108 30 is_stmt 0 view .LVU124
 569 0014 9DF80500 		ldrb	r0, [sp, #5]	@ zero_extendqisi2
 570              		.loc 1 108 52 view .LVU125
 571 0018 9DF80430 		ldrb	r3, [sp, #4]	@ zero_extendqisi2
 572              	.LVL43:
 109:../../../core/drivers/TCS3472/src/TCS3472.c ****     return reading;
 573              		.loc 1 109 5 is_stmt 1 view .LVU126
 110:../../../core/drivers/TCS3472/src/TCS3472.c **** }
 574              		.loc 1 110 1 is_stmt 0 view .LVU127
 575 001c 43EA0020 		orr	r0, r3, r0, lsl #8
 576              	.LVL44:
 577              		.loc 1 110 1 view .LVU128
 578 0020 03B0     		add	sp, sp, #12
 579              	.LCFI27:
 580              		.cfi_def_cfa_offset 4
 581              		@ sp needed
 582 0022 5DF804FB 		ldr	pc, [sp], #4
 583              		.cfi_endproc
 584              	.LFE141:
 586              		.section	.text.getBlueData,"ax",%progbits
 587              		.align	1
 588              		.global	getBlueData
 589              		.syntax unified
 590              		.thumb
ARM GAS  C:\Users\tijsv\AppData\Local\Temp\ccU0OIRr.s 			page 13


 591              		.thumb_func
 592              		.fpu fpv4-sp-d16
 594              	getBlueData:
 595              	.LFB142:
 111:../../../core/drivers/TCS3472/src/TCS3472.c **** 
 112:../../../core/drivers/TCS3472/src/TCS3472.c **** int  getBlueData(){
 596              		.loc 1 112 19 is_stmt 1 view -0
 597              		.cfi_startproc
 598              		@ args = 0, pretend = 0, frame = 8
 599              		@ frame_needed = 0, uses_anonymous_args = 0
 600 0000 00B5     		push	{lr}
 601              	.LCFI28:
 602              		.cfi_def_cfa_offset 4
 603              		.cfi_offset 14, -4
 604 0002 83B0     		sub	sp, sp, #12
 605              	.LCFI29:
 606              		.cfi_def_cfa_offset 16
 113:../../../core/drivers/TCS3472/src/TCS3472.c ****     uint8_t buffer[2] = { 0 };
 607              		.loc 1 113 5 view .LVU130
 608              		.loc 1 113 13 is_stmt 0 view .LVU131
 609 0004 0023     		movs	r3, #0
 610 0006 ADF80430 		strh	r3, [sp, #4]	@ movhi
 114:../../../core/drivers/TCS3472/src/TCS3472.c ****     readMultipleRegisters( BDATA, buffer, 2 );
 611              		.loc 1 114 5 is_stmt 1 view .LVU132
 612 000a 0222     		movs	r2, #2
 613 000c 01A9     		add	r1, sp, #4
 614 000e 1A20     		movs	r0, #26
 615 0010 FFF7FEFF 		bl	readMultipleRegisters
 616              	.LVL45:
 115:../../../core/drivers/TCS3472/src/TCS3472.c ****     int reading = (int)buffer[1] << 8 | (int)buffer[0];
 617              		.loc 1 115 5 view .LVU133
 618              		.loc 1 115 30 is_stmt 0 view .LVU134
 619 0014 9DF80500 		ldrb	r0, [sp, #5]	@ zero_extendqisi2
 620              		.loc 1 115 52 view .LVU135
 621 0018 9DF80430 		ldrb	r3, [sp, #4]	@ zero_extendqisi2
 622              	.LVL46:
 116:../../../core/drivers/TCS3472/src/TCS3472.c ****     return reading;
 623              		.loc 1 116 5 is_stmt 1 view .LVU136
 117:../../../core/drivers/TCS3472/src/TCS3472.c **** }
 624              		.loc 1 117 1 is_stmt 0 view .LVU137
 625 001c 43EA0020 		orr	r0, r3, r0, lsl #8
 626              	.LVL47:
 627              		.loc 1 117 1 view .LVU138
 628 0020 03B0     		add	sp, sp, #12
 629              	.LCFI30:
 630              		.cfi_def_cfa_offset 4
 631              		@ sp needed
 632 0022 5DF804FB 		ldr	pc, [sp], #4
 633              		.cfi_endproc
 634              	.LFE142:
 636              		.section	.text.enablePower,"ax",%progbits
 637              		.align	1
 638              		.global	enablePower
 639              		.syntax unified
 640              		.thumb
 641              		.thumb_func
 642              		.fpu fpv4-sp-d16
ARM GAS  C:\Users\tijsv\AppData\Local\Temp\ccU0OIRr.s 			page 14


 644              	enablePower:
 645              	.LFB143:
 118:../../../core/drivers/TCS3472/src/TCS3472.c **** 
 119:../../../core/drivers/TCS3472/src/TCS3472.c **** int  enablePower(){
 646              		.loc 1 119 19 is_stmt 1 view -0
 647              		.cfi_startproc
 648              		@ args = 0, pretend = 0, frame = 0
 649              		@ frame_needed = 0, uses_anonymous_args = 0
 650 0000 08B5     		push	{r3, lr}
 651              	.LCFI31:
 652              		.cfi_def_cfa_offset 8
 653              		.cfi_offset 3, -8
 654              		.cfi_offset 14, -4
 120:../../../core/drivers/TCS3472/src/TCS3472.c ****     uint8_t enable_old = readSingleRegister( ENABLE );
 655              		.loc 1 120 5 view .LVU140
 656              		.loc 1 120 26 is_stmt 0 view .LVU141
 657 0002 0020     		movs	r0, #0
 658 0004 FFF7FEFF 		bl	readSingleRegister
 659              	.LVL48:
 121:../../../core/drivers/TCS3472/src/TCS3472.c ****     uint8_t enable_new = enable_old | 1; // sets PON (bit 0) to 1
 660              		.loc 1 121 5 is_stmt 1 view .LVU142
 661              		.loc 1 121 13 is_stmt 0 view .LVU143
 662 0008 40F00101 		orr	r1, r0, #1
 663              	.LVL49:
 122:../../../core/drivers/TCS3472/src/TCS3472.c ****     int ack = writeSingleRegister( ENABLE, enable_new );
 664              		.loc 1 122 5 is_stmt 1 view .LVU144
 665              		.loc 1 122 15 is_stmt 0 view .LVU145
 666 000c C9B2     		uxtb	r1, r1
 667              		.loc 1 122 15 view .LVU146
 668 000e 0020     		movs	r0, #0
 669              	.LVL50:
 670              		.loc 1 122 15 view .LVU147
 671 0010 FFF7FEFF 		bl	writeSingleRegister
 672              	.LVL51:
 123:../../../core/drivers/TCS3472/src/TCS3472.c ****     return ack;
 673              		.loc 1 123 5 is_stmt 1 view .LVU148
 124:../../../core/drivers/TCS3472/src/TCS3472.c **** }
 674              		.loc 1 124 1 is_stmt 0 view .LVU149
 675 0014 08BD     		pop	{r3, pc}
 676              		.cfi_endproc
 677              	.LFE143:
 679              		.section	.text.disablePower,"ax",%progbits
 680              		.align	1
 681              		.global	disablePower
 682              		.syntax unified
 683              		.thumb
 684              		.thumb_func
 685              		.fpu fpv4-sp-d16
 687              	disablePower:
 688              	.LFB144:
 125:../../../core/drivers/TCS3472/src/TCS3472.c **** 
 126:../../../core/drivers/TCS3472/src/TCS3472.c **** int  disablePower(){
 689              		.loc 1 126 20 is_stmt 1 view -0
 690              		.cfi_startproc
 691              		@ args = 0, pretend = 0, frame = 0
 692              		@ frame_needed = 0, uses_anonymous_args = 0
 693 0000 08B5     		push	{r3, lr}
ARM GAS  C:\Users\tijsv\AppData\Local\Temp\ccU0OIRr.s 			page 15


 694              	.LCFI32:
 695              		.cfi_def_cfa_offset 8
 696              		.cfi_offset 3, -8
 697              		.cfi_offset 14, -4
 127:../../../core/drivers/TCS3472/src/TCS3472.c ****     uint8_t enable_old = readSingleRegister( ENABLE );
 698              		.loc 1 127 5 view .LVU151
 699              		.loc 1 127 26 is_stmt 0 view .LVU152
 700 0002 0020     		movs	r0, #0
 701 0004 FFF7FEFF 		bl	readSingleRegister
 702              	.LVL52:
 128:../../../core/drivers/TCS3472/src/TCS3472.c ****     uint8_t enable_new = enable_old & 254; // sets PON (bit 0) to 0
 703              		.loc 1 128 5 is_stmt 1 view .LVU153
 129:../../../core/drivers/TCS3472/src/TCS3472.c ****     int ack = writeSingleRegister( ENABLE, enable_new );
 704              		.loc 1 129 5 view .LVU154
 705              		.loc 1 129 15 is_stmt 0 view .LVU155
 706 0008 00F0FE01 		and	r1, r0, #254
 707 000c 0020     		movs	r0, #0
 708              	.LVL53:
 709              		.loc 1 129 15 view .LVU156
 710 000e FFF7FEFF 		bl	writeSingleRegister
 711              	.LVL54:
 130:../../../core/drivers/TCS3472/src/TCS3472.c ****     return ack;
 712              		.loc 1 130 5 is_stmt 1 view .LVU157
 131:../../../core/drivers/TCS3472/src/TCS3472.c **** }
 713              		.loc 1 131 1 is_stmt 0 view .LVU158
 714 0012 08BD     		pop	{r3, pc}
 715              		.cfi_endproc
 716              	.LFE144:
 718              		.section	.text.isPowerEnabled,"ax",%progbits
 719              		.align	1
 720              		.global	isPowerEnabled
 721              		.syntax unified
 722              		.thumb
 723              		.thumb_func
 724              		.fpu fpv4-sp-d16
 726              	isPowerEnabled:
 727              	.LFB145:
 132:../../../core/drivers/TCS3472/src/TCS3472.c **** 
 133:../../../core/drivers/TCS3472/src/TCS3472.c **** uint8_t  isPowerEnabled(){
 728              		.loc 1 133 26 is_stmt 1 view -0
 729              		.cfi_startproc
 730              		@ args = 0, pretend = 0, frame = 0
 731              		@ frame_needed = 0, uses_anonymous_args = 0
 732 0000 08B5     		push	{r3, lr}
 733              	.LCFI33:
 734              		.cfi_def_cfa_offset 8
 735              		.cfi_offset 3, -8
 736              		.cfi_offset 14, -4
 134:../../../core/drivers/TCS3472/src/TCS3472.c ****     uint8_t enable = readSingleRegister( ENABLE );
 737              		.loc 1 134 5 view .LVU160
 738              		.loc 1 134 22 is_stmt 0 view .LVU161
 739 0002 0020     		movs	r0, #0
 740 0004 FFF7FEFF 		bl	readSingleRegister
 741              	.LVL55:
 135:../../../core/drivers/TCS3472/src/TCS3472.c ****     uint8_t pon = enable << 7;
 742              		.loc 1 135 5 is_stmt 1 view .LVU162
 743              		.loc 1 135 13 is_stmt 0 view .LVU163
ARM GAS  C:\Users\tijsv\AppData\Local\Temp\ccU0OIRr.s 			page 16


 744 0008 C001     		lsls	r0, r0, #7
 745              	.LVL56:
 746              		.loc 1 135 13 view .LVU164
 747 000a C0B2     		uxtb	r0, r0
 748              	.LVL57:
 136:../../../core/drivers/TCS3472/src/TCS3472.c ****     pon = pon >> 7; // gets PON (bit 0) from ENABLE register byte
 749              		.loc 1 136 5 is_stmt 1 view .LVU165
 137:../../../core/drivers/TCS3472/src/TCS3472.c ****     return (uint8_t)pon;
 750              		.loc 1 137 5 view .LVU166
 138:../../../core/drivers/TCS3472/src/TCS3472.c **** }
 751              		.loc 1 138 1 is_stmt 0 view .LVU167
 752 000c C009     		lsrs	r0, r0, #7
 753              	.LVL58:
 754              		.loc 1 138 1 view .LVU168
 755 000e 08BD     		pop	{r3, pc}
 756              		.cfi_endproc
 757              	.LFE145:
 759              		.section	.text.enableRGBC,"ax",%progbits
 760              		.align	1
 761              		.global	enableRGBC
 762              		.syntax unified
 763              		.thumb
 764              		.thumb_func
 765              		.fpu fpv4-sp-d16
 767              	enableRGBC:
 768              	.LFB146:
 139:../../../core/drivers/TCS3472/src/TCS3472.c **** 
 140:../../../core/drivers/TCS3472/src/TCS3472.c **** int  enableRGBC(){
 769              		.loc 1 140 18 is_stmt 1 view -0
 770              		.cfi_startproc
 771              		@ args = 0, pretend = 0, frame = 0
 772              		@ frame_needed = 0, uses_anonymous_args = 0
 773 0000 08B5     		push	{r3, lr}
 774              	.LCFI34:
 775              		.cfi_def_cfa_offset 8
 776              		.cfi_offset 3, -8
 777              		.cfi_offset 14, -4
 141:../../../core/drivers/TCS3472/src/TCS3472.c ****     uint8_t enable_old = readSingleRegister( ENABLE );
 778              		.loc 1 141 5 view .LVU170
 779              		.loc 1 141 26 is_stmt 0 view .LVU171
 780 0002 0020     		movs	r0, #0
 781 0004 FFF7FEFF 		bl	readSingleRegister
 782              	.LVL59:
 142:../../../core/drivers/TCS3472/src/TCS3472.c ****     uint8_t enable_new = enable_old | 2; // sets AEN (bit 1) to 1
 783              		.loc 1 142 5 is_stmt 1 view .LVU172
 784              		.loc 1 142 13 is_stmt 0 view .LVU173
 785 0008 40F00201 		orr	r1, r0, #2
 786              	.LVL60:
 143:../../../core/drivers/TCS3472/src/TCS3472.c ****     int ack = writeSingleRegister( ENABLE, enable_new );
 787              		.loc 1 143 5 is_stmt 1 view .LVU174
 788              		.loc 1 143 15 is_stmt 0 view .LVU175
 789 000c C9B2     		uxtb	r1, r1
 790              		.loc 1 143 15 view .LVU176
 791 000e 0020     		movs	r0, #0
 792              	.LVL61:
 793              		.loc 1 143 15 view .LVU177
 794 0010 FFF7FEFF 		bl	writeSingleRegister
ARM GAS  C:\Users\tijsv\AppData\Local\Temp\ccU0OIRr.s 			page 17


 795              	.LVL62:
 144:../../../core/drivers/TCS3472/src/TCS3472.c ****     return ack;
 796              		.loc 1 144 5 is_stmt 1 view .LVU178
 145:../../../core/drivers/TCS3472/src/TCS3472.c **** }
 797              		.loc 1 145 1 is_stmt 0 view .LVU179
 798 0014 08BD     		pop	{r3, pc}
 799              		.cfi_endproc
 800              	.LFE146:
 802              		.section	.text.disableRGBC,"ax",%progbits
 803              		.align	1
 804              		.global	disableRGBC
 805              		.syntax unified
 806              		.thumb
 807              		.thumb_func
 808              		.fpu fpv4-sp-d16
 810              	disableRGBC:
 811              	.LFB147:
 146:../../../core/drivers/TCS3472/src/TCS3472.c **** 
 147:../../../core/drivers/TCS3472/src/TCS3472.c **** int  disableRGBC(){
 812              		.loc 1 147 19 is_stmt 1 view -0
 813              		.cfi_startproc
 814              		@ args = 0, pretend = 0, frame = 0
 815              		@ frame_needed = 0, uses_anonymous_args = 0
 816 0000 08B5     		push	{r3, lr}
 817              	.LCFI35:
 818              		.cfi_def_cfa_offset 8
 819              		.cfi_offset 3, -8
 820              		.cfi_offset 14, -4
 148:../../../core/drivers/TCS3472/src/TCS3472.c ****     uint8_t enable_old = readSingleRegister( ENABLE );
 821              		.loc 1 148 5 view .LVU181
 822              		.loc 1 148 26 is_stmt 0 view .LVU182
 823 0002 0020     		movs	r0, #0
 824 0004 FFF7FEFF 		bl	readSingleRegister
 825              	.LVL63:
 149:../../../core/drivers/TCS3472/src/TCS3472.c ****     uint8_t enable_new = enable_old & 253; // sets AEN (bit 1) to 0
 826              		.loc 1 149 5 is_stmt 1 view .LVU183
 150:../../../core/drivers/TCS3472/src/TCS3472.c ****     int ack = writeSingleRegister( ENABLE, enable_new );
 827              		.loc 1 150 5 view .LVU184
 828              		.loc 1 150 15 is_stmt 0 view .LVU185
 829 0008 00F0FD01 		and	r1, r0, #253
 830 000c 0020     		movs	r0, #0
 831              	.LVL64:
 832              		.loc 1 150 15 view .LVU186
 833 000e FFF7FEFF 		bl	writeSingleRegister
 834              	.LVL65:
 151:../../../core/drivers/TCS3472/src/TCS3472.c ****     return ack;
 835              		.loc 1 151 5 is_stmt 1 view .LVU187
 152:../../../core/drivers/TCS3472/src/TCS3472.c **** }
 836              		.loc 1 152 1 is_stmt 0 view .LVU188
 837 0012 08BD     		pop	{r3, pc}
 838              		.cfi_endproc
 839              	.LFE147:
 841              		.section	.text.isRGBCEnabled,"ax",%progbits
 842              		.align	1
 843              		.global	isRGBCEnabled
 844              		.syntax unified
 845              		.thumb
ARM GAS  C:\Users\tijsv\AppData\Local\Temp\ccU0OIRr.s 			page 18


 846              		.thumb_func
 847              		.fpu fpv4-sp-d16
 849              	isRGBCEnabled:
 850              	.LFB148:
 153:../../../core/drivers/TCS3472/src/TCS3472.c **** 
 154:../../../core/drivers/TCS3472/src/TCS3472.c **** uint8_t  isRGBCEnabled(){
 851              		.loc 1 154 25 is_stmt 1 view -0
 852              		.cfi_startproc
 853              		@ args = 0, pretend = 0, frame = 0
 854              		@ frame_needed = 0, uses_anonymous_args = 0
 855 0000 08B5     		push	{r3, lr}
 856              	.LCFI36:
 857              		.cfi_def_cfa_offset 8
 858              		.cfi_offset 3, -8
 859              		.cfi_offset 14, -4
 155:../../../core/drivers/TCS3472/src/TCS3472.c ****     uint8_t enable = readSingleRegister( ENABLE );
 860              		.loc 1 155 5 view .LVU190
 861              		.loc 1 155 22 is_stmt 0 view .LVU191
 862 0002 0020     		movs	r0, #0
 863 0004 FFF7FEFF 		bl	readSingleRegister
 864              	.LVL66:
 156:../../../core/drivers/TCS3472/src/TCS3472.c ****     uint8_t aen = enable << 6;
 865              		.loc 1 156 5 is_stmt 1 view .LVU192
 157:../../../core/drivers/TCS3472/src/TCS3472.c ****     aen = aen >> 7; // gets AEN (bit 1) from ENABLE register byte
 866              		.loc 1 157 5 view .LVU193
 158:../../../core/drivers/TCS3472/src/TCS3472.c ****     return (uint8_t)aen;
 867              		.loc 1 158 5 view .LVU194
 159:../../../core/drivers/TCS3472/src/TCS3472.c **** }
 868              		.loc 1 159 1 is_stmt 0 view .LVU195
 869 0008 C0F34000 		ubfx	r0, r0, #1, #1
 870              	.LVL67:
 871              		.loc 1 159 1 view .LVU196
 872 000c 08BD     		pop	{r3, pc}
 873              		.cfi_endproc
 874              	.LFE148:
 876              		.section	.text.enablePowerAndRGBC,"ax",%progbits
 877              		.align	1
 878              		.global	enablePowerAndRGBC
 879              		.syntax unified
 880              		.thumb
 881              		.thumb_func
 882              		.fpu fpv4-sp-d16
 884              	enablePowerAndRGBC:
 885              	.LFB149:
 160:../../../core/drivers/TCS3472/src/TCS3472.c **** 
 161:../../../core/drivers/TCS3472/src/TCS3472.c **** int  enablePowerAndRGBC(){
 886              		.loc 1 161 26 is_stmt 1 view -0
 887              		.cfi_startproc
 888              		@ args = 0, pretend = 0, frame = 0
 889              		@ frame_needed = 0, uses_anonymous_args = 0
 890 0000 08B5     		push	{r3, lr}
 891              	.LCFI37:
 892              		.cfi_def_cfa_offset 8
 893              		.cfi_offset 3, -8
 894              		.cfi_offset 14, -4
 162:../../../core/drivers/TCS3472/src/TCS3472.c ****     uint8_t enable_old = readSingleRegister( ENABLE );
 895              		.loc 1 162 5 view .LVU198
ARM GAS  C:\Users\tijsv\AppData\Local\Temp\ccU0OIRr.s 			page 19


 896              		.loc 1 162 26 is_stmt 0 view .LVU199
 897 0002 0020     		movs	r0, #0
 898 0004 FFF7FEFF 		bl	readSingleRegister
 899              	.LVL68:
 163:../../../core/drivers/TCS3472/src/TCS3472.c ****     uint8_t enable_new = enable_old | 3; // sets PON (bit 0) and AEN (bit 1) to 1
 900              		.loc 1 163 5 is_stmt 1 view .LVU200
 901              		.loc 1 163 13 is_stmt 0 view .LVU201
 902 0008 40F00301 		orr	r1, r0, #3
 903              	.LVL69:
 164:../../../core/drivers/TCS3472/src/TCS3472.c ****     int ack = writeSingleRegister( ENABLE, enable_new );
 904              		.loc 1 164 5 is_stmt 1 view .LVU202
 905              		.loc 1 164 15 is_stmt 0 view .LVU203
 906 000c C9B2     		uxtb	r1, r1
 907              		.loc 1 164 15 view .LVU204
 908 000e 0020     		movs	r0, #0
 909              	.LVL70:
 910              		.loc 1 164 15 view .LVU205
 911 0010 FFF7FEFF 		bl	writeSingleRegister
 912              	.LVL71:
 165:../../../core/drivers/TCS3472/src/TCS3472.c ****     return ack;
 913              		.loc 1 165 5 is_stmt 1 view .LVU206
 166:../../../core/drivers/TCS3472/src/TCS3472.c **** }
 914              		.loc 1 166 1 is_stmt 0 view .LVU207
 915 0014 08BD     		pop	{r3, pc}
 916              		.cfi_endproc
 917              	.LFE149:
 919              		.section	.text.disablePowerAndRGBC,"ax",%progbits
 920              		.align	1
 921              		.global	disablePowerAndRGBC
 922              		.syntax unified
 923              		.thumb
 924              		.thumb_func
 925              		.fpu fpv4-sp-d16
 927              	disablePowerAndRGBC:
 928              	.LFB150:
 167:../../../core/drivers/TCS3472/src/TCS3472.c **** 
 168:../../../core/drivers/TCS3472/src/TCS3472.c **** int  disablePowerAndRGBC(){
 929              		.loc 1 168 27 is_stmt 1 view -0
 930              		.cfi_startproc
 931              		@ args = 0, pretend = 0, frame = 0
 932              		@ frame_needed = 0, uses_anonymous_args = 0
 933 0000 08B5     		push	{r3, lr}
 934              	.LCFI38:
 935              		.cfi_def_cfa_offset 8
 936              		.cfi_offset 3, -8
 937              		.cfi_offset 14, -4
 169:../../../core/drivers/TCS3472/src/TCS3472.c ****     uint8_t enable_old = readSingleRegister( ENABLE );
 938              		.loc 1 169 5 view .LVU209
 939              		.loc 1 169 26 is_stmt 0 view .LVU210
 940 0002 0020     		movs	r0, #0
 941 0004 FFF7FEFF 		bl	readSingleRegister
 942              	.LVL72:
 170:../../../core/drivers/TCS3472/src/TCS3472.c ****     uint8_t enable_new = enable_old & 252; // sets PON (bit 0) and AEN (bit 1) to 0
 943              		.loc 1 170 5 is_stmt 1 view .LVU211
 171:../../../core/drivers/TCS3472/src/TCS3472.c ****     int ack = writeSingleRegister( ENABLE, enable_new );
 944              		.loc 1 171 5 view .LVU212
 945              		.loc 1 171 15 is_stmt 0 view .LVU213
ARM GAS  C:\Users\tijsv\AppData\Local\Temp\ccU0OIRr.s 			page 20


 946 0008 00F0FC01 		and	r1, r0, #252
 947 000c 0020     		movs	r0, #0
 948              	.LVL73:
 949              		.loc 1 171 15 view .LVU214
 950 000e FFF7FEFF 		bl	writeSingleRegister
 951              	.LVL74:
 172:../../../core/drivers/TCS3472/src/TCS3472.c ****     return ack;
 952              		.loc 1 172 5 is_stmt 1 view .LVU215
 173:../../../core/drivers/TCS3472/src/TCS3472.c **** }
 953              		.loc 1 173 1 is_stmt 0 view .LVU216
 954 0012 08BD     		pop	{r3, pc}
 955              		.cfi_endproc
 956              	.LFE150:
 958              		.section	.text.enableWait,"ax",%progbits
 959              		.align	1
 960              		.global	enableWait
 961              		.syntax unified
 962              		.thumb
 963              		.thumb_func
 964              		.fpu fpv4-sp-d16
 966              	enableWait:
 967              	.LFB151:
 174:../../../core/drivers/TCS3472/src/TCS3472.c **** 
 175:../../../core/drivers/TCS3472/src/TCS3472.c **** int  enableWait(){
 968              		.loc 1 175 18 is_stmt 1 view -0
 969              		.cfi_startproc
 970              		@ args = 0, pretend = 0, frame = 0
 971              		@ frame_needed = 0, uses_anonymous_args = 0
 972 0000 08B5     		push	{r3, lr}
 973              	.LCFI39:
 974              		.cfi_def_cfa_offset 8
 975              		.cfi_offset 3, -8
 976              		.cfi_offset 14, -4
 176:../../../core/drivers/TCS3472/src/TCS3472.c ****     uint8_t enable_old = readSingleRegister( ENABLE );
 977              		.loc 1 176 5 view .LVU218
 978              		.loc 1 176 26 is_stmt 0 view .LVU219
 979 0002 0020     		movs	r0, #0
 980 0004 FFF7FEFF 		bl	readSingleRegister
 981              	.LVL75:
 177:../../../core/drivers/TCS3472/src/TCS3472.c ****     uint8_t enable_new = enable_old | 8; // sets WEN (bit 3) to 1
 982              		.loc 1 177 5 is_stmt 1 view .LVU220
 983              		.loc 1 177 13 is_stmt 0 view .LVU221
 984 0008 40F00801 		orr	r1, r0, #8
 985              	.LVL76:
 178:../../../core/drivers/TCS3472/src/TCS3472.c ****     int ack = writeSingleRegister( ENABLE, enable_new );
 986              		.loc 1 178 5 is_stmt 1 view .LVU222
 987              		.loc 1 178 15 is_stmt 0 view .LVU223
 988 000c C9B2     		uxtb	r1, r1
 989              		.loc 1 178 15 view .LVU224
 990 000e 0020     		movs	r0, #0
 991              	.LVL77:
 992              		.loc 1 178 15 view .LVU225
 993 0010 FFF7FEFF 		bl	writeSingleRegister
 994              	.LVL78:
 179:../../../core/drivers/TCS3472/src/TCS3472.c ****     return ack;
 995              		.loc 1 179 5 is_stmt 1 view .LVU226
 180:../../../core/drivers/TCS3472/src/TCS3472.c **** }
ARM GAS  C:\Users\tijsv\AppData\Local\Temp\ccU0OIRr.s 			page 21


 996              		.loc 1 180 1 is_stmt 0 view .LVU227
 997 0014 08BD     		pop	{r3, pc}
 998              		.cfi_endproc
 999              	.LFE151:
 1001              		.section	.text.disableWait,"ax",%progbits
 1002              		.align	1
 1003              		.global	disableWait
 1004              		.syntax unified
 1005              		.thumb
 1006              		.thumb_func
 1007              		.fpu fpv4-sp-d16
 1009              	disableWait:
 1010              	.LFB152:
 181:../../../core/drivers/TCS3472/src/TCS3472.c **** 
 182:../../../core/drivers/TCS3472/src/TCS3472.c **** int  disableWait(){
 1011              		.loc 1 182 19 is_stmt 1 view -0
 1012              		.cfi_startproc
 1013              		@ args = 0, pretend = 0, frame = 0
 1014              		@ frame_needed = 0, uses_anonymous_args = 0
 1015 0000 08B5     		push	{r3, lr}
 1016              	.LCFI40:
 1017              		.cfi_def_cfa_offset 8
 1018              		.cfi_offset 3, -8
 1019              		.cfi_offset 14, -4
 183:../../../core/drivers/TCS3472/src/TCS3472.c ****     uint8_t enable_old = readSingleRegister( ENABLE );
 1020              		.loc 1 183 5 view .LVU229
 1021              		.loc 1 183 26 is_stmt 0 view .LVU230
 1022 0002 0020     		movs	r0, #0
 1023 0004 FFF7FEFF 		bl	readSingleRegister
 1024              	.LVL79:
 184:../../../core/drivers/TCS3472/src/TCS3472.c ****     uint8_t enable_new = enable_old & 247; // sets WEN (bit 3) to 0
 1025              		.loc 1 184 5 is_stmt 1 view .LVU231
 185:../../../core/drivers/TCS3472/src/TCS3472.c ****     int ack = writeSingleRegister( ENABLE, enable_new );
 1026              		.loc 1 185 5 view .LVU232
 1027              		.loc 1 185 15 is_stmt 0 view .LVU233
 1028 0008 00F0F701 		and	r1, r0, #247
 1029 000c 0020     		movs	r0, #0
 1030              	.LVL80:
 1031              		.loc 1 185 15 view .LVU234
 1032 000e FFF7FEFF 		bl	writeSingleRegister
 1033              	.LVL81:
 186:../../../core/drivers/TCS3472/src/TCS3472.c ****     return ack;
 1034              		.loc 1 186 5 is_stmt 1 view .LVU235
 187:../../../core/drivers/TCS3472/src/TCS3472.c **** }
 1035              		.loc 1 187 1 is_stmt 0 view .LVU236
 1036 0012 08BD     		pop	{r3, pc}
 1037              		.cfi_endproc
 1038              	.LFE152:
 1040              		.section	.text.isWaitEnabled,"ax",%progbits
 1041              		.align	1
 1042              		.global	isWaitEnabled
 1043              		.syntax unified
 1044              		.thumb
 1045              		.thumb_func
 1046              		.fpu fpv4-sp-d16
 1048              	isWaitEnabled:
 1049              	.LFB153:
ARM GAS  C:\Users\tijsv\AppData\Local\Temp\ccU0OIRr.s 			page 22


 188:../../../core/drivers/TCS3472/src/TCS3472.c **** 
 189:../../../core/drivers/TCS3472/src/TCS3472.c **** uint8_t  isWaitEnabled(){
 1050              		.loc 1 189 25 is_stmt 1 view -0
 1051              		.cfi_startproc
 1052              		@ args = 0, pretend = 0, frame = 0
 1053              		@ frame_needed = 0, uses_anonymous_args = 0
 1054 0000 08B5     		push	{r3, lr}
 1055              	.LCFI41:
 1056              		.cfi_def_cfa_offset 8
 1057              		.cfi_offset 3, -8
 1058              		.cfi_offset 14, -4
 190:../../../core/drivers/TCS3472/src/TCS3472.c ****     uint8_t enable = readSingleRegister( ENABLE );
 1059              		.loc 1 190 5 view .LVU238
 1060              		.loc 1 190 22 is_stmt 0 view .LVU239
 1061 0002 0020     		movs	r0, #0
 1062 0004 FFF7FEFF 		bl	readSingleRegister
 1063              	.LVL82:
 191:../../../core/drivers/TCS3472/src/TCS3472.c ****     uint8_t wen = enable << 4;
 1064              		.loc 1 191 5 is_stmt 1 view .LVU240
 192:../../../core/drivers/TCS3472/src/TCS3472.c ****     wen = wen >> 7; // gets WEN (bit 3) from ENABLE register byte
 1065              		.loc 1 192 5 view .LVU241
 193:../../../core/drivers/TCS3472/src/TCS3472.c ****     return (uint8_t)wen;
 1066              		.loc 1 193 5 view .LVU242
 194:../../../core/drivers/TCS3472/src/TCS3472.c **** }
 1067              		.loc 1 194 1 is_stmt 0 view .LVU243
 1068 0008 C0F3C000 		ubfx	r0, r0, #3, #1
 1069              	.LVL83:
 1070              		.loc 1 194 1 view .LVU244
 1071 000c 08BD     		pop	{r3, pc}
 1072              		.cfi_endproc
 1073              	.LFE153:
 1075              		.section	.text.enableInterrupt,"ax",%progbits
 1076              		.align	1
 1077              		.global	enableInterrupt
 1078              		.syntax unified
 1079              		.thumb
 1080              		.thumb_func
 1081              		.fpu fpv4-sp-d16
 1083              	enableInterrupt:
 1084              	.LFB154:
 195:../../../core/drivers/TCS3472/src/TCS3472.c **** 
 196:../../../core/drivers/TCS3472/src/TCS3472.c **** int  enableInterrupt(){
 1085              		.loc 1 196 23 is_stmt 1 view -0
 1086              		.cfi_startproc
 1087              		@ args = 0, pretend = 0, frame = 0
 1088              		@ frame_needed = 0, uses_anonymous_args = 0
 1089 0000 08B5     		push	{r3, lr}
 1090              	.LCFI42:
 1091              		.cfi_def_cfa_offset 8
 1092              		.cfi_offset 3, -8
 1093              		.cfi_offset 14, -4
 197:../../../core/drivers/TCS3472/src/TCS3472.c ****     uint8_t enable_old = readSingleRegister( ENABLE );
 1094              		.loc 1 197 5 view .LVU246
 1095              		.loc 1 197 26 is_stmt 0 view .LVU247
 1096 0002 0020     		movs	r0, #0
 1097 0004 FFF7FEFF 		bl	readSingleRegister
 1098              	.LVL84:
ARM GAS  C:\Users\tijsv\AppData\Local\Temp\ccU0OIRr.s 			page 23


 198:../../../core/drivers/TCS3472/src/TCS3472.c ****     uint8_t enable_new = enable_old | 16; // sets AIEN (bit 4) to 1
 1099              		.loc 1 198 5 is_stmt 1 view .LVU248
 1100              		.loc 1 198 13 is_stmt 0 view .LVU249
 1101 0008 40F01001 		orr	r1, r0, #16
 1102              	.LVL85:
 199:../../../core/drivers/TCS3472/src/TCS3472.c ****     int ack = writeSingleRegister( ENABLE, enable_new );
 1103              		.loc 1 199 5 is_stmt 1 view .LVU250
 1104              		.loc 1 199 15 is_stmt 0 view .LVU251
 1105 000c C9B2     		uxtb	r1, r1
 1106              		.loc 1 199 15 view .LVU252
 1107 000e 0020     		movs	r0, #0
 1108              	.LVL86:
 1109              		.loc 1 199 15 view .LVU253
 1110 0010 FFF7FEFF 		bl	writeSingleRegister
 1111              	.LVL87:
 200:../../../core/drivers/TCS3472/src/TCS3472.c ****     return ack;
 1112              		.loc 1 200 5 is_stmt 1 view .LVU254
 201:../../../core/drivers/TCS3472/src/TCS3472.c **** }
 1113              		.loc 1 201 1 is_stmt 0 view .LVU255
 1114 0014 08BD     		pop	{r3, pc}
 1115              		.cfi_endproc
 1116              	.LFE154:
 1118              		.section	.text.disableInterrupt,"ax",%progbits
 1119              		.align	1
 1120              		.global	disableInterrupt
 1121              		.syntax unified
 1122              		.thumb
 1123              		.thumb_func
 1124              		.fpu fpv4-sp-d16
 1126              	disableInterrupt:
 1127              	.LFB155:
 202:../../../core/drivers/TCS3472/src/TCS3472.c **** 
 203:../../../core/drivers/TCS3472/src/TCS3472.c **** int  disableInterrupt(){
 1128              		.loc 1 203 24 is_stmt 1 view -0
 1129              		.cfi_startproc
 1130              		@ args = 0, pretend = 0, frame = 0
 1131              		@ frame_needed = 0, uses_anonymous_args = 0
 1132 0000 08B5     		push	{r3, lr}
 1133              	.LCFI43:
 1134              		.cfi_def_cfa_offset 8
 1135              		.cfi_offset 3, -8
 1136              		.cfi_offset 14, -4
 204:../../../core/drivers/TCS3472/src/TCS3472.c ****     uint8_t enable_old = readSingleRegister( ENABLE );
 1137              		.loc 1 204 5 view .LVU257
 1138              		.loc 1 204 26 is_stmt 0 view .LVU258
 1139 0002 0020     		movs	r0, #0
 1140 0004 FFF7FEFF 		bl	readSingleRegister
 1141              	.LVL88:
 205:../../../core/drivers/TCS3472/src/TCS3472.c ****     uint8_t enable_new = enable_old & 239; // sets AIEN (bit 4) to 0
 1142              		.loc 1 205 5 is_stmt 1 view .LVU259
 206:../../../core/drivers/TCS3472/src/TCS3472.c ****     int ack = writeSingleRegister( ENABLE, enable_new );
 1143              		.loc 1 206 5 view .LVU260
 1144              		.loc 1 206 15 is_stmt 0 view .LVU261
 1145 0008 00F0EF01 		and	r1, r0, #239
 1146 000c 0020     		movs	r0, #0
 1147              	.LVL89:
 1148              		.loc 1 206 15 view .LVU262
ARM GAS  C:\Users\tijsv\AppData\Local\Temp\ccU0OIRr.s 			page 24


 1149 000e FFF7FEFF 		bl	writeSingleRegister
 1150              	.LVL90:
 207:../../../core/drivers/TCS3472/src/TCS3472.c ****     return ack;
 1151              		.loc 1 207 5 is_stmt 1 view .LVU263
 208:../../../core/drivers/TCS3472/src/TCS3472.c **** }
 1152              		.loc 1 208 1 is_stmt 0 view .LVU264
 1153 0012 08BD     		pop	{r3, pc}
 1154              		.cfi_endproc
 1155              	.LFE155:
 1157              		.section	.text.isInterruptEnabled,"ax",%progbits
 1158              		.align	1
 1159              		.global	isInterruptEnabled
 1160              		.syntax unified
 1161              		.thumb
 1162              		.thumb_func
 1163              		.fpu fpv4-sp-d16
 1165              	isInterruptEnabled:
 1166              	.LFB156:
 209:../../../core/drivers/TCS3472/src/TCS3472.c **** 
 210:../../../core/drivers/TCS3472/src/TCS3472.c **** uint8_t  isInterruptEnabled(){
 1167              		.loc 1 210 30 is_stmt 1 view -0
 1168              		.cfi_startproc
 1169              		@ args = 0, pretend = 0, frame = 0
 1170              		@ frame_needed = 0, uses_anonymous_args = 0
 1171 0000 08B5     		push	{r3, lr}
 1172              	.LCFI44:
 1173              		.cfi_def_cfa_offset 8
 1174              		.cfi_offset 3, -8
 1175              		.cfi_offset 14, -4
 211:../../../core/drivers/TCS3472/src/TCS3472.c ****     uint8_t enable = readSingleRegister( ENABLE );
 1176              		.loc 1 211 5 view .LVU266
 1177              		.loc 1 211 22 is_stmt 0 view .LVU267
 1178 0002 0020     		movs	r0, #0
 1179 0004 FFF7FEFF 		bl	readSingleRegister
 1180              	.LVL91:
 212:../../../core/drivers/TCS3472/src/TCS3472.c ****     uint8_t aien = enable << 3;
 1181              		.loc 1 212 5 is_stmt 1 view .LVU268
 213:../../../core/drivers/TCS3472/src/TCS3472.c ****     aien = aien >> 7; // gets AIEN (bit 4) from ENABLE register byte
 1182              		.loc 1 213 5 view .LVU269
 214:../../../core/drivers/TCS3472/src/TCS3472.c ****     return (uint8_t)aien;
 1183              		.loc 1 214 5 view .LVU270
 215:../../../core/drivers/TCS3472/src/TCS3472.c **** }
 1184              		.loc 1 215 1 is_stmt 0 view .LVU271
 1185 0008 C0F30010 		ubfx	r0, r0, #4, #1
 1186              	.LVL92:
 1187              		.loc 1 215 1 view .LVU272
 1188 000c 08BD     		pop	{r3, pc}
 1189              		.cfi_endproc
 1190              	.LFE156:
 1192              		.global	__aeabi_i2d
 1193              		.global	__aeabi_dmul
 1194              		.global	__aeabi_d2f
 1195              		.section	.text.readIntegrationTime,"ax",%progbits
 1196              		.align	1
 1197              		.global	readIntegrationTime
 1198              		.syntax unified
 1199              		.thumb
ARM GAS  C:\Users\tijsv\AppData\Local\Temp\ccU0OIRr.s 			page 25


 1200              		.thumb_func
 1201              		.fpu fpv4-sp-d16
 1203              	readIntegrationTime:
 1204              	.LFB158:
 216:../../../core/drivers/TCS3472/src/TCS3472.c **** 
 217:../../../core/drivers/TCS3472/src/TCS3472.c **** int  setIntegrationTime( const float itime ){
 218:../../../core/drivers/TCS3472/src/TCS3472.c ****     uint8_t atime = 256 - roundTowardsZero( itime / 2.4 ); // rounding ensures nearest value of ati
 219:../../../core/drivers/TCS3472/src/TCS3472.c ****     int ack = writeSingleRegister( ATIME, atime );
 220:../../../core/drivers/TCS3472/src/TCS3472.c ****     return ack;
 221:../../../core/drivers/TCS3472/src/TCS3472.c **** }
 222:../../../core/drivers/TCS3472/src/TCS3472.c **** 
 223:../../../core/drivers/TCS3472/src/TCS3472.c **** float  readIntegrationTime(){
 1205              		.loc 1 223 29 is_stmt 1 view -0
 1206              		.cfi_startproc
 1207              		@ args = 0, pretend = 0, frame = 0
 1208              		@ frame_needed = 0, uses_anonymous_args = 0
 1209 0000 08B5     		push	{r3, lr}
 1210              	.LCFI45:
 1211              		.cfi_def_cfa_offset 8
 1212              		.cfi_offset 3, -8
 1213              		.cfi_offset 14, -4
 224:../../../core/drivers/TCS3472/src/TCS3472.c ****     float itime = 0;
 1214              		.loc 1 224 5 view .LVU274
 1215              	.LVL93:
 225:../../../core/drivers/TCS3472/src/TCS3472.c ****     uint8_t atime = readSingleRegister( ATIME );
 1216              		.loc 1 225 5 view .LVU275
 1217              		.loc 1 225 21 is_stmt 0 view .LVU276
 1218 0002 0120     		movs	r0, #1
 1219 0004 FFF7FEFF 		bl	readSingleRegister
 1220              	.LVL94:
 226:../../../core/drivers/TCS3472/src/TCS3472.c ****     itime = 2.4 * ( 256 - atime );
 1221              		.loc 1 226 5 is_stmt 1 view .LVU277
 1222              		.loc 1 226 17 is_stmt 0 view .LVU278
 1223 0008 C0F58070 		rsb	r0, r0, #256
 1224              	.LVL95:
 1225              		.loc 1 226 17 view .LVU279
 1226 000c FFF7FEFF 		bl	__aeabi_i2d
 1227              	.LVL96:
 1228 0010 05A3     		adr	r3, .L60
 1229 0012 D3E90023 		ldrd	r2, [r3]
 1230 0016 FFF7FEFF 		bl	__aeabi_dmul
 1231              	.LVL97:
 1232              		.loc 1 226 11 view .LVU280
 1233 001a FFF7FEFF 		bl	__aeabi_d2f
 1234              	.LVL98:
 227:../../../core/drivers/TCS3472/src/TCS3472.c ****     return itime;
 1235              		.loc 1 227 5 is_stmt 1 view .LVU281
 228:../../../core/drivers/TCS3472/src/TCS3472.c **** }
 1236              		.loc 1 228 1 is_stmt 0 view .LVU282
 1237 001e 00EE100A 		vmov	s0, r0
 1238 0022 08BD     		pop	{r3, pc}
 1239              	.L61:
 1240 0024 AFF30080 		.align	3
 1241              	.L60:
 1242 0028 33333333 		.word	858993459
 1243 002c 33330340 		.word	1073951539
 1244              		.cfi_endproc
ARM GAS  C:\Users\tijsv\AppData\Local\Temp\ccU0OIRr.s 			page 26


 1245              	.LFE158:
 1247              		.section	.text.readWaitTime,"ax",%progbits
 1248              		.align	1
 1249              		.global	readWaitTime
 1250              		.syntax unified
 1251              		.thumb
 1252              		.thumb_func
 1253              		.fpu fpv4-sp-d16
 1255              	readWaitTime:
 1256              	.LFB160:
 229:../../../core/drivers/TCS3472/src/TCS3472.c **** 
 230:../../../core/drivers/TCS3472/src/TCS3472.c **** int  setWaitTime( const float time ){
 231:../../../core/drivers/TCS3472/src/TCS3472.c ****     int ack = 1;
 232:../../../core/drivers/TCS3472/src/TCS3472.c ****     uint8_t wtime = 0;
 233:../../../core/drivers/TCS3472/src/TCS3472.c ****     if ( time >= 2.39 && time <= 614.4 ){ // 2.39 instead of 2.4 to allow for float accuracy errors
 234:../../../core/drivers/TCS3472/src/TCS3472.c ****         ack = writeSingleRegister( CONFIG, 0 ); // sets WLONG to 0
 235:../../../core/drivers/TCS3472/src/TCS3472.c ****         wtime = 256 - roundTowardsZero( time / 2.4 );
 236:../../../core/drivers/TCS3472/src/TCS3472.c ****     }
 237:../../../core/drivers/TCS3472/src/TCS3472.c ****     else if ( time > 614.4 && time <= 7400.1 ){ // 7400.1 instead of 7400 to allow for float accura
 238:../../../core/drivers/TCS3472/src/TCS3472.c ****         ack = writeSingleRegister( CONFIG, 2 ); // sets WLONG to 1
 239:../../../core/drivers/TCS3472/src/TCS3472.c ****         wtime = 256 - roundTowardsZero( time / 28.8 );
 240:../../../core/drivers/TCS3472/src/TCS3472.c ****     }
 241:../../../core/drivers/TCS3472/src/TCS3472.c ****     ack = ack || writeSingleRegister( WTIME, wtime );
 242:../../../core/drivers/TCS3472/src/TCS3472.c ****     return ack;
 243:../../../core/drivers/TCS3472/src/TCS3472.c **** }
 244:../../../core/drivers/TCS3472/src/TCS3472.c **** 
 245:../../../core/drivers/TCS3472/src/TCS3472.c **** float  readWaitTime(){
 1257              		.loc 1 245 22 is_stmt 1 view -0
 1258              		.cfi_startproc
 1259              		@ args = 0, pretend = 0, frame = 0
 1260              		@ frame_needed = 0, uses_anonymous_args = 0
 1261 0000 10B5     		push	{r4, lr}
 1262              	.LCFI46:
 1263              		.cfi_def_cfa_offset 8
 1264              		.cfi_offset 4, -8
 1265              		.cfi_offset 14, -4
 246:../../../core/drivers/TCS3472/src/TCS3472.c ****     float time = 0;
 1266              		.loc 1 246 5 view .LVU284
 1267              	.LVL99:
 247:../../../core/drivers/TCS3472/src/TCS3472.c ****     uint8_t wtime = readSingleRegister( WTIME );
 1268              		.loc 1 247 5 view .LVU285
 1269              		.loc 1 247 21 is_stmt 0 view .LVU286
 1270 0002 0320     		movs	r0, #3
 1271 0004 FFF7FEFF 		bl	readSingleRegister
 1272              	.LVL100:
 1273 0008 0446     		mov	r4, r0
 1274              	.LVL101:
 248:../../../core/drivers/TCS3472/src/TCS3472.c ****     uint8_t config = readSingleRegister( CONFIG );
 1275              		.loc 1 248 5 is_stmt 1 view .LVU287
 1276              		.loc 1 248 22 is_stmt 0 view .LVU288
 1277 000a 0D20     		movs	r0, #13
 1278 000c FFF7FEFF 		bl	readSingleRegister
 1279              	.LVL102:
 249:../../../core/drivers/TCS3472/src/TCS3472.c ****     int wlong = ( config << 6 ) >> 7; // gets WLONG (bit 1) from CONFIG register byte
 1280              		.loc 1 249 5 is_stmt 1 view .LVU289
 1281              		.loc 1 249 9 is_stmt 0 view .LVU290
 1282 0010 40F35800 		sbfx	r0, r0, #1, #25
ARM GAS  C:\Users\tijsv\AppData\Local\Temp\ccU0OIRr.s 			page 27


 1283              	.LVL103:
 250:../../../core/drivers/TCS3472/src/TCS3472.c ****     if ( wlong == 0 ){
 1284              		.loc 1 250 5 is_stmt 1 view .LVU291
 1285              		.loc 1 250 8 is_stmt 0 view .LVU292
 1286 0014 68B9     		cbnz	r0, .L63
 251:../../../core/drivers/TCS3472/src/TCS3472.c ****         time = 2.4 * ( 256 - wtime );
 1287              		.loc 1 251 9 is_stmt 1 view .LVU293
 1288              		.loc 1 251 20 is_stmt 0 view .LVU294
 1289 0016 C4F58070 		rsb	r0, r4, #256
 1290              	.LVL104:
 1291              		.loc 1 251 20 view .LVU295
 1292 001a FFF7FEFF 		bl	__aeabi_i2d
 1293              	.LVL105:
 1294 001e 11A3     		adr	r3, .L68+12
 1295 0020 D3E90023 		ldrd	r2, [r3]
 1296 0024 FFF7FEFF 		bl	__aeabi_dmul
 1297              	.LVL106:
 1298              		.loc 1 251 14 view .LVU296
 1299 0028 FFF7FEFF 		bl	__aeabi_d2f
 1300              	.LVL107:
 1301 002c 00EE100A 		vmov	s0, r0
 1302              	.LVL108:
 1303              	.L62:
 252:../../../core/drivers/TCS3472/src/TCS3472.c ****     }
 253:../../../core/drivers/TCS3472/src/TCS3472.c ****     else if ( wlong == 1 ){
 254:../../../core/drivers/TCS3472/src/TCS3472.c ****         time = 28.8 * ( 256 - wtime ); // 28.8 = 2.4 * 12
 255:../../../core/drivers/TCS3472/src/TCS3472.c ****     }
 256:../../../core/drivers/TCS3472/src/TCS3472.c ****     return time;
 257:../../../core/drivers/TCS3472/src/TCS3472.c **** }
 1304              		.loc 1 257 1 view .LVU297
 1305 0030 10BD     		pop	{r4, pc}
 1306              	.LVL109:
 1307              	.L63:
 253:../../../core/drivers/TCS3472/src/TCS3472.c ****         time = 28.8 * ( 256 - wtime ); // 28.8 = 2.4 * 12
 1308              		.loc 1 253 10 is_stmt 1 view .LVU298
 253:../../../core/drivers/TCS3472/src/TCS3472.c ****         time = 28.8 * ( 256 - wtime ); // 28.8 = 2.4 * 12
 1309              		.loc 1 253 13 is_stmt 0 view .LVU299
 1310 0032 0128     		cmp	r0, #1
 1311 0034 02D0     		beq	.L67
 246:../../../core/drivers/TCS3472/src/TCS3472.c ****     uint8_t wtime = readSingleRegister( WTIME );
 1312              		.loc 1 246 11 view .LVU300
 1313 0036 9FED0A0A 		vldr.32	s0, .L68+8
 256:../../../core/drivers/TCS3472/src/TCS3472.c **** }
 1314              		.loc 1 256 5 is_stmt 1 view .LVU301
 256:../../../core/drivers/TCS3472/src/TCS3472.c **** }
 1315              		.loc 1 256 12 is_stmt 0 view .LVU302
 1316 003a F9E7     		b	.L62
 1317              	.L67:
 254:../../../core/drivers/TCS3472/src/TCS3472.c ****     }
 1318              		.loc 1 254 9 is_stmt 1 view .LVU303
 254:../../../core/drivers/TCS3472/src/TCS3472.c ****     }
 1319              		.loc 1 254 21 is_stmt 0 view .LVU304
 1320 003c C4F58070 		rsb	r0, r4, #256
 1321              	.LVL110:
 254:../../../core/drivers/TCS3472/src/TCS3472.c ****     }
 1322              		.loc 1 254 21 view .LVU305
 1323 0040 FFF7FEFF 		bl	__aeabi_i2d
ARM GAS  C:\Users\tijsv\AppData\Local\Temp\ccU0OIRr.s 			page 28


 1324              	.LVL111:
 1325 0044 04A3     		adr	r3, .L68
 1326 0046 D3E90023 		ldrd	r2, [r3]
 1327 004a FFF7FEFF 		bl	__aeabi_dmul
 1328              	.LVL112:
 254:../../../core/drivers/TCS3472/src/TCS3472.c ****     }
 1329              		.loc 1 254 14 view .LVU306
 1330 004e FFF7FEFF 		bl	__aeabi_d2f
 1331              	.LVL113:
 1332 0052 00EE100A 		vmov	s0, r0
 1333              	.LVL114:
 254:../../../core/drivers/TCS3472/src/TCS3472.c ****     }
 1334              		.loc 1 254 14 view .LVU307
 1335 0056 EBE7     		b	.L62
 1336              	.L69:
 1337              		.align	3
 1338              	.L68:
 1339 0058 CDCCCCCC 		.word	-858993459
 1340 005c CCCC3C40 		.word	1077726412
 1341 0060 00000000 		.word	0
 1342 0064 33333333 		.word	858993459
 1343 0068 33330340 		.word	1073951539
 1344              		.cfi_endproc
 1345              	.LFE160:
 1347              		.section	.text.readEnableRegister,"ax",%progbits
 1348              		.align	1
 1349              		.global	readEnableRegister
 1350              		.syntax unified
 1351              		.thumb
 1352              		.thumb_func
 1353              		.fpu fpv4-sp-d16
 1355              	readEnableRegister:
 1356              	.LFB161:
 258:../../../core/drivers/TCS3472/src/TCS3472.c **** 
 259:../../../core/drivers/TCS3472/src/TCS3472.c **** uint8_t  readEnableRegister(){
 1357              		.loc 1 259 30 is_stmt 1 view -0
 1358              		.cfi_startproc
 1359              		@ args = 0, pretend = 0, frame = 0
 1360              		@ frame_needed = 0, uses_anonymous_args = 0
 1361 0000 08B5     		push	{r3, lr}
 1362              	.LCFI47:
 1363              		.cfi_def_cfa_offset 8
 1364              		.cfi_offset 3, -8
 1365              		.cfi_offset 14, -4
 260:../../../core/drivers/TCS3472/src/TCS3472.c ****     return readSingleRegister( ENABLE );
 1366              		.loc 1 260 5 view .LVU309
 1367              		.loc 1 260 12 is_stmt 0 view .LVU310
 1368 0002 0020     		movs	r0, #0
 1369 0004 FFF7FEFF 		bl	readSingleRegister
 1370              	.LVL115:
 261:../../../core/drivers/TCS3472/src/TCS3472.c **** }
 1371              		.loc 1 261 1 view .LVU311
 1372 0008 08BD     		pop	{r3, pc}
 1373              		.cfi_endproc
 1374              	.LFE161:
 1376              		.section	.text.readLowInterruptThreshold,"ax",%progbits
 1377              		.align	1
ARM GAS  C:\Users\tijsv\AppData\Local\Temp\ccU0OIRr.s 			page 29


 1378              		.global	readLowInterruptThreshold
 1379              		.syntax unified
 1380              		.thumb
 1381              		.thumb_func
 1382              		.fpu fpv4-sp-d16
 1384              	readLowInterruptThreshold:
 1385              	.LFB162:
 262:../../../core/drivers/TCS3472/src/TCS3472.c **** 
 263:../../../core/drivers/TCS3472/src/TCS3472.c **** int  readLowInterruptThreshold(){
 1386              		.loc 1 263 33 is_stmt 1 view -0
 1387              		.cfi_startproc
 1388              		@ args = 0, pretend = 0, frame = 8
 1389              		@ frame_needed = 0, uses_anonymous_args = 0
 1390 0000 00B5     		push	{lr}
 1391              	.LCFI48:
 1392              		.cfi_def_cfa_offset 4
 1393              		.cfi_offset 14, -4
 1394 0002 83B0     		sub	sp, sp, #12
 1395              	.LCFI49:
 1396              		.cfi_def_cfa_offset 16
 264:../../../core/drivers/TCS3472/src/TCS3472.c ****     uint8_t buffer[2] = { 0 };
 1397              		.loc 1 264 5 view .LVU313
 1398              		.loc 1 264 13 is_stmt 0 view .LVU314
 1399 0004 0023     		movs	r3, #0
 1400 0006 ADF80430 		strh	r3, [sp, #4]	@ movhi
 265:../../../core/drivers/TCS3472/src/TCS3472.c ****     readMultipleRegisters( AILTL, buffer, 2 );
 1401              		.loc 1 265 5 is_stmt 1 view .LVU315
 1402 000a 0222     		movs	r2, #2
 1403 000c 01A9     		add	r1, sp, #4
 1404 000e 0420     		movs	r0, #4
 1405 0010 FFF7FEFF 		bl	readMultipleRegisters
 1406              	.LVL116:
 266:../../../core/drivers/TCS3472/src/TCS3472.c ****     int reading = (int)buffer[1] << 8 | (int)buffer[0];
 1407              		.loc 1 266 5 view .LVU316
 1408              		.loc 1 266 30 is_stmt 0 view .LVU317
 1409 0014 9DF80500 		ldrb	r0, [sp, #5]	@ zero_extendqisi2
 1410              		.loc 1 266 52 view .LVU318
 1411 0018 9DF80430 		ldrb	r3, [sp, #4]	@ zero_extendqisi2
 1412              	.LVL117:
 267:../../../core/drivers/TCS3472/src/TCS3472.c ****     return reading;
 1413              		.loc 1 267 5 is_stmt 1 view .LVU319
 268:../../../core/drivers/TCS3472/src/TCS3472.c **** }
 1414              		.loc 1 268 1 is_stmt 0 view .LVU320
 1415 001c 43EA0020 		orr	r0, r3, r0, lsl #8
 1416              	.LVL118:
 1417              		.loc 1 268 1 view .LVU321
 1418 0020 03B0     		add	sp, sp, #12
 1419              	.LCFI50:
 1420              		.cfi_def_cfa_offset 4
 1421              		@ sp needed
 1422 0022 5DF804FB 		ldr	pc, [sp], #4
 1423              		.cfi_endproc
 1424              	.LFE162:
 1426              		.section	.text.readHighInterruptThreshold,"ax",%progbits
 1427              		.align	1
 1428              		.global	readHighInterruptThreshold
 1429              		.syntax unified
ARM GAS  C:\Users\tijsv\AppData\Local\Temp\ccU0OIRr.s 			page 30


 1430              		.thumb
 1431              		.thumb_func
 1432              		.fpu fpv4-sp-d16
 1434              	readHighInterruptThreshold:
 1435              	.LFB163:
 269:../../../core/drivers/TCS3472/src/TCS3472.c **** 
 270:../../../core/drivers/TCS3472/src/TCS3472.c **** int  readHighInterruptThreshold(){
 1436              		.loc 1 270 34 is_stmt 1 view -0
 1437              		.cfi_startproc
 1438              		@ args = 0, pretend = 0, frame = 8
 1439              		@ frame_needed = 0, uses_anonymous_args = 0
 1440 0000 00B5     		push	{lr}
 1441              	.LCFI51:
 1442              		.cfi_def_cfa_offset 4
 1443              		.cfi_offset 14, -4
 1444 0002 83B0     		sub	sp, sp, #12
 1445              	.LCFI52:
 1446              		.cfi_def_cfa_offset 16
 271:../../../core/drivers/TCS3472/src/TCS3472.c ****     uint8_t buffer[2] = { 0 };
 1447              		.loc 1 271 5 view .LVU323
 1448              		.loc 1 271 13 is_stmt 0 view .LVU324
 1449 0004 0023     		movs	r3, #0
 1450 0006 ADF80430 		strh	r3, [sp, #4]	@ movhi
 272:../../../core/drivers/TCS3472/src/TCS3472.c ****     readMultipleRegisters( AIHTL, buffer, 2 );
 1451              		.loc 1 272 5 is_stmt 1 view .LVU325
 1452 000a 0222     		movs	r2, #2
 1453 000c 01A9     		add	r1, sp, #4
 1454 000e 0620     		movs	r0, #6
 1455 0010 FFF7FEFF 		bl	readMultipleRegisters
 1456              	.LVL119:
 273:../../../core/drivers/TCS3472/src/TCS3472.c ****     int reading = (int)buffer[1] << 8 | (int)buffer[0];
 1457              		.loc 1 273 5 view .LVU326
 1458              		.loc 1 273 30 is_stmt 0 view .LVU327
 1459 0014 9DF80500 		ldrb	r0, [sp, #5]	@ zero_extendqisi2
 1460              		.loc 1 273 52 view .LVU328
 1461 0018 9DF80430 		ldrb	r3, [sp, #4]	@ zero_extendqisi2
 1462              	.LVL120:
 274:../../../core/drivers/TCS3472/src/TCS3472.c ****     return reading;
 1463              		.loc 1 274 5 is_stmt 1 view .LVU329
 275:../../../core/drivers/TCS3472/src/TCS3472.c **** }
 1464              		.loc 1 275 1 is_stmt 0 view .LVU330
 1465 001c 43EA0020 		orr	r0, r3, r0, lsl #8
 1466              	.LVL121:
 1467              		.loc 1 275 1 view .LVU331
 1468 0020 03B0     		add	sp, sp, #12
 1469              	.LCFI53:
 1470              		.cfi_def_cfa_offset 4
 1471              		@ sp needed
 1472 0022 5DF804FB 		ldr	pc, [sp], #4
 1473              		.cfi_endproc
 1474              	.LFE163:
 1476              		.section	.text.setLowInterruptThreshold,"ax",%progbits
 1477              		.align	1
 1478              		.global	setLowInterruptThreshold
 1479              		.syntax unified
 1480              		.thumb
 1481              		.thumb_func
ARM GAS  C:\Users\tijsv\AppData\Local\Temp\ccU0OIRr.s 			page 31


 1482              		.fpu fpv4-sp-d16
 1484              	setLowInterruptThreshold:
 1485              	.LVL122:
 1486              	.LFB164:
 276:../../../core/drivers/TCS3472/src/TCS3472.c **** 
 277:../../../core/drivers/TCS3472/src/TCS3472.c **** int  setLowInterruptThreshold( const int threshold ){
 1487              		.loc 1 277 53 is_stmt 1 view -0
 1488              		.cfi_startproc
 1489              		@ args = 0, pretend = 0, frame = 8
 1490              		@ frame_needed = 0, uses_anonymous_args = 0
 1491              		.loc 1 277 53 is_stmt 0 view .LVU333
 1492 0000 00B5     		push	{lr}
 1493              	.LCFI54:
 1494              		.cfi_def_cfa_offset 4
 1495              		.cfi_offset 14, -4
 1496 0002 83B0     		sub	sp, sp, #12
 1497              	.LCFI55:
 1498              		.cfi_def_cfa_offset 16
 278:../../../core/drivers/TCS3472/src/TCS3472.c ****     uint8_t threshold_bytes[2];
 1499              		.loc 1 278 5 is_stmt 1 view .LVU334
 279:../../../core/drivers/TCS3472/src/TCS3472.c ****     threshold_bytes[0] = threshold; // take lowest 8 bits of threshold
 1500              		.loc 1 279 5 view .LVU335
 1501              		.loc 1 279 24 is_stmt 0 view .LVU336
 1502 0004 8DF80400 		strb	r0, [sp, #4]
 280:../../../core/drivers/TCS3472/src/TCS3472.c ****     threshold_bytes[1] = threshold >> 8; // take highest 8 bits of threshold
 1503              		.loc 1 280 5 is_stmt 1 view .LVU337
 1504              		.loc 1 280 36 is_stmt 0 view .LVU338
 1505 0008 0012     		asrs	r0, r0, #8
 1506              	.LVL123:
 1507              		.loc 1 280 24 view .LVU339
 1508 000a 8DF80500 		strb	r0, [sp, #5]
 281:../../../core/drivers/TCS3472/src/TCS3472.c ****     int ack = writeMultipleRegisters( AILTL, threshold_bytes, 2 );
 1509              		.loc 1 281 5 is_stmt 1 view .LVU340
 1510              		.loc 1 281 15 is_stmt 0 view .LVU341
 1511 000e 0222     		movs	r2, #2
 1512 0010 01A9     		add	r1, sp, #4
 1513 0012 0420     		movs	r0, #4
 1514 0014 FFF7FEFF 		bl	writeMultipleRegisters
 1515              	.LVL124:
 282:../../../core/drivers/TCS3472/src/TCS3472.c ****     return ack;
 1516              		.loc 1 282 5 is_stmt 1 view .LVU342
 283:../../../core/drivers/TCS3472/src/TCS3472.c **** }
 1517              		.loc 1 283 1 is_stmt 0 view .LVU343
 1518 0018 03B0     		add	sp, sp, #12
 1519              	.LCFI56:
 1520              		.cfi_def_cfa_offset 4
 1521              		@ sp needed
 1522 001a 5DF804FB 		ldr	pc, [sp], #4
 1523              		.cfi_endproc
 1524              	.LFE164:
 1526              		.section	.text.setHighInterruptThreshold,"ax",%progbits
 1527              		.align	1
 1528              		.global	setHighInterruptThreshold
 1529              		.syntax unified
 1530              		.thumb
 1531              		.thumb_func
 1532              		.fpu fpv4-sp-d16
ARM GAS  C:\Users\tijsv\AppData\Local\Temp\ccU0OIRr.s 			page 32


 1534              	setHighInterruptThreshold:
 1535              	.LVL125:
 1536              	.LFB165:
 284:../../../core/drivers/TCS3472/src/TCS3472.c **** 
 285:../../../core/drivers/TCS3472/src/TCS3472.c **** int  setHighInterruptThreshold( const int threshold ){
 1537              		.loc 1 285 54 is_stmt 1 view -0
 1538              		.cfi_startproc
 1539              		@ args = 0, pretend = 0, frame = 8
 1540              		@ frame_needed = 0, uses_anonymous_args = 0
 1541              		.loc 1 285 54 is_stmt 0 view .LVU345
 1542 0000 00B5     		push	{lr}
 1543              	.LCFI57:
 1544              		.cfi_def_cfa_offset 4
 1545              		.cfi_offset 14, -4
 1546 0002 83B0     		sub	sp, sp, #12
 1547              	.LCFI58:
 1548              		.cfi_def_cfa_offset 16
 286:../../../core/drivers/TCS3472/src/TCS3472.c ****     uint8_t threshold_bytes[2];
 1549              		.loc 1 286 5 is_stmt 1 view .LVU346
 287:../../../core/drivers/TCS3472/src/TCS3472.c ****     threshold_bytes[0] = threshold;
 1550              		.loc 1 287 5 view .LVU347
 1551              		.loc 1 287 24 is_stmt 0 view .LVU348
 1552 0004 8DF80400 		strb	r0, [sp, #4]
 288:../../../core/drivers/TCS3472/src/TCS3472.c ****     threshold_bytes[1] = threshold >> 8;
 1553              		.loc 1 288 5 is_stmt 1 view .LVU349
 1554              		.loc 1 288 36 is_stmt 0 view .LVU350
 1555 0008 0012     		asrs	r0, r0, #8
 1556              	.LVL126:
 1557              		.loc 1 288 24 view .LVU351
 1558 000a 8DF80500 		strb	r0, [sp, #5]
 289:../../../core/drivers/TCS3472/src/TCS3472.c ****     int ack = writeMultipleRegisters( AIHTL, threshold_bytes, 2 );
 1559              		.loc 1 289 5 is_stmt 1 view .LVU352
 1560              		.loc 1 289 15 is_stmt 0 view .LVU353
 1561 000e 0222     		movs	r2, #2
 1562 0010 01A9     		add	r1, sp, #4
 1563 0012 0620     		movs	r0, #6
 1564 0014 FFF7FEFF 		bl	writeMultipleRegisters
 1565              	.LVL127:
 290:../../../core/drivers/TCS3472/src/TCS3472.c ****     return ack;
 1566              		.loc 1 290 5 is_stmt 1 view .LVU354
 291:../../../core/drivers/TCS3472/src/TCS3472.c **** }
 1567              		.loc 1 291 1 is_stmt 0 view .LVU355
 1568 0018 03B0     		add	sp, sp, #12
 1569              	.LCFI59:
 1570              		.cfi_def_cfa_offset 4
 1571              		@ sp needed
 1572 001a 5DF804FB 		ldr	pc, [sp], #4
 1573              		.cfi_endproc
 1574              	.LFE165:
 1576              		.section	.text.readInterruptPersistence,"ax",%progbits
 1577              		.align	1
 1578              		.global	readInterruptPersistence
 1579              		.syntax unified
 1580              		.thumb
 1581              		.thumb_func
 1582              		.fpu fpv4-sp-d16
 1584              	readInterruptPersistence:
ARM GAS  C:\Users\tijsv\AppData\Local\Temp\ccU0OIRr.s 			page 33


 1585              	.LFB166:
 292:../../../core/drivers/TCS3472/src/TCS3472.c **** 
 293:../../../core/drivers/TCS3472/src/TCS3472.c **** int  readInterruptPersistence(){
 1586              		.loc 1 293 32 is_stmt 1 view -0
 1587              		.cfi_startproc
 1588              		@ args = 0, pretend = 0, frame = 0
 1589              		@ frame_needed = 0, uses_anonymous_args = 0
 1590 0000 08B5     		push	{r3, lr}
 1591              	.LCFI60:
 1592              		.cfi_def_cfa_offset 8
 1593              		.cfi_offset 3, -8
 1594              		.cfi_offset 14, -4
 294:../../../core/drivers/TCS3472/src/TCS3472.c ****     uint8_t pers = readSingleRegister( PERS );
 1595              		.loc 1 294 5 view .LVU357
 1596              		.loc 1 294 20 is_stmt 0 view .LVU358
 1597 0002 0C20     		movs	r0, #12
 1598 0004 FFF7FEFF 		bl	readSingleRegister
 1599              	.LVL128:
 295:../../../core/drivers/TCS3472/src/TCS3472.c ****     uint8_t persistence_bits = ( pers << 4 ) >> 4; // discard bits 4 to 7, keep only bits 0 to 3
 1600              		.loc 1 295 5 is_stmt 1 view .LVU359
 296:../../../core/drivers/TCS3472/src/TCS3472.c ****     int persistence = -1;
 1601              		.loc 1 296 5 view .LVU360
 297:../../../core/drivers/TCS3472/src/TCS3472.c ****     switch (persistence_bits){
 1602              		.loc 1 297 5 view .LVU361
 1603 0008 C0B2     		uxtb	r0, r0
 1604              	.LVL129:
 1605              		.loc 1 297 5 is_stmt 0 view .LVU362
 1606 000a 0F28     		cmp	r0, #15
 1607 000c 09D8     		bhi	.L81
 1608 000e DFE800F0 		tbb	[pc, r0]
 1609              	.L83:
 1610 0012 0C       		.byte	(.L80-.L83)/2
 1611 0013 0C       		.byte	(.L80-.L83)/2
 1612 0014 0C       		.byte	(.L80-.L83)/2
 1613 0015 0C       		.byte	(.L80-.L83)/2
 1614 0016 0B       		.byte	(.L94-.L83)/2
 1615 0017 0D       		.byte	(.L93-.L83)/2
 1616 0018 0F       		.byte	(.L92-.L83)/2
 1617 0019 11       		.byte	(.L91-.L83)/2
 1618 001a 13       		.byte	(.L90-.L83)/2
 1619 001b 15       		.byte	(.L89-.L83)/2
 1620 001c 17       		.byte	(.L88-.L83)/2
 1621 001d 19       		.byte	(.L87-.L83)/2
 1622 001e 1B       		.byte	(.L86-.L83)/2
 1623 001f 1D       		.byte	(.L85-.L83)/2
 1624 0020 1F       		.byte	(.L84-.L83)/2
 1625 0021 21       		.byte	(.L82-.L83)/2
 1626              		.p2align 1
 1627              	.L81:
 295:../../../core/drivers/TCS3472/src/TCS3472.c ****     uint8_t persistence_bits = ( pers << 4 ) >> 4; // discard bits 4 to 7, keep only bits 0 to 3
 1628              		.loc 1 295 46 view .LVU363
 1629 0022 4FF0FF30 		mov	r0, #-1
 1630              	.LVL130:
 295:../../../core/drivers/TCS3472/src/TCS3472.c ****     uint8_t persistence_bits = ( pers << 4 ) >> 4; // discard bits 4 to 7, keep only bits 0 to 3
 1631              		.loc 1 295 46 view .LVU364
 1632 0026 00E0     		b	.L80
 1633              	.LVL131:
ARM GAS  C:\Users\tijsv\AppData\Local\Temp\ccU0OIRr.s 			page 34


 1634              	.L94:
 298:../../../core/drivers/TCS3472/src/TCS3472.c ****         case 0:
 299:../../../core/drivers/TCS3472/src/TCS3472.c ****             persistence = 0;
 300:../../../core/drivers/TCS3472/src/TCS3472.c ****             break;
 301:../../../core/drivers/TCS3472/src/TCS3472.c ****         case 1:
 302:../../../core/drivers/TCS3472/src/TCS3472.c ****             persistence = 1;
 303:../../../core/drivers/TCS3472/src/TCS3472.c ****             break;
 304:../../../core/drivers/TCS3472/src/TCS3472.c ****         case 2:
 305:../../../core/drivers/TCS3472/src/TCS3472.c ****             persistence = 2;
 306:../../../core/drivers/TCS3472/src/TCS3472.c ****             break;
 307:../../../core/drivers/TCS3472/src/TCS3472.c ****         case 3:
 308:../../../core/drivers/TCS3472/src/TCS3472.c ****             persistence = 3;
 309:../../../core/drivers/TCS3472/src/TCS3472.c ****             break;
 310:../../../core/drivers/TCS3472/src/TCS3472.c ****         case 4:
 311:../../../core/drivers/TCS3472/src/TCS3472.c ****             persistence = 5;
 1635              		.loc 1 311 13 is_stmt 1 view .LVU365
 312:../../../core/drivers/TCS3472/src/TCS3472.c ****             break;
 1636              		.loc 1 312 13 view .LVU366
 311:../../../core/drivers/TCS3472/src/TCS3472.c ****             break;
 1637              		.loc 1 311 25 is_stmt 0 view .LVU367
 1638 0028 0520     		movs	r0, #5
 1639              	.LVL132:
 1640              	.L80:
 313:../../../core/drivers/TCS3472/src/TCS3472.c ****         case 5:
 314:../../../core/drivers/TCS3472/src/TCS3472.c ****             persistence = 10;
 315:../../../core/drivers/TCS3472/src/TCS3472.c ****             break;
 316:../../../core/drivers/TCS3472/src/TCS3472.c ****         case 6:
 317:../../../core/drivers/TCS3472/src/TCS3472.c ****             persistence = 15;
 318:../../../core/drivers/TCS3472/src/TCS3472.c ****             break;
 319:../../../core/drivers/TCS3472/src/TCS3472.c ****         case 7:
 320:../../../core/drivers/TCS3472/src/TCS3472.c ****             persistence = 20;
 321:../../../core/drivers/TCS3472/src/TCS3472.c ****             break;
 322:../../../core/drivers/TCS3472/src/TCS3472.c ****         case 8:
 323:../../../core/drivers/TCS3472/src/TCS3472.c ****             persistence = 25;
 324:../../../core/drivers/TCS3472/src/TCS3472.c ****             break;
 325:../../../core/drivers/TCS3472/src/TCS3472.c ****         case 9:
 326:../../../core/drivers/TCS3472/src/TCS3472.c ****             persistence = 30;
 327:../../../core/drivers/TCS3472/src/TCS3472.c ****             break;
 328:../../../core/drivers/TCS3472/src/TCS3472.c ****         case 10:
 329:../../../core/drivers/TCS3472/src/TCS3472.c ****             persistence = 35;
 330:../../../core/drivers/TCS3472/src/TCS3472.c ****             break;
 331:../../../core/drivers/TCS3472/src/TCS3472.c ****         case 11:
 332:../../../core/drivers/TCS3472/src/TCS3472.c ****             persistence = 40;
 333:../../../core/drivers/TCS3472/src/TCS3472.c ****             break;
 334:../../../core/drivers/TCS3472/src/TCS3472.c ****         case 12:
 335:../../../core/drivers/TCS3472/src/TCS3472.c ****             persistence = 45;
 336:../../../core/drivers/TCS3472/src/TCS3472.c ****             break;
 337:../../../core/drivers/TCS3472/src/TCS3472.c ****         case 13:
 338:../../../core/drivers/TCS3472/src/TCS3472.c ****             persistence = 50;
 339:../../../core/drivers/TCS3472/src/TCS3472.c ****             break;
 340:../../../core/drivers/TCS3472/src/TCS3472.c ****         case 14:
 341:../../../core/drivers/TCS3472/src/TCS3472.c ****             persistence = 55;
 342:../../../core/drivers/TCS3472/src/TCS3472.c ****             break;
 343:../../../core/drivers/TCS3472/src/TCS3472.c ****         case 15:
 344:../../../core/drivers/TCS3472/src/TCS3472.c ****             persistence = 60;
 345:../../../core/drivers/TCS3472/src/TCS3472.c ****             break;
 346:../../../core/drivers/TCS3472/src/TCS3472.c ****         default:
ARM GAS  C:\Users\tijsv\AppData\Local\Temp\ccU0OIRr.s 			page 35


 347:../../../core/drivers/TCS3472/src/TCS3472.c ****             break;
 348:../../../core/drivers/TCS3472/src/TCS3472.c ****     }
 349:../../../core/drivers/TCS3472/src/TCS3472.c ****     return persistence;
 350:../../../core/drivers/TCS3472/src/TCS3472.c **** }
 1641              		.loc 1 350 1 view .LVU368
 1642 002a 08BD     		pop	{r3, pc}
 1643              	.LVL133:
 1644              	.L93:
 314:../../../core/drivers/TCS3472/src/TCS3472.c ****             break;
 1645              		.loc 1 314 13 is_stmt 1 view .LVU369
 315:../../../core/drivers/TCS3472/src/TCS3472.c ****         case 6:
 1646              		.loc 1 315 13 view .LVU370
 314:../../../core/drivers/TCS3472/src/TCS3472.c ****             break;
 1647              		.loc 1 314 25 is_stmt 0 view .LVU371
 1648 002c 0A20     		movs	r0, #10
 1649              	.LVL134:
 315:../../../core/drivers/TCS3472/src/TCS3472.c ****         case 6:
 1650              		.loc 1 315 13 view .LVU372
 1651 002e FCE7     		b	.L80
 1652              	.LVL135:
 1653              	.L92:
 317:../../../core/drivers/TCS3472/src/TCS3472.c ****             break;
 1654              		.loc 1 317 13 is_stmt 1 view .LVU373
 318:../../../core/drivers/TCS3472/src/TCS3472.c ****         case 7:
 1655              		.loc 1 318 13 view .LVU374
 317:../../../core/drivers/TCS3472/src/TCS3472.c ****             break;
 1656              		.loc 1 317 25 is_stmt 0 view .LVU375
 1657 0030 0F20     		movs	r0, #15
 1658              	.LVL136:
 318:../../../core/drivers/TCS3472/src/TCS3472.c ****         case 7:
 1659              		.loc 1 318 13 view .LVU376
 1660 0032 FAE7     		b	.L80
 1661              	.LVL137:
 1662              	.L91:
 320:../../../core/drivers/TCS3472/src/TCS3472.c ****             break;
 1663              		.loc 1 320 13 is_stmt 1 view .LVU377
 321:../../../core/drivers/TCS3472/src/TCS3472.c ****         case 8:
 1664              		.loc 1 321 13 view .LVU378
 320:../../../core/drivers/TCS3472/src/TCS3472.c ****             break;
 1665              		.loc 1 320 25 is_stmt 0 view .LVU379
 1666 0034 1420     		movs	r0, #20
 1667              	.LVL138:
 321:../../../core/drivers/TCS3472/src/TCS3472.c ****         case 8:
 1668              		.loc 1 321 13 view .LVU380
 1669 0036 F8E7     		b	.L80
 1670              	.LVL139:
 1671              	.L90:
 323:../../../core/drivers/TCS3472/src/TCS3472.c ****             break;
 1672              		.loc 1 323 13 is_stmt 1 view .LVU381
 324:../../../core/drivers/TCS3472/src/TCS3472.c ****         case 9:
 1673              		.loc 1 324 13 view .LVU382
 323:../../../core/drivers/TCS3472/src/TCS3472.c ****             break;
 1674              		.loc 1 323 25 is_stmt 0 view .LVU383
 1675 0038 1920     		movs	r0, #25
 1676              	.LVL140:
 324:../../../core/drivers/TCS3472/src/TCS3472.c ****         case 9:
 1677              		.loc 1 324 13 view .LVU384
ARM GAS  C:\Users\tijsv\AppData\Local\Temp\ccU0OIRr.s 			page 36


 1678 003a F6E7     		b	.L80
 1679              	.LVL141:
 1680              	.L89:
 326:../../../core/drivers/TCS3472/src/TCS3472.c ****             break;
 1681              		.loc 1 326 13 is_stmt 1 view .LVU385
 327:../../../core/drivers/TCS3472/src/TCS3472.c ****         case 10:
 1682              		.loc 1 327 13 view .LVU386
 326:../../../core/drivers/TCS3472/src/TCS3472.c ****             break;
 1683              		.loc 1 326 25 is_stmt 0 view .LVU387
 1684 003c 1E20     		movs	r0, #30
 1685              	.LVL142:
 327:../../../core/drivers/TCS3472/src/TCS3472.c ****         case 10:
 1686              		.loc 1 327 13 view .LVU388
 1687 003e F4E7     		b	.L80
 1688              	.LVL143:
 1689              	.L88:
 329:../../../core/drivers/TCS3472/src/TCS3472.c ****             break;
 1690              		.loc 1 329 13 is_stmt 1 view .LVU389
 330:../../../core/drivers/TCS3472/src/TCS3472.c ****         case 11:
 1691              		.loc 1 330 13 view .LVU390
 329:../../../core/drivers/TCS3472/src/TCS3472.c ****             break;
 1692              		.loc 1 329 25 is_stmt 0 view .LVU391
 1693 0040 2320     		movs	r0, #35
 1694              	.LVL144:
 330:../../../core/drivers/TCS3472/src/TCS3472.c ****         case 11:
 1695              		.loc 1 330 13 view .LVU392
 1696 0042 F2E7     		b	.L80
 1697              	.LVL145:
 1698              	.L87:
 332:../../../core/drivers/TCS3472/src/TCS3472.c ****             break;
 1699              		.loc 1 332 13 is_stmt 1 view .LVU393
 333:../../../core/drivers/TCS3472/src/TCS3472.c ****         case 12:
 1700              		.loc 1 333 13 view .LVU394
 332:../../../core/drivers/TCS3472/src/TCS3472.c ****             break;
 1701              		.loc 1 332 25 is_stmt 0 view .LVU395
 1702 0044 2820     		movs	r0, #40
 1703              	.LVL146:
 333:../../../core/drivers/TCS3472/src/TCS3472.c ****         case 12:
 1704              		.loc 1 333 13 view .LVU396
 1705 0046 F0E7     		b	.L80
 1706              	.LVL147:
 1707              	.L86:
 335:../../../core/drivers/TCS3472/src/TCS3472.c ****             break;
 1708              		.loc 1 335 13 is_stmt 1 view .LVU397
 336:../../../core/drivers/TCS3472/src/TCS3472.c ****         case 13:
 1709              		.loc 1 336 13 view .LVU398
 335:../../../core/drivers/TCS3472/src/TCS3472.c ****             break;
 1710              		.loc 1 335 25 is_stmt 0 view .LVU399
 1711 0048 2D20     		movs	r0, #45
 1712              	.LVL148:
 336:../../../core/drivers/TCS3472/src/TCS3472.c ****         case 13:
 1713              		.loc 1 336 13 view .LVU400
 1714 004a EEE7     		b	.L80
 1715              	.LVL149:
 1716              	.L85:
 338:../../../core/drivers/TCS3472/src/TCS3472.c ****             break;
 1717              		.loc 1 338 13 is_stmt 1 view .LVU401
ARM GAS  C:\Users\tijsv\AppData\Local\Temp\ccU0OIRr.s 			page 37


 339:../../../core/drivers/TCS3472/src/TCS3472.c ****         case 14:
 1718              		.loc 1 339 13 view .LVU402
 338:../../../core/drivers/TCS3472/src/TCS3472.c ****             break;
 1719              		.loc 1 338 25 is_stmt 0 view .LVU403
 1720 004c 3220     		movs	r0, #50
 1721              	.LVL150:
 339:../../../core/drivers/TCS3472/src/TCS3472.c ****         case 14:
 1722              		.loc 1 339 13 view .LVU404
 1723 004e ECE7     		b	.L80
 1724              	.LVL151:
 1725              	.L84:
 341:../../../core/drivers/TCS3472/src/TCS3472.c ****             break;
 1726              		.loc 1 341 13 is_stmt 1 view .LVU405
 342:../../../core/drivers/TCS3472/src/TCS3472.c ****         case 15:
 1727              		.loc 1 342 13 view .LVU406
 341:../../../core/drivers/TCS3472/src/TCS3472.c ****             break;
 1728              		.loc 1 341 25 is_stmt 0 view .LVU407
 1729 0050 3720     		movs	r0, #55
 1730              	.LVL152:
 342:../../../core/drivers/TCS3472/src/TCS3472.c ****         case 15:
 1731              		.loc 1 342 13 view .LVU408
 1732 0052 EAE7     		b	.L80
 1733              	.LVL153:
 1734              	.L82:
 344:../../../core/drivers/TCS3472/src/TCS3472.c ****             break;
 1735              		.loc 1 344 13 is_stmt 1 view .LVU409
 345:../../../core/drivers/TCS3472/src/TCS3472.c ****         default:
 1736              		.loc 1 345 13 view .LVU410
 344:../../../core/drivers/TCS3472/src/TCS3472.c ****             break;
 1737              		.loc 1 344 25 is_stmt 0 view .LVU411
 1738 0054 3C20     		movs	r0, #60
 1739              	.LVL154:
 349:../../../core/drivers/TCS3472/src/TCS3472.c **** }
 1740              		.loc 1 349 5 is_stmt 1 view .LVU412
 349:../../../core/drivers/TCS3472/src/TCS3472.c **** }
 1741              		.loc 1 349 12 is_stmt 0 view .LVU413
 1742 0056 E8E7     		b	.L80
 1743              		.cfi_endproc
 1744              	.LFE166:
 1746              		.section	.text.setInterruptPersistence,"ax",%progbits
 1747              		.align	1
 1748              		.global	setInterruptPersistence
 1749              		.syntax unified
 1750              		.thumb
 1751              		.thumb_func
 1752              		.fpu fpv4-sp-d16
 1754              	setInterruptPersistence:
 1755              	.LVL155:
 1756              	.LFB167:
 351:../../../core/drivers/TCS3472/src/TCS3472.c **** 
 352:../../../core/drivers/TCS3472/src/TCS3472.c **** int  setInterruptPersistence( const int persistence ){
 1757              		.loc 1 352 54 is_stmt 1 view -0
 1758              		.cfi_startproc
 1759              		@ args = 0, pretend = 0, frame = 0
 1760              		@ frame_needed = 0, uses_anonymous_args = 0
 1761              		.loc 1 352 54 is_stmt 0 view .LVU415
 1762 0000 08B5     		push	{r3, lr}
ARM GAS  C:\Users\tijsv\AppData\Local\Temp\ccU0OIRr.s 			page 38


 1763              	.LCFI61:
 1764              		.cfi_def_cfa_offset 8
 1765              		.cfi_offset 3, -8
 1766              		.cfi_offset 14, -4
 353:../../../core/drivers/TCS3472/src/TCS3472.c ****     uint8_t pers_byte;
 1767              		.loc 1 353 5 is_stmt 1 view .LVU416
 354:../../../core/drivers/TCS3472/src/TCS3472.c ****     int ack = 0;
 1768              		.loc 1 354 5 view .LVU417
 1769              	.LVL156:
 355:../../../core/drivers/TCS3472/src/TCS3472.c ****     switch (persistence){
 1770              		.loc 1 355 5 view .LVU418
 1771 0002 3C28     		cmp	r0, #60
 1772 0004 43D8     		bhi	.L116
 1773 0006 DFE800F0 		tbb	[pc, r0]
 1774              	.L100:
 1775 000a 1F       		.byte	(.L115-.L100)/2
 1776 000b 3E       		.byte	(.L114-.L100)/2
 1777 000c 3C       		.byte	(.L113-.L100)/2
 1778 000d 3A       		.byte	(.L112-.L100)/2
 1779 000e 42       		.byte	(.L116-.L100)/2
 1780 000f 38       		.byte	(.L111-.L100)/2
 1781 0010 42       		.byte	(.L116-.L100)/2
 1782 0011 42       		.byte	(.L116-.L100)/2
 1783 0012 42       		.byte	(.L116-.L100)/2
 1784 0013 42       		.byte	(.L116-.L100)/2
 1785 0014 36       		.byte	(.L110-.L100)/2
 1786 0015 42       		.byte	(.L116-.L100)/2
 1787 0016 42       		.byte	(.L116-.L100)/2
 1788 0017 42       		.byte	(.L116-.L100)/2
 1789 0018 42       		.byte	(.L116-.L100)/2
 1790 0019 34       		.byte	(.L109-.L100)/2
 1791 001a 42       		.byte	(.L116-.L100)/2
 1792 001b 42       		.byte	(.L116-.L100)/2
 1793 001c 42       		.byte	(.L116-.L100)/2
 1794 001d 42       		.byte	(.L116-.L100)/2
 1795 001e 32       		.byte	(.L108-.L100)/2
 1796 001f 42       		.byte	(.L116-.L100)/2
 1797 0020 42       		.byte	(.L116-.L100)/2
 1798 0021 42       		.byte	(.L116-.L100)/2
 1799 0022 42       		.byte	(.L116-.L100)/2
 1800 0023 30       		.byte	(.L107-.L100)/2
 1801 0024 42       		.byte	(.L116-.L100)/2
 1802 0025 42       		.byte	(.L116-.L100)/2
 1803 0026 42       		.byte	(.L116-.L100)/2
 1804 0027 42       		.byte	(.L116-.L100)/2
 1805 0028 2E       		.byte	(.L106-.L100)/2
 1806 0029 42       		.byte	(.L116-.L100)/2
 1807 002a 42       		.byte	(.L116-.L100)/2
 1808 002b 42       		.byte	(.L116-.L100)/2
 1809 002c 42       		.byte	(.L116-.L100)/2
 1810 002d 2C       		.byte	(.L105-.L100)/2
 1811 002e 42       		.byte	(.L116-.L100)/2
 1812 002f 42       		.byte	(.L116-.L100)/2
 1813 0030 42       		.byte	(.L116-.L100)/2
 1814 0031 42       		.byte	(.L116-.L100)/2
 1815 0032 2A       		.byte	(.L104-.L100)/2
 1816 0033 42       		.byte	(.L116-.L100)/2
ARM GAS  C:\Users\tijsv\AppData\Local\Temp\ccU0OIRr.s 			page 39


 1817 0034 42       		.byte	(.L116-.L100)/2
 1818 0035 42       		.byte	(.L116-.L100)/2
 1819 0036 42       		.byte	(.L116-.L100)/2
 1820 0037 28       		.byte	(.L103-.L100)/2
 1821 0038 42       		.byte	(.L116-.L100)/2
 1822 0039 42       		.byte	(.L116-.L100)/2
 1823 003a 42       		.byte	(.L116-.L100)/2
 1824 003b 42       		.byte	(.L116-.L100)/2
 1825 003c 26       		.byte	(.L102-.L100)/2
 1826 003d 42       		.byte	(.L116-.L100)/2
 1827 003e 42       		.byte	(.L116-.L100)/2
 1828 003f 42       		.byte	(.L116-.L100)/2
 1829 0040 42       		.byte	(.L116-.L100)/2
 1830 0041 21       		.byte	(.L101-.L100)/2
 1831 0042 42       		.byte	(.L116-.L100)/2
 1832 0043 42       		.byte	(.L116-.L100)/2
 1833 0044 42       		.byte	(.L116-.L100)/2
 1834 0045 42       		.byte	(.L116-.L100)/2
 1835 0046 40       		.byte	(.L117-.L100)/2
 1836 0047 00       		.p2align 1
 1837              	.L115:
 356:../../../core/drivers/TCS3472/src/TCS3472.c ****         case 0:
 357:../../../core/drivers/TCS3472/src/TCS3472.c ****             pers_byte = 0;
 358:../../../core/drivers/TCS3472/src/TCS3472.c ****             break;
 359:../../../core/drivers/TCS3472/src/TCS3472.c ****         case 1:
 360:../../../core/drivers/TCS3472/src/TCS3472.c ****             pers_byte = 1;
 361:../../../core/drivers/TCS3472/src/TCS3472.c ****             break;
 362:../../../core/drivers/TCS3472/src/TCS3472.c ****         case 2:
 363:../../../core/drivers/TCS3472/src/TCS3472.c ****             pers_byte = 2;
 364:../../../core/drivers/TCS3472/src/TCS3472.c ****             break;
 365:../../../core/drivers/TCS3472/src/TCS3472.c ****         case 3:
 366:../../../core/drivers/TCS3472/src/TCS3472.c ****             pers_byte = 3;
 1838              		.loc 1 366 23 is_stmt 0 view .LVU419
 1839 0048 0021     		movs	r1, #0
 1840 004a 00E0     		b	.L99
 1841              	.L101:
 367:../../../core/drivers/TCS3472/src/TCS3472.c ****             break;
 368:../../../core/drivers/TCS3472/src/TCS3472.c ****         case 5:
 369:../../../core/drivers/TCS3472/src/TCS3472.c ****             pers_byte = 4;
 370:../../../core/drivers/TCS3472/src/TCS3472.c ****             break;
 371:../../../core/drivers/TCS3472/src/TCS3472.c ****         case 10:
 372:../../../core/drivers/TCS3472/src/TCS3472.c ****             pers_byte = 5;
 373:../../../core/drivers/TCS3472/src/TCS3472.c ****             break;
 374:../../../core/drivers/TCS3472/src/TCS3472.c ****         case 15:
 375:../../../core/drivers/TCS3472/src/TCS3472.c ****             pers_byte = 6;
 376:../../../core/drivers/TCS3472/src/TCS3472.c ****             break;
 377:../../../core/drivers/TCS3472/src/TCS3472.c ****         case 20:
 378:../../../core/drivers/TCS3472/src/TCS3472.c ****             pers_byte = 7;
 379:../../../core/drivers/TCS3472/src/TCS3472.c ****             break;
 380:../../../core/drivers/TCS3472/src/TCS3472.c ****         case 25:
 381:../../../core/drivers/TCS3472/src/TCS3472.c ****             pers_byte = 8;
 382:../../../core/drivers/TCS3472/src/TCS3472.c ****             break;
 383:../../../core/drivers/TCS3472/src/TCS3472.c ****         case 30:
 384:../../../core/drivers/TCS3472/src/TCS3472.c ****             pers_byte = 9;
 385:../../../core/drivers/TCS3472/src/TCS3472.c ****             break;
 386:../../../core/drivers/TCS3472/src/TCS3472.c ****         case 35:
 387:../../../core/drivers/TCS3472/src/TCS3472.c ****             pers_byte = 10;
ARM GAS  C:\Users\tijsv\AppData\Local\Temp\ccU0OIRr.s 			page 40


 388:../../../core/drivers/TCS3472/src/TCS3472.c ****             break;
 389:../../../core/drivers/TCS3472/src/TCS3472.c ****         case 40:
 390:../../../core/drivers/TCS3472/src/TCS3472.c ****             pers_byte = 11;
 391:../../../core/drivers/TCS3472/src/TCS3472.c ****             break;
 392:../../../core/drivers/TCS3472/src/TCS3472.c ****         case 45:
 393:../../../core/drivers/TCS3472/src/TCS3472.c ****             pers_byte = 12;
 394:../../../core/drivers/TCS3472/src/TCS3472.c ****             break;
 395:../../../core/drivers/TCS3472/src/TCS3472.c ****         case 50:
 396:../../../core/drivers/TCS3472/src/TCS3472.c ****             pers_byte = 13;
 397:../../../core/drivers/TCS3472/src/TCS3472.c ****             break;
 398:../../../core/drivers/TCS3472/src/TCS3472.c ****         case 55:
 399:../../../core/drivers/TCS3472/src/TCS3472.c ****             pers_byte = 14;
 1842              		.loc 1 399 13 is_stmt 1 view .LVU420
 1843              	.LVL157:
 400:../../../core/drivers/TCS3472/src/TCS3472.c ****             break;
 1844              		.loc 1 400 13 view .LVU421
 401:../../../core/drivers/TCS3472/src/TCS3472.c ****         case 60:
 402:../../../core/drivers/TCS3472/src/TCS3472.c ****             pers_byte = 15;
 403:../../../core/drivers/TCS3472/src/TCS3472.c ****             break;
 404:../../../core/drivers/TCS3472/src/TCS3472.c ****         default:
 405:../../../core/drivers/TCS3472/src/TCS3472.c ****             ack = 2; // 2 used to indicate invalid entry
 406:../../../core/drivers/TCS3472/src/TCS3472.c ****             break;
 407:../../../core/drivers/TCS3472/src/TCS3472.c ****     }
 408:../../../core/drivers/TCS3472/src/TCS3472.c ****     if ( ack != 2 ){
 1845              		.loc 1 408 5 view .LVU422
 399:../../../core/drivers/TCS3472/src/TCS3472.c ****             break;
 1846              		.loc 1 399 23 is_stmt 0 view .LVU423
 1847 004c 0E21     		movs	r1, #14
 1848              	.LVL158:
 1849              	.L99:
 409:../../../core/drivers/TCS3472/src/TCS3472.c ****         ack = writeSingleRegister( PERS, pers_byte );
 1850              		.loc 1 409 9 is_stmt 1 view .LVU424
 1851              		.loc 1 409 15 is_stmt 0 view .LVU425
 1852 004e 0C20     		movs	r0, #12
 1853              	.LVL159:
 1854              		.loc 1 409 15 view .LVU426
 1855 0050 FFF7FEFF 		bl	writeSingleRegister
 1856              	.LVL160:
 1857              	.L97:
 410:../../../core/drivers/TCS3472/src/TCS3472.c ****     }
 411:../../../core/drivers/TCS3472/src/TCS3472.c ****     return ack;
 412:../../../core/drivers/TCS3472/src/TCS3472.c **** }
 1858              		.loc 1 412 1 view .LVU427
 1859 0054 08BD     		pop	{r3, pc}
 1860              	.LVL161:
 1861              	.L102:
 396:../../../core/drivers/TCS3472/src/TCS3472.c ****             break;
 1862              		.loc 1 396 13 is_stmt 1 view .LVU428
 397:../../../core/drivers/TCS3472/src/TCS3472.c ****         case 55:
 1863              		.loc 1 397 13 view .LVU429
 408:../../../core/drivers/TCS3472/src/TCS3472.c ****         ack = writeSingleRegister( PERS, pers_byte );
 1864              		.loc 1 408 5 view .LVU430
 396:../../../core/drivers/TCS3472/src/TCS3472.c ****             break;
 1865              		.loc 1 396 23 is_stmt 0 view .LVU431
 1866 0056 0D21     		movs	r1, #13
 1867 0058 F9E7     		b	.L99
 1868              	.LVL162:
ARM GAS  C:\Users\tijsv\AppData\Local\Temp\ccU0OIRr.s 			page 41


 1869              	.L103:
 393:../../../core/drivers/TCS3472/src/TCS3472.c ****             break;
 1870              		.loc 1 393 13 is_stmt 1 view .LVU432
 394:../../../core/drivers/TCS3472/src/TCS3472.c ****         case 50:
 1871              		.loc 1 394 13 view .LVU433
 408:../../../core/drivers/TCS3472/src/TCS3472.c ****         ack = writeSingleRegister( PERS, pers_byte );
 1872              		.loc 1 408 5 view .LVU434
 393:../../../core/drivers/TCS3472/src/TCS3472.c ****             break;
 1873              		.loc 1 393 23 is_stmt 0 view .LVU435
 1874 005a 0C21     		movs	r1, #12
 1875 005c F7E7     		b	.L99
 1876              	.LVL163:
 1877              	.L104:
 390:../../../core/drivers/TCS3472/src/TCS3472.c ****             break;
 1878              		.loc 1 390 13 is_stmt 1 view .LVU436
 391:../../../core/drivers/TCS3472/src/TCS3472.c ****         case 45:
 1879              		.loc 1 391 13 view .LVU437
 408:../../../core/drivers/TCS3472/src/TCS3472.c ****         ack = writeSingleRegister( PERS, pers_byte );
 1880              		.loc 1 408 5 view .LVU438
 390:../../../core/drivers/TCS3472/src/TCS3472.c ****             break;
 1881              		.loc 1 390 23 is_stmt 0 view .LVU439
 1882 005e 0B21     		movs	r1, #11
 1883 0060 F5E7     		b	.L99
 1884              	.LVL164:
 1885              	.L105:
 387:../../../core/drivers/TCS3472/src/TCS3472.c ****             break;
 1886              		.loc 1 387 13 is_stmt 1 view .LVU440
 388:../../../core/drivers/TCS3472/src/TCS3472.c ****         case 40:
 1887              		.loc 1 388 13 view .LVU441
 408:../../../core/drivers/TCS3472/src/TCS3472.c ****         ack = writeSingleRegister( PERS, pers_byte );
 1888              		.loc 1 408 5 view .LVU442
 387:../../../core/drivers/TCS3472/src/TCS3472.c ****             break;
 1889              		.loc 1 387 23 is_stmt 0 view .LVU443
 1890 0062 0A21     		movs	r1, #10
 1891 0064 F3E7     		b	.L99
 1892              	.LVL165:
 1893              	.L106:
 384:../../../core/drivers/TCS3472/src/TCS3472.c ****             break;
 1894              		.loc 1 384 13 is_stmt 1 view .LVU444
 385:../../../core/drivers/TCS3472/src/TCS3472.c ****         case 35:
 1895              		.loc 1 385 13 view .LVU445
 408:../../../core/drivers/TCS3472/src/TCS3472.c ****         ack = writeSingleRegister( PERS, pers_byte );
 1896              		.loc 1 408 5 view .LVU446
 384:../../../core/drivers/TCS3472/src/TCS3472.c ****             break;
 1897              		.loc 1 384 23 is_stmt 0 view .LVU447
 1898 0066 0921     		movs	r1, #9
 1899 0068 F1E7     		b	.L99
 1900              	.LVL166:
 1901              	.L107:
 381:../../../core/drivers/TCS3472/src/TCS3472.c ****             break;
 1902              		.loc 1 381 13 is_stmt 1 view .LVU448
 382:../../../core/drivers/TCS3472/src/TCS3472.c ****         case 30:
 1903              		.loc 1 382 13 view .LVU449
 408:../../../core/drivers/TCS3472/src/TCS3472.c ****         ack = writeSingleRegister( PERS, pers_byte );
 1904              		.loc 1 408 5 view .LVU450
 381:../../../core/drivers/TCS3472/src/TCS3472.c ****             break;
 1905              		.loc 1 381 23 is_stmt 0 view .LVU451
ARM GAS  C:\Users\tijsv\AppData\Local\Temp\ccU0OIRr.s 			page 42


 1906 006a 0821     		movs	r1, #8
 1907 006c EFE7     		b	.L99
 1908              	.LVL167:
 1909              	.L108:
 378:../../../core/drivers/TCS3472/src/TCS3472.c ****             break;
 1910              		.loc 1 378 13 is_stmt 1 view .LVU452
 379:../../../core/drivers/TCS3472/src/TCS3472.c ****         case 25:
 1911              		.loc 1 379 13 view .LVU453
 408:../../../core/drivers/TCS3472/src/TCS3472.c ****         ack = writeSingleRegister( PERS, pers_byte );
 1912              		.loc 1 408 5 view .LVU454
 378:../../../core/drivers/TCS3472/src/TCS3472.c ****             break;
 1913              		.loc 1 378 23 is_stmt 0 view .LVU455
 1914 006e 0721     		movs	r1, #7
 1915 0070 EDE7     		b	.L99
 1916              	.LVL168:
 1917              	.L109:
 375:../../../core/drivers/TCS3472/src/TCS3472.c ****             break;
 1918              		.loc 1 375 13 is_stmt 1 view .LVU456
 376:../../../core/drivers/TCS3472/src/TCS3472.c ****         case 20:
 1919              		.loc 1 376 13 view .LVU457
 408:../../../core/drivers/TCS3472/src/TCS3472.c ****         ack = writeSingleRegister( PERS, pers_byte );
 1920              		.loc 1 408 5 view .LVU458
 375:../../../core/drivers/TCS3472/src/TCS3472.c ****             break;
 1921              		.loc 1 375 23 is_stmt 0 view .LVU459
 1922 0072 0621     		movs	r1, #6
 1923 0074 EBE7     		b	.L99
 1924              	.LVL169:
 1925              	.L110:
 372:../../../core/drivers/TCS3472/src/TCS3472.c ****             break;
 1926              		.loc 1 372 13 is_stmt 1 view .LVU460
 373:../../../core/drivers/TCS3472/src/TCS3472.c ****         case 15:
 1927              		.loc 1 373 13 view .LVU461
 408:../../../core/drivers/TCS3472/src/TCS3472.c ****         ack = writeSingleRegister( PERS, pers_byte );
 1928              		.loc 1 408 5 view .LVU462
 372:../../../core/drivers/TCS3472/src/TCS3472.c ****             break;
 1929              		.loc 1 372 23 is_stmt 0 view .LVU463
 1930 0076 0521     		movs	r1, #5
 1931 0078 E9E7     		b	.L99
 1932              	.LVL170:
 1933              	.L111:
 369:../../../core/drivers/TCS3472/src/TCS3472.c ****             break;
 1934              		.loc 1 369 13 is_stmt 1 view .LVU464
 370:../../../core/drivers/TCS3472/src/TCS3472.c ****         case 10:
 1935              		.loc 1 370 13 view .LVU465
 408:../../../core/drivers/TCS3472/src/TCS3472.c ****         ack = writeSingleRegister( PERS, pers_byte );
 1936              		.loc 1 408 5 view .LVU466
 369:../../../core/drivers/TCS3472/src/TCS3472.c ****             break;
 1937              		.loc 1 369 23 is_stmt 0 view .LVU467
 1938 007a 0421     		movs	r1, #4
 1939 007c E7E7     		b	.L99
 1940              	.LVL171:
 1941              	.L112:
 366:../../../core/drivers/TCS3472/src/TCS3472.c ****             break;
 1942              		.loc 1 366 13 is_stmt 1 view .LVU468
 367:../../../core/drivers/TCS3472/src/TCS3472.c ****         case 5:
 1943              		.loc 1 367 13 view .LVU469
 408:../../../core/drivers/TCS3472/src/TCS3472.c ****         ack = writeSingleRegister( PERS, pers_byte );
ARM GAS  C:\Users\tijsv\AppData\Local\Temp\ccU0OIRr.s 			page 43


 1944              		.loc 1 408 5 view .LVU470
 366:../../../core/drivers/TCS3472/src/TCS3472.c ****             break;
 1945              		.loc 1 366 23 is_stmt 0 view .LVU471
 1946 007e 0321     		movs	r1, #3
 1947 0080 E5E7     		b	.L99
 1948              	.LVL172:
 1949              	.L113:
 363:../../../core/drivers/TCS3472/src/TCS3472.c ****             break;
 1950              		.loc 1 363 13 is_stmt 1 view .LVU472
 364:../../../core/drivers/TCS3472/src/TCS3472.c ****         case 3:
 1951              		.loc 1 364 13 view .LVU473
 408:../../../core/drivers/TCS3472/src/TCS3472.c ****         ack = writeSingleRegister( PERS, pers_byte );
 1952              		.loc 1 408 5 view .LVU474
 363:../../../core/drivers/TCS3472/src/TCS3472.c ****             break;
 1953              		.loc 1 363 23 is_stmt 0 view .LVU475
 1954 0082 0221     		movs	r1, #2
 1955 0084 E3E7     		b	.L99
 1956              	.LVL173:
 1957              	.L114:
 360:../../../core/drivers/TCS3472/src/TCS3472.c ****             break;
 1958              		.loc 1 360 13 is_stmt 1 view .LVU476
 361:../../../core/drivers/TCS3472/src/TCS3472.c ****         case 2:
 1959              		.loc 1 361 13 view .LVU477
 408:../../../core/drivers/TCS3472/src/TCS3472.c ****         ack = writeSingleRegister( PERS, pers_byte );
 1960              		.loc 1 408 5 view .LVU478
 360:../../../core/drivers/TCS3472/src/TCS3472.c ****             break;
 1961              		.loc 1 360 23 is_stmt 0 view .LVU479
 1962 0086 0121     		movs	r1, #1
 1963 0088 E1E7     		b	.L99
 1964              	.LVL174:
 1965              	.L117:
 402:../../../core/drivers/TCS3472/src/TCS3472.c ****             break;
 1966              		.loc 1 402 23 view .LVU480
 1967 008a 0F21     		movs	r1, #15
 1968 008c DFE7     		b	.L99
 1969              	.L116:
 366:../../../core/drivers/TCS3472/src/TCS3472.c ****             break;
 1970              		.loc 1 366 23 view .LVU481
 1971 008e 0220     		movs	r0, #2
 1972              	.LVL175:
 411:../../../core/drivers/TCS3472/src/TCS3472.c **** }
 1973              		.loc 1 411 5 is_stmt 1 view .LVU482
 411:../../../core/drivers/TCS3472/src/TCS3472.c **** }
 1974              		.loc 1 411 12 is_stmt 0 view .LVU483
 1975 0090 E0E7     		b	.L97
 1976              		.cfi_endproc
 1977              	.LFE167:
 1979              		.section	.text.clearInterrupt,"ax",%progbits
 1980              		.align	1
 1981              		.global	clearInterrupt
 1982              		.syntax unified
 1983              		.thumb
 1984              		.thumb_func
 1985              		.fpu fpv4-sp-d16
 1987              	clearInterrupt:
 1988              	.LFB168:
 413:../../../core/drivers/TCS3472/src/TCS3472.c **** 
ARM GAS  C:\Users\tijsv\AppData\Local\Temp\ccU0OIRr.s 			page 44


 414:../../../core/drivers/TCS3472/src/TCS3472.c **** int  clearInterrupt(){
 1989              		.loc 1 414 22 is_stmt 1 view -0
 1990              		.cfi_startproc
 1991              		@ args = 0, pretend = 0, frame = 8
 1992              		@ frame_needed = 0, uses_anonymous_args = 0
 1993 0000 00B5     		push	{lr}
 1994              	.LCFI62:
 1995              		.cfi_def_cfa_offset 4
 1996              		.cfi_offset 14, -4
 1997 0002 83B0     		sub	sp, sp, #12
 1998              	.LCFI63:
 1999              		.cfi_def_cfa_offset 16
 415:../../../core/drivers/TCS3472/src/TCS3472.c ****     uint8_t tx[1];
 2000              		.loc 1 415 5 view .LVU485
 416:../../../core/drivers/TCS3472/src/TCS3472.c ****     tx[0]= 230;
 2001              		.loc 1 416 5 view .LVU486
 2002              		.loc 1 416 10 is_stmt 0 view .LVU487
 2003 0004 E623     		movs	r3, #230
 2004 0006 8DF80430 		strb	r3, [sp, #4]
 417:../../../core/drivers/TCS3472/src/TCS3472.c ****     int ack=WRITE_REGISTER_TC3472(tx,1);
 2005              		.loc 1 417 5 is_stmt 1 view .LVU488
 2006              		.loc 1 417 13 is_stmt 0 view .LVU489
 2007 000a 0121     		movs	r1, #1
 2008 000c 01A8     		add	r0, sp, #4
 2009 000e FFF7FEFF 		bl	WRITE_REGISTER_TC3472
 2010              	.LVL176:
 418:../../../core/drivers/TCS3472/src/TCS3472.c ****     //int ack = i2c.write( SLAVE_ADDRESS << 1, &tx, 1 );
 419:../../../core/drivers/TCS3472/src/TCS3472.c ****     return ack;
 2011              		.loc 1 419 5 is_stmt 1 view .LVU490
 420:../../../core/drivers/TCS3472/src/TCS3472.c **** }
 2012              		.loc 1 420 1 is_stmt 0 view .LVU491
 2013 0012 03B0     		add	sp, sp, #12
 2014              	.LCFI64:
 2015              		.cfi_def_cfa_offset 4
 2016              		@ sp needed
 2017 0014 5DF804FB 		ldr	pc, [sp], #4
 2018              		.cfi_endproc
 2019              	.LFE168:
 2021              		.section	.text.readRGBCGain,"ax",%progbits
 2022              		.align	1
 2023              		.global	readRGBCGain
 2024              		.syntax unified
 2025              		.thumb
 2026              		.thumb_func
 2027              		.fpu fpv4-sp-d16
 2029              	readRGBCGain:
 2030              	.LFB169:
 421:../../../core/drivers/TCS3472/src/TCS3472.c **** 
 422:../../../core/drivers/TCS3472/src/TCS3472.c **** int  readRGBCGain(){
 2031              		.loc 1 422 20 is_stmt 1 view -0
 2032              		.cfi_startproc
 2033              		@ args = 0, pretend = 0, frame = 0
 2034              		@ frame_needed = 0, uses_anonymous_args = 0
 2035 0000 08B5     		push	{r3, lr}
 2036              	.LCFI65:
 2037              		.cfi_def_cfa_offset 8
 2038              		.cfi_offset 3, -8
ARM GAS  C:\Users\tijsv\AppData\Local\Temp\ccU0OIRr.s 			page 45


 2039              		.cfi_offset 14, -4
 423:../../../core/drivers/TCS3472/src/TCS3472.c ****     uint8_t control = readSingleRegister( CONTROL );
 2040              		.loc 1 423 5 view .LVU493
 2041              		.loc 1 423 23 is_stmt 0 view .LVU494
 2042 0002 0F20     		movs	r0, #15
 2043 0004 FFF7FEFF 		bl	readSingleRegister
 2044              	.LVL177:
 424:../../../core/drivers/TCS3472/src/TCS3472.c ****     uint8_t gain_bits = ( control << 6 ) >> 6; // discard  bits 2 to 7, keep only bits 0 & 1
 2045              		.loc 1 424 5 is_stmt 1 view .LVU495
 425:../../../core/drivers/TCS3472/src/TCS3472.c ****     int gain;
 2046              		.loc 1 425 5 view .LVU496
 426:../../../core/drivers/TCS3472/src/TCS3472.c ****     switch (gain_bits) {
 2047              		.loc 1 426 5 view .LVU497
 2048 0008 C0B2     		uxtb	r0, r0
 2049              	.LVL178:
 2050              		.loc 1 426 5 is_stmt 0 view .LVU498
 2051 000a 0328     		cmp	r0, #3
 2052 000c 09D8     		bhi	.L122
 2053 000e DFE800F0 		tbb	[pc, r0]
 2054              	.L124:
 2055 0012 02       		.byte	(.L127-.L124)/2
 2056 0013 0A       		.byte	(.L128-.L124)/2
 2057 0014 04       		.byte	(.L125-.L124)/2
 2058 0015 06       		.byte	(.L123-.L124)/2
 2059              		.p2align 1
 2060              	.L127:
 424:../../../core/drivers/TCS3472/src/TCS3472.c ****     uint8_t gain_bits = ( control << 6 ) >> 6; // discard  bits 2 to 7, keep only bits 0 & 1
 2061              		.loc 1 424 42 view .LVU499
 2062 0016 0120     		movs	r0, #1
 2063              	.LVL179:
 2064              	.L121:
 427:../../../core/drivers/TCS3472/src/TCS3472.c ****         case 0:
 428:../../../core/drivers/TCS3472/src/TCS3472.c ****             gain = 1;
 429:../../../core/drivers/TCS3472/src/TCS3472.c ****             break;
 430:../../../core/drivers/TCS3472/src/TCS3472.c ****         case 1:
 431:../../../core/drivers/TCS3472/src/TCS3472.c ****             gain = 4;
 432:../../../core/drivers/TCS3472/src/TCS3472.c ****             break;
 433:../../../core/drivers/TCS3472/src/TCS3472.c ****         case 2:
 434:../../../core/drivers/TCS3472/src/TCS3472.c ****             gain = 16;
 435:../../../core/drivers/TCS3472/src/TCS3472.c ****             break;
 436:../../../core/drivers/TCS3472/src/TCS3472.c ****         case 3:
 437:../../../core/drivers/TCS3472/src/TCS3472.c ****             gain = 60;
 438:../../../core/drivers/TCS3472/src/TCS3472.c ****             break;
 439:../../../core/drivers/TCS3472/src/TCS3472.c ****         default:
 440:../../../core/drivers/TCS3472/src/TCS3472.c ****             gain = 0;
 441:../../../core/drivers/TCS3472/src/TCS3472.c ****             break;
 442:../../../core/drivers/TCS3472/src/TCS3472.c ****     }
 443:../../../core/drivers/TCS3472/src/TCS3472.c ****     return gain;
 444:../../../core/drivers/TCS3472/src/TCS3472.c **** }
 2065              		.loc 1 444 1 view .LVU500
 2066 0018 08BD     		pop	{r3, pc}
 2067              	.LVL180:
 2068              	.L125:
 434:../../../core/drivers/TCS3472/src/TCS3472.c ****             break;
 2069              		.loc 1 434 13 is_stmt 1 view .LVU501
 435:../../../core/drivers/TCS3472/src/TCS3472.c ****         case 3:
 2070              		.loc 1 435 13 view .LVU502
ARM GAS  C:\Users\tijsv\AppData\Local\Temp\ccU0OIRr.s 			page 46


 434:../../../core/drivers/TCS3472/src/TCS3472.c ****             break;
 2071              		.loc 1 434 18 is_stmt 0 view .LVU503
 2072 001a 1020     		movs	r0, #16
 2073              	.LVL181:
 435:../../../core/drivers/TCS3472/src/TCS3472.c ****         case 3:
 2074              		.loc 1 435 13 view .LVU504
 2075 001c FCE7     		b	.L121
 2076              	.LVL182:
 2077              	.L123:
 437:../../../core/drivers/TCS3472/src/TCS3472.c ****             break;
 2078              		.loc 1 437 13 is_stmt 1 view .LVU505
 438:../../../core/drivers/TCS3472/src/TCS3472.c ****         default:
 2079              		.loc 1 438 13 view .LVU506
 437:../../../core/drivers/TCS3472/src/TCS3472.c ****             break;
 2080              		.loc 1 437 18 is_stmt 0 view .LVU507
 2081 001e 3C20     		movs	r0, #60
 2082              	.LVL183:
 438:../../../core/drivers/TCS3472/src/TCS3472.c ****         default:
 2083              		.loc 1 438 13 view .LVU508
 2084 0020 FAE7     		b	.L121
 2085              	.LVL184:
 2086              	.L122:
 440:../../../core/drivers/TCS3472/src/TCS3472.c ****             break;
 2087              		.loc 1 440 13 is_stmt 1 view .LVU509
 441:../../../core/drivers/TCS3472/src/TCS3472.c ****     }
 2088              		.loc 1 441 13 view .LVU510
 440:../../../core/drivers/TCS3472/src/TCS3472.c ****             break;
 2089              		.loc 1 440 18 is_stmt 0 view .LVU511
 2090 0022 0020     		movs	r0, #0
 2091              	.LVL185:
 441:../../../core/drivers/TCS3472/src/TCS3472.c ****     }
 2092              		.loc 1 441 13 view .LVU512
 2093 0024 F8E7     		b	.L121
 2094              	.LVL186:
 2095              	.L128:
 431:../../../core/drivers/TCS3472/src/TCS3472.c ****             break;
 2096              		.loc 1 431 18 view .LVU513
 2097 0026 0420     		movs	r0, #4
 2098              	.LVL187:
 443:../../../core/drivers/TCS3472/src/TCS3472.c **** }
 2099              		.loc 1 443 5 is_stmt 1 view .LVU514
 443:../../../core/drivers/TCS3472/src/TCS3472.c **** }
 2100              		.loc 1 443 12 is_stmt 0 view .LVU515
 2101 0028 F6E7     		b	.L121
 2102              		.cfi_endproc
 2103              	.LFE169:
 2105              		.section	.text.setRGBCGain,"ax",%progbits
 2106              		.align	1
 2107              		.global	setRGBCGain
 2108              		.syntax unified
 2109              		.thumb
 2110              		.thumb_func
 2111              		.fpu fpv4-sp-d16
 2113              	setRGBCGain:
 2114              	.LVL188:
 2115              	.LFB170:
 445:../../../core/drivers/TCS3472/src/TCS3472.c **** 
ARM GAS  C:\Users\tijsv\AppData\Local\Temp\ccU0OIRr.s 			page 47


 446:../../../core/drivers/TCS3472/src/TCS3472.c **** int  setRGBCGain( const int gain ){
 2116              		.loc 1 446 35 is_stmt 1 view -0
 2117              		.cfi_startproc
 2118              		@ args = 0, pretend = 0, frame = 0
 2119              		@ frame_needed = 0, uses_anonymous_args = 0
 447:../../../core/drivers/TCS3472/src/TCS3472.c ****     uint8_t control;
 2120              		.loc 1 447 5 view .LVU517
 448:../../../core/drivers/TCS3472/src/TCS3472.c ****     int ack = 0;
 2121              		.loc 1 448 5 view .LVU518
 449:../../../core/drivers/TCS3472/src/TCS3472.c ****     switch (gain){
 2122              		.loc 1 449 5 view .LVU519
 2123 0000 1028     		cmp	r0, #16
 2124 0002 10D0     		beq	.L134
 2125 0004 0BDC     		bgt	.L132
 2126 0006 0128     		cmp	r0, #1
 2127 0008 0FD0     		beq	.L135
 2128 000a 0428     		cmp	r0, #4
 2129 000c 05D1     		bne	.L141
 450:../../../core/drivers/TCS3472/src/TCS3472.c ****         case 1:
 451:../../../core/drivers/TCS3472/src/TCS3472.c ****             control = 0;
 452:../../../core/drivers/TCS3472/src/TCS3472.c ****             break;
 453:../../../core/drivers/TCS3472/src/TCS3472.c ****         case 4:
 454:../../../core/drivers/TCS3472/src/TCS3472.c ****             control = 1;
 2130              		.loc 1 454 21 is_stmt 0 view .LVU520
 2131 000e 0121     		movs	r1, #1
 2132              	.L131:
 446:../../../core/drivers/TCS3472/src/TCS3472.c ****     uint8_t control;
 2133              		.loc 1 446 35 view .LVU521
 2134 0010 08B5     		push	{r3, lr}
 2135              	.LCFI66:
 2136              		.cfi_def_cfa_offset 8
 2137              		.cfi_offset 3, -8
 2138              		.cfi_offset 14, -4
 2139              	.LVL189:
 455:../../../core/drivers/TCS3472/src/TCS3472.c ****             break;
 456:../../../core/drivers/TCS3472/src/TCS3472.c ****         case 16:
 457:../../../core/drivers/TCS3472/src/TCS3472.c ****             control = 2;
 458:../../../core/drivers/TCS3472/src/TCS3472.c ****             break;
 459:../../../core/drivers/TCS3472/src/TCS3472.c ****         case 60:
 460:../../../core/drivers/TCS3472/src/TCS3472.c ****             control = 3;
 461:../../../core/drivers/TCS3472/src/TCS3472.c ****             break;
 462:../../../core/drivers/TCS3472/src/TCS3472.c ****         default:
 463:../../../core/drivers/TCS3472/src/TCS3472.c ****             ack = 2; // 2 used to indicate invalid entry
 464:../../../core/drivers/TCS3472/src/TCS3472.c ****             break;
 465:../../../core/drivers/TCS3472/src/TCS3472.c ****     }
 466:../../../core/drivers/TCS3472/src/TCS3472.c ****     if ( ack != 2 ){
 467:../../../core/drivers/TCS3472/src/TCS3472.c ****         ack = writeSingleRegister( CONTROL, control );
 2140              		.loc 1 467 9 is_stmt 1 view .LVU522
 2141              		.loc 1 467 15 is_stmt 0 view .LVU523
 2142 0012 0F20     		movs	r0, #15
 2143              	.LVL190:
 2144              		.loc 1 467 15 view .LVU524
 2145 0014 FFF7FEFF 		bl	writeSingleRegister
 2146              	.LVL191:
 468:../../../core/drivers/TCS3472/src/TCS3472.c ****     }
 469:../../../core/drivers/TCS3472/src/TCS3472.c ****     return ack;
 470:../../../core/drivers/TCS3472/src/TCS3472.c **** }
ARM GAS  C:\Users\tijsv\AppData\Local\Temp\ccU0OIRr.s 			page 48


 2147              		.loc 1 470 1 view .LVU525
 2148 0018 08BD     		pop	{r3, pc}
 2149              	.LVL192:
 2150              	.L141:
 2151              	.LCFI67:
 2152              		.cfi_def_cfa_offset 0
 2153              		.cfi_restore 3
 2154              		.cfi_restore 14
 449:../../../core/drivers/TCS3472/src/TCS3472.c ****         case 1:
 2155              		.loc 1 449 5 view .LVU526
 2156 001a 0220     		movs	r0, #2
 2157              	.LVL193:
 449:../../../core/drivers/TCS3472/src/TCS3472.c ****         case 1:
 2158              		.loc 1 449 5 view .LVU527
 2159 001c 7047     		bx	lr
 2160              	.LVL194:
 2161              	.L132:
 449:../../../core/drivers/TCS3472/src/TCS3472.c ****         case 1:
 2162              		.loc 1 449 5 view .LVU528
 2163 001e 3C28     		cmp	r0, #60
 2164 0020 05D1     		bne	.L137
 460:../../../core/drivers/TCS3472/src/TCS3472.c ****             break;
 2165              		.loc 1 460 21 view .LVU529
 2166 0022 0321     		movs	r1, #3
 2167 0024 F4E7     		b	.L131
 2168              	.L134:
 457:../../../core/drivers/TCS3472/src/TCS3472.c ****             break;
 2169              		.loc 1 457 21 view .LVU530
 2170 0026 0221     		movs	r1, #2
 2171 0028 F2E7     		b	.L131
 2172              	.L135:
 449:../../../core/drivers/TCS3472/src/TCS3472.c ****         case 1:
 2173              		.loc 1 449 5 view .LVU531
 2174 002a 0021     		movs	r1, #0
 2175 002c F0E7     		b	.L131
 2176              	.L137:
 449:../../../core/drivers/TCS3472/src/TCS3472.c ****         case 1:
 2177              		.loc 1 449 5 view .LVU532
 2178 002e 0220     		movs	r0, #2
 2179              	.LVL195:
 469:../../../core/drivers/TCS3472/src/TCS3472.c **** }
 2180              		.loc 1 469 5 is_stmt 1 view .LVU533
 2181              		.loc 1 470 1 is_stmt 0 view .LVU534
 2182 0030 7047     		bx	lr
 2183              		.cfi_endproc
 2184              	.LFE170:
 2186              		.section	.text.getDeviceID,"ax",%progbits
 2187              		.align	1
 2188              		.global	getDeviceID
 2189              		.syntax unified
 2190              		.thumb
 2191              		.thumb_func
 2192              		.fpu fpv4-sp-d16
 2194              	getDeviceID:
 2195              	.LFB171:
 471:../../../core/drivers/TCS3472/src/TCS3472.c **** 
 472:../../../core/drivers/TCS3472/src/TCS3472.c **** uint8_t  getDeviceID(){
ARM GAS  C:\Users\tijsv\AppData\Local\Temp\ccU0OIRr.s 			page 49


 2196              		.loc 1 472 23 is_stmt 1 view -0
 2197              		.cfi_startproc
 2198              		@ args = 0, pretend = 0, frame = 0
 2199              		@ frame_needed = 0, uses_anonymous_args = 0
 2200 0000 08B5     		push	{r3, lr}
 2201              	.LCFI68:
 2202              		.cfi_def_cfa_offset 8
 2203              		.cfi_offset 3, -8
 2204              		.cfi_offset 14, -4
 473:../../../core/drivers/TCS3472/src/TCS3472.c ****     return readSingleRegister( ID );
 2205              		.loc 1 473 5 view .LVU536
 2206              		.loc 1 473 12 is_stmt 0 view .LVU537
 2207 0002 1220     		movs	r0, #18
 2208 0004 FFF7FEFF 		bl	readSingleRegister
 2209              	.LVL196:
 474:../../../core/drivers/TCS3472/src/TCS3472.c **** }
 2210              		.loc 1 474 1 view .LVU538
 2211 0008 08BD     		pop	{r3, pc}
 2212              		.cfi_endproc
 2213              	.LFE171:
 2215              		.section	.text.readStatusRegister,"ax",%progbits
 2216              		.align	1
 2217              		.global	readStatusRegister
 2218              		.syntax unified
 2219              		.thumb
 2220              		.thumb_func
 2221              		.fpu fpv4-sp-d16
 2223              	readStatusRegister:
 2224              	.LFB172:
 475:../../../core/drivers/TCS3472/src/TCS3472.c **** 
 476:../../../core/drivers/TCS3472/src/TCS3472.c **** uint8_t  readStatusRegister(){
 2225              		.loc 1 476 30 is_stmt 1 view -0
 2226              		.cfi_startproc
 2227              		@ args = 0, pretend = 0, frame = 0
 2228              		@ frame_needed = 0, uses_anonymous_args = 0
 2229 0000 08B5     		push	{r3, lr}
 2230              	.LCFI69:
 2231              		.cfi_def_cfa_offset 8
 2232              		.cfi_offset 3, -8
 2233              		.cfi_offset 14, -4
 477:../../../core/drivers/TCS3472/src/TCS3472.c ****     return readSingleRegister( STATUS );
 2234              		.loc 1 477 5 view .LVU540
 2235              		.loc 1 477 12 is_stmt 0 view .LVU541
 2236 0002 1320     		movs	r0, #19
 2237 0004 FFF7FEFF 		bl	readSingleRegister
 2238              	.LVL197:
 478:../../../core/drivers/TCS3472/src/TCS3472.c **** }
 2239              		.loc 1 478 1 view .LVU542
 2240 0008 08BD     		pop	{r3, pc}
 2241              		.cfi_endproc
 2242              	.LFE172:
 2244              		.global	__aeabi_f2d
 2245              		.section	.text.roundTowardsZero,"ax",%progbits
 2246              		.align	1
 2247              		.global	roundTowardsZero
 2248              		.syntax unified
 2249              		.thumb
ARM GAS  C:\Users\tijsv\AppData\Local\Temp\ccU0OIRr.s 			page 50


 2250              		.thumb_func
 2251              		.fpu fpv4-sp-d16
 2253              	roundTowardsZero:
 2254              	.LVL198:
 2255              	.LFB173:
 479:../../../core/drivers/TCS3472/src/TCS3472.c **** 
 480:../../../core/drivers/TCS3472/src/TCS3472.c **** float  roundTowardsZero( const float value ){
 2256              		.loc 1 480 45 is_stmt 1 view -0
 2257              		.cfi_startproc
 2258              		@ args = 0, pretend = 0, frame = 0
 2259              		@ frame_needed = 0, uses_anonymous_args = 0
 2260              		.loc 1 480 45 is_stmt 0 view .LVU544
 2261 0000 08B5     		push	{r3, lr}
 2262              	.LCFI70:
 2263              		.cfi_def_cfa_offset 8
 2264              		.cfi_offset 3, -8
 2265              		.cfi_offset 14, -4
 481:../../../core/drivers/TCS3472/src/TCS3472.c ****     float result = 0;
 2266              		.loc 1 481 5 is_stmt 1 view .LVU545
 2267              	.LVL199:
 482:../../../core/drivers/TCS3472/src/TCS3472.c ****     if ( ( value >= 0 && ( value - (int)value ) < 0.5 ) || ( value < 0 && ( abs(value) - (int)abs(v
 2268              		.loc 1 482 5 view .LVU546
 2269              		.loc 1 482 8 is_stmt 0 view .LVU547
 2270 0002 B5EEC00A 		vcmpe.f32	s0, #0
 2271 0006 F1EE10FA 		vmrs	APSR_nzcv, FPSCR
 2272 000a 1BDB     		blt	.L147
 2273              		.loc 1 482 36 discriminator 1 view .LVU548
 2274 000c FDEEC07A 		vcvt.s32.f32	s15, s0
 2275              		.loc 1 482 34 discriminator 1 view .LVU549
 2276 0010 F8EEE77A 		vcvt.f32.s32	s15, s15
 2277 0014 70EE677A 		vsub.f32	s15, s0, s15
 2278              		.loc 1 482 57 discriminator 1 view .LVU550
 2279 0018 B6EE007A 		vmov.f32	s14, #5.0e-1
 2280 001c F4EEC77A 		vcmpe.f32	s15, s14
 2281 0020 F1EE10FA 		vmrs	APSR_nzcv, FPSCR
 2282 0024 0ED5     		bpl	.L147
 483:../../../core/drivers/TCS3472/src/TCS3472.c ****         result = floor(value);
 2283              		.loc 1 483 9 is_stmt 1 view .LVU551
 2284              		.loc 1 483 18 is_stmt 0 view .LVU552
 2285 0026 10EE100A 		vmov	r0, s0
 2286 002a FFF7FEFF 		bl	__aeabi_f2d
 2287              	.LVL200:
 2288              		.loc 1 483 18 view .LVU553
 2289 002e 41EC100B 		vmov	d0, r0, r1
 2290 0032 FFF7FEFF 		bl	floor
 2291              	.LVL201:
 2292 0036 51EC100B 		vmov	r0, r1, d0
 2293              		.loc 1 483 16 view .LVU554
 2294 003a FFF7FEFF 		bl	__aeabi_d2f
 2295              	.LVL202:
 2296 003e 00EE100A 		vmov	s0, r0
 2297              	.LVL203:
 2298              		.loc 1 483 16 view .LVU555
 2299 0042 0DE0     		b	.L146
 2300              	.LVL204:
 2301              	.L147:
 484:../../../core/drivers/TCS3472/src/TCS3472.c ****     }
ARM GAS  C:\Users\tijsv\AppData\Local\Temp\ccU0OIRr.s 			page 51


 485:../../../core/drivers/TCS3472/src/TCS3472.c ****     else{
 486:../../../core/drivers/TCS3472/src/TCS3472.c ****         result = ceil(value);
 2302              		.loc 1 486 9 is_stmt 1 view .LVU556
 2303              		.loc 1 486 18 is_stmt 0 view .LVU557
 2304 0044 10EE100A 		vmov	r0, s0
 2305 0048 FFF7FEFF 		bl	__aeabi_f2d
 2306              	.LVL205:
 2307              		.loc 1 486 18 view .LVU558
 2308 004c 41EC100B 		vmov	d0, r0, r1
 2309 0050 FFF7FEFF 		bl	ceil
 2310              	.LVL206:
 2311 0054 51EC100B 		vmov	r0, r1, d0
 2312              		.loc 1 486 16 view .LVU559
 2313 0058 FFF7FEFF 		bl	__aeabi_d2f
 2314              	.LVL207:
 2315 005c 00EE100A 		vmov	s0, r0
 2316              	.LVL208:
 487:../../../core/drivers/TCS3472/src/TCS3472.c ****     }
 488:../../../core/drivers/TCS3472/src/TCS3472.c ****     return result;
 2317              		.loc 1 488 5 is_stmt 1 view .LVU560
 2318              	.L146:
 489:../../../core/drivers/TCS3472/src/TCS3472.c **** }
 2319              		.loc 1 489 1 is_stmt 0 view .LVU561
 2320 0060 08BD     		pop	{r3, pc}
 2321              		.cfi_endproc
 2322              	.LFE173:
 2324              		.global	__aeabi_ddiv
 2325              		.section	.text.setIntegrationTime,"ax",%progbits
 2326              		.align	1
 2327              		.global	setIntegrationTime
 2328              		.syntax unified
 2329              		.thumb
 2330              		.thumb_func
 2331              		.fpu fpv4-sp-d16
 2333              	setIntegrationTime:
 2334              	.LVL209:
 2335              	.LFB157:
 217:../../../core/drivers/TCS3472/src/TCS3472.c ****     uint8_t atime = 256 - roundTowardsZero( itime / 2.4 ); // rounding ensures nearest value of ati
 2336              		.loc 1 217 45 is_stmt 1 view -0
 2337              		.cfi_startproc
 2338              		@ args = 0, pretend = 0, frame = 8
 2339              		@ frame_needed = 0, uses_anonymous_args = 0
 217:../../../core/drivers/TCS3472/src/TCS3472.c ****     uint8_t atime = 256 - roundTowardsZero( itime / 2.4 ); // rounding ensures nearest value of ati
 2340              		.loc 1 217 45 is_stmt 0 view .LVU563
 2341 0000 00B5     		push	{lr}
 2342              	.LCFI71:
 2343              		.cfi_def_cfa_offset 4
 2344              		.cfi_offset 14, -4
 2345 0002 83B0     		sub	sp, sp, #12
 2346              	.LCFI72:
 2347              		.cfi_def_cfa_offset 16
 2348 0004 10EE100A 		vmov	r0, s0
 218:../../../core/drivers/TCS3472/src/TCS3472.c ****     int ack = writeSingleRegister( ATIME, atime );
 2349              		.loc 1 218 5 is_stmt 1 view .LVU564
 218:../../../core/drivers/TCS3472/src/TCS3472.c ****     int ack = writeSingleRegister( ATIME, atime );
 2350              		.loc 1 218 51 is_stmt 0 view .LVU565
 2351 0008 FFF7FEFF 		bl	__aeabi_f2d
ARM GAS  C:\Users\tijsv\AppData\Local\Temp\ccU0OIRr.s 			page 52


 2352              	.LVL210:
 218:../../../core/drivers/TCS3472/src/TCS3472.c ****     int ack = writeSingleRegister( ATIME, atime );
 2353              		.loc 1 218 51 view .LVU566
 2354 000c 0FA3     		adr	r3, .L156+4
 2355 000e D3E90023 		ldrd	r2, [r3]
 2356 0012 FFF7FEFF 		bl	__aeabi_ddiv
 2357              	.LVL211:
 218:../../../core/drivers/TCS3472/src/TCS3472.c ****     int ack = writeSingleRegister( ATIME, atime );
 2358              		.loc 1 218 27 view .LVU567
 2359 0016 FFF7FEFF 		bl	__aeabi_d2f
 2360              	.LVL212:
 2361 001a 00EE100A 		vmov	s0, r0
 2362 001e FFF7FEFF 		bl	roundTowardsZero
 2363              	.LVL213:
 218:../../../core/drivers/TCS3472/src/TCS3472.c ****     int ack = writeSingleRegister( ATIME, atime );
 2364              		.loc 1 218 25 view .LVU568
 2365 0022 DFED097A 		vldr.32	s15, .L156
 2366 0026 77EEC07A 		vsub.f32	s15, s15, s0
 218:../../../core/drivers/TCS3472/src/TCS3472.c ****     int ack = writeSingleRegister( ATIME, atime );
 2367              		.loc 1 218 13 view .LVU569
 2368 002a FCEEE77A 		vcvt.u32.f32	s15, s15
 2369 002e CDED017A 		vstr.32	s15, [sp, #4]	@ int
 2370              	.LVL214:
 219:../../../core/drivers/TCS3472/src/TCS3472.c ****     return ack;
 2371              		.loc 1 219 5 is_stmt 1 view .LVU570
 219:../../../core/drivers/TCS3472/src/TCS3472.c ****     return ack;
 2372              		.loc 1 219 15 is_stmt 0 view .LVU571
 2373 0032 9DF80410 		ldrb	r1, [sp, #4]	@ zero_extendqisi2
 2374 0036 0120     		movs	r0, #1
 2375 0038 FFF7FEFF 		bl	writeSingleRegister
 2376              	.LVL215:
 220:../../../core/drivers/TCS3472/src/TCS3472.c **** }
 2377              		.loc 1 220 5 is_stmt 1 view .LVU572
 221:../../../core/drivers/TCS3472/src/TCS3472.c **** 
 2378              		.loc 1 221 1 is_stmt 0 view .LVU573
 2379 003c 03B0     		add	sp, sp, #12
 2380              	.LCFI73:
 2381              		.cfi_def_cfa_offset 4
 2382              		@ sp needed
 2383 003e 5DF804FB 		ldr	pc, [sp], #4
 2384              	.LVL216:
 2385              	.L157:
 221:../../../core/drivers/TCS3472/src/TCS3472.c **** 
 2386              		.loc 1 221 1 view .LVU574
 2387 0042 00BFAFF3 		.align	3
 2387      0080
 2388              	.L156:
 2389 0048 00008043 		.word	1132462080
 2390 004c 33333333 		.word	858993459
 2391 0050 33330340 		.word	1073951539
 2392              		.cfi_endproc
 2393              	.LFE157:
 2395              		.section	.text.TC3472_init,"ax",%progbits
 2396              		.align	1
 2397              		.global	TC3472_init
 2398              		.syntax unified
 2399              		.thumb
ARM GAS  C:\Users\tijsv\AppData\Local\Temp\ccU0OIRr.s 			page 53


 2400              		.thumb_func
 2401              		.fpu fpv4-sp-d16
 2403              	TC3472_init:
 2404              	.LVL217:
 2405              	.LFB131:
  27:../../../core/drivers/TCS3472/src/TCS3472.c **** 	hi2cLib=hi2c;
 2406              		.loc 1 27 1 is_stmt 1 view -0
 2407              		.cfi_startproc
 2408              		@ args = 0, pretend = 0, frame = 0
 2409              		@ frame_needed = 0, uses_anonymous_args = 0
  27:../../../core/drivers/TCS3472/src/TCS3472.c **** 	hi2cLib=hi2c;
 2410              		.loc 1 27 1 is_stmt 0 view .LVU576
 2411 0000 08B5     		push	{r3, lr}
 2412              	.LCFI74:
 2413              		.cfi_def_cfa_offset 8
 2414              		.cfi_offset 3, -8
 2415              		.cfi_offset 14, -4
  28:../../../core/drivers/TCS3472/src/TCS3472.c ****     enablePowerAndRGBC();
 2416              		.loc 1 28 2 is_stmt 1 view .LVU577
  28:../../../core/drivers/TCS3472/src/TCS3472.c ****     enablePowerAndRGBC();
 2417              		.loc 1 28 9 is_stmt 0 view .LVU578
 2418 0002 044B     		ldr	r3, .L160
 2419 0004 1860     		str	r0, [r3]
  29:../../../core/drivers/TCS3472/src/TCS3472.c **** 	setIntegrationTime(100);
 2420              		.loc 1 29 5 is_stmt 1 view .LVU579
 2421 0006 FFF7FEFF 		bl	enablePowerAndRGBC
 2422              	.LVL218:
  30:../../../core/drivers/TCS3472/src/TCS3472.c **** }
 2423              		.loc 1 30 2 view .LVU580
 2424 000a 9FED030A 		vldr.32	s0, .L160+4
 2425 000e FFF7FEFF 		bl	setIntegrationTime
 2426              	.LVL219:
  31:../../../core/drivers/TCS3472/src/TCS3472.c **** uint8_t WRITE_REGISTER_TC3472(uint8_t pData[],uint8_t length)
 2427              		.loc 1 31 1 is_stmt 0 view .LVU581
 2428 0012 08BD     		pop	{r3, pc}
 2429              	.L161:
 2430              		.align	2
 2431              	.L160:
 2432 0014 00000000 		.word	hi2cLib
 2433 0018 0000C842 		.word	1120403456
 2434              		.cfi_endproc
 2435              	.LFE131:
 2437              		.global	__aeabi_dcmpge
 2438              		.global	__aeabi_dcmple
 2439              		.global	__aeabi_dcmpgt
 2440              		.section	.text.setWaitTime,"ax",%progbits
 2441              		.align	1
 2442              		.global	setWaitTime
 2443              		.syntax unified
 2444              		.thumb
 2445              		.thumb_func
 2446              		.fpu fpv4-sp-d16
 2448              	setWaitTime:
 2449              	.LVL220:
 2450              	.LFB159:
 230:../../../core/drivers/TCS3472/src/TCS3472.c ****     int ack = 1;
 2451              		.loc 1 230 37 is_stmt 1 view -0
ARM GAS  C:\Users\tijsv\AppData\Local\Temp\ccU0OIRr.s 			page 54


 2452              		.cfi_startproc
 2453              		@ args = 0, pretend = 0, frame = 8
 2454              		@ frame_needed = 0, uses_anonymous_args = 0
 230:../../../core/drivers/TCS3472/src/TCS3472.c ****     int ack = 1;
 2455              		.loc 1 230 37 is_stmt 0 view .LVU583
 2456 0000 70B5     		push	{r4, r5, r6, lr}
 2457              	.LCFI75:
 2458              		.cfi_def_cfa_offset 16
 2459              		.cfi_offset 4, -16
 2460              		.cfi_offset 5, -12
 2461              		.cfi_offset 6, -8
 2462              		.cfi_offset 14, -4
 2463 0002 82B0     		sub	sp, sp, #8
 2464              	.LCFI76:
 2465              		.cfi_def_cfa_offset 24
 2466 0004 10EE100A 		vmov	r0, s0
 231:../../../core/drivers/TCS3472/src/TCS3472.c ****     uint8_t wtime = 0;
 2467              		.loc 1 231 5 is_stmt 1 view .LVU584
 2468              	.LVL221:
 232:../../../core/drivers/TCS3472/src/TCS3472.c ****     if ( time >= 2.39 && time <= 614.4 ){ // 2.39 instead of 2.4 to allow for float accuracy errors
 2469              		.loc 1 232 5 view .LVU585
 233:../../../core/drivers/TCS3472/src/TCS3472.c ****         ack = writeSingleRegister( CONFIG, 0 ); // sets WLONG to 0
 2470              		.loc 1 233 5 view .LVU586
 233:../../../core/drivers/TCS3472/src/TCS3472.c ****         ack = writeSingleRegister( CONFIG, 0 ); // sets WLONG to 0
 2471              		.loc 1 233 15 is_stmt 0 view .LVU587
 2472 0008 FFF7FEFF 		bl	__aeabi_f2d
 2473              	.LVL222:
 233:../../../core/drivers/TCS3472/src/TCS3472.c ****         ack = writeSingleRegister( CONFIG, 0 ); // sets WLONG to 0
 2474              		.loc 1 233 15 view .LVU588
 2475 000c 0446     		mov	r4, r0
 2476 000e 0D46     		mov	r5, r1
 233:../../../core/drivers/TCS3472/src/TCS3472.c ****         ack = writeSingleRegister( CONFIG, 0 ); // sets WLONG to 0
 2477              		.loc 1 233 8 view .LVU589
 2478 0010 36A3     		adr	r3, .L184+12
 2479 0012 D3E90023 		ldrd	r2, [r3]
 2480 0016 FFF7FEFF 		bl	__aeabi_dcmpge
 2481              	.LVL223:
 2482 001a 38B1     		cbz	r0, .L163
 233:../../../core/drivers/TCS3472/src/TCS3472.c ****         ack = writeSingleRegister( CONFIG, 0 ); // sets WLONG to 0
 2483              		.loc 1 233 23 discriminator 1 view .LVU590
 2484 001c 35A3     		adr	r3, .L184+20
 2485 001e D3E90023 		ldrd	r2, [r3]
 2486 0022 2046     		mov	r0, r4
 2487 0024 2946     		mov	r1, r5
 2488 0026 FFF7FEFF 		bl	__aeabi_dcmple
 2489              	.LVL224:
 2490 002a 90B9     		cbnz	r0, .L181
 2491              	.L163:
 237:../../../core/drivers/TCS3472/src/TCS3472.c ****         ack = writeSingleRegister( CONFIG, 2 ); // sets WLONG to 1
 2492              		.loc 1 237 10 is_stmt 1 view .LVU591
 237:../../../core/drivers/TCS3472/src/TCS3472.c ****         ack = writeSingleRegister( CONFIG, 2 ); // sets WLONG to 1
 2493              		.loc 1 237 13 is_stmt 0 view .LVU592
 2494 002c 31A3     		adr	r3, .L184+20
 2495 002e D3E90023 		ldrd	r2, [r3]
 2496 0032 2046     		mov	r0, r4
 2497 0034 2946     		mov	r1, r5
 2498 0036 FFF7FEFF 		bl	__aeabi_dcmpgt
ARM GAS  C:\Users\tijsv\AppData\Local\Temp\ccU0OIRr.s 			page 55


 2499              	.LVL225:
 2500 003a 0028     		cmp	r0, #0
 2501 003c 4BD0     		beq	.L178
 237:../../../core/drivers/TCS3472/src/TCS3472.c ****         ack = writeSingleRegister( CONFIG, 2 ); // sets WLONG to 1
 2502              		.loc 1 237 28 discriminator 1 view .LVU593
 2503 003e 2FA3     		adr	r3, .L184+28
 2504 0040 D3E90023 		ldrd	r2, [r3]
 2505 0044 2046     		mov	r0, r4
 2506 0046 2946     		mov	r1, r5
 2507 0048 FFF7FEFF 		bl	__aeabi_dcmple
 2508              	.LVL226:
 2509 004c 00BB     		cbnz	r0, .L182
 241:../../../core/drivers/TCS3472/src/TCS3472.c ****     return ack;
 2510              		.loc 1 241 15 view .LVU594
 2511 004e 0120     		movs	r0, #1
 2512 0050 42E0     		b	.L162
 2513              	.L181:
 234:../../../core/drivers/TCS3472/src/TCS3472.c ****         wtime = 256 - roundTowardsZero( time / 2.4 );
 2514              		.loc 1 234 9 is_stmt 1 view .LVU595
 234:../../../core/drivers/TCS3472/src/TCS3472.c ****         wtime = 256 - roundTowardsZero( time / 2.4 );
 2515              		.loc 1 234 15 is_stmt 0 view .LVU596
 2516 0052 0021     		movs	r1, #0
 2517 0054 0D20     		movs	r0, #13
 2518 0056 FFF7FEFF 		bl	writeSingleRegister
 2519              	.LVL227:
 2520 005a 0646     		mov	r6, r0
 2521              	.LVL228:
 235:../../../core/drivers/TCS3472/src/TCS3472.c ****     }
 2522              		.loc 1 235 9 is_stmt 1 view .LVU597
 235:../../../core/drivers/TCS3472/src/TCS3472.c ****     }
 2523              		.loc 1 235 46 is_stmt 0 view .LVU598
 2524 005c 29A3     		adr	r3, .L184+36
 2525 005e D3E90023 		ldrd	r2, [r3]
 2526 0062 2046     		mov	r0, r4
 2527              	.LVL229:
 235:../../../core/drivers/TCS3472/src/TCS3472.c ****     }
 2528              		.loc 1 235 46 view .LVU599
 2529 0064 2946     		mov	r1, r5
 2530 0066 FFF7FEFF 		bl	__aeabi_ddiv
 2531              	.LVL230:
 235:../../../core/drivers/TCS3472/src/TCS3472.c ****     }
 2532              		.loc 1 235 23 view .LVU600
 2533 006a FFF7FEFF 		bl	__aeabi_d2f
 2534              	.LVL231:
 2535 006e 00EE100A 		vmov	s0, r0
 2536 0072 FFF7FEFF 		bl	roundTowardsZero
 2537              	.LVL232:
 235:../../../core/drivers/TCS3472/src/TCS3472.c ****     }
 2538              		.loc 1 235 21 view .LVU601
 2539 0076 DFED1C7A 		vldr.32	s15, .L184+8
 2540 007a 77EEC07A 		vsub.f32	s15, s15, s0
 235:../../../core/drivers/TCS3472/src/TCS3472.c ****     }
 2541              		.loc 1 235 15 view .LVU602
 2542 007e FCEEE77A 		vcvt.u32.f32	s15, s15
 2543 0082 CDED017A 		vstr.32	s15, [sp, #4]	@ int
 2544 0086 9DF80410 		ldrb	r1, [sp, #4]	@ zero_extendqisi2
 2545              	.LVL233:
ARM GAS  C:\Users\tijsv\AppData\Local\Temp\ccU0OIRr.s 			page 56


 2546              	.L166:
 241:../../../core/drivers/TCS3472/src/TCS3472.c ****     return ack;
 2547              		.loc 1 241 5 is_stmt 1 view .LVU603
 241:../../../core/drivers/TCS3472/src/TCS3472.c ****     return ack;
 2548              		.loc 1 241 15 is_stmt 0 view .LVU604
 2549 008a F6B1     		cbz	r6, .L183
 241:../../../core/drivers/TCS3472/src/TCS3472.c ****     return ack;
 2550              		.loc 1 241 15 view .LVU605
 2551 008c 0120     		movs	r0, #1
 2552 008e 23E0     		b	.L162
 2553              	.LVL234:
 2554              	.L182:
 238:../../../core/drivers/TCS3472/src/TCS3472.c ****         wtime = 256 - roundTowardsZero( time / 28.8 );
 2555              		.loc 1 238 9 is_stmt 1 view .LVU606
 238:../../../core/drivers/TCS3472/src/TCS3472.c ****         wtime = 256 - roundTowardsZero( time / 28.8 );
 2556              		.loc 1 238 15 is_stmt 0 view .LVU607
 2557 0090 0221     		movs	r1, #2
 2558 0092 0D20     		movs	r0, #13
 2559 0094 FFF7FEFF 		bl	writeSingleRegister
 2560              	.LVL235:
 2561 0098 0646     		mov	r6, r0
 2562              	.LVL236:
 239:../../../core/drivers/TCS3472/src/TCS3472.c ****     }
 2563              		.loc 1 239 9 is_stmt 1 view .LVU608
 239:../../../core/drivers/TCS3472/src/TCS3472.c ****     }
 2564              		.loc 1 239 46 is_stmt 0 view .LVU609
 2565 009a 11A3     		adr	r3, .L184
 2566 009c D3E90023 		ldrd	r2, [r3]
 2567 00a0 2046     		mov	r0, r4
 2568              	.LVL237:
 239:../../../core/drivers/TCS3472/src/TCS3472.c ****     }
 2569              		.loc 1 239 46 view .LVU610
 2570 00a2 2946     		mov	r1, r5
 2571 00a4 FFF7FEFF 		bl	__aeabi_ddiv
 2572              	.LVL238:
 239:../../../core/drivers/TCS3472/src/TCS3472.c ****     }
 2573              		.loc 1 239 23 view .LVU611
 2574 00a8 FFF7FEFF 		bl	__aeabi_d2f
 2575              	.LVL239:
 2576 00ac 00EE100A 		vmov	s0, r0
 2577 00b0 FFF7FEFF 		bl	roundTowardsZero
 2578              	.LVL240:
 239:../../../core/drivers/TCS3472/src/TCS3472.c ****     }
 2579              		.loc 1 239 21 view .LVU612
 2580 00b4 DFED0C7A 		vldr.32	s15, .L184+8
 2581 00b8 77EEC07A 		vsub.f32	s15, s15, s0
 239:../../../core/drivers/TCS3472/src/TCS3472.c ****     }
 2582              		.loc 1 239 15 view .LVU613
 2583 00bc FCEEE77A 		vcvt.u32.f32	s15, s15
 2584 00c0 CDED017A 		vstr.32	s15, [sp, #4]	@ int
 2585 00c4 9DF80410 		ldrb	r1, [sp, #4]	@ zero_extendqisi2
 2586              	.LVL241:
 239:../../../core/drivers/TCS3472/src/TCS3472.c ****     }
 2587              		.loc 1 239 15 view .LVU614
 2588 00c8 DFE7     		b	.L166
 2589              	.L183:
 241:../../../core/drivers/TCS3472/src/TCS3472.c ****     return ack;
ARM GAS  C:\Users\tijsv\AppData\Local\Temp\ccU0OIRr.s 			page 57


 2590              		.loc 1 241 18 discriminator 2 view .LVU615
 2591 00ca 0320     		movs	r0, #3
 2592 00cc FFF7FEFF 		bl	writeSingleRegister
 2593              	.LVL242:
 241:../../../core/drivers/TCS3472/src/TCS3472.c ****     return ack;
 2594              		.loc 1 241 15 discriminator 2 view .LVU616
 2595 00d0 10B1     		cbz	r0, .L162
 241:../../../core/drivers/TCS3472/src/TCS3472.c ****     return ack;
 2596              		.loc 1 241 15 view .LVU617
 2597 00d2 0120     		movs	r0, #1
 2598              	.LVL243:
 242:../../../core/drivers/TCS3472/src/TCS3472.c **** }
 2599              		.loc 1 242 5 is_stmt 1 view .LVU618
 242:../../../core/drivers/TCS3472/src/TCS3472.c **** }
 2600              		.loc 1 242 12 is_stmt 0 view .LVU619
 2601 00d4 00E0     		b	.L162
 2602              	.LVL244:
 2603              	.L178:
 241:../../../core/drivers/TCS3472/src/TCS3472.c ****     return ack;
 2604              		.loc 1 241 15 view .LVU620
 2605 00d6 0120     		movs	r0, #1
 2606              	.LVL245:
 2607              	.L162:
 243:../../../core/drivers/TCS3472/src/TCS3472.c **** 
 2608              		.loc 1 243 1 view .LVU621
 2609 00d8 02B0     		add	sp, sp, #8
 2610              	.LCFI77:
 2611              		.cfi_def_cfa_offset 16
 2612              		@ sp needed
 2613 00da 70BD     		pop	{r4, r5, r6, pc}
 2614              	.L185:
 2615 00dc AFF30080 		.align	3
 2616              	.L184:
 2617 00e0 CDCCCCCC 		.word	-858993459
 2618 00e4 CCCC3C40 		.word	1077726412
 2619 00e8 00008043 		.word	1132462080
 2620 00ec 1F85EB51 		.word	1374389535
 2621 00f0 B81E0340 		.word	1073946296
 2622 00f4 33333333 		.word	858993459
 2623 00f8 33338340 		.word	1082340147
 2624 00fc 9A999999 		.word	-1717986918
 2625 0100 19E8BC40 		.word	1086122009
 2626 0104 33333333 		.word	858993459
 2627 0108 33330340 		.word	1073951539
 2628              		.cfi_endproc
 2629              	.LFE159:
 2631              		.section	.text.turnOnLED,"ax",%progbits
 2632              		.align	1
 2633              		.global	turnOnLED
 2634              		.syntax unified
 2635              		.thumb
 2636              		.thumb_func
 2637              		.fpu fpv4-sp-d16
 2639              	turnOnLED:
 2640              	.LFB174:
 490:../../../core/drivers/TCS3472/src/TCS3472.c **** 
 491:../../../core/drivers/TCS3472/src/TCS3472.c **** void turnOnLED(){
ARM GAS  C:\Users\tijsv\AppData\Local\Temp\ccU0OIRr.s 			page 58


 2641              		.loc 1 491 17 is_stmt 1 view -0
 2642              		.cfi_startproc
 2643              		@ args = 0, pretend = 0, frame = 0
 2644              		@ frame_needed = 0, uses_anonymous_args = 0
 2645 0000 08B5     		push	{r3, lr}
 2646              	.LCFI78:
 2647              		.cfi_def_cfa_offset 8
 2648              		.cfi_offset 3, -8
 2649              		.cfi_offset 14, -4
 492:../../../core/drivers/TCS3472/src/TCS3472.c ****     #ifdef platform_octa
 493:../../../core/drivers/TCS3472/src/TCS3472.c ****         HAL_GPIO_WritePin(OCTA_LIGHTSENSORLED_Port, OCTA_LIGHTSENSORLED_Pin, 1);
 2650              		.loc 1 493 9 view .LVU623
 2651 0002 0122     		movs	r2, #1
 2652 0004 8021     		movs	r1, #128
 2653 0006 0248     		ldr	r0, .L188
 2654 0008 FFF7FEFF 		bl	HAL_GPIO_WritePin
 2655              	.LVL246:
 494:../../../core/drivers/TCS3472/src/TCS3472.c ****     #endif
 495:../../../core/drivers/TCS3472/src/TCS3472.c **** }
 2656              		.loc 1 495 1 is_stmt 0 view .LVU624
 2657 000c 08BD     		pop	{r3, pc}
 2658              	.L189:
 2659 000e 00BF     		.align	2
 2660              	.L188:
 2661 0010 00140048 		.word	1207964672
 2662              		.cfi_endproc
 2663              	.LFE174:
 2665              		.section	.text.turnOffLED,"ax",%progbits
 2666              		.align	1
 2667              		.global	turnOffLED
 2668              		.syntax unified
 2669              		.thumb
 2670              		.thumb_func
 2671              		.fpu fpv4-sp-d16
 2673              	turnOffLED:
 2674              	.LFB175:
 496:../../../core/drivers/TCS3472/src/TCS3472.c **** 
 497:../../../core/drivers/TCS3472/src/TCS3472.c **** void turnOffLED(){
 2675              		.loc 1 497 18 is_stmt 1 view -0
 2676              		.cfi_startproc
 2677              		@ args = 0, pretend = 0, frame = 0
 2678              		@ frame_needed = 0, uses_anonymous_args = 0
 2679 0000 08B5     		push	{r3, lr}
 2680              	.LCFI79:
 2681              		.cfi_def_cfa_offset 8
 2682              		.cfi_offset 3, -8
 2683              		.cfi_offset 14, -4
 498:../../../core/drivers/TCS3472/src/TCS3472.c ****     #ifdef platform_octa
 499:../../../core/drivers/TCS3472/src/TCS3472.c ****         HAL_GPIO_WritePin(OCTA_LIGHTSENSORLED_Port, OCTA_LIGHTSENSORLED_Pin, 0);
 2684              		.loc 1 499 9 view .LVU626
 2685 0002 0022     		movs	r2, #0
 2686 0004 8021     		movs	r1, #128
 2687 0006 0248     		ldr	r0, .L192
 2688 0008 FFF7FEFF 		bl	HAL_GPIO_WritePin
 2689              	.LVL247:
 500:../../../core/drivers/TCS3472/src/TCS3472.c ****     #endif
 501:../../../core/drivers/TCS3472/src/TCS3472.c **** }...
ARM GAS  C:\Users\tijsv\AppData\Local\Temp\ccU0OIRr.s 			page 59


 2690              		.loc 1 501 1 is_stmt 0 view .LVU627
 2691 000c 08BD     		pop	{r3, pc}
 2692              	.L193:
 2693 000e 00BF     		.align	2
 2694              	.L192:
 2695 0010 00140048 		.word	1207964672
 2696              		.cfi_endproc
 2697              	.LFE175:
 2699              		.comm	P3_header,44,4
 2700              		.comm	P2_header,44,4
 2701              		.comm	P1_header,44,4
 2702              		.comm	stackversion_patch,1,1
 2703              		.comm	stackversion_minor,1,1
 2704              		.comm	stackversion_major,1,1
 2705              		.comm	appversion_patch,1,1
 2706              		.comm	appversion_minor,1,1
 2707              		.comm	appversion_major,1,1
 2708              		.comm	short_UID,8,8
 2709              		.comm	hard_reset,1,1
 2710              		.comm	wd_reset,1,1
 2711              		.comm	octa_uid,8,8
 2712              		.comm	float_union,4,4
 2713              		.comm	uint16LittleEndian,2,4
 2714              		.comm	int16LittleEndian,2,4
 2715              		.comm	uint32LittleEndian,4,4
 2716              		.comm	int32LittleEndian,4,4
 2717              		.comm	rtosprintHandle,4,4
 2718              		.comm	hrtc,36,4
 2719              		.comm	FLASH_SPI,100,4
 2720              		.comm	P3_SPI,100,4
 2721              		.comm	P2_SPI,100,4
 2722              		.comm	P1_SPI,100,4
 2723              		.comm	P3_I2C,76,4
 2724              		.comm	P2_I2C,76,4
 2725              		.comm	P1_I2C,76,4
 2726              		.comm	common_I2C,76,4
 2727              		.comm	P3_UART,120,4
 2728              		.comm	P2_UART,120,4
 2729              		.comm	P1_UART,120,4
 2730              		.comm	FTDI_UART,120,4
 2731              		.comm	BLE_UART,120,4
 2732              		.comm	USB_UART,120,4
 2733              		.comm	hiwdg,16,4
 2734              		.comm	P3_DIO6,8,4
 2735              		.comm	P3_DIO5,8,4
 2736              		.comm	P3_DIO4,8,4
 2737              		.comm	P3_DIO3,8,4
 2738              		.comm	P3_DIO2,8,4
 2739              		.comm	P3_DIO1,8,4
 2740              		.comm	P2_DIO6,8,4
 2741              		.comm	P2_DIO5,8,4
 2742              		.comm	P2_DIO4,8,4
 2743              		.comm	P2_DIO3,8,4
 2744              		.comm	P2_DIO2,8,4
 2745              		.comm	P2_DIO1,8,4
 2746              		.comm	P1_DIO6,8,4
 2747              		.comm	P1_DIO5,8,4
ARM GAS  C:\Users\tijsv\AppData\Local\Temp\ccU0OIRr.s 			page 60


 2748              		.comm	P1_DIO4,8,4
 2749              		.comm	P1_DIO3,8,4
 2750              		.comm	P1_DIO2,8,4
 2751              		.comm	P1_DIO1,8,4
 2752              		.comm	htim6,64,4
 2753              		.comm	htim1,64,4
 2754              		.comm	hi2cLib,4,4
 2755              		.text
 2756              	.Letext0:
 2757              		.file 2 "c:\\program files (x86)\\gnu tools arm embedded\\9 2019-q4-major\\arm-none-eabi\\include\
 2758              		.file 3 "c:\\program files (x86)\\gnu tools arm embedded\\9 2019-q4-major\\arm-none-eabi\\include\
 2759              		.file 4 "../../../core/ST/CMSIS/Include/core_cm4.h"
 2760              		.file 5 "../../../core/ST/CMSIS/Device/ST/STM32L4xx/Include/system_stm32l4xx.h"
 2761              		.file 6 "../../../core/ST/CMSIS/Device/ST/STM32L4xx/Include/stm32l496xx.h"
 2762              		.file 7 "../../../core/ST/STM32L4xx_HAL_Driver/Inc/stm32l4xx_hal_def.h"
 2763              		.file 8 "../../../core/ST/STM32L4xx_HAL_Driver/Inc/stm32l4xx_hal_dma.h"
 2764              		.file 9 "../../../core/ST/STM32L4xx_HAL_Driver/Inc/stm32l4xx_hal_i2c.h"
 2765              		.file 10 "../../../core/ST/STM32L4xx_HAL_Driver/Inc/stm32l4xx_hal_iwdg.h"
 2766              		.file 11 "../../../core/ST/STM32L4xx_HAL_Driver/Inc/stm32l4xx_hal_rtc.h"
 2767              		.file 12 "../../../core/ST/STM32L4xx_HAL_Driver/Inc/stm32l4xx_hal_spi.h"
 2768              		.file 13 "../../../core/ST/STM32L4xx_HAL_Driver/Inc/stm32l4xx_hal_tim.h"
 2769              		.file 14 "../../../core/ST/STM32L4xx_HAL_Driver/Inc/stm32l4xx_hal_uart.h"
 2770              		.file 15 "../../../core/ST/STM32L4xx_HAL_Driver/Inc/stm32l4xx_hal.h"
 2771              		.file 16 "c:\\program files (x86)\\gnu tools arm embedded\\9 2019-q4-major\\arm-none-eabi\\include
 2772              		.file 17 "c:\\program files (x86)\\gnu tools arm embedded\\9 2019-q4-major\\arm-none-eabi\\include
 2773              		.file 18 "c:\\program files (x86)\\gnu tools arm embedded\\9 2019-q4-major\\lib\\gcc\\arm-none-eab
 2774              		.file 19 "c:\\program files (x86)\\gnu tools arm embedded\\9 2019-q4-major\\arm-none-eabi\\include
 2775              		.file 20 "c:\\program files (x86)\\gnu tools arm embedded\\9 2019-q4-major\\arm-none-eabi\\include
 2776              		.file 21 "c:\\program files (x86)\\gnu tools arm embedded\\9 2019-q4-major\\arm-none-eabi\\include
 2777              		.file 22 "../../../core/drivers/TCS3472/inc/TCS3472.h"
 2778              		.file 23 "../../../core/ST/Middlewares/Third_Party/FreeRTOS/Source/include/task.h"
 2779              		.file 24 "../../../core/ST/Middlewares/Third_Party/FreeRTOS/Source/CMSIS_RTOS/cmsis_os.h"
 2780              		.file 25 "../../../core/platform/octa/inc/sysclock.h"
 2781              		.file 26 "../../../core/platform/octa/inc/gpio.h"
 2782              		.file 27 "../../../core/platform/octa/inc/iwdg.h"
 2783              		.file 28 "../../../core/platform/octa/inc/uart.h"
 2784              		.file 29 "../../../core/platform/octa/inc/i2c.h"
 2785              		.file 30 "../../../core/platform/octa/inc/spi.h"
 2786              		.file 31 "../../../core/platform/octa/inc/rtc.h"
 2787              		.file 32 "../../../core/platform/octa/inc/rtosincludes.h"
 2788              		.file 33 "../../../core/platform/common/inc/datatypes.h"
 2789              		.file 34 "../../../core/platform/octa/inc/platform.h"
 2790              		.file 35 "../../../core/ST/STM32L4xx_HAL_Driver/Inc/stm32l4xx_hal_gpio.h"
ARM GAS  C:\Users\tijsv\AppData\Local\Temp\ccU0OIRr.s 			page 61

