ARM GAS  C:\Users\tijsv\AppData\Local\Temp\ccO49ALn.s 			page 1


   1              		.cpu cortex-m4
   2              		.eabi_attribute 27, 1
   3              		.eabi_attribute 28, 1
   4              		.eabi_attribute 20, 1
   5              		.eabi_attribute 21, 1
   6              		.eabi_attribute 23, 3
   7              		.eabi_attribute 24, 1
   8              		.eabi_attribute 25, 1
   9              		.eabi_attribute 26, 1
  10              		.eabi_attribute 30, 1
  11              		.eabi_attribute 34, 1
  12              		.eabi_attribute 18, 4
  13              		.file	"flash_config.c"
  14              		.text
  15              	.Ltext0:
  16              		.cfi_sections	.debug_frame
  17              		.section	.rodata.update_flash_configuration.str1.4,"aMS",%progbits,1
  18              		.align	2
  19              	.LC0:
  20 0000 466C6173 		.ascii	"Flash open NOK\015\012\000"
  20      68206F70 
  20      656E204E 
  20      4F4B0D0A 
  20      00
  21 0011 000000   		.align	2
  22              	.LC1:
  23 0014 466C6173 		.ascii	"Flash operation NOK: %d\015\012\000"
  23      68206F70 
  23      65726174 
  23      696F6E20 
  23      4E4F4B3A 
  24 002e 0000     		.align	2
  25              	.LC2:
  26 0030 43757272 		.ascii	"Current flash configuration:\015\012\000"
  26      656E7420 
  26      666C6173 
  26      6820636F 
  26      6E666967 
  27 004f 00       		.align	2
  28              	.LC3:
  29 0050 57726974 		.ascii	"Write in progress\015\012\000"
  29      6520696E 
  29      2070726F 
  29      67726573 
  29      730D0A00 
  30              		.align	2
  31              	.LC4:
  32 0064 466C6173 		.ascii	"Flash after erase\015\012\000"
  32      68206166 
  32      74657220 
  32      65726173 
  32      650D0A00 
  33              		.align	2
  34              	.LC5:
  35 0078 57726974 		.ascii	"Writing updated configuration to flash:\015\012\000"
  35      696E6720 
  35      75706461 
ARM GAS  C:\Users\tijsv\AppData\Local\Temp\ccO49ALn.s 			page 2


  35      74656420 
  35      636F6E66 
  36 00a2 0000     		.align	2
  37              	.LC6:
  38 00a4 466C6173 		.ascii	"Flash after new config\015\012\000"
  38      68206166 
  38      74657220 
  38      6E657720 
  38      636F6E66 
  39              		.section	.text.update_flash_configuration,"ax",%progbits
  40              		.align	1
  41              		.global	update_flash_configuration
  42              		.arch armv7e-m
  43              		.syntax unified
  44              		.thumb
  45              		.thumb_func
  46              		.fpu fpv4-sp-d16
  48              	update_flash_configuration:
  49              	.LVL0:
  50              	.LFB123:
  51              		.file 1 "../../../core/platform/common/src/flash_config.c"
   1:../../../core/platform/common/src/flash_config.c **** #include "payloadformat.h"
   2:../../../core/platform/common/src/flash_config.c **** #include "octa-flash.h"
   3:../../../core/platform/common/src/flash_config.c **** #include "datatypes.h"
   4:../../../core/platform/common/src/flash_config.c **** #include "payloadparser.h"
   5:../../../core/platform/common/src/flash_config.c **** #include "flash_config.h"
   6:../../../core/platform/common/src/flash_config.c **** 
   7:../../../core/platform/common/src/flash_config.c **** /*
   8:../../../core/platform/common/src/flash_config.c **** ***********************************
   9:../../../core/platform/common/src/flash_config.c **** * Flash configuration (first page *
  10:../../../core/platform/common/src/flash_config.c **** ***********************************
  11:../../../core/platform/common/src/flash_config.c **** * interval & multiplier
  12:../../../core/platform/common/src/flash_config.c **** * last msg acked
  13:../../../core/platform/common/src/flash_config.c **** * dns id
  14:../../../core/platform/common/src/flash_config.c **** * current flash index (page?)
  15:../../../core/platform/common/src/flash_config.c **** * last known timestamp
  16:../../../core/platform/common/src/flash_config.c **** */
  17:../../../core/platform/common/src/flash_config.c **** uint8_t update_flash_configuration(struct octa_configuration* toFlash)
  18:../../../core/platform/common/src/flash_config.c **** {
  52              		.loc 1 18 1 view -0
  53              		.cfi_startproc
  54              		@ args = 0, pretend = 0, frame = 512
  55              		@ frame_needed = 0, uses_anonymous_args = 0
  56              		.loc 1 18 1 is_stmt 0 view .LVU1
  57 0000 10B5     		push	{r4, lr}
  58              	.LCFI0:
  59              		.cfi_def_cfa_offset 8
  60              		.cfi_offset 4, -8
  61              		.cfi_offset 14, -4
  62 0002 ADF5007D 		sub	sp, sp, #512
  63              	.LCFI1:
  64              		.cfi_def_cfa_offset 520
  65 0006 0446     		mov	r4, r0
  19:../../../core/platform/common/src/flash_config.c ****   int retval = 0;
  66              		.loc 1 19 3 is_stmt 1 view .LVU2
  67              	.LVL1:
  20:../../../core/platform/common/src/flash_config.c ****   // write to flash as octa payload
ARM GAS  C:\Users\tijsv\AppData\Local\Temp\ccO49ALn.s 			page 3


  21:../../../core/platform/common/src/flash_config.c ****   uint8_t flashBuffer[OCTA_FLASH_PAGE_SIZE] = {0xff};
  68              		.loc 1 21 3 view .LVU3
  69              		.loc 1 21 11 is_stmt 0 view .LVU4
  70 0008 FF23     		movs	r3, #255
  71 000a 4093     		str	r3, [sp, #256]
  72 000c FC22     		movs	r2, #252
  73 000e 0021     		movs	r1, #0
  74 0010 41A8     		add	r0, sp, #260
  75              	.LVL2:
  76              		.loc 1 21 11 view .LVU5
  77 0012 FFF7FEFF 		bl	memset
  78              	.LVL3:
  22:../../../core/platform/common/src/flash_config.c ****   // read current flash
  23:../../../core/platform/common/src/flash_config.c ****   if(OCTA_FLASH_openConfigSector()!= OCTA_FLASH_OK)
  79              		.loc 1 23 3 is_stmt 1 view .LVU6
  80              		.loc 1 23 6 is_stmt 0 view .LVU7
  81 0016 FFF7FEFF 		bl	OCTA_FLASH_openConfigSector
  82              	.LVL4:
  83              		.loc 1 23 5 view .LVU8
  84 001a 0028     		cmp	r0, #0
  85 001c 5BD1     		bne	.L17
  86              	.L2:
  24:../../../core/platform/common/src/flash_config.c ****   {
  25:../../../core/platform/common/src/flash_config.c ****     printERR("Flash open NOK\r\n");
  26:../../../core/platform/common/src/flash_config.c ****   }
  27:../../../core/platform/common/src/flash_config.c **** 
  28:../../../core/platform/common/src/flash_config.c ****   retval = OCTA_FLASH_read(flashBuffer, OCTA_FLASH_PAGE_SIZE);
  87              		.loc 1 28 3 is_stmt 1 view .LVU9
  88              		.loc 1 28 12 is_stmt 0 view .LVU10
  89 001e 4FF48071 		mov	r1, #256
  90 0022 0DEB0100 		add	r0, sp, r1
  91 0026 FFF7FEFF 		bl	OCTA_FLASH_read
  92              	.LVL5:
  29:../../../core/platform/common/src/flash_config.c ****   if(retval != OCTA_FLASH_PAGE_SIZE)
  93              		.loc 1 29 3 is_stmt 1 view .LVU11
  94              		.loc 1 29 5 is_stmt 0 view .LVU12
  95 002a B0F5807F 		cmp	r0, #256
  96 002e 56D1     		bne	.L18
  97              	.LVL6:
  98              	.L3:
  30:../../../core/platform/common/src/flash_config.c ****   {
  31:../../../core/platform/common/src/flash_config.c ****     printERR("Flash operation NOK: %d\r\n", retval);
  32:../../../core/platform/common/src/flash_config.c ****   }
  33:../../../core/platform/common/src/flash_config.c ****   printDBG("Current flash configuration:\r\n");
  99              		.loc 1 33 3 is_stmt 1 view .LVU13
 100 0030 6148     		ldr	r0, .L23
 101 0032 FFF7FEFF 		bl	printDBG
 102              	.LVL7:
  34:../../../core/platform/common/src/flash_config.c ****   #if DEBUG
  35:../../../core/platform/common/src/flash_config.c ****     for (uint16_t i = 0; i < CONFIG_BUFFER_SIZE; ++i) {
  36:../../../core/platform/common/src/flash_config.c ****       printf("%02x", flashBuffer[i]);
  37:../../../core/platform/common/src/flash_config.c ****     }
  38:../../../core/platform/common/src/flash_config.c ****     printf("\r\n");
  39:../../../core/platform/common/src/flash_config.c ****   #endif
  40:../../../core/platform/common/src/flash_config.c **** 
  41:../../../core/platform/common/src/flash_config.c ****   uint16_t index = 0;
 103              		.loc 1 41 3 view .LVU14
ARM GAS  C:\Users\tijsv\AppData\Local\Temp\ccO49ALn.s 			page 4


  42:../../../core/platform/common/src/flash_config.c ****   // interval & multiplier
  43:../../../core/platform/common/src/flash_config.c ****   flashBuffer[index++] = (uint8_t)TYPE_DOWNLINK_INTERVAL_MULTIPLIER_UPDATE;
 104              		.loc 1 43 3 view .LVU15
 105              		.loc 1 43 24 is_stmt 0 view .LVU16
 106 0036 F623     		movs	r3, #246
 107 0038 8DF80031 		strb	r3, [sp, #256]
  44:../../../core/platform/common/src/flash_config.c ****   flashBuffer[index++] = toFlash->interval;
 108              		.loc 1 44 3 is_stmt 1 view .LVU17
 109              	.LVL8:
 110              		.loc 1 44 33 is_stmt 0 view .LVU18
 111 003c 237B     		ldrb	r3, [r4, #12]	@ zero_extendqisi2
 112              		.loc 1 44 24 view .LVU19
 113 003e 8DF80131 		strb	r3, [sp, #257]
  45:../../../core/platform/common/src/flash_config.c ****   flashBuffer[index++] = toFlash->multiplier;
 114              		.loc 1 45 3 is_stmt 1 view .LVU20
 115              	.LVL9:
 116              		.loc 1 45 33 is_stmt 0 view .LVU21
 117 0042 637B     		ldrb	r3, [r4, #13]	@ zero_extendqisi2
 118              		.loc 1 45 24 view .LVU22
 119 0044 8DF80231 		strb	r3, [sp, #258]
  46:../../../core/platform/common/src/flash_config.c **** 
  47:../../../core/platform/common/src/flash_config.c ****   // last acked msg
  48:../../../core/platform/common/src/flash_config.c ****   flashBuffer[index++] = (uint8_t)TYPE_DOWNLINK_ACK;
 120              		.loc 1 48 3 is_stmt 1 view .LVU23
 121              	.LVL10:
 122              		.loc 1 48 24 is_stmt 0 view .LVU24
 123 0048 F723     		movs	r3, #247
 124 004a 8DF80331 		strb	r3, [sp, #259]
  49:../../../core/platform/common/src/flash_config.c ****   uint32LittleEndian.integer = toFlash->last_msg_acked;
 125              		.loc 1 49 3 is_stmt 1 view .LVU25
 126              		.loc 1 49 39 is_stmt 0 view .LVU26
 127 004e A368     		ldr	r3, [r4, #8]
 128              		.loc 1 49 30 view .LVU27
 129 0050 5A4A     		ldr	r2, .L23+4
 130 0052 1360     		str	r3, [r2]
  50:../../../core/platform/common/src/flash_config.c ****   flashBuffer[index++] = uint32LittleEndian.byte[0];
 131              		.loc 1 50 3 is_stmt 1 view .LVU28
 132              	.LVL11:
 133              		.loc 1 50 24 is_stmt 0 view .LVU29
 134 0054 8DF80431 		strb	r3, [sp, #260]
  51:../../../core/platform/common/src/flash_config.c ****   flashBuffer[index++] = uint32LittleEndian.byte[1];
 135              		.loc 1 51 3 is_stmt 1 view .LVU30
 136              	.LVL12:
 137              		.loc 1 51 24 is_stmt 0 view .LVU31
 138 0058 C3F30721 		ubfx	r1, r3, #8, #8
 139 005c 8DF80511 		strb	r1, [sp, #261]
  52:../../../core/platform/common/src/flash_config.c ****   flashBuffer[index++] = uint32LittleEndian.byte[2];
 140              		.loc 1 52 3 is_stmt 1 view .LVU32
 141              	.LVL13:
 142              		.loc 1 52 24 is_stmt 0 view .LVU33
 143 0060 C3F30741 		ubfx	r1, r3, #16, #8
 144 0064 8DF80611 		strb	r1, [sp, #262]
  53:../../../core/platform/common/src/flash_config.c ****   flashBuffer[index++] = uint32LittleEndian.byte[3];
 145              		.loc 1 53 3 is_stmt 1 view .LVU34
 146              	.LVL14:
 147              		.loc 1 53 24 is_stmt 0 view .LVU35
 148 0068 C3F30763 		ubfx	r3, r3, #24, #8
ARM GAS  C:\Users\tijsv\AppData\Local\Temp\ccO49ALn.s 			page 5


 149 006c 8DF80731 		strb	r3, [sp, #263]
  54:../../../core/platform/common/src/flash_config.c **** 
  55:../../../core/platform/common/src/flash_config.c ****   // dns id
  56:../../../core/platform/common/src/flash_config.c ****   flashBuffer[index++] = (uint8_t)TYPE_DOWNLINK_DNS_UPDATE;
 150              		.loc 1 56 3 is_stmt 1 view .LVU36
 151              	.LVL15:
 152              		.loc 1 56 24 is_stmt 0 view .LVU37
 153 0070 F523     		movs	r3, #245
 154 0072 8DF80831 		strb	r3, [sp, #264]
  57:../../../core/platform/common/src/flash_config.c ****   flashBuffer[index++] = toFlash->dns_id;
 155              		.loc 1 57 3 is_stmt 1 view .LVU38
 156              	.LVL16:
 157              		.loc 1 57 33 is_stmt 0 view .LVU39
 158 0076 2379     		ldrb	r3, [r4, #4]	@ zero_extendqisi2
 159              		.loc 1 57 24 view .LVU40
 160 0078 8DF80931 		strb	r3, [sp, #265]
  58:../../../core/platform/common/src/flash_config.c **** 
  59:../../../core/platform/common/src/flash_config.c ****   // current flash index page
  60:../../../core/platform/common/src/flash_config.c ****   flashBuffer[index++] = (uint8_t)TYPE_CURRENT_FLASH_INDEX;
 161              		.loc 1 60 3 is_stmt 1 view .LVU41
 162              	.LVL17:
 163              		.loc 1 60 24 is_stmt 0 view .LVU42
 164 007c 2623     		movs	r3, #38
 165 007e 8DF80A31 		strb	r3, [sp, #266]
  61:../../../core/platform/common/src/flash_config.c ****   uint32LittleEndian.integer = toFlash->flash_index;
 166              		.loc 1 61 3 is_stmt 1 view .LVU43
 167              		.loc 1 61 39 is_stmt 0 view .LVU44
 168 0082 2368     		ldr	r3, [r4]
  62:../../../core/platform/common/src/flash_config.c ****   flashBuffer[index++] = uint32LittleEndian.byte[0];
 169              		.loc 1 62 3 is_stmt 1 view .LVU45
 170              	.LVL18:
 171              		.loc 1 62 24 is_stmt 0 view .LVU46
 172 0084 8DF80B31 		strb	r3, [sp, #267]
  63:../../../core/platform/common/src/flash_config.c ****   flashBuffer[index++] = uint32LittleEndian.byte[1];
 173              		.loc 1 63 3 is_stmt 1 view .LVU47
 174              	.LVL19:
 175              		.loc 1 63 24 is_stmt 0 view .LVU48
 176 0088 C3F30721 		ubfx	r1, r3, #8, #8
 177 008c 8DF80C11 		strb	r1, [sp, #268]
  64:../../../core/platform/common/src/flash_config.c ****   flashBuffer[index++] = uint32LittleEndian.byte[2];
 178              		.loc 1 64 3 is_stmt 1 view .LVU49
 179              	.LVL20:
 180              		.loc 1 64 24 is_stmt 0 view .LVU50
 181 0090 C3F30741 		ubfx	r1, r3, #16, #8
 182 0094 8DF80D11 		strb	r1, [sp, #269]
  65:../../../core/platform/common/src/flash_config.c ****   flashBuffer[index++] = uint32LittleEndian.byte[3];
 183              		.loc 1 65 3 is_stmt 1 view .LVU51
 184              	.LVL21:
 185              		.loc 1 65 24 is_stmt 0 view .LVU52
 186 0098 C3F30763 		ubfx	r3, r3, #24, #8
 187 009c 8DF80E31 		strb	r3, [sp, #270]
  66:../../../core/platform/common/src/flash_config.c **** 
  67:../../../core/platform/common/src/flash_config.c ****   // last known timestamp
  68:../../../core/platform/common/src/flash_config.c ****   flashBuffer[index++] = (uint8_t)TYPE_LAST_KNOWN_TIMESTAMP;
 188              		.loc 1 68 3 is_stmt 1 view .LVU53
 189              	.LVL22:
 190              		.loc 1 68 24 is_stmt 0 view .LVU54
ARM GAS  C:\Users\tijsv\AppData\Local\Temp\ccO49ALn.s 			page 6


 191 00a0 3623     		movs	r3, #54
 192 00a2 8DF80F31 		strb	r3, [sp, #271]
  69:../../../core/platform/common/src/flash_config.c ****   uint32LittleEndian.integer = toFlash->last_known_timestamp;
 193              		.loc 1 69 3 is_stmt 1 view .LVU55
 194              		.loc 1 69 39 is_stmt 0 view .LVU56
 195 00a6 2369     		ldr	r3, [r4, #16]
 196              		.loc 1 69 30 view .LVU57
 197 00a8 1360     		str	r3, [r2]
  70:../../../core/platform/common/src/flash_config.c ****   flashBuffer[index++] = uint32LittleEndian.byte[0];
 198              		.loc 1 70 3 is_stmt 1 view .LVU58
 199              	.LVL23:
 200              		.loc 1 70 24 is_stmt 0 view .LVU59
 201 00aa 8DF81031 		strb	r3, [sp, #272]
  71:../../../core/platform/common/src/flash_config.c ****   flashBuffer[index++] = uint32LittleEndian.byte[1];
 202              		.loc 1 71 3 is_stmt 1 view .LVU60
 203              	.LVL24:
 204              		.loc 1 71 24 is_stmt 0 view .LVU61
 205 00ae C3F30722 		ubfx	r2, r3, #8, #8
 206 00b2 8DF81121 		strb	r2, [sp, #273]
  72:../../../core/platform/common/src/flash_config.c ****   flashBuffer[index++] = uint32LittleEndian.byte[2];
 207              		.loc 1 72 3 is_stmt 1 view .LVU62
 208              	.LVL25:
 209              		.loc 1 72 24 is_stmt 0 view .LVU63
 210 00b6 C3F30742 		ubfx	r2, r3, #16, #8
 211 00ba 8DF81221 		strb	r2, [sp, #274]
  73:../../../core/platform/common/src/flash_config.c ****   flashBuffer[index++] = uint32LittleEndian.byte[3];
 212              		.loc 1 73 3 is_stmt 1 view .LVU64
 213              	.LVL26:
 214              		.loc 1 73 24 is_stmt 0 view .LVU65
 215 00be C3F30763 		ubfx	r3, r3, #24, #8
 216 00c2 8DF81331 		strb	r3, [sp, #275]
  74:../../../core/platform/common/src/flash_config.c **** 
  75:../../../core/platform/common/src/flash_config.c ****   retval = OCTA_FLASH_eraseConfigSector();
 217              		.loc 1 75 3 is_stmt 1 view .LVU66
 218              		.loc 1 75 12 is_stmt 0 view .LVU67
 219 00c6 FFF7FEFF 		bl	OCTA_FLASH_eraseConfigSector
 220              	.LVL27:
  76:../../../core/platform/common/src/flash_config.c ****   if(retval != OCTA_FLASH_OK)
 221              		.loc 1 76 3 is_stmt 1 view .LVU68
 222              		.loc 1 76 5 is_stmt 0 view .LVU69
 223 00ca 0146     		mov	r1, r0
 224 00cc 78B1     		cbz	r0, .L5
 225              	.LBB2:
  77:../../../core/platform/common/src/flash_config.c ****   {
  78:../../../core/platform/common/src/flash_config.c ****     printERR("Flash operation NOK: %d\r\n", retval);
 226              		.loc 1 78 5 is_stmt 1 view .LVU70
 227 00ce 3C48     		ldr	r0, .L23+8
 228              	.LVL28:
 229              		.loc 1 78 5 is_stmt 0 view .LVU71
 230 00d0 FFF7FEFF 		bl	printERR
 231              	.LVL29:
 232              		.loc 1 78 5 view .LVU72
 233 00d4 0BE0     		b	.L5
 234              	.LVL30:
 235              	.L17:
 236              		.loc 1 78 5 view .LVU73
 237              	.LBE2:
ARM GAS  C:\Users\tijsv\AppData\Local\Temp\ccO49ALn.s 			page 7


 238              	.LBB3:
  25:../../../core/platform/common/src/flash_config.c ****   }
 239              		.loc 1 25 5 is_stmt 1 view .LVU74
 240 00d6 3B48     		ldr	r0, .L23+12
 241 00d8 FFF7FEFF 		bl	printERR
 242              	.LVL31:
 243 00dc 9FE7     		b	.L2
 244              	.LVL32:
 245              	.L18:
  25:../../../core/platform/common/src/flash_config.c ****   }
 246              		.loc 1 25 5 is_stmt 0 view .LVU75
 247              	.LBE3:
 248              	.LBB4:
  31:../../../core/platform/common/src/flash_config.c ****   }
 249              		.loc 1 31 5 is_stmt 1 view .LVU76
 250 00de 0146     		mov	r1, r0
 251 00e0 3748     		ldr	r0, .L23+8
 252              	.LVL33:
  31:../../../core/platform/common/src/flash_config.c ****   }
 253              		.loc 1 31 5 is_stmt 0 view .LVU77
 254 00e2 FFF7FEFF 		bl	printERR
 255              	.LVL34:
  31:../../../core/platform/common/src/flash_config.c ****   }
 256              		.loc 1 31 5 view .LVU78
 257 00e6 A3E7     		b	.L3
 258              	.LVL35:
 259              	.L6:
  31:../../../core/platform/common/src/flash_config.c ****   }
 260              		.loc 1 31 5 view .LVU79
 261              	.LBE4:
 262              	.LBB5:
  79:../../../core/platform/common/src/flash_config.c ****   }
  80:../../../core/platform/common/src/flash_config.c ****   while(OCTA_FLASH_isWriteInProgress())
  81:../../../core/platform/common/src/flash_config.c ****   {
  82:../../../core/platform/common/src/flash_config.c ****         printDBG("Write in progress\r\n");
  83:../../../core/platform/common/src/flash_config.c ****         if(osKernelRunning())
  84:../../../core/platform/common/src/flash_config.c ****           osDelay(50);
  85:../../../core/platform/common/src/flash_config.c ****         else
  86:../../../core/platform/common/src/flash_config.c ****           HAL_Delay(50);
 263              		.loc 1 86 11 is_stmt 1 view .LVU80
 264 00e8 3220     		movs	r0, #50
 265 00ea FFF7FEFF 		bl	HAL_Delay
 266              	.LVL36:
 267              	.L5:
 268              	.LBE5:
  80:../../../core/platform/common/src/flash_config.c ****   {
 269              		.loc 1 80 8 view .LVU81
  80:../../../core/platform/common/src/flash_config.c ****   {
 270              		.loc 1 80 9 is_stmt 0 view .LVU82
 271 00ee FFF7FEFF 		bl	OCTA_FLASH_isWriteInProgress
 272              	.LVL37:
  80:../../../core/platform/common/src/flash_config.c ****   {
 273              		.loc 1 80 8 view .LVU83
 274 00f2 50B1     		cbz	r0, .L19
  82:../../../core/platform/common/src/flash_config.c ****         if(osKernelRunning())
 275              		.loc 1 82 9 is_stmt 1 view .LVU84
 276 00f4 3448     		ldr	r0, .L23+16
ARM GAS  C:\Users\tijsv\AppData\Local\Temp\ccO49ALn.s 			page 8


 277 00f6 FFF7FEFF 		bl	printDBG
 278              	.LVL38:
  83:../../../core/platform/common/src/flash_config.c ****           osDelay(50);
 279              		.loc 1 83 9 view .LVU85
 280              	.LBB7:
  83:../../../core/platform/common/src/flash_config.c ****           osDelay(50);
 281              		.loc 1 83 12 is_stmt 0 view .LVU86
 282 00fa FFF7FEFF 		bl	osKernelRunning
 283              	.LVL39:
  83:../../../core/platform/common/src/flash_config.c ****           osDelay(50);
 284              		.loc 1 83 11 view .LVU87
 285 00fe 0028     		cmp	r0, #0
 286 0100 F2D0     		beq	.L6
 287              	.LBB6:
  84:../../../core/platform/common/src/flash_config.c ****         else
 288              		.loc 1 84 11 is_stmt 1 view .LVU88
 289 0102 3220     		movs	r0, #50
 290 0104 FFF7FEFF 		bl	osDelay
 291              	.LVL40:
 292              	.LBE6:
 293 0108 F1E7     		b	.L5
 294              	.L19:
 295              	.LBE7:
  87:../../../core/platform/common/src/flash_config.c ****   }
  88:../../../core/platform/common/src/flash_config.c ****   uint8_t rxbuffer[OCTA_FLASH_PAGE_SIZE] = {0xff};
 296              		.loc 1 88 3 view .LVU89
 297              		.loc 1 88 11 is_stmt 0 view .LVU90
 298 010a FF23     		movs	r3, #255
 299 010c 0093     		str	r3, [sp]
 300 010e FC22     		movs	r2, #252
 301 0110 0021     		movs	r1, #0
 302 0112 01A8     		add	r0, sp, #4
 303 0114 FFF7FEFF 		bl	memset
 304              	.LVL41:
  89:../../../core/platform/common/src/flash_config.c ****   retval = OCTA_FLASH_read(rxbuffer, OCTA_FLASH_PAGE_SIZE);
 305              		.loc 1 89 3 is_stmt 1 view .LVU91
 306              		.loc 1 89 12 is_stmt 0 view .LVU92
 307 0118 4FF48071 		mov	r1, #256
 308 011c 6846     		mov	r0, sp
 309 011e FFF7FEFF 		bl	OCTA_FLASH_read
 310              	.LVL42:
  90:../../../core/platform/common/src/flash_config.c ****   if(retval != OCTA_FLASH_PAGE_SIZE)
 311              		.loc 1 90 3 is_stmt 1 view .LVU93
 312              		.loc 1 90 5 is_stmt 0 view .LVU94
 313 0122 B0F5807F 		cmp	r0, #256
 314 0126 13D1     		bne	.L20
 315              	.LVL43:
 316              	.L9:
  91:../../../core/platform/common/src/flash_config.c ****   {
  92:../../../core/platform/common/src/flash_config.c ****     printERR("Flash operation NOK: %d\r\n", retval);
  93:../../../core/platform/common/src/flash_config.c ****   }
  94:../../../core/platform/common/src/flash_config.c ****   printDBG("Flash after erase\r\n");
 317              		.loc 1 94 3 is_stmt 1 view .LVU95
 318 0128 2848     		ldr	r0, .L23+20
 319 012a FFF7FEFF 		bl	printDBG
 320              	.LVL44:
  95:../../../core/platform/common/src/flash_config.c ****   #if DEBUG
ARM GAS  C:\Users\tijsv\AppData\Local\Temp\ccO49ALn.s 			page 9


  96:../../../core/platform/common/src/flash_config.c ****     for (uint16_t i = 0; i < CONFIG_BUFFER_SIZE; ++i) {
  97:../../../core/platform/common/src/flash_config.c ****       printf("%02x", rxbuffer[i]);
  98:../../../core/platform/common/src/flash_config.c ****     }
  99:../../../core/platform/common/src/flash_config.c ****     printf("\r\n");
 100:../../../core/platform/common/src/flash_config.c ****   #endif
 101:../../../core/platform/common/src/flash_config.c **** 
 102:../../../core/platform/common/src/flash_config.c ****   printDBG("Writing updated configuration to flash:\r\n");
 321              		.loc 1 102 3 view .LVU96
 322 012e 2848     		ldr	r0, .L23+24
 323 0130 FFF7FEFF 		bl	printDBG
 324              	.LVL45:
 103:../../../core/platform/common/src/flash_config.c ****   #if DEBUG
 104:../../../core/platform/common/src/flash_config.c ****     for (uint16_t i = 0; i < CONFIG_BUFFER_SIZE; ++i) {
 105:../../../core/platform/common/src/flash_config.c ****       printf("%02x", flashBuffer[i]);
 106:../../../core/platform/common/src/flash_config.c ****     }
 107:../../../core/platform/common/src/flash_config.c ****     printf("\r\n");
 108:../../../core/platform/common/src/flash_config.c ****   #endif
 109:../../../core/platform/common/src/flash_config.c ****   
 110:../../../core/platform/common/src/flash_config.c ****   retval =  OCTA_FLASH_write(flashBuffer, OCTA_FLASH_PAGE_SIZE);
 325              		.loc 1 110 3 view .LVU97
 326              		.loc 1 110 13 is_stmt 0 view .LVU98
 327 0134 4FF48071 		mov	r1, #256
 328 0138 0DEB0100 		add	r0, sp, r1
 329 013c FFF7FEFF 		bl	OCTA_FLASH_write
 330              	.LVL46:
 111:../../../core/platform/common/src/flash_config.c ****   if(retval != OCTA_FLASH_PAGE_SIZE)
 331              		.loc 1 111 3 is_stmt 1 view .LVU99
 332              		.loc 1 111 5 is_stmt 0 view .LVU100
 333 0140 B0F5807F 		cmp	r0, #256
 334 0144 0CD0     		beq	.L11
 335              	.LBB8:
 112:../../../core/platform/common/src/flash_config.c ****   {
 113:../../../core/platform/common/src/flash_config.c ****     printERR("Flash operation NOK: %d\r\n", retval);
 336              		.loc 1 113 5 is_stmt 1 view .LVU101
 337 0146 0146     		mov	r1, r0
 338 0148 1D48     		ldr	r0, .L23+8
 339              	.LVL47:
 340              		.loc 1 113 5 is_stmt 0 view .LVU102
 341 014a FFF7FEFF 		bl	printERR
 342              	.LVL48:
 343              		.loc 1 113 5 view .LVU103
 344 014e 07E0     		b	.L11
 345              	.LVL49:
 346              	.L20:
 347              		.loc 1 113 5 view .LVU104
 348              	.LBE8:
 349              	.LBB9:
  92:../../../core/platform/common/src/flash_config.c ****   }
 350              		.loc 1 92 5 is_stmt 1 view .LVU105
 351 0150 0146     		mov	r1, r0
 352 0152 1B48     		ldr	r0, .L23+8
 353              	.LVL50:
  92:../../../core/platform/common/src/flash_config.c ****   }
 354              		.loc 1 92 5 is_stmt 0 view .LVU106
 355 0154 FFF7FEFF 		bl	printERR
 356              	.LVL51:
  92:../../../core/platform/common/src/flash_config.c ****   }
ARM GAS  C:\Users\tijsv\AppData\Local\Temp\ccO49ALn.s 			page 10


 357              		.loc 1 92 5 view .LVU107
 358 0158 E6E7     		b	.L9
 359              	.L12:
  92:../../../core/platform/common/src/flash_config.c ****   }
 360              		.loc 1 92 5 view .LVU108
 361              	.LBE9:
 362              	.LBB10:
 114:../../../core/platform/common/src/flash_config.c ****   }
 115:../../../core/platform/common/src/flash_config.c ****   while(OCTA_FLASH_isWriteInProgress())
 116:../../../core/platform/common/src/flash_config.c ****   {
 117:../../../core/platform/common/src/flash_config.c ****         printDBG("Write in progress\r\n");
 118:../../../core/platform/common/src/flash_config.c ****         if(osKernelRunning())
 119:../../../core/platform/common/src/flash_config.c ****           osDelay(50);
 120:../../../core/platform/common/src/flash_config.c ****         else
 121:../../../core/platform/common/src/flash_config.c ****           HAL_Delay(50);
 363              		.loc 1 121 11 is_stmt 1 view .LVU109
 364 015a 3220     		movs	r0, #50
 365 015c FFF7FEFF 		bl	HAL_Delay
 366              	.LVL52:
 367              	.L11:
 368              	.LBE10:
 115:../../../core/platform/common/src/flash_config.c ****   {
 369              		.loc 1 115 8 view .LVU110
 115:../../../core/platform/common/src/flash_config.c ****   {
 370              		.loc 1 115 9 is_stmt 0 view .LVU111
 371 0160 FFF7FEFF 		bl	OCTA_FLASH_isWriteInProgress
 372              	.LVL53:
 115:../../../core/platform/common/src/flash_config.c ****   {
 373              		.loc 1 115 8 view .LVU112
 374 0164 50B1     		cbz	r0, .L21
 117:../../../core/platform/common/src/flash_config.c ****         if(osKernelRunning())
 375              		.loc 1 117 9 is_stmt 1 view .LVU113
 376 0166 1848     		ldr	r0, .L23+16
 377 0168 FFF7FEFF 		bl	printDBG
 378              	.LVL54:
 118:../../../core/platform/common/src/flash_config.c ****           osDelay(50);
 379              		.loc 1 118 9 view .LVU114
 380              	.LBB12:
 118:../../../core/platform/common/src/flash_config.c ****           osDelay(50);
 381              		.loc 1 118 12 is_stmt 0 view .LVU115
 382 016c FFF7FEFF 		bl	osKernelRunning
 383              	.LVL55:
 118:../../../core/platform/common/src/flash_config.c ****           osDelay(50);
 384              		.loc 1 118 11 view .LVU116
 385 0170 0028     		cmp	r0, #0
 386 0172 F2D0     		beq	.L12
 387              	.LBB11:
 119:../../../core/platform/common/src/flash_config.c ****         else
 388              		.loc 1 119 11 is_stmt 1 view .LVU117
 389 0174 3220     		movs	r0, #50
 390 0176 FFF7FEFF 		bl	osDelay
 391              	.LVL56:
 392              	.LBE11:
 393 017a F1E7     		b	.L11
 394              	.L21:
 395              	.LBE12:
 122:../../../core/platform/common/src/flash_config.c ****   }
ARM GAS  C:\Users\tijsv\AppData\Local\Temp\ccO49ALn.s 			page 11


 123:../../../core/platform/common/src/flash_config.c ****   memset(flashBuffer, 0, OCTA_FLASH_PAGE_SIZE);
 396              		.loc 1 123 3 view .LVU118
 397 017c 4FF48074 		mov	r4, #256
 398              	.LVL57:
 399              		.loc 1 123 3 is_stmt 0 view .LVU119
 400 0180 2246     		mov	r2, r4
 401 0182 0021     		movs	r1, #0
 402 0184 0DEB0400 		add	r0, sp, r4
 403 0188 FFF7FEFF 		bl	memset
 404              	.LVL58:
 124:../../../core/platform/common/src/flash_config.c ****   retval = OCTA_FLASH_read(flashBuffer, OCTA_FLASH_PAGE_SIZE);
 405              		.loc 1 124 3 is_stmt 1 view .LVU120
 406              		.loc 1 124 12 is_stmt 0 view .LVU121
 407 018c 2146     		mov	r1, r4
 408 018e 0DEB0400 		add	r0, sp, r4
 409 0192 FFF7FEFF 		bl	OCTA_FLASH_read
 410              	.LVL59:
 411 0196 0446     		mov	r4, r0
 412              	.LVL60:
 125:../../../core/platform/common/src/flash_config.c ****   if(retval != OCTA_FLASH_PAGE_SIZE)
 413              		.loc 1 125 3 is_stmt 1 view .LVU122
 414              		.loc 1 125 5 is_stmt 0 view .LVU123
 415 0198 B0F5807F 		cmp	r0, #256
 416 019c 06D1     		bne	.L22
 417              	.LVL61:
 418              	.L15:
 126:../../../core/platform/common/src/flash_config.c ****   {
 127:../../../core/platform/common/src/flash_config.c ****     printERR("Flash operation NOK: %d\r\n", retval);
 128:../../../core/platform/common/src/flash_config.c ****   }
 129:../../../core/platform/common/src/flash_config.c ****   printDBG("Flash after new config\r\n");
 419              		.loc 1 129 3 is_stmt 1 view .LVU124
 420 019e 0D48     		ldr	r0, .L23+28
 421 01a0 FFF7FEFF 		bl	printDBG
 422              	.LVL62:
 130:../../../core/platform/common/src/flash_config.c ****   #if DEBUG
 131:../../../core/platform/common/src/flash_config.c ****     for (uint16_t i = 0; i < CONFIG_BUFFER_SIZE; ++i) {
 132:../../../core/platform/common/src/flash_config.c ****       printf("%02x", flashBuffer[i]);
 133:../../../core/platform/common/src/flash_config.c ****     }
 134:../../../core/platform/common/src/flash_config.c ****     printf("\r\n");
 135:../../../core/platform/common/src/flash_config.c ****   #endif
 136:../../../core/platform/common/src/flash_config.c ****   return retval;
 423              		.loc 1 136 3 view .LVU125
 137:../../../core/platform/common/src/flash_config.c **** }...
 424              		.loc 1 137 1 is_stmt 0 view .LVU126
 425 01a4 E0B2     		uxtb	r0, r4
 426 01a6 0DF5007D 		add	sp, sp, #512
 427              	.LCFI2:
 428              		.cfi_remember_state
 429              		.cfi_def_cfa_offset 8
 430              		@ sp needed
 431 01aa 10BD     		pop	{r4, pc}
 432              	.LVL63:
 433              	.L22:
 434              	.LCFI3:
 435              		.cfi_restore_state
 436              	.LBB13:
 127:../../../core/platform/common/src/flash_config.c ****     printERR("Flash operation NOK: %d\r\n", retval);
ARM GAS  C:\Users\tijsv\AppData\Local\Temp\ccO49ALn.s 			page 12


 437              		.loc 1 127 5 is_stmt 1 view .LVU127
 438 01ac 0146     		mov	r1, r0
 439 01ae 0448     		ldr	r0, .L23+8
 440              	.LVL64:
 127:../../../core/platform/common/src/flash_config.c ****     printERR("Flash operation NOK: %d\r\n", retval);
 441              		.loc 1 127 5 is_stmt 0 view .LVU128
 442 01b0 FFF7FEFF 		bl	printERR
 443              	.LVL65:
 444 01b4 F3E7     		b	.L15
 445              	.L24:
 446 01b6 00BF     		.align	2
 447              	.L23:
 448 01b8 30000000 		.word	.LC2
 449 01bc 00000000 		.word	uint32LittleEndian
 450 01c0 14000000 		.word	.LC1
 451 01c4 00000000 		.word	.LC0
 452 01c8 50000000 		.word	.LC3
 453 01cc 64000000 		.word	.LC4
 454 01d0 78000000 		.word	.LC5
 455 01d4 A4000000 		.word	.LC6
 456              	.LBE13:
 457              		.cfi_endproc
 458              	.LFE123:
 460              		.comm	octa_uid,8,8
 461              		.comm	float_union,4,4
 462              		.comm	uint16LittleEndian,2,4
 463              		.comm	int16LittleEndian,2,4
 464              		.comm	uint32LittleEndian,4,4
 465              		.comm	int32LittleEndian,4,4
 466              		.text
 467              	.Letext0:
 468              		.file 2 "c:\\program files (x86)\\gnu tools arm embedded\\9 2019-q4-major\\arm-none-eabi\\include\
 469              		.file 3 "c:\\program files (x86)\\gnu tools arm embedded\\9 2019-q4-major\\arm-none-eabi\\include\
 470              		.file 4 "../../../core/ST/CMSIS/Include/core_cm4.h"
 471              		.file 5 "../../../core/ST/CMSIS/Device/ST/STM32L4xx/Include/system_stm32l4xx.h"
 472              		.file 6 "../../../core/ST/STM32L4xx_HAL_Driver/Inc/stm32l4xx_hal.h"
 473              		.file 7 "../../../core/platform/common/inc/datatypes.h"
 474              		.file 8 "<built-in>"
 475              		.file 9 "../../../core/drivers/octa-flash/inc/octa-flash.h"
ARM GAS  C:\Users\tijsv\AppData\Local\Temp\ccO49ALn.s 			page 13

