ARM GAS  C:\Users\tijsv\AppData\Local\Temp\ccWfD2ke.s 			page 1


   1              		.cpu cortex-m4
   2              		.eabi_attribute 27, 1
   3              		.eabi_attribute 28, 1
   4              		.eabi_attribute 20, 1
   5              		.eabi_attribute 21, 1
   6              		.eabi_attribute 23, 3
   7              		.eabi_attribute 24, 1
   8              		.eabi_attribute 25, 1
   9              		.eabi_attribute 26, 1
  10              		.eabi_attribute 30, 1
  11              		.eabi_attribute 34, 1
  12              		.eabi_attribute 18, 4
  13              		.file	"stm32l4xx_hal_timebase_tim.c"
  14              		.text
  15              	.Ltext0:
  16              		.cfi_sections	.debug_frame
  17              		.section	.text.HAL_InitTick,"ax",%progbits
  18              		.align	1
  19              		.global	HAL_InitTick
  20              		.arch armv7e-m
  21              		.syntax unified
  22              		.thumb
  23              		.thumb_func
  24              		.fpu fpv4-sp-d16
  26              	HAL_InitTick:
  27              	.LVL0:
  28              	.LFB123:
  29              		.file 1 "../../../core/platform/octa/src/stm32l4xx_hal_timebase_tim.c"
   1:../../../core/platform/octa/src/stm32l4xx_hal_timebase_tim.c **** /* USER CODE BEGIN Header */
   2:../../../core/platform/octa/src/stm32l4xx_hal_timebase_tim.c **** /**
   3:../../../core/platform/octa/src/stm32l4xx_hal_timebase_tim.c ****   ******************************************************************************
   4:../../../core/platform/octa/src/stm32l4xx_hal_timebase_tim.c ****   * @file    stm32l4xx_hal_timebase_TIM.c 
   5:../../../core/platform/octa/src/stm32l4xx_hal_timebase_tim.c ****   * @brief   HAL time base based on the hardware TIM.
   6:../../../core/platform/octa/src/stm32l4xx_hal_timebase_tim.c ****   ******************************************************************************
   7:../../../core/platform/octa/src/stm32l4xx_hal_timebase_tim.c ****   * This notice applies to any and all portions of this file
   8:../../../core/platform/octa/src/stm32l4xx_hal_timebase_tim.c ****   * that are not between comment pairs USER CODE BEGIN and
   9:../../../core/platform/octa/src/stm32l4xx_hal_timebase_tim.c ****   * USER CODE END. Other portions of this file, whether 
  10:../../../core/platform/octa/src/stm32l4xx_hal_timebase_tim.c ****   * inserted by the user or by software development tools
  11:../../../core/platform/octa/src/stm32l4xx_hal_timebase_tim.c ****   * are owned by their respective copyright owners.
  12:../../../core/platform/octa/src/stm32l4xx_hal_timebase_tim.c ****   *
  13:../../../core/platform/octa/src/stm32l4xx_hal_timebase_tim.c ****   * Copyright (c) 2019 STMicroelectronics International N.V. 
  14:../../../core/platform/octa/src/stm32l4xx_hal_timebase_tim.c ****   * All rights reserved.
  15:../../../core/platform/octa/src/stm32l4xx_hal_timebase_tim.c ****   *
  16:../../../core/platform/octa/src/stm32l4xx_hal_timebase_tim.c ****   * Redistribution and use in source and binary forms, with or without 
  17:../../../core/platform/octa/src/stm32l4xx_hal_timebase_tim.c ****   * modification, are permitted, provided that the following conditions are met:
  18:../../../core/platform/octa/src/stm32l4xx_hal_timebase_tim.c ****   *
  19:../../../core/platform/octa/src/stm32l4xx_hal_timebase_tim.c ****   * 1. Redistribution of source code must retain the above copyright notice, 
  20:../../../core/platform/octa/src/stm32l4xx_hal_timebase_tim.c ****   *    this list of conditions and the following disclaimer.
  21:../../../core/platform/octa/src/stm32l4xx_hal_timebase_tim.c ****   * 2. Redistributions in binary form must reproduce the above copyright notice,
  22:../../../core/platform/octa/src/stm32l4xx_hal_timebase_tim.c ****   *    this list of conditions and the following disclaimer in the documentation
  23:../../../core/platform/octa/src/stm32l4xx_hal_timebase_tim.c ****   *    and/or other materials provided with the distribution.
  24:../../../core/platform/octa/src/stm32l4xx_hal_timebase_tim.c ****   * 3. Neither the name of STMicroelectronics nor the names of other 
  25:../../../core/platform/octa/src/stm32l4xx_hal_timebase_tim.c ****   *    contributors to this software may be used to endorse or promote products 
  26:../../../core/platform/octa/src/stm32l4xx_hal_timebase_tim.c ****   *    derived from this software without specific written permission.
  27:../../../core/platform/octa/src/stm32l4xx_hal_timebase_tim.c ****   * 4. This software, including modifications and/or derivative works of this 
  28:../../../core/platform/octa/src/stm32l4xx_hal_timebase_tim.c ****   *    software, must execute solely and exclusively on microcontroller or
  29:../../../core/platform/octa/src/stm32l4xx_hal_timebase_tim.c ****   *    microprocessor devices manufactured by or for STMicroelectronics.
ARM GAS  C:\Users\tijsv\AppData\Local\Temp\ccWfD2ke.s 			page 2


  30:../../../core/platform/octa/src/stm32l4xx_hal_timebase_tim.c ****   * 5. Redistribution and use of this software other than as permitted under 
  31:../../../core/platform/octa/src/stm32l4xx_hal_timebase_tim.c ****   *    this license is void and will automatically terminate your rights under 
  32:../../../core/platform/octa/src/stm32l4xx_hal_timebase_tim.c ****   *    this license. 
  33:../../../core/platform/octa/src/stm32l4xx_hal_timebase_tim.c ****   *
  34:../../../core/platform/octa/src/stm32l4xx_hal_timebase_tim.c ****   * THIS SOFTWARE IS PROVIDED BY STMICROELECTRONICS AND CONTRIBUTORS "AS IS" 
  35:../../../core/platform/octa/src/stm32l4xx_hal_timebase_tim.c ****   * AND ANY EXPRESS, IMPLIED OR STATUTORY WARRANTIES, INCLUDING, BUT NOT 
  36:../../../core/platform/octa/src/stm32l4xx_hal_timebase_tim.c ****   * LIMITED TO, THE IMPLIED WARRANTIES OF MERCHANTABILITY, FITNESS FOR A 
  37:../../../core/platform/octa/src/stm32l4xx_hal_timebase_tim.c ****   * PARTICULAR PURPOSE AND NON-INFRINGEMENT OF THIRD PARTY INTELLECTUAL PROPERTY
  38:../../../core/platform/octa/src/stm32l4xx_hal_timebase_tim.c ****   * RIGHTS ARE DISCLAIMED TO THE FULLEST EXTENT PERMITTED BY LAW. IN NO EVENT 
  39:../../../core/platform/octa/src/stm32l4xx_hal_timebase_tim.c ****   * SHALL STMICROELECTRONICS OR CONTRIBUTORS BE LIABLE FOR ANY DIRECT, INDIRECT,
  40:../../../core/platform/octa/src/stm32l4xx_hal_timebase_tim.c ****   * INCIDENTAL, SPECIAL, EXEMPLARY, OR CONSEQUENTIAL DAMAGES (INCLUDING, BUT NOT
  41:../../../core/platform/octa/src/stm32l4xx_hal_timebase_tim.c ****   * LIMITED TO, PROCUREMENT OF SUBSTITUTE GOODS OR SERVICES; LOSS OF USE, DATA, 
  42:../../../core/platform/octa/src/stm32l4xx_hal_timebase_tim.c ****   * OR PROFITS; OR BUSINESS INTERRUPTION) HOWEVER CAUSED AND ON ANY THEORY OF 
  43:../../../core/platform/octa/src/stm32l4xx_hal_timebase_tim.c ****   * LIABILITY, WHETHER IN CONTRACT, STRICT LIABILITY, OR TORT (INCLUDING 
  44:../../../core/platform/octa/src/stm32l4xx_hal_timebase_tim.c ****   * NEGLIGENCE OR OTHERWISE) ARISING IN ANY WAY OUT OF THE USE OF THIS SOFTWARE,
  45:../../../core/platform/octa/src/stm32l4xx_hal_timebase_tim.c ****   * EVEN IF ADVISED OF THE POSSIBILITY OF SUCH DAMAGE.
  46:../../../core/platform/octa/src/stm32l4xx_hal_timebase_tim.c ****   *
  47:../../../core/platform/octa/src/stm32l4xx_hal_timebase_tim.c ****   ******************************************************************************
  48:../../../core/platform/octa/src/stm32l4xx_hal_timebase_tim.c ****   */
  49:../../../core/platform/octa/src/stm32l4xx_hal_timebase_tim.c **** /* USER CODE END Header */
  50:../../../core/platform/octa/src/stm32l4xx_hal_timebase_tim.c **** 
  51:../../../core/platform/octa/src/stm32l4xx_hal_timebase_tim.c **** /* Includes ------------------------------------------------------------------*/
  52:../../../core/platform/octa/src/stm32l4xx_hal_timebase_tim.c **** #include "stm32l4xx_hal.h"
  53:../../../core/platform/octa/src/stm32l4xx_hal_timebase_tim.c **** #include "stm32l4xx_hal_tim.h"
  54:../../../core/platform/octa/src/stm32l4xx_hal_timebase_tim.c ****  
  55:../../../core/platform/octa/src/stm32l4xx_hal_timebase_tim.c **** /* Private typedef -----------------------------------------------------------*/
  56:../../../core/platform/octa/src/stm32l4xx_hal_timebase_tim.c **** /* Private define ------------------------------------------------------------*/
  57:../../../core/platform/octa/src/stm32l4xx_hal_timebase_tim.c **** /* Private macro -------------------------------------------------------------*/
  58:../../../core/platform/octa/src/stm32l4xx_hal_timebase_tim.c **** /* Private variables ---------------------------------------------------------*/
  59:../../../core/platform/octa/src/stm32l4xx_hal_timebase_tim.c **** TIM_HandleTypeDef        htim1; 
  60:../../../core/platform/octa/src/stm32l4xx_hal_timebase_tim.c **** /* Private function prototypes -----------------------------------------------*/
  61:../../../core/platform/octa/src/stm32l4xx_hal_timebase_tim.c **** /* Private functions ---------------------------------------------------------*/
  62:../../../core/platform/octa/src/stm32l4xx_hal_timebase_tim.c **** 
  63:../../../core/platform/octa/src/stm32l4xx_hal_timebase_tim.c **** /**
  64:../../../core/platform/octa/src/stm32l4xx_hal_timebase_tim.c ****   * @brief  This function configures the TIM1 as a time base source. 
  65:../../../core/platform/octa/src/stm32l4xx_hal_timebase_tim.c ****   *         The time source is configured  to have 1ms time base with a dedicated 
  66:../../../core/platform/octa/src/stm32l4xx_hal_timebase_tim.c ****   *         Tick interrupt priority. 
  67:../../../core/platform/octa/src/stm32l4xx_hal_timebase_tim.c ****   * @note   This function is called  automatically at the beginning of program after
  68:../../../core/platform/octa/src/stm32l4xx_hal_timebase_tim.c ****   *         reset by HAL_Init() or at any time when clock is configured, by HAL_RCC_ClockConfig(). 
  69:../../../core/platform/octa/src/stm32l4xx_hal_timebase_tim.c ****   * @param  TickPriority: Tick interrupt priority.
  70:../../../core/platform/octa/src/stm32l4xx_hal_timebase_tim.c ****   * @retval HAL status
  71:../../../core/platform/octa/src/stm32l4xx_hal_timebase_tim.c ****   */
  72:../../../core/platform/octa/src/stm32l4xx_hal_timebase_tim.c **** HAL_StatusTypeDef HAL_InitTick(uint32_t TickPriority)
  73:../../../core/platform/octa/src/stm32l4xx_hal_timebase_tim.c **** {
  30              		.loc 1 73 1 view -0
  31              		.cfi_startproc
  32              		@ args = 0, pretend = 0, frame = 32
  33              		@ frame_needed = 0, uses_anonymous_args = 0
  34              		.loc 1 73 1 is_stmt 0 view .LVU1
  35 0000 00B5     		push	{lr}
  36              	.LCFI0:
  37              		.cfi_def_cfa_offset 4
  38              		.cfi_offset 14, -4
  39 0002 89B0     		sub	sp, sp, #36
  40              	.LCFI1:
  41              		.cfi_def_cfa_offset 40
  42 0004 0146     		mov	r1, r0
ARM GAS  C:\Users\tijsv\AppData\Local\Temp\ccWfD2ke.s 			page 3


  74:../../../core/platform/octa/src/stm32l4xx_hal_timebase_tim.c ****   RCC_ClkInitTypeDef    clkconfig;
  43              		.loc 1 74 3 is_stmt 1 view .LVU2
  75:../../../core/platform/octa/src/stm32l4xx_hal_timebase_tim.c ****   uint32_t              uwTimclock = 0;
  44              		.loc 1 75 3 view .LVU3
  45              	.LVL1:
  76:../../../core/platform/octa/src/stm32l4xx_hal_timebase_tim.c ****   uint32_t              uwPrescalerValue = 0;
  46              		.loc 1 76 3 view .LVU4
  77:../../../core/platform/octa/src/stm32l4xx_hal_timebase_tim.c ****   uint32_t              pFLatency;
  47              		.loc 1 77 3 view .LVU5
  78:../../../core/platform/octa/src/stm32l4xx_hal_timebase_tim.c ****   
  79:../../../core/platform/octa/src/stm32l4xx_hal_timebase_tim.c ****   /*Configure the TIM1 IRQ priority */
  80:../../../core/platform/octa/src/stm32l4xx_hal_timebase_tim.c ****   HAL_NVIC_SetPriority(TIM1_UP_TIM16_IRQn, TickPriority ,0); 
  48              		.loc 1 80 3 view .LVU6
  49 0006 0022     		movs	r2, #0
  50 0008 1920     		movs	r0, #25
  51              	.LVL2:
  52              		.loc 1 80 3 is_stmt 0 view .LVU7
  53 000a FFF7FEFF 		bl	HAL_NVIC_SetPriority
  54              	.LVL3:
  81:../../../core/platform/octa/src/stm32l4xx_hal_timebase_tim.c ****   
  82:../../../core/platform/octa/src/stm32l4xx_hal_timebase_tim.c ****   /* Enable the TIM1 global Interrupt */
  83:../../../core/platform/octa/src/stm32l4xx_hal_timebase_tim.c ****   HAL_NVIC_EnableIRQ(TIM1_UP_TIM16_IRQn); 
  55              		.loc 1 83 3 is_stmt 1 view .LVU8
  56 000e 1920     		movs	r0, #25
  57 0010 FFF7FEFF 		bl	HAL_NVIC_EnableIRQ
  58              	.LVL4:
  84:../../../core/platform/octa/src/stm32l4xx_hal_timebase_tim.c ****   
  85:../../../core/platform/octa/src/stm32l4xx_hal_timebase_tim.c ****   /* Enable TIM1 clock */
  86:../../../core/platform/octa/src/stm32l4xx_hal_timebase_tim.c ****   __HAL_RCC_TIM1_CLK_ENABLE();
  59              		.loc 1 86 3 view .LVU9
  60              	.LBB2:
  61              		.loc 1 86 3 view .LVU10
  62              		.loc 1 86 3 view .LVU11
  63 0014 174B     		ldr	r3, .L6
  64 0016 1A6E     		ldr	r2, [r3, #96]
  65 0018 42F40062 		orr	r2, r2, #2048
  66 001c 1A66     		str	r2, [r3, #96]
  67              		.loc 1 86 3 view .LVU12
  68 001e 1B6E     		ldr	r3, [r3, #96]
  69 0020 03F40063 		and	r3, r3, #2048
  70 0024 0193     		str	r3, [sp, #4]
  71              		.loc 1 86 3 view .LVU13
  72 0026 019B     		ldr	r3, [sp, #4]
  73              	.LBE2:
  74              		.loc 1 86 3 view .LVU14
  87:../../../core/platform/octa/src/stm32l4xx_hal_timebase_tim.c ****   
  88:../../../core/platform/octa/src/stm32l4xx_hal_timebase_tim.c ****   /* Get clock configuration */
  89:../../../core/platform/octa/src/stm32l4xx_hal_timebase_tim.c ****   HAL_RCC_GetClockConfig(&clkconfig, &pFLatency);
  75              		.loc 1 89 3 view .LVU15
  76 0028 02A9     		add	r1, sp, #8
  77 002a 03A8     		add	r0, sp, #12
  78 002c FFF7FEFF 		bl	HAL_RCC_GetClockConfig
  79              	.LVL5:
  90:../../../core/platform/octa/src/stm32l4xx_hal_timebase_tim.c ****   
  91:../../../core/platform/octa/src/stm32l4xx_hal_timebase_tim.c ****   /* Compute TIM1 clock */
  92:../../../core/platform/octa/src/stm32l4xx_hal_timebase_tim.c ****   uwTimclock = HAL_RCC_GetPCLK2Freq();
  80              		.loc 1 92 3 view .LVU16
ARM GAS  C:\Users\tijsv\AppData\Local\Temp\ccWfD2ke.s 			page 4


  81              		.loc 1 92 16 is_stmt 0 view .LVU17
  82 0030 FFF7FEFF 		bl	HAL_RCC_GetPCLK2Freq
  83              	.LVL6:
  93:../../../core/platform/octa/src/stm32l4xx_hal_timebase_tim.c ****    
  94:../../../core/platform/octa/src/stm32l4xx_hal_timebase_tim.c ****   /* Compute the prescaler value to have TIM1 counter clock equal to 1MHz */
  95:../../../core/platform/octa/src/stm32l4xx_hal_timebase_tim.c ****   uwPrescalerValue = (uint32_t) ((uwTimclock / 1000000) - 1);
  84              		.loc 1 95 3 is_stmt 1 view .LVU18
  85              		.loc 1 95 46 is_stmt 0 view .LVU19
  86 0034 104B     		ldr	r3, .L6+4
  87 0036 A3FB0023 		umull	r2, r3, r3, r0
  88 003a 9B0C     		lsrs	r3, r3, #18
  89              		.loc 1 95 20 view .LVU20
  90 003c 013B     		subs	r3, r3, #1
  91              	.LVL7:
  96:../../../core/platform/octa/src/stm32l4xx_hal_timebase_tim.c ****   
  97:../../../core/platform/octa/src/stm32l4xx_hal_timebase_tim.c ****   /* Initialize TIM1 */
  98:../../../core/platform/octa/src/stm32l4xx_hal_timebase_tim.c ****   htim1.Instance = TIM1;
  92              		.loc 1 98 3 is_stmt 1 view .LVU21
  93              		.loc 1 98 18 is_stmt 0 view .LVU22
  94 003e 0F48     		ldr	r0, .L6+8
  95              	.LVL8:
  96              		.loc 1 98 18 view .LVU23
  97 0040 0F4A     		ldr	r2, .L6+12
  98 0042 0260     		str	r2, [r0]
  99:../../../core/platform/octa/src/stm32l4xx_hal_timebase_tim.c ****   
 100:../../../core/platform/octa/src/stm32l4xx_hal_timebase_tim.c ****   /* Initialize TIMx peripheral as follow:
 101:../../../core/platform/octa/src/stm32l4xx_hal_timebase_tim.c ****   + Period = [(TIM1CLK/1000) - 1]. to have a (1/1000) s time base.
 102:../../../core/platform/octa/src/stm32l4xx_hal_timebase_tim.c ****   + Prescaler = (uwTimclock/1000000 - 1) to have a 1MHz counter clock.
 103:../../../core/platform/octa/src/stm32l4xx_hal_timebase_tim.c ****   + ClockDivision = 0
 104:../../../core/platform/octa/src/stm32l4xx_hal_timebase_tim.c ****   + Counter direction = Up
 105:../../../core/platform/octa/src/stm32l4xx_hal_timebase_tim.c ****   */
 106:../../../core/platform/octa/src/stm32l4xx_hal_timebase_tim.c ****   htim1.Init.Period = (1000000 / 1000) - 1;
  99              		.loc 1 106 3 is_stmt 1 view .LVU24
 100              		.loc 1 106 21 is_stmt 0 view .LVU25
 101 0044 40F2E732 		movw	r2, #999
 102 0048 C260     		str	r2, [r0, #12]
 107:../../../core/platform/octa/src/stm32l4xx_hal_timebase_tim.c ****   htim1.Init.Prescaler = uwPrescalerValue;
 103              		.loc 1 107 3 is_stmt 1 view .LVU26
 104              		.loc 1 107 24 is_stmt 0 view .LVU27
 105 004a 4360     		str	r3, [r0, #4]
 108:../../../core/platform/octa/src/stm32l4xx_hal_timebase_tim.c ****   htim1.Init.ClockDivision = 0;
 106              		.loc 1 108 3 is_stmt 1 view .LVU28
 107              		.loc 1 108 28 is_stmt 0 view .LVU29
 108 004c 0023     		movs	r3, #0
 109              	.LVL9:
 110              		.loc 1 108 28 view .LVU30
 111 004e 0361     		str	r3, [r0, #16]
 109:../../../core/platform/octa/src/stm32l4xx_hal_timebase_tim.c ****   htim1.Init.CounterMode = TIM_COUNTERMODE_UP;
 112              		.loc 1 109 3 is_stmt 1 view .LVU31
 113              		.loc 1 109 26 is_stmt 0 view .LVU32
 114 0050 8360     		str	r3, [r0, #8]
 110:../../../core/platform/octa/src/stm32l4xx_hal_timebase_tim.c ****   if(HAL_TIM_Base_Init(&htim1) == HAL_OK)
 115              		.loc 1 110 3 is_stmt 1 view .LVU33
 116              		.loc 1 110 6 is_stmt 0 view .LVU34
 117 0052 FFF7FEFF 		bl	HAL_TIM_Base_Init
 118              	.LVL10:
 119              		.loc 1 110 5 view .LVU35
ARM GAS  C:\Users\tijsv\AppData\Local\Temp\ccWfD2ke.s 			page 5


 120 0056 48B1     		cbz	r0, .L5
 111:../../../core/platform/octa/src/stm32l4xx_hal_timebase_tim.c ****   {
 112:../../../core/platform/octa/src/stm32l4xx_hal_timebase_tim.c ****     /* Start the TIM time Base generation in interrupt mode */
 113:../../../core/platform/octa/src/stm32l4xx_hal_timebase_tim.c ****     return HAL_TIM_Base_Start_IT(&htim1);
 114:../../../core/platform/octa/src/stm32l4xx_hal_timebase_tim.c ****   }
 115:../../../core/platform/octa/src/stm32l4xx_hal_timebase_tim.c ****     /* SysTick_IRQn interrupt configuration */
 116:../../../core/platform/octa/src/stm32l4xx_hal_timebase_tim.c ****   HAL_NVIC_SetPriority(SysTick_IRQn, 0, 0);
 121              		.loc 1 116 3 is_stmt 1 view .LVU36
 122 0058 0022     		movs	r2, #0
 123 005a 1146     		mov	r1, r2
 124 005c 4FF0FF30 		mov	r0, #-1
 125 0060 FFF7FEFF 		bl	HAL_NVIC_SetPriority
 126              	.LVL11:
 117:../../../core/platform/octa/src/stm32l4xx_hal_timebase_tim.c **** 
 118:../../../core/platform/octa/src/stm32l4xx_hal_timebase_tim.c ****   /* Return function status */
 119:../../../core/platform/octa/src/stm32l4xx_hal_timebase_tim.c ****   return HAL_ERROR;
 127              		.loc 1 119 3 view .LVU37
 128              		.loc 1 119 10 is_stmt 0 view .LVU38
 129 0064 0120     		movs	r0, #1
 130              	.L3:
 120:../../../core/platform/octa/src/stm32l4xx_hal_timebase_tim.c **** }
 131              		.loc 1 120 1 view .LVU39
 132 0066 09B0     		add	sp, sp, #36
 133              	.LCFI2:
 134              		.cfi_remember_state
 135              		.cfi_def_cfa_offset 4
 136              		@ sp needed
 137 0068 5DF804FB 		ldr	pc, [sp], #4
 138              	.L5:
 139              	.LCFI3:
 140              		.cfi_restore_state
 113:../../../core/platform/octa/src/stm32l4xx_hal_timebase_tim.c ****   }
 141              		.loc 1 113 5 is_stmt 1 view .LVU40
 113:../../../core/platform/octa/src/stm32l4xx_hal_timebase_tim.c ****   }
 142              		.loc 1 113 12 is_stmt 0 view .LVU41
 143 006c 0348     		ldr	r0, .L6+8
 144 006e FFF7FEFF 		bl	HAL_TIM_Base_Start_IT
 145              	.LVL12:
 146 0072 F8E7     		b	.L3
 147              	.L7:
 148              		.align	2
 149              	.L6:
 150 0074 00100240 		.word	1073876992
 151 0078 83DE1B43 		.word	1125899907
 152 007c 00000000 		.word	htim1
 153 0080 002C0140 		.word	1073818624
 154              		.cfi_endproc
 155              	.LFE123:
 157              		.section	.text.HAL_SuspendTick,"ax",%progbits
 158              		.align	1
 159              		.global	HAL_SuspendTick
 160              		.syntax unified
 161              		.thumb
 162              		.thumb_func
 163              		.fpu fpv4-sp-d16
 165              	HAL_SuspendTick:
 166              	.LFB124:
ARM GAS  C:\Users\tijsv\AppData\Local\Temp\ccWfD2ke.s 			page 6


 121:../../../core/platform/octa/src/stm32l4xx_hal_timebase_tim.c **** 
 122:../../../core/platform/octa/src/stm32l4xx_hal_timebase_tim.c **** /**
 123:../../../core/platform/octa/src/stm32l4xx_hal_timebase_tim.c ****   * @brief  Suspend Tick increment.
 124:../../../core/platform/octa/src/stm32l4xx_hal_timebase_tim.c ****   * @note   Disable the tick increment by disabling TIM1 update interrupt.
 125:../../../core/platform/octa/src/stm32l4xx_hal_timebase_tim.c ****   * @param  None
 126:../../../core/platform/octa/src/stm32l4xx_hal_timebase_tim.c ****   * @retval None
 127:../../../core/platform/octa/src/stm32l4xx_hal_timebase_tim.c ****   */
 128:../../../core/platform/octa/src/stm32l4xx_hal_timebase_tim.c **** void HAL_SuspendTick(void)
 129:../../../core/platform/octa/src/stm32l4xx_hal_timebase_tim.c **** {
 167              		.loc 1 129 1 is_stmt 1 view -0
 168              		.cfi_startproc
 169              		@ args = 0, pretend = 0, frame = 0
 170              		@ frame_needed = 0, uses_anonymous_args = 0
 171              		@ link register save eliminated.
 130:../../../core/platform/octa/src/stm32l4xx_hal_timebase_tim.c ****   /* Disable TIM1 update Interrupt */
 131:../../../core/platform/octa/src/stm32l4xx_hal_timebase_tim.c ****   __HAL_TIM_DISABLE_IT(&htim1, TIM_IT_UPDATE);                                                  
 172              		.loc 1 131 3 view .LVU43
 173 0000 034B     		ldr	r3, .L9
 174 0002 1A68     		ldr	r2, [r3]
 175 0004 D368     		ldr	r3, [r2, #12]
 176 0006 23F00103 		bic	r3, r3, #1
 177 000a D360     		str	r3, [r2, #12]
 132:../../../core/platform/octa/src/stm32l4xx_hal_timebase_tim.c **** }
 178              		.loc 1 132 1 is_stmt 0 view .LVU44
 179 000c 7047     		bx	lr
 180              	.L10:
 181 000e 00BF     		.align	2
 182              	.L9:
 183 0010 00000000 		.word	htim1
 184              		.cfi_endproc
 185              	.LFE124:
 187              		.section	.text.HAL_ResumeTick,"ax",%progbits
 188              		.align	1
 189              		.global	HAL_ResumeTick
 190              		.syntax unified
 191              		.thumb
 192              		.thumb_func
 193              		.fpu fpv4-sp-d16
 195              	HAL_ResumeTick:
 196              	.LFB125:
 133:../../../core/platform/octa/src/stm32l4xx_hal_timebase_tim.c **** 
 134:../../../core/platform/octa/src/stm32l4xx_hal_timebase_tim.c **** /**
 135:../../../core/platform/octa/src/stm32l4xx_hal_timebase_tim.c ****   * @brief  Resume Tick increment.
 136:../../../core/platform/octa/src/stm32l4xx_hal_timebase_tim.c ****   * @note   Enable the tick increment by Enabling TIM1 update interrupt.
 137:../../../core/platform/octa/src/stm32l4xx_hal_timebase_tim.c ****   * @param  None
 138:../../../core/platform/octa/src/stm32l4xx_hal_timebase_tim.c ****   * @retval None
 139:../../../core/platform/octa/src/stm32l4xx_hal_timebase_tim.c ****   */
 140:../../../core/platform/octa/src/stm32l4xx_hal_timebase_tim.c **** void HAL_ResumeTick(void)
 141:../../../core/platform/octa/src/stm32l4xx_hal_timebase_tim.c **** {
 197              		.loc 1 141 1 is_stmt 1 view -0
 198              		.cfi_startproc
 199              		@ args = 0, pretend = 0, frame = 0
 200              		@ frame_needed = 0, uses_anonymous_args = 0
 201              		@ link register save eliminated.
 142:../../../core/platform/octa/src/stm32l4xx_hal_timebase_tim.c ****   /* Enable TIM1 Update interrupt */
 143:../../../core/platform/octa/src/stm32l4xx_hal_timebase_tim.c ****   __HAL_TIM_ENABLE_IT(&htim1, TIM_IT_UPDATE);
 202              		.loc 1 143 3 view .LVU46
ARM GAS  C:\Users\tijsv\AppData\Local\Temp\ccWfD2ke.s 			page 7


 203 0000 034B     		ldr	r3, .L12
 204 0002 1A68     		ldr	r2, [r3]
 205 0004 D368     		ldr	r3, [r2, #12]
 206 0006 43F00103 		orr	r3, r3, #1
 207 000a D360     		str	r3, [r2, #12]
 144:../../../core/platform/octa/src/stm32l4xx_hal_timebase_tim.c **** }
 208              		.loc 1 144 1 is_stmt 0 view .LVU47
 209 000c 7047     		bx	lr
 210              	.L13:
 211 000e 00BF     		.align	2
 212              	.L12:
 213 0010 00000000 		.word	htim1
 214              		.cfi_endproc
 215              	.LFE125:
 217              		.section	.text.HAL_TIM_PeriodElapsedCallback,"ax",%progbits
 218              		.align	1
 219              		.global	HAL_TIM_PeriodElapsedCallback
 220              		.syntax unified
 221              		.thumb
 222              		.thumb_func
 223              		.fpu fpv4-sp-d16
 225              	HAL_TIM_PeriodElapsedCallback:
 226              	.LVL13:
 227              	.LFB126:
 145:../../../core/platform/octa/src/stm32l4xx_hal_timebase_tim.c **** 
 146:../../../core/platform/octa/src/stm32l4xx_hal_timebase_tim.c **** /**
 147:../../../core/platform/octa/src/stm32l4xx_hal_timebase_tim.c ****   * @brief  Period elapsed callback in non blocking mode
 148:../../../core/platform/octa/src/stm32l4xx_hal_timebase_tim.c ****   * @note   This function is called  when TIM1 interrupt took place, inside
 149:../../../core/platform/octa/src/stm32l4xx_hal_timebase_tim.c ****   * HAL_TIM_IRQHandler(). It makes a direct call to HAL_IncTick() to increment
 150:../../../core/platform/octa/src/stm32l4xx_hal_timebase_tim.c ****   * a global variable "uwTick" used as application time base.
 151:../../../core/platform/octa/src/stm32l4xx_hal_timebase_tim.c ****   * @param  htim : TIM handle
 152:../../../core/platform/octa/src/stm32l4xx_hal_timebase_tim.c ****   * @retval None
 153:../../../core/platform/octa/src/stm32l4xx_hal_timebase_tim.c ****   */
 154:../../../core/platform/octa/src/stm32l4xx_hal_timebase_tim.c **** #if LOW_POWER!=2
 155:../../../core/platform/octa/src/stm32l4xx_hal_timebase_tim.c ****   void HAL_TIM_PeriodElapsedCallback(TIM_HandleTypeDef *htim)
 156:../../../core/platform/octa/src/stm32l4xx_hal_timebase_tim.c ****   {
 228              		.loc 1 156 3 is_stmt 1 view -0
 229              		.cfi_startproc
 230              		@ args = 0, pretend = 0, frame = 0
 231              		@ frame_needed = 0, uses_anonymous_args = 0
 232              		.loc 1 156 3 is_stmt 0 view .LVU49
 233 0000 08B5     		push	{r3, lr}
 234              	.LCFI4:
 235              		.cfi_def_cfa_offset 8
 236              		.cfi_offset 3, -8
 237              		.cfi_offset 14, -4
 157:../../../core/platform/octa/src/stm32l4xx_hal_timebase_tim.c ****     /* USER CODE BEGIN Callback 0 */
 158:../../../core/platform/octa/src/stm32l4xx_hal_timebase_tim.c **** 
 159:../../../core/platform/octa/src/stm32l4xx_hal_timebase_tim.c ****     /* USER CODE END Callback 0 */
 160:../../../core/platform/octa/src/stm32l4xx_hal_timebase_tim.c ****     if (htim->Instance == TIM1)
 238              		.loc 1 160 5 is_stmt 1 view .LVU50
 239              		.loc 1 160 13 is_stmt 0 view .LVU51
 240 0002 0268     		ldr	r2, [r0]
 241              		.loc 1 160 8 view .LVU52
 242 0004 034B     		ldr	r3, .L18
 243 0006 9A42     		cmp	r2, r3
 244 0008 00D0     		beq	.L17
ARM GAS  C:\Users\tijsv\AppData\Local\Temp\ccWfD2ke.s 			page 8


 245              	.LVL14:
 246              	.L14:
 161:../../../core/platform/octa/src/stm32l4xx_hal_timebase_tim.c ****     {
 162:../../../core/platform/octa/src/stm32l4xx_hal_timebase_tim.c ****       HAL_IncTick();
 163:../../../core/platform/octa/src/stm32l4xx_hal_timebase_tim.c ****     }
 164:../../../core/platform/octa/src/stm32l4xx_hal_timebase_tim.c ****     /* USER CODE BEGIN Callback 1 */
 165:../../../core/platform/octa/src/stm32l4xx_hal_timebase_tim.c **** 
 166:../../../core/platform/octa/src/stm32l4xx_hal_timebase_tim.c ****     /* USER CODE END Callback 1 */
 167:../../../core/platform/octa/src/stm32l4xx_hal_timebase_tim.c ****   }
 247              		.loc 1 167 3 view .LVU53
 248 000a 08BD     		pop	{r3, pc}
 249              	.LVL15:
 250              	.L17:
 162:../../../core/platform/octa/src/stm32l4xx_hal_timebase_tim.c ****     }
 251              		.loc 1 162 7 is_stmt 1 view .LVU54
 252 000c FFF7FEFF 		bl	HAL_IncTick
 253              	.LVL16:
 254              		.loc 1 167 3 is_stmt 0 view .LVU55
 255 0010 FBE7     		b	.L14
 256              	.L19:
 257 0012 00BF     		.align	2
 258              	.L18:
 259 0014 002C0140 		.word	1073818624
 260              		.cfi_endproc
 261              	.LFE126:
 263              		.comm	htim1,64,4
 264              		.text
 265              	.Letext0:
 266              		.file 2 "c:\\program files (x86)\\gnu tools arm embedded\\9 2019-q4-major\\arm-none-eabi\\include\
 267              		.file 3 "c:\\program files (x86)\\gnu tools arm embedded\\9 2019-q4-major\\arm-none-eabi\\include\
 268              		.file 4 "../../../core/ST/CMSIS/Include/core_cm4.h"
 269              		.file 5 "../../../core/ST/CMSIS/Device/ST/STM32L4xx/Include/system_stm32l4xx.h"
 270              		.file 6 "../../../core/ST/CMSIS/Device/ST/STM32L4xx/Include/stm32l496xx.h"
 271              		.file 7 "../../../core/ST/STM32L4xx_HAL_Driver/Inc/stm32l4xx_hal_def.h"
 272              		.file 8 "../../../core/ST/STM32L4xx_HAL_Driver/Inc/stm32l4xx_hal_rcc.h"
 273              		.file 9 "../../../core/ST/STM32L4xx_HAL_Driver/Inc/stm32l4xx_hal_dma.h"
 274              		.file 10 "../../../core/ST/STM32L4xx_HAL_Driver/Inc/stm32l4xx_hal_tim.h"
 275              		.file 11 "../../../core/ST/STM32L4xx_HAL_Driver/Inc/stm32l4xx_hal.h"
 276              		.file 12 "../../../core/ST/STM32L4xx_HAL_Driver/Inc/stm32l4xx_hal_cortex.h"
ARM GAS  C:\Users\tijsv\AppData\Local\Temp\ccWfD2ke.s 			page 9

