ARM GAS  C:\Users\tijsv\AppData\Local\Temp\ccV3w2qw.s 			page 1


   1              		.cpu cortex-m4
   2              		.eabi_attribute 27, 1
   3              		.eabi_attribute 28, 1
   4              		.eabi_attribute 20, 1
   5              		.eabi_attribute 21, 1
   6              		.eabi_attribute 23, 3
   7              		.eabi_attribute 24, 1
   8              		.eabi_attribute 25, 1
   9              		.eabi_attribute 26, 1
  10              		.eabi_attribute 30, 1
  11              		.eabi_attribute 34, 1
  12              		.eabi_attribute 18, 4
  13              		.file	"stm32l4xx_hal_crc_ex.c"
  14              		.text
  15              	.Ltext0:
  16              		.cfi_sections	.debug_frame
  17              		.section	.rodata.HAL_CRCEx_Polynomial_Set.str1.4,"aMS",%progbits,1
  18              		.align	2
  19              	.LC0:
  20 0000 2E2E2F2E 		.ascii	"../../../core/ST/STM32L4xx_HAL_Driver/Src/stm32l4xx"
  20      2E2F2E2E 
  20      2F636F72 
  20      652F5354 
  20      2F53544D 
  21 0033 5F68616C 		.ascii	"_hal_crc_ex.c\000"
  21      5F637263 
  21      5F65782E 
  21      6300
  22              		.section	.text.HAL_CRCEx_Polynomial_Set,"ax",%progbits
  23              		.align	1
  24              		.global	HAL_CRCEx_Polynomial_Set
  25              		.arch armv7e-m
  26              		.syntax unified
  27              		.thumb
  28              		.thumb_func
  29              		.fpu fpv4-sp-d16
  31              	HAL_CRCEx_Polynomial_Set:
  32              	.LVL0:
  33              	.LFB123:
  34              		.file 1 "../../../core/ST/STM32L4xx_HAL_Driver/Src/stm32l4xx_hal_crc_ex.c"
   1:../../../core/ST/STM32L4xx_HAL_Driver/Src/stm32l4xx_hal_crc_ex.c **** /**
   2:../../../core/ST/STM32L4xx_HAL_Driver/Src/stm32l4xx_hal_crc_ex.c ****   ******************************************************************************
   3:../../../core/ST/STM32L4xx_HAL_Driver/Src/stm32l4xx_hal_crc_ex.c ****   * @file    stm32l4xx_hal_crc_ex.c
   4:../../../core/ST/STM32L4xx_HAL_Driver/Src/stm32l4xx_hal_crc_ex.c ****   * @author  MCD Application Team
   5:../../../core/ST/STM32L4xx_HAL_Driver/Src/stm32l4xx_hal_crc_ex.c ****   * @brief   Extended CRC HAL module driver.
   6:../../../core/ST/STM32L4xx_HAL_Driver/Src/stm32l4xx_hal_crc_ex.c ****   *          This file provides firmware functions to manage the extended
   7:../../../core/ST/STM32L4xx_HAL_Driver/Src/stm32l4xx_hal_crc_ex.c ****   *          functionalities of the CRC peripheral.
   8:../../../core/ST/STM32L4xx_HAL_Driver/Src/stm32l4xx_hal_crc_ex.c ****   *
   9:../../../core/ST/STM32L4xx_HAL_Driver/Src/stm32l4xx_hal_crc_ex.c ****   @verbatim
  10:../../../core/ST/STM32L4xx_HAL_Driver/Src/stm32l4xx_hal_crc_ex.c **** ================================================================================
  11:../../../core/ST/STM32L4xx_HAL_Driver/Src/stm32l4xx_hal_crc_ex.c ****             ##### How to use this driver #####
  12:../../../core/ST/STM32L4xx_HAL_Driver/Src/stm32l4xx_hal_crc_ex.c **** ================================================================================
  13:../../../core/ST/STM32L4xx_HAL_Driver/Src/stm32l4xx_hal_crc_ex.c ****     [..]
  14:../../../core/ST/STM32L4xx_HAL_Driver/Src/stm32l4xx_hal_crc_ex.c ****          (+) Set user-defined generating polynomial thru HAL_CRCEx_Polynomial_Set()
  15:../../../core/ST/STM32L4xx_HAL_Driver/Src/stm32l4xx_hal_crc_ex.c ****          (+) Configure Input or Output data inversion
  16:../../../core/ST/STM32L4xx_HAL_Driver/Src/stm32l4xx_hal_crc_ex.c **** 
  17:../../../core/ST/STM32L4xx_HAL_Driver/Src/stm32l4xx_hal_crc_ex.c ****   @endverbatim
ARM GAS  C:\Users\tijsv\AppData\Local\Temp\ccV3w2qw.s 			page 2


  18:../../../core/ST/STM32L4xx_HAL_Driver/Src/stm32l4xx_hal_crc_ex.c ****   ******************************************************************************
  19:../../../core/ST/STM32L4xx_HAL_Driver/Src/stm32l4xx_hal_crc_ex.c ****   * @attention
  20:../../../core/ST/STM32L4xx_HAL_Driver/Src/stm32l4xx_hal_crc_ex.c ****   *
  21:../../../core/ST/STM32L4xx_HAL_Driver/Src/stm32l4xx_hal_crc_ex.c ****   * <h2><center>&copy; COPYRIGHT(c) 2017 STMicroelectronics</center></h2>
  22:../../../core/ST/STM32L4xx_HAL_Driver/Src/stm32l4xx_hal_crc_ex.c ****   *
  23:../../../core/ST/STM32L4xx_HAL_Driver/Src/stm32l4xx_hal_crc_ex.c ****   * Redistribution and use in source and binary forms, with or without modification,
  24:../../../core/ST/STM32L4xx_HAL_Driver/Src/stm32l4xx_hal_crc_ex.c ****   * are permitted provided that the following conditions are met:
  25:../../../core/ST/STM32L4xx_HAL_Driver/Src/stm32l4xx_hal_crc_ex.c ****   *   1. Redistributions of source code must retain the above copyright notice,
  26:../../../core/ST/STM32L4xx_HAL_Driver/Src/stm32l4xx_hal_crc_ex.c ****   *      this list of conditions and the following disclaimer.
  27:../../../core/ST/STM32L4xx_HAL_Driver/Src/stm32l4xx_hal_crc_ex.c ****   *   2. Redistributions in binary form must reproduce the above copyright notice,
  28:../../../core/ST/STM32L4xx_HAL_Driver/Src/stm32l4xx_hal_crc_ex.c ****   *      this list of conditions and the following disclaimer in the documentation
  29:../../../core/ST/STM32L4xx_HAL_Driver/Src/stm32l4xx_hal_crc_ex.c ****   *      and/or other materials provided with the distribution.
  30:../../../core/ST/STM32L4xx_HAL_Driver/Src/stm32l4xx_hal_crc_ex.c ****   *   3. Neither the name of STMicroelectronics nor the names of its contributors
  31:../../../core/ST/STM32L4xx_HAL_Driver/Src/stm32l4xx_hal_crc_ex.c ****   *      may be used to endorse or promote products derived from this software
  32:../../../core/ST/STM32L4xx_HAL_Driver/Src/stm32l4xx_hal_crc_ex.c ****   *      without specific prior written permission.
  33:../../../core/ST/STM32L4xx_HAL_Driver/Src/stm32l4xx_hal_crc_ex.c ****   *
  34:../../../core/ST/STM32L4xx_HAL_Driver/Src/stm32l4xx_hal_crc_ex.c ****   * THIS SOFTWARE IS PROVIDED BY THE COPYRIGHT HOLDERS AND CONTRIBUTORS "AS IS"
  35:../../../core/ST/STM32L4xx_HAL_Driver/Src/stm32l4xx_hal_crc_ex.c ****   * AND ANY EXPRESS OR IMPLIED WARRANTIES, INCLUDING, BUT NOT LIMITED TO, THE
  36:../../../core/ST/STM32L4xx_HAL_Driver/Src/stm32l4xx_hal_crc_ex.c ****   * IMPLIED WARRANTIES OF MERCHANTABILITY AND FITNESS FOR A PARTICULAR PURPOSE ARE
  37:../../../core/ST/STM32L4xx_HAL_Driver/Src/stm32l4xx_hal_crc_ex.c ****   * DISCLAIMED. IN NO EVENT SHALL THE COPYRIGHT HOLDER OR CONTRIBUTORS BE LIABLE
  38:../../../core/ST/STM32L4xx_HAL_Driver/Src/stm32l4xx_hal_crc_ex.c ****   * FOR ANY DIRECT, INDIRECT, INCIDENTAL, SPECIAL, EXEMPLARY, OR CONSEQUENTIAL
  39:../../../core/ST/STM32L4xx_HAL_Driver/Src/stm32l4xx_hal_crc_ex.c ****   * DAMAGES (INCLUDING, BUT NOT LIMITED TO, PROCUREMENT OF SUBSTITUTE GOODS OR
  40:../../../core/ST/STM32L4xx_HAL_Driver/Src/stm32l4xx_hal_crc_ex.c ****   * SERVICES; LOSS OF USE, DATA, OR PROFITS; OR BUSINESS INTERRUPTION) HOWEVER
  41:../../../core/ST/STM32L4xx_HAL_Driver/Src/stm32l4xx_hal_crc_ex.c ****   * CAUSED AND ON ANY THEORY OF LIABILITY, WHETHER IN CONTRACT, STRICT LIABILITY,
  42:../../../core/ST/STM32L4xx_HAL_Driver/Src/stm32l4xx_hal_crc_ex.c ****   * OR TORT (INCLUDING NEGLIGENCE OR OTHERWISE) ARISING IN ANY WAY OUT OF THE USE
  43:../../../core/ST/STM32L4xx_HAL_Driver/Src/stm32l4xx_hal_crc_ex.c ****   * OF THIS SOFTWARE, EVEN IF ADVISED OF THE POSSIBILITY OF SUCH DAMAGE.
  44:../../../core/ST/STM32L4xx_HAL_Driver/Src/stm32l4xx_hal_crc_ex.c ****   *
  45:../../../core/ST/STM32L4xx_HAL_Driver/Src/stm32l4xx_hal_crc_ex.c ****   ******************************************************************************
  46:../../../core/ST/STM32L4xx_HAL_Driver/Src/stm32l4xx_hal_crc_ex.c ****   */
  47:../../../core/ST/STM32L4xx_HAL_Driver/Src/stm32l4xx_hal_crc_ex.c **** 
  48:../../../core/ST/STM32L4xx_HAL_Driver/Src/stm32l4xx_hal_crc_ex.c **** /* Includes ------------------------------------------------------------------*/
  49:../../../core/ST/STM32L4xx_HAL_Driver/Src/stm32l4xx_hal_crc_ex.c **** #include "stm32l4xx_hal.h"
  50:../../../core/ST/STM32L4xx_HAL_Driver/Src/stm32l4xx_hal_crc_ex.c **** 
  51:../../../core/ST/STM32L4xx_HAL_Driver/Src/stm32l4xx_hal_crc_ex.c **** /** @addtogroup STM32L4xx_HAL_Driver
  52:../../../core/ST/STM32L4xx_HAL_Driver/Src/stm32l4xx_hal_crc_ex.c ****   * @{
  53:../../../core/ST/STM32L4xx_HAL_Driver/Src/stm32l4xx_hal_crc_ex.c ****   */
  54:../../../core/ST/STM32L4xx_HAL_Driver/Src/stm32l4xx_hal_crc_ex.c **** 
  55:../../../core/ST/STM32L4xx_HAL_Driver/Src/stm32l4xx_hal_crc_ex.c **** /** @defgroup CRCEx CRCEx
  56:../../../core/ST/STM32L4xx_HAL_Driver/Src/stm32l4xx_hal_crc_ex.c ****   * @brief CRC Extended HAL module driver
  57:../../../core/ST/STM32L4xx_HAL_Driver/Src/stm32l4xx_hal_crc_ex.c ****   * @{
  58:../../../core/ST/STM32L4xx_HAL_Driver/Src/stm32l4xx_hal_crc_ex.c ****   */
  59:../../../core/ST/STM32L4xx_HAL_Driver/Src/stm32l4xx_hal_crc_ex.c **** 
  60:../../../core/ST/STM32L4xx_HAL_Driver/Src/stm32l4xx_hal_crc_ex.c **** #ifdef HAL_CRC_MODULE_ENABLED
  61:../../../core/ST/STM32L4xx_HAL_Driver/Src/stm32l4xx_hal_crc_ex.c **** 
  62:../../../core/ST/STM32L4xx_HAL_Driver/Src/stm32l4xx_hal_crc_ex.c **** /* Private typedef -----------------------------------------------------------*/
  63:../../../core/ST/STM32L4xx_HAL_Driver/Src/stm32l4xx_hal_crc_ex.c **** /* Private define ------------------------------------------------------------*/
  64:../../../core/ST/STM32L4xx_HAL_Driver/Src/stm32l4xx_hal_crc_ex.c **** /* Private macro -------------------------------------------------------------*/
  65:../../../core/ST/STM32L4xx_HAL_Driver/Src/stm32l4xx_hal_crc_ex.c **** /* Private variables ---------------------------------------------------------*/
  66:../../../core/ST/STM32L4xx_HAL_Driver/Src/stm32l4xx_hal_crc_ex.c **** /* Private function prototypes -----------------------------------------------*/
  67:../../../core/ST/STM32L4xx_HAL_Driver/Src/stm32l4xx_hal_crc_ex.c **** /* Exported functions --------------------------------------------------------*/
  68:../../../core/ST/STM32L4xx_HAL_Driver/Src/stm32l4xx_hal_crc_ex.c **** 
  69:../../../core/ST/STM32L4xx_HAL_Driver/Src/stm32l4xx_hal_crc_ex.c **** /** @defgroup CRCEx_Exported_Functions CRC Extended Exported Functions
  70:../../../core/ST/STM32L4xx_HAL_Driver/Src/stm32l4xx_hal_crc_ex.c ****   * @{
  71:../../../core/ST/STM32L4xx_HAL_Driver/Src/stm32l4xx_hal_crc_ex.c ****   */
  72:../../../core/ST/STM32L4xx_HAL_Driver/Src/stm32l4xx_hal_crc_ex.c **** 
  73:../../../core/ST/STM32L4xx_HAL_Driver/Src/stm32l4xx_hal_crc_ex.c **** /** @defgroup CRCEx_Exported_Functions_Group1 Extended Initialization/de-initialization functions
  74:../../../core/ST/STM32L4xx_HAL_Driver/Src/stm32l4xx_hal_crc_ex.c ****   * @brief    Extended Initialization and Configuration functions.
ARM GAS  C:\Users\tijsv\AppData\Local\Temp\ccV3w2qw.s 			page 3


  75:../../../core/ST/STM32L4xx_HAL_Driver/Src/stm32l4xx_hal_crc_ex.c ****   *
  76:../../../core/ST/STM32L4xx_HAL_Driver/Src/stm32l4xx_hal_crc_ex.c **** @verbatim
  77:../../../core/ST/STM32L4xx_HAL_Driver/Src/stm32l4xx_hal_crc_ex.c ****  ===============================================================================
  78:../../../core/ST/STM32L4xx_HAL_Driver/Src/stm32l4xx_hal_crc_ex.c ****             ##### Extended configuration functions #####
  79:../../../core/ST/STM32L4xx_HAL_Driver/Src/stm32l4xx_hal_crc_ex.c ****  ===============================================================================
  80:../../../core/ST/STM32L4xx_HAL_Driver/Src/stm32l4xx_hal_crc_ex.c ****     [..]  This section provides functions allowing to:
  81:../../../core/ST/STM32L4xx_HAL_Driver/Src/stm32l4xx_hal_crc_ex.c ****       (+) Configure the generating polynomial
  82:../../../core/ST/STM32L4xx_HAL_Driver/Src/stm32l4xx_hal_crc_ex.c ****       (+) Configure the input data inversion
  83:../../../core/ST/STM32L4xx_HAL_Driver/Src/stm32l4xx_hal_crc_ex.c ****       (+) Configure the output data inversion
  84:../../../core/ST/STM32L4xx_HAL_Driver/Src/stm32l4xx_hal_crc_ex.c **** 
  85:../../../core/ST/STM32L4xx_HAL_Driver/Src/stm32l4xx_hal_crc_ex.c **** @endverbatim
  86:../../../core/ST/STM32L4xx_HAL_Driver/Src/stm32l4xx_hal_crc_ex.c ****   * @{
  87:../../../core/ST/STM32L4xx_HAL_Driver/Src/stm32l4xx_hal_crc_ex.c ****   */
  88:../../../core/ST/STM32L4xx_HAL_Driver/Src/stm32l4xx_hal_crc_ex.c **** 
  89:../../../core/ST/STM32L4xx_HAL_Driver/Src/stm32l4xx_hal_crc_ex.c **** 
  90:../../../core/ST/STM32L4xx_HAL_Driver/Src/stm32l4xx_hal_crc_ex.c **** /**
  91:../../../core/ST/STM32L4xx_HAL_Driver/Src/stm32l4xx_hal_crc_ex.c ****   * @brief  Initialize the CRC polynomial if different from default one.
  92:../../../core/ST/STM32L4xx_HAL_Driver/Src/stm32l4xx_hal_crc_ex.c ****   * @param  hcrc CRC handle
  93:../../../core/ST/STM32L4xx_HAL_Driver/Src/stm32l4xx_hal_crc_ex.c ****   * @param  Pol CRC generating polynomial (7, 8, 16 or 32-bit long).
  94:../../../core/ST/STM32L4xx_HAL_Driver/Src/stm32l4xx_hal_crc_ex.c ****   *         This parameter is written in normal representation, e.g.
  95:../../../core/ST/STM32L4xx_HAL_Driver/Src/stm32l4xx_hal_crc_ex.c ****   *         @arg for a polynomial of degree 7, X^7 + X^6 + X^5 + X^2 + 1 is written 0x65
  96:../../../core/ST/STM32L4xx_HAL_Driver/Src/stm32l4xx_hal_crc_ex.c ****   *         @arg for a polynomial of degree 16, X^16 + X^12 + X^5 + 1 is written 0x1021
  97:../../../core/ST/STM32L4xx_HAL_Driver/Src/stm32l4xx_hal_crc_ex.c ****   * @param  PolyLength CRC polynomial length.
  98:../../../core/ST/STM32L4xx_HAL_Driver/Src/stm32l4xx_hal_crc_ex.c ****   *         This parameter can be one of the following values:
  99:../../../core/ST/STM32L4xx_HAL_Driver/Src/stm32l4xx_hal_crc_ex.c ****   *          @arg @ref CRC_POLYLENGTH_7B  7-bit long CRC (generating polynomial of degree 7)
 100:../../../core/ST/STM32L4xx_HAL_Driver/Src/stm32l4xx_hal_crc_ex.c ****   *          @arg @ref CRC_POLYLENGTH_8B  8-bit long CRC (generating polynomial of degree 8)
 101:../../../core/ST/STM32L4xx_HAL_Driver/Src/stm32l4xx_hal_crc_ex.c ****   *          @arg @ref CRC_POLYLENGTH_16B 16-bit long CRC (generating polynomial of degree 16)
 102:../../../core/ST/STM32L4xx_HAL_Driver/Src/stm32l4xx_hal_crc_ex.c ****   *          @arg @ref CRC_POLYLENGTH_32B 32-bit long CRC (generating polynomial of degree 32)
 103:../../../core/ST/STM32L4xx_HAL_Driver/Src/stm32l4xx_hal_crc_ex.c ****   * @retval HAL status
 104:../../../core/ST/STM32L4xx_HAL_Driver/Src/stm32l4xx_hal_crc_ex.c ****   */
 105:../../../core/ST/STM32L4xx_HAL_Driver/Src/stm32l4xx_hal_crc_ex.c **** HAL_StatusTypeDef HAL_CRCEx_Polynomial_Set(CRC_HandleTypeDef *hcrc, uint32_t Pol, uint32_t PolyLeng
 106:../../../core/ST/STM32L4xx_HAL_Driver/Src/stm32l4xx_hal_crc_ex.c **** {
  35              		.loc 1 106 1 view -0
  36              		.cfi_startproc
  37              		@ args = 0, pretend = 0, frame = 0
  38              		@ frame_needed = 0, uses_anonymous_args = 0
  39              		.loc 1 106 1 is_stmt 0 view .LVU1
  40 0000 70B5     		push	{r4, r5, r6, lr}
  41              	.LCFI0:
  42              		.cfi_def_cfa_offset 16
  43              		.cfi_offset 4, -16
  44              		.cfi_offset 5, -12
  45              		.cfi_offset 6, -8
  46              		.cfi_offset 14, -4
  47 0002 0646     		mov	r6, r0
  48 0004 0D46     		mov	r5, r1
 107:../../../core/ST/STM32L4xx_HAL_Driver/Src/stm32l4xx_hal_crc_ex.c ****   HAL_StatusTypeDef status = HAL_OK;
  49              		.loc 1 107 3 is_stmt 1 view .LVU2
  50              	.LVL1:
 108:../../../core/ST/STM32L4xx_HAL_Driver/Src/stm32l4xx_hal_crc_ex.c ****   uint32_t msb = 31U; /* polynomial degree is 32 at most, so msb is initialized to max value */
  51              		.loc 1 108 3 view .LVU3
 109:../../../core/ST/STM32L4xx_HAL_Driver/Src/stm32l4xx_hal_crc_ex.c **** 
 110:../../../core/ST/STM32L4xx_HAL_Driver/Src/stm32l4xx_hal_crc_ex.c ****   /* Check the parameters */
 111:../../../core/ST/STM32L4xx_HAL_Driver/Src/stm32l4xx_hal_crc_ex.c ****   assert_param(IS_CRC_POL_LENGTH(PolyLength));
  52              		.loc 1 111 3 view .LVU4
  53 0006 1446     		mov	r4, r2
  54 0008 2AB1     		cbz	r2, .L2
ARM GAS  C:\Users\tijsv\AppData\Local\Temp\ccV3w2qw.s 			page 4


  55              		.loc 1 111 3 is_stmt 0 discriminator 1 view .LVU5
  56 000a 082A     		cmp	r2, #8
  57 000c 03D0     		beq	.L2
  58              		.loc 1 111 3 discriminator 2 view .LVU6
  59 000e 102A     		cmp	r2, #16
  60 0010 01D0     		beq	.L2
  61              		.loc 1 111 3 discriminator 3 view .LVU7
  62 0012 182A     		cmp	r2, #24
  63 0014 1BD1     		bne	.L16
  64              	.LVL2:
  65              	.L2:
 106:../../../core/ST/STM32L4xx_HAL_Driver/Src/stm32l4xx_hal_crc_ex.c ****   HAL_StatusTypeDef status = HAL_OK;
  66              		.loc 1 106 1 discriminator 2 view .LVU8
  67 0016 1F23     		movs	r3, #31
  68              	.LVL3:
  69              	.L4:
 112:../../../core/ST/STM32L4xx_HAL_Driver/Src/stm32l4xx_hal_crc_ex.c **** 
 113:../../../core/ST/STM32L4xx_HAL_Driver/Src/stm32l4xx_hal_crc_ex.c ****   /* check polynomial definition vs polynomial size:
 114:../../../core/ST/STM32L4xx_HAL_Driver/Src/stm32l4xx_hal_crc_ex.c ****    * polynomial length must be aligned with polynomial
 115:../../../core/ST/STM32L4xx_HAL_Driver/Src/stm32l4xx_hal_crc_ex.c ****    * definition. HAL_ERROR is reported if Pol degree is
 116:../../../core/ST/STM32L4xx_HAL_Driver/Src/stm32l4xx_hal_crc_ex.c ****    * larger than that indicated by PolyLength.
 117:../../../core/ST/STM32L4xx_HAL_Driver/Src/stm32l4xx_hal_crc_ex.c ****    * Look for MSB position: msb will contain the degree of
 118:../../../core/ST/STM32L4xx_HAL_Driver/Src/stm32l4xx_hal_crc_ex.c ****    *  the second to the largest polynomial member. E.g., for
 119:../../../core/ST/STM32L4xx_HAL_Driver/Src/stm32l4xx_hal_crc_ex.c ****    *  X^7 + X^6 + X^5 + X^2 + 1, msb = 6. */
 120:../../../core/ST/STM32L4xx_HAL_Driver/Src/stm32l4xx_hal_crc_ex.c ****   while ((msb-- > 0U) && ((Pol & ((uint32_t)(0x1U) << (msb & 0x1FU))) == 0U))
 121:../../../core/ST/STM32L4xx_HAL_Driver/Src/stm32l4xx_hal_crc_ex.c ****   {
 122:../../../core/ST/STM32L4xx_HAL_Driver/Src/stm32l4xx_hal_crc_ex.c ****   }
  70              		.loc 1 122 3 is_stmt 1 discriminator 2 view .LVU9
 120:../../../core/ST/STM32L4xx_HAL_Driver/Src/stm32l4xx_hal_crc_ex.c ****   {
  71              		.loc 1 120 9 discriminator 2 view .LVU10
  72 0018 1A46     		mov	r2, r3
 120:../../../core/ST/STM32L4xx_HAL_Driver/Src/stm32l4xx_hal_crc_ex.c ****   {
  73              		.loc 1 120 14 is_stmt 0 discriminator 2 view .LVU11
  74 001a 013B     		subs	r3, r3, #1
  75              	.LVL4:
 120:../../../core/ST/STM32L4xx_HAL_Driver/Src/stm32l4xx_hal_crc_ex.c ****   {
  76              		.loc 1 120 9 discriminator 2 view .LVU12
  77 001c 32B1     		cbz	r2, .L3
 120:../../../core/ST/STM32L4xx_HAL_Driver/Src/stm32l4xx_hal_crc_ex.c ****   {
  78              		.loc 1 120 60 discriminator 1 view .LVU13
  79 001e 03F01F02 		and	r2, r3, #31
 120:../../../core/ST/STM32L4xx_HAL_Driver/Src/stm32l4xx_hal_crc_ex.c ****   {
  80              		.loc 1 120 71 discriminator 1 view .LVU14
  81 0022 25FA02F2 		lsr	r2, r5, r2
 120:../../../core/ST/STM32L4xx_HAL_Driver/Src/stm32l4xx_hal_crc_ex.c ****   {
  82              		.loc 1 120 23 discriminator 1 view .LVU15
  83 0026 12F0010F 		tst	r2, #1
  84 002a F5D0     		beq	.L4
  85              	.L3:
 123:../../../core/ST/STM32L4xx_HAL_Driver/Src/stm32l4xx_hal_crc_ex.c **** 
 124:../../../core/ST/STM32L4xx_HAL_Driver/Src/stm32l4xx_hal_crc_ex.c ****   switch (PolyLength)
  86              		.loc 1 124 3 is_stmt 1 view .LVU16
  87 002c 182C     		cmp	r4, #24
  88 002e 27D8     		bhi	.L11
  89 0030 DFE804F0 		tbb	[pc, r4]
  90              	.L7:
  91 0034 14       		.byte	(.L10-.L7)/2
ARM GAS  C:\Users\tijsv\AppData\Local\Temp\ccV3w2qw.s 			page 5


  92 0035 26       		.byte	(.L11-.L7)/2
  93 0036 26       		.byte	(.L11-.L7)/2
  94 0037 26       		.byte	(.L11-.L7)/2
  95 0038 26       		.byte	(.L11-.L7)/2
  96 0039 26       		.byte	(.L11-.L7)/2
  97 003a 26       		.byte	(.L11-.L7)/2
  98 003b 26       		.byte	(.L11-.L7)/2
  99 003c 22       		.byte	(.L9-.L7)/2
 100 003d 26       		.byte	(.L11-.L7)/2
 101 003e 26       		.byte	(.L11-.L7)/2
 102 003f 26       		.byte	(.L11-.L7)/2
 103 0040 26       		.byte	(.L11-.L7)/2
 104 0041 26       		.byte	(.L11-.L7)/2
 105 0042 26       		.byte	(.L11-.L7)/2
 106 0043 26       		.byte	(.L11-.L7)/2
 107 0044 1E       		.byte	(.L8-.L7)/2
 108 0045 26       		.byte	(.L11-.L7)/2
 109 0046 26       		.byte	(.L11-.L7)/2
 110 0047 26       		.byte	(.L11-.L7)/2
 111 0048 26       		.byte	(.L11-.L7)/2
 112 0049 26       		.byte	(.L11-.L7)/2
 113 004a 26       		.byte	(.L11-.L7)/2
 114 004b 26       		.byte	(.L11-.L7)/2
 115 004c 12       		.byte	(.L6-.L7)/2
 116              	.LVL5:
 117 004d 00       		.p2align 1
 118              	.L16:
 111:../../../core/ST/STM32L4xx_HAL_Driver/Src/stm32l4xx_hal_crc_ex.c **** 
 119              		.loc 1 111 3 is_stmt 0 discriminator 4 view .LVU17
 120 004e 6F21     		movs	r1, #111
 121              	.LVL6:
 111:../../../core/ST/STM32L4xx_HAL_Driver/Src/stm32l4xx_hal_crc_ex.c **** 
 122              		.loc 1 111 3 discriminator 4 view .LVU18
 123 0050 0D48     		ldr	r0, .L17
 124              	.LVL7:
 111:../../../core/ST/STM32L4xx_HAL_Driver/Src/stm32l4xx_hal_crc_ex.c **** 
 125              		.loc 1 111 3 discriminator 4 view .LVU19
 126 0052 FFF7FEFF 		bl	assert_failed
 127              	.LVL8:
 111:../../../core/ST/STM32L4xx_HAL_Driver/Src/stm32l4xx_hal_crc_ex.c **** 
 128              		.loc 1 111 3 discriminator 4 view .LVU20
 129 0056 DEE7     		b	.L2
 130              	.LVL9:
 131              	.L6:
 125:../../../core/ST/STM32L4xx_HAL_Driver/Src/stm32l4xx_hal_crc_ex.c ****   {
 126:../../../core/ST/STM32L4xx_HAL_Driver/Src/stm32l4xx_hal_crc_ex.c ****     case CRC_POLYLENGTH_7B:
 127:../../../core/ST/STM32L4xx_HAL_Driver/Src/stm32l4xx_hal_crc_ex.c ****       if (msb >= HAL_CRC_LENGTH_7B)
 132              		.loc 1 127 7 is_stmt 1 view .LVU21
 133              		.loc 1 127 10 is_stmt 0 view .LVU22
 134 0058 062B     		cmp	r3, #6
 135 005a 13D8     		bhi	.L12
 136              	.L10:
 137              	.LVL10:
 128:../../../core/ST/STM32L4xx_HAL_Driver/Src/stm32l4xx_hal_crc_ex.c ****       {
 129:../../../core/ST/STM32L4xx_HAL_Driver/Src/stm32l4xx_hal_crc_ex.c ****         status =   HAL_ERROR;
 130:../../../core/ST/STM32L4xx_HAL_Driver/Src/stm32l4xx_hal_crc_ex.c ****       }
 131:../../../core/ST/STM32L4xx_HAL_Driver/Src/stm32l4xx_hal_crc_ex.c ****       break;
ARM GAS  C:\Users\tijsv\AppData\Local\Temp\ccV3w2qw.s 			page 6


 132:../../../core/ST/STM32L4xx_HAL_Driver/Src/stm32l4xx_hal_crc_ex.c ****     case CRC_POLYLENGTH_8B:
 133:../../../core/ST/STM32L4xx_HAL_Driver/Src/stm32l4xx_hal_crc_ex.c ****       if (msb >= HAL_CRC_LENGTH_8B)
 134:../../../core/ST/STM32L4xx_HAL_Driver/Src/stm32l4xx_hal_crc_ex.c ****       {
 135:../../../core/ST/STM32L4xx_HAL_Driver/Src/stm32l4xx_hal_crc_ex.c ****         status =   HAL_ERROR;
 136:../../../core/ST/STM32L4xx_HAL_Driver/Src/stm32l4xx_hal_crc_ex.c ****       }
 137:../../../core/ST/STM32L4xx_HAL_Driver/Src/stm32l4xx_hal_crc_ex.c ****       break;
 138:../../../core/ST/STM32L4xx_HAL_Driver/Src/stm32l4xx_hal_crc_ex.c ****     case CRC_POLYLENGTH_16B:
 139:../../../core/ST/STM32L4xx_HAL_Driver/Src/stm32l4xx_hal_crc_ex.c ****       if (msb >= HAL_CRC_LENGTH_16B)
 140:../../../core/ST/STM32L4xx_HAL_Driver/Src/stm32l4xx_hal_crc_ex.c ****       {
 141:../../../core/ST/STM32L4xx_HAL_Driver/Src/stm32l4xx_hal_crc_ex.c ****         status =   HAL_ERROR;
 142:../../../core/ST/STM32L4xx_HAL_Driver/Src/stm32l4xx_hal_crc_ex.c ****       }
 143:../../../core/ST/STM32L4xx_HAL_Driver/Src/stm32l4xx_hal_crc_ex.c ****       break;
 144:../../../core/ST/STM32L4xx_HAL_Driver/Src/stm32l4xx_hal_crc_ex.c **** 
 145:../../../core/ST/STM32L4xx_HAL_Driver/Src/stm32l4xx_hal_crc_ex.c ****     case CRC_POLYLENGTH_32B:
 146:../../../core/ST/STM32L4xx_HAL_Driver/Src/stm32l4xx_hal_crc_ex.c ****       /* no polynomial definition vs. polynomial length issue possible */
 147:../../../core/ST/STM32L4xx_HAL_Driver/Src/stm32l4xx_hal_crc_ex.c ****       break;
 148:../../../core/ST/STM32L4xx_HAL_Driver/Src/stm32l4xx_hal_crc_ex.c ****     default:
 149:../../../core/ST/STM32L4xx_HAL_Driver/Src/stm32l4xx_hal_crc_ex.c ****       status =  HAL_ERROR;
 150:../../../core/ST/STM32L4xx_HAL_Driver/Src/stm32l4xx_hal_crc_ex.c ****       break;
 151:../../../core/ST/STM32L4xx_HAL_Driver/Src/stm32l4xx_hal_crc_ex.c ****   }
 152:../../../core/ST/STM32L4xx_HAL_Driver/Src/stm32l4xx_hal_crc_ex.c ****   if (status == HAL_OK)
 153:../../../core/ST/STM32L4xx_HAL_Driver/Src/stm32l4xx_hal_crc_ex.c ****   {
 154:../../../core/ST/STM32L4xx_HAL_Driver/Src/stm32l4xx_hal_crc_ex.c ****     /* set generating polynomial */
 155:../../../core/ST/STM32L4xx_HAL_Driver/Src/stm32l4xx_hal_crc_ex.c ****     WRITE_REG(hcrc->Instance->POL, Pol);
 138              		.loc 1 155 5 is_stmt 1 view .LVU23
 139 005c 3368     		ldr	r3, [r6]
 140              	.LVL11:
 141              		.loc 1 155 5 is_stmt 0 view .LVU24
 142 005e 5D61     		str	r5, [r3, #20]
 156:../../../core/ST/STM32L4xx_HAL_Driver/Src/stm32l4xx_hal_crc_ex.c **** 
 157:../../../core/ST/STM32L4xx_HAL_Driver/Src/stm32l4xx_hal_crc_ex.c ****     /* set generating polynomial size */
 158:../../../core/ST/STM32L4xx_HAL_Driver/Src/stm32l4xx_hal_crc_ex.c ****     MODIFY_REG(hcrc->Instance->CR, CRC_CR_POLYSIZE, PolyLength);
 143              		.loc 1 158 5 is_stmt 1 view .LVU25
 144 0060 3268     		ldr	r2, [r6]
 145 0062 9368     		ldr	r3, [r2, #8]
 146 0064 23F01803 		bic	r3, r3, #24
 147 0068 1C43     		orrs	r4, r4, r3
 148              	.LVL12:
 149              		.loc 1 158 5 is_stmt 0 view .LVU26
 150 006a 9460     		str	r4, [r2, #8]
 151 006c 0020     		movs	r0, #0
 152              	.L5:
 159:../../../core/ST/STM32L4xx_HAL_Driver/Src/stm32l4xx_hal_crc_ex.c ****   }
 160:../../../core/ST/STM32L4xx_HAL_Driver/Src/stm32l4xx_hal_crc_ex.c ****   /* Return function status */
 161:../../../core/ST/STM32L4xx_HAL_Driver/Src/stm32l4xx_hal_crc_ex.c ****   return status;
 153              		.loc 1 161 3 is_stmt 1 view .LVU27
 162:../../../core/ST/STM32L4xx_HAL_Driver/Src/stm32l4xx_hal_crc_ex.c **** }
 154              		.loc 1 162 1 is_stmt 0 view .LVU28
 155 006e 70BD     		pop	{r4, r5, r6, pc}
 156              	.LVL13:
 157              	.L8:
 133:../../../core/ST/STM32L4xx_HAL_Driver/Src/stm32l4xx_hal_crc_ex.c ****       {
 158              		.loc 1 133 7 is_stmt 1 view .LVU29
 133:../../../core/ST/STM32L4xx_HAL_Driver/Src/stm32l4xx_hal_crc_ex.c ****       {
 159              		.loc 1 133 10 is_stmt 0 view .LVU30
 160 0070 072B     		cmp	r3, #7
 161 0072 F3D9     		bls	.L10
ARM GAS  C:\Users\tijsv\AppData\Local\Temp\ccV3w2qw.s 			page 7


 135:../../../core/ST/STM32L4xx_HAL_Driver/Src/stm32l4xx_hal_crc_ex.c ****       }
 162              		.loc 1 135 16 view .LVU31
 163 0074 0120     		movs	r0, #1
 164 0076 FAE7     		b	.L5
 165              	.L9:
 139:../../../core/ST/STM32L4xx_HAL_Driver/Src/stm32l4xx_hal_crc_ex.c ****       {
 166              		.loc 1 139 7 is_stmt 1 view .LVU32
 139:../../../core/ST/STM32L4xx_HAL_Driver/Src/stm32l4xx_hal_crc_ex.c ****       {
 167              		.loc 1 139 10 is_stmt 0 view .LVU33
 168 0078 0F2B     		cmp	r3, #15
 169 007a EFD9     		bls	.L10
 141:../../../core/ST/STM32L4xx_HAL_Driver/Src/stm32l4xx_hal_crc_ex.c ****       }
 170              		.loc 1 141 16 view .LVU34
 171 007c 0120     		movs	r0, #1
 172 007e F6E7     		b	.L5
 173              	.L11:
 158:../../../core/ST/STM32L4xx_HAL_Driver/Src/stm32l4xx_hal_crc_ex.c ****   }
 174              		.loc 1 158 5 view .LVU35
 175 0080 0120     		movs	r0, #1
 176 0082 F4E7     		b	.L5
 177              	.L12:
 129:../../../core/ST/STM32L4xx_HAL_Driver/Src/stm32l4xx_hal_crc_ex.c ****       }
 178              		.loc 1 129 16 view .LVU36
 179 0084 0120     		movs	r0, #1
 180 0086 F2E7     		b	.L5
 181              	.L18:
 182              		.align	2
 183              	.L17:
 184 0088 00000000 		.word	.LC0
 185              		.cfi_endproc
 186              	.LFE123:
 188              		.section	.text.HAL_CRCEx_Input_Data_Reverse,"ax",%progbits
 189              		.align	1
 190              		.global	HAL_CRCEx_Input_Data_Reverse
 191              		.syntax unified
 192              		.thumb
 193              		.thumb_func
 194              		.fpu fpv4-sp-d16
 196              	HAL_CRCEx_Input_Data_Reverse:
 197              	.LVL14:
 198              	.LFB124:
 163:../../../core/ST/STM32L4xx_HAL_Driver/Src/stm32l4xx_hal_crc_ex.c **** 
 164:../../../core/ST/STM32L4xx_HAL_Driver/Src/stm32l4xx_hal_crc_ex.c **** /**
 165:../../../core/ST/STM32L4xx_HAL_Driver/Src/stm32l4xx_hal_crc_ex.c ****   * @brief  Set the Reverse Input data mode.
 166:../../../core/ST/STM32L4xx_HAL_Driver/Src/stm32l4xx_hal_crc_ex.c ****   * @param  hcrc CRC handle
 167:../../../core/ST/STM32L4xx_HAL_Driver/Src/stm32l4xx_hal_crc_ex.c ****   * @param  InputReverseMode Input Data inversion mode.
 168:../../../core/ST/STM32L4xx_HAL_Driver/Src/stm32l4xx_hal_crc_ex.c ****   *         This parameter can be one of the following values:
 169:../../../core/ST/STM32L4xx_HAL_Driver/Src/stm32l4xx_hal_crc_ex.c ****   *          @arg @ref CRC_INPUTDATA_INVERSION_NONE     no change in bit order (default value)
 170:../../../core/ST/STM32L4xx_HAL_Driver/Src/stm32l4xx_hal_crc_ex.c ****   *          @arg @ref CRC_INPUTDATA_INVERSION_BYTE     Byte-wise bit reversal
 171:../../../core/ST/STM32L4xx_HAL_Driver/Src/stm32l4xx_hal_crc_ex.c ****   *          @arg @ref CRC_INPUTDATA_INVERSION_HALFWORD HalfWord-wise bit reversal
 172:../../../core/ST/STM32L4xx_HAL_Driver/Src/stm32l4xx_hal_crc_ex.c ****   *          @arg @ref CRC_INPUTDATA_INVERSION_WORD     Word-wise bit reversal
 173:../../../core/ST/STM32L4xx_HAL_Driver/Src/stm32l4xx_hal_crc_ex.c ****   * @retval HAL status
 174:../../../core/ST/STM32L4xx_HAL_Driver/Src/stm32l4xx_hal_crc_ex.c ****   */
 175:../../../core/ST/STM32L4xx_HAL_Driver/Src/stm32l4xx_hal_crc_ex.c **** HAL_StatusTypeDef HAL_CRCEx_Input_Data_Reverse(CRC_HandleTypeDef *hcrc, uint32_t InputReverseMode)
 176:../../../core/ST/STM32L4xx_HAL_Driver/Src/stm32l4xx_hal_crc_ex.c **** {
 199              		.loc 1 176 1 is_stmt 1 view -0
 200              		.cfi_startproc
ARM GAS  C:\Users\tijsv\AppData\Local\Temp\ccV3w2qw.s 			page 8


 201              		@ args = 0, pretend = 0, frame = 0
 202              		@ frame_needed = 0, uses_anonymous_args = 0
 203              		.loc 1 176 1 is_stmt 0 view .LVU38
 204 0000 38B5     		push	{r3, r4, r5, lr}
 205              	.LCFI1:
 206              		.cfi_def_cfa_offset 16
 207              		.cfi_offset 3, -16
 208              		.cfi_offset 4, -12
 209              		.cfi_offset 5, -8
 210              		.cfi_offset 14, -4
 211 0002 0446     		mov	r4, r0
 177:../../../core/ST/STM32L4xx_HAL_Driver/Src/stm32l4xx_hal_crc_ex.c ****   /* Check the parameters */
 178:../../../core/ST/STM32L4xx_HAL_Driver/Src/stm32l4xx_hal_crc_ex.c ****   assert_param(IS_CRC_INPUTDATA_INVERSION_MODE(InputReverseMode));
 212              		.loc 1 178 3 is_stmt 1 view .LVU39
 213 0004 0D46     		mov	r5, r1
 214 0006 29B1     		cbz	r1, .L20
 215              		.loc 1 178 3 is_stmt 0 discriminator 1 view .LVU40
 216 0008 2029     		cmp	r1, #32
 217 000a 03D0     		beq	.L20
 218              		.loc 1 178 3 discriminator 2 view .LVU41
 219 000c 4029     		cmp	r1, #64
 220 000e 01D0     		beq	.L20
 221              		.loc 1 178 3 discriminator 3 view .LVU42
 222 0010 6029     		cmp	r1, #96
 223 0012 0BD1     		bne	.L22
 224              	.LVL15:
 225              	.L20:
 179:../../../core/ST/STM32L4xx_HAL_Driver/Src/stm32l4xx_hal_crc_ex.c **** 
 180:../../../core/ST/STM32L4xx_HAL_Driver/Src/stm32l4xx_hal_crc_ex.c ****   /* Change CRC peripheral state */
 181:../../../core/ST/STM32L4xx_HAL_Driver/Src/stm32l4xx_hal_crc_ex.c ****   hcrc->State = HAL_CRC_STATE_BUSY;
 226              		.loc 1 181 3 is_stmt 1 view .LVU43
 227              		.loc 1 181 15 is_stmt 0 view .LVU44
 228 0014 0223     		movs	r3, #2
 229 0016 6377     		strb	r3, [r4, #29]
 182:../../../core/ST/STM32L4xx_HAL_Driver/Src/stm32l4xx_hal_crc_ex.c **** 
 183:../../../core/ST/STM32L4xx_HAL_Driver/Src/stm32l4xx_hal_crc_ex.c ****   /* set input data inversion mode */
 184:../../../core/ST/STM32L4xx_HAL_Driver/Src/stm32l4xx_hal_crc_ex.c ****   MODIFY_REG(hcrc->Instance->CR, CRC_CR_REV_IN, InputReverseMode);
 230              		.loc 1 184 3 is_stmt 1 view .LVU45
 231 0018 2268     		ldr	r2, [r4]
 232 001a 9368     		ldr	r3, [r2, #8]
 233 001c 23F06003 		bic	r3, r3, #96
 234 0020 2B43     		orrs	r3, r3, r5
 235 0022 9360     		str	r3, [r2, #8]
 185:../../../core/ST/STM32L4xx_HAL_Driver/Src/stm32l4xx_hal_crc_ex.c ****   /* Change CRC peripheral state */
 186:../../../core/ST/STM32L4xx_HAL_Driver/Src/stm32l4xx_hal_crc_ex.c ****   hcrc->State = HAL_CRC_STATE_READY;
 236              		.loc 1 186 3 view .LVU46
 237              		.loc 1 186 15 is_stmt 0 view .LVU47
 238 0024 0123     		movs	r3, #1
 239 0026 6377     		strb	r3, [r4, #29]
 187:../../../core/ST/STM32L4xx_HAL_Driver/Src/stm32l4xx_hal_crc_ex.c **** 
 188:../../../core/ST/STM32L4xx_HAL_Driver/Src/stm32l4xx_hal_crc_ex.c ****   /* Return function status */
 189:../../../core/ST/STM32L4xx_HAL_Driver/Src/stm32l4xx_hal_crc_ex.c ****   return HAL_OK;
 240              		.loc 1 189 3 is_stmt 1 view .LVU48
 190:../../../core/ST/STM32L4xx_HAL_Driver/Src/stm32l4xx_hal_crc_ex.c **** }
 241              		.loc 1 190 1 is_stmt 0 view .LVU49
 242 0028 0020     		movs	r0, #0
 243 002a 38BD     		pop	{r3, r4, r5, pc}
ARM GAS  C:\Users\tijsv\AppData\Local\Temp\ccV3w2qw.s 			page 9


 244              	.LVL16:
 245              	.L22:
 178:../../../core/ST/STM32L4xx_HAL_Driver/Src/stm32l4xx_hal_crc_ex.c **** 
 246              		.loc 1 178 3 discriminator 4 view .LVU50
 247 002c B221     		movs	r1, #178
 248              	.LVL17:
 178:../../../core/ST/STM32L4xx_HAL_Driver/Src/stm32l4xx_hal_crc_ex.c **** 
 249              		.loc 1 178 3 discriminator 4 view .LVU51
 250 002e 0248     		ldr	r0, .L23
 251              	.LVL18:
 178:../../../core/ST/STM32L4xx_HAL_Driver/Src/stm32l4xx_hal_crc_ex.c **** 
 252              		.loc 1 178 3 discriminator 4 view .LVU52
 253 0030 FFF7FEFF 		bl	assert_failed
 254              	.LVL19:
 255 0034 EEE7     		b	.L20
 256              	.L24:
 257 0036 00BF     		.align	2
 258              	.L23:
 259 0038 00000000 		.word	.LC0
 260              		.cfi_endproc
 261              	.LFE124:
 263              		.section	.text.HAL_CRCEx_Output_Data_Reverse,"ax",%progbits
 264              		.align	1
 265              		.global	HAL_CRCEx_Output_Data_Reverse
 266              		.syntax unified
 267              		.thumb
 268              		.thumb_func
 269              		.fpu fpv4-sp-d16
 271              	HAL_CRCEx_Output_Data_Reverse:
 272              	.LVL20:
 273              	.LFB125:
 191:../../../core/ST/STM32L4xx_HAL_Driver/Src/stm32l4xx_hal_crc_ex.c **** 
 192:../../../core/ST/STM32L4xx_HAL_Driver/Src/stm32l4xx_hal_crc_ex.c **** /**
 193:../../../core/ST/STM32L4xx_HAL_Driver/Src/stm32l4xx_hal_crc_ex.c ****   * @brief  Set the Reverse Output data mode.
 194:../../../core/ST/STM32L4xx_HAL_Driver/Src/stm32l4xx_hal_crc_ex.c ****   * @param  hcrc CRC handle
 195:../../../core/ST/STM32L4xx_HAL_Driver/Src/stm32l4xx_hal_crc_ex.c ****   * @param  OutputReverseMode Output Data inversion mode.
 196:../../../core/ST/STM32L4xx_HAL_Driver/Src/stm32l4xx_hal_crc_ex.c ****   *         This parameter can be one of the following values:
 197:../../../core/ST/STM32L4xx_HAL_Driver/Src/stm32l4xx_hal_crc_ex.c ****   *          @arg @ref CRC_OUTPUTDATA_INVERSION_DISABLE no CRC inversion (default value)
 198:../../../core/ST/STM32L4xx_HAL_Driver/Src/stm32l4xx_hal_crc_ex.c ****   *          @arg @ref CRC_OUTPUTDATA_INVERSION_ENABLE  bit-level inversion (e.g. for a 8-bit CRC: 
 199:../../../core/ST/STM32L4xx_HAL_Driver/Src/stm32l4xx_hal_crc_ex.c ****   * @retval HAL status
 200:../../../core/ST/STM32L4xx_HAL_Driver/Src/stm32l4xx_hal_crc_ex.c ****   */
 201:../../../core/ST/STM32L4xx_HAL_Driver/Src/stm32l4xx_hal_crc_ex.c **** HAL_StatusTypeDef HAL_CRCEx_Output_Data_Reverse(CRC_HandleTypeDef *hcrc, uint32_t OutputReverseMode
 202:../../../core/ST/STM32L4xx_HAL_Driver/Src/stm32l4xx_hal_crc_ex.c **** {
 274              		.loc 1 202 1 is_stmt 1 view -0
 275              		.cfi_startproc
 276              		@ args = 0, pretend = 0, frame = 0
 277              		@ frame_needed = 0, uses_anonymous_args = 0
 278              		.loc 1 202 1 is_stmt 0 view .LVU54
 279 0000 38B5     		push	{r3, r4, r5, lr}
 280              	.LCFI2:
 281              		.cfi_def_cfa_offset 16
 282              		.cfi_offset 3, -16
 283              		.cfi_offset 4, -12
 284              		.cfi_offset 5, -8
 285              		.cfi_offset 14, -4
 286 0002 0446     		mov	r4, r0
 203:../../../core/ST/STM32L4xx_HAL_Driver/Src/stm32l4xx_hal_crc_ex.c ****   /* Check the parameters */
ARM GAS  C:\Users\tijsv\AppData\Local\Temp\ccV3w2qw.s 			page 10


 204:../../../core/ST/STM32L4xx_HAL_Driver/Src/stm32l4xx_hal_crc_ex.c ****   assert_param(IS_CRC_OUTPUTDATA_INVERSION_MODE(OutputReverseMode));
 287              		.loc 1 204 3 is_stmt 1 view .LVU55
 288 0004 0D46     		mov	r5, r1
 289 0006 09B1     		cbz	r1, .L26
 290              		.loc 1 204 3 is_stmt 0 discriminator 1 view .LVU56
 291 0008 8029     		cmp	r1, #128
 292 000a 0BD1     		bne	.L28
 293              	.LVL21:
 294              	.L26:
 205:../../../core/ST/STM32L4xx_HAL_Driver/Src/stm32l4xx_hal_crc_ex.c **** 
 206:../../../core/ST/STM32L4xx_HAL_Driver/Src/stm32l4xx_hal_crc_ex.c ****   /* Change CRC peripheral state */
 207:../../../core/ST/STM32L4xx_HAL_Driver/Src/stm32l4xx_hal_crc_ex.c ****   hcrc->State = HAL_CRC_STATE_BUSY;
 295              		.loc 1 207 3 is_stmt 1 view .LVU57
 296              		.loc 1 207 15 is_stmt 0 view .LVU58
 297 000c 0223     		movs	r3, #2
 298 000e 6377     		strb	r3, [r4, #29]
 208:../../../core/ST/STM32L4xx_HAL_Driver/Src/stm32l4xx_hal_crc_ex.c **** 
 209:../../../core/ST/STM32L4xx_HAL_Driver/Src/stm32l4xx_hal_crc_ex.c ****   /* set output data inversion mode */
 210:../../../core/ST/STM32L4xx_HAL_Driver/Src/stm32l4xx_hal_crc_ex.c ****   MODIFY_REG(hcrc->Instance->CR, CRC_CR_REV_OUT, OutputReverseMode);
 299              		.loc 1 210 3 is_stmt 1 view .LVU59
 300 0010 2268     		ldr	r2, [r4]
 301 0012 9368     		ldr	r3, [r2, #8]
 302 0014 23F08003 		bic	r3, r3, #128
 303 0018 2B43     		orrs	r3, r3, r5
 304 001a 9360     		str	r3, [r2, #8]
 211:../../../core/ST/STM32L4xx_HAL_Driver/Src/stm32l4xx_hal_crc_ex.c **** 
 212:../../../core/ST/STM32L4xx_HAL_Driver/Src/stm32l4xx_hal_crc_ex.c ****   /* Change CRC peripheral state */
 213:../../../core/ST/STM32L4xx_HAL_Driver/Src/stm32l4xx_hal_crc_ex.c ****   hcrc->State = HAL_CRC_STATE_READY;
 305              		.loc 1 213 3 view .LVU60
 306              		.loc 1 213 15 is_stmt 0 view .LVU61
 307 001c 0123     		movs	r3, #1
 308 001e 6377     		strb	r3, [r4, #29]
 214:../../../core/ST/STM32L4xx_HAL_Driver/Src/stm32l4xx_hal_crc_ex.c **** 
 215:../../../core/ST/STM32L4xx_HAL_Driver/Src/stm32l4xx_hal_crc_ex.c ****   /* Return function status */
 216:../../../core/ST/STM32L4xx_HAL_Driver/Src/stm32l4xx_hal_crc_ex.c ****   return HAL_OK;
 309              		.loc 1 216 3 is_stmt 1 view .LVU62
 217:../../../core/ST/STM32L4xx_HAL_Driver/Src/stm32l4xx_hal_crc_ex.c **** }
 310              		.loc 1 217 1 is_stmt 0 view .LVU63
 311 0020 0020     		movs	r0, #0
 312 0022 38BD     		pop	{r3, r4, r5, pc}
 313              	.LVL22:
 314              	.L28:
 204:../../../core/ST/STM32L4xx_HAL_Driver/Src/stm32l4xx_hal_crc_ex.c **** 
 315              		.loc 1 204 3 discriminator 2 view .LVU64
 316 0024 CC21     		movs	r1, #204
 317              	.LVL23:
 204:../../../core/ST/STM32L4xx_HAL_Driver/Src/stm32l4xx_hal_crc_ex.c **** 
 318              		.loc 1 204 3 discriminator 2 view .LVU65
 319 0026 0248     		ldr	r0, .L29
 320              	.LVL24:
 204:../../../core/ST/STM32L4xx_HAL_Driver/Src/stm32l4xx_hal_crc_ex.c **** 
 321              		.loc 1 204 3 discriminator 2 view .LVU66
 322 0028 FFF7FEFF 		bl	assert_failed
 323              	.LVL25:
 324 002c EEE7     		b	.L26
 325              	.L30:
 326 002e 00BF     		.align	2
ARM GAS  C:\Users\tijsv\AppData\Local\Temp\ccV3w2qw.s 			page 11


 327              	.L29:
 328 0030 00000000 		.word	.LC0
 329              		.cfi_endproc
 330              	.LFE125:
 332              		.text
 333              	.Letext0:
 334              		.file 2 "c:\\program files (x86)\\gnu tools arm embedded\\9 2019-q4-major\\arm-none-eabi\\include\
 335              		.file 3 "c:\\program files (x86)\\gnu tools arm embedded\\9 2019-q4-major\\arm-none-eabi\\include\
 336              		.file 4 "../../../core/ST/CMSIS/Include/core_cm4.h"
 337              		.file 5 "../../../core/ST/CMSIS/Device/ST/STM32L4xx/Include/system_stm32l4xx.h"
 338              		.file 6 "../../../core/ST/CMSIS/Device/ST/STM32L4xx/Include/stm32l496xx.h"
 339              		.file 7 "../../../core/ST/STM32L4xx_HAL_Driver/Inc/stm32l4xx_hal_def.h"
 340              		.file 8 "../../../core/ST/STM32L4xx_HAL_Driver/Inc/stm32l4xx_hal_crc.h"
 341              		.file 9 "../../../core/ST/STM32L4xx_HAL_Driver/Inc/stm32l4xx_hal.h"
 342              		.file 10 "../../../core/platform/octa/inc/stm32l4xx_hal_conf.h"
ARM GAS  C:\Users\tijsv\AppData\Local\Temp\ccV3w2qw.s 			page 12

